
LCV.elf:     file format elf32-littlearm

Sections:
Idx Name          Size      VMA       LMA       File off  Algn
  0 .text         0000bb00  00000000  00000000  00010000  2**4
                  CONTENTS, ALLOC, LOAD, READONLY, CODE
  1 .ARM.exidx    00000008  0000bb00  0000bb00  0001bb00  2**2
                  CONTENTS, ALLOC, LOAD, READONLY, DATA
  2 .relocate     0000012c  20000000  0000bb08  00020000  2**2
                  CONTENTS, ALLOC, LOAD, CODE
  3 .bss          00003e70  2000012c  0000bc34  0002012c  2**2
                  ALLOC
  4 .stack        00002004  20003f9c  0000faa4  0002012c  2**0
                  ALLOC
  5 .ARM.attributes 00000028  00000000  00000000  0002012c  2**0
                  CONTENTS, READONLY
  6 .comment      00000059  00000000  00000000  00020154  2**0
                  CONTENTS, READONLY
  7 .debug_frame  000008c0  00000000  00000000  000201b0  2**2
                  CONTENTS, READONLY, DEBUGGING

Disassembly of section .text:

00000000 <exception_table>:
       0:	a0 5f 00 20 cd 7a 00 00 8f 7c 00 00 8d 7c 00 00     ._. .z...|...|..
	...
      2c:	c5 32 00 00 00 00 00 00 00 00 00 00 91 33 00 00     .2...........3..
      3c:	d5 33 00 00 c9 7a 00 00 c9 7a 00 00 2d 68 00 00     .3...z...z..-h..
      4c:	c9 7a 00 00 71 12 00 00 c9 7a 00 00 c9 7a 00 00     .z..q....z...z..
      5c:	a1 2a 00 00 c9 7a 00 00 39 70 00 00 49 70 00 00     .*...z..9p..Ip..
      6c:	59 70 00 00 69 70 00 00 79 70 00 00 89 70 00 00     Yp..ip..yp...p..
      7c:	c9 7a 00 00 c9 7a 00 00 c9 7a 00 00 c9 7a 00 00     .z...z...z...z..
      8c:	c9 7a 00 00 c9 7a 00 00 00 00 00 00 00 00 00 00     .z...z..........
      9c:	a9 0f 00 00 c9 7a 00 00 ed 11 00 00 c9 7a 00 00     .....z.......z..
      ac:	c9 7a 00 00 00 00 00 00                             .z......

000000b4 <__do_global_dtors_aux>:
      b4:	b510      	push	{r4, lr}
      b6:	4c06      	ldr	r4, [pc, #24]	; (d0 <__do_global_dtors_aux+0x1c>)
      b8:	7823      	ldrb	r3, [r4, #0]
      ba:	2b00      	cmp	r3, #0
      bc:	d107      	bne.n	ce <__do_global_dtors_aux+0x1a>
      be:	4b05      	ldr	r3, [pc, #20]	; (d4 <__do_global_dtors_aux+0x20>)
      c0:	2b00      	cmp	r3, #0
      c2:	d002      	beq.n	ca <__do_global_dtors_aux+0x16>
      c4:	4804      	ldr	r0, [pc, #16]	; (d8 <__do_global_dtors_aux+0x24>)
      c6:	e000      	b.n	ca <__do_global_dtors_aux+0x16>
      c8:	bf00      	nop
      ca:	2301      	movs	r3, #1
      cc:	7023      	strb	r3, [r4, #0]
      ce:	bd10      	pop	{r4, pc}
      d0:	2000012c 	.word	0x2000012c
      d4:	00000000 	.word	0x00000000
      d8:	0000bb08 	.word	0x0000bb08

000000dc <frame_dummy>:
      dc:	4b08      	ldr	r3, [pc, #32]	; (100 <frame_dummy+0x24>)
      de:	b510      	push	{r4, lr}
      e0:	2b00      	cmp	r3, #0
      e2:	d003      	beq.n	ec <frame_dummy+0x10>
      e4:	4907      	ldr	r1, [pc, #28]	; (104 <frame_dummy+0x28>)
      e6:	4808      	ldr	r0, [pc, #32]	; (108 <frame_dummy+0x2c>)
      e8:	e000      	b.n	ec <frame_dummy+0x10>
      ea:	bf00      	nop
      ec:	4807      	ldr	r0, [pc, #28]	; (10c <frame_dummy+0x30>)
      ee:	6803      	ldr	r3, [r0, #0]
      f0:	2b00      	cmp	r3, #0
      f2:	d100      	bne.n	f6 <frame_dummy+0x1a>
      f4:	bd10      	pop	{r4, pc}
      f6:	4b06      	ldr	r3, [pc, #24]	; (110 <frame_dummy+0x34>)
      f8:	2b00      	cmp	r3, #0
      fa:	d0fb      	beq.n	f4 <frame_dummy+0x18>
      fc:	4798      	blx	r3
      fe:	e7f9      	b.n	f4 <frame_dummy+0x18>
     100:	00000000 	.word	0x00000000
     104:	20000130 	.word	0x20000130
     108:	0000bb08 	.word	0x0000bb08
     10c:	0000bb08 	.word	0x0000bb08
     110:	00000000 	.word	0x00000000

00000114 <cpu_irq_save>:
     114:	b082      	sub	sp, #8
     116:	f3ef 8310 	mrs	r3, PRIMASK
     11a:	425a      	negs	r2, r3
     11c:	4153      	adcs	r3, r2
     11e:	9301      	str	r3, [sp, #4]
     120:	b672      	cpsid	i
     122:	f3bf 8f5f 	dmb	sy
     126:	2200      	movs	r2, #0
     128:	4b02      	ldr	r3, [pc, #8]	; (134 <cpu_irq_save+0x20>)
     12a:	701a      	strb	r2, [r3, #0]
     12c:	9801      	ldr	r0, [sp, #4]
     12e:	b002      	add	sp, #8
     130:	4770      	bx	lr
     132:	46c0      	nop			; (mov r8, r8)
     134:	200000c6 	.word	0x200000c6

00000138 <udi_cdc_comm_disable>:
     138:	4a02      	ldr	r2, [pc, #8]	; (144 <udi_cdc_comm_disable+0xc>)
     13a:	7813      	ldrb	r3, [r2, #0]
     13c:	3b01      	subs	r3, #1
     13e:	b2db      	uxtb	r3, r3
     140:	7013      	strb	r3, [r2, #0]
     142:	4770      	bx	lr
     144:	20000153 	.word	0x20000153

00000148 <udi_cdc_data_setup>:
     148:	2000      	movs	r0, #0
     14a:	4770      	bx	lr

0000014c <udi_cdc_getsetting>:
     14c:	2000      	movs	r0, #0
     14e:	4770      	bx	lr

00000150 <udi_cdc_line_coding_received>:
     150:	4770      	bx	lr
	...

00000154 <udi_cdc_data_disable>:
     154:	b510      	push	{r4, lr}
     156:	4a06      	ldr	r2, [pc, #24]	; (170 <udi_cdc_data_disable+0x1c>)
     158:	7813      	ldrb	r3, [r2, #0]
     15a:	3b01      	subs	r3, #1
     15c:	b2db      	uxtb	r3, r3
     15e:	7013      	strb	r3, [r2, #0]
     160:	7813      	ldrb	r3, [r2, #0]
     162:	4b04      	ldr	r3, [pc, #16]	; (174 <udi_cdc_data_disable+0x20>)
     164:	4798      	blx	r3
     166:	2200      	movs	r2, #0
     168:	4b03      	ldr	r3, [pc, #12]	; (178 <udi_cdc_data_disable+0x24>)
     16a:	701a      	strb	r2, [r3, #0]
     16c:	bd10      	pop	{r4, pc}
     16e:	46c0      	nop			; (mov r8, r8)
     170:	20000154 	.word	0x20000154
     174:	000048f1 	.word	0x000048f1
     178:	2000014a 	.word	0x2000014a

0000017c <cpu_irq_restore>:
     17c:	2800      	cmp	r0, #0
     17e:	d005      	beq.n	18c <cpu_irq_restore+0x10>
     180:	2201      	movs	r2, #1
     182:	4b03      	ldr	r3, [pc, #12]	; (190 <cpu_irq_restore+0x14>)
     184:	701a      	strb	r2, [r3, #0]
     186:	f3bf 8f5f 	dmb	sy
     18a:	b662      	cpsie	i
     18c:	4770      	bx	lr
     18e:	46c0      	nop			; (mov r8, r8)
     190:	200000c6 	.word	0x200000c6

00000194 <udi_cdc_comm_setup>:
     194:	2160      	movs	r1, #96	; 0x60
     196:	4b12      	ldr	r3, [pc, #72]	; (1e0 <udi_cdc_comm_setup+0x4c>)
     198:	781a      	ldrb	r2, [r3, #0]
     19a:	b250      	sxtb	r0, r2
     19c:	400a      	ands	r2, r1
     19e:	2800      	cmp	r0, #0
     1a0:	da0d      	bge.n	1be <udi_cdc_comm_setup+0x2a>
     1a2:	2000      	movs	r0, #0
     1a4:	2a20      	cmp	r2, #32
     1a6:	d113      	bne.n	1d0 <udi_cdc_comm_setup+0x3c>
     1a8:	785a      	ldrb	r2, [r3, #1]
     1aa:	2a21      	cmp	r2, #33	; 0x21
     1ac:	d110      	bne.n	1d0 <udi_cdc_comm_setup+0x3c>
     1ae:	88da      	ldrh	r2, [r3, #6]
     1b0:	2a07      	cmp	r2, #7
     1b2:	d10d      	bne.n	1d0 <udi_cdc_comm_setup+0x3c>
     1b4:	490b      	ldr	r1, [pc, #44]	; (1e4 <udi_cdc_comm_setup+0x50>)
     1b6:	819a      	strh	r2, [r3, #12]
     1b8:	6099      	str	r1, [r3, #8]
     1ba:	2001      	movs	r0, #1
     1bc:	e008      	b.n	1d0 <udi_cdc_comm_setup+0x3c>
     1be:	2000      	movs	r0, #0
     1c0:	2a20      	cmp	r2, #32
     1c2:	d105      	bne.n	1d0 <udi_cdc_comm_setup+0x3c>
     1c4:	785a      	ldrb	r2, [r3, #1]
     1c6:	2a20      	cmp	r2, #32
     1c8:	d003      	beq.n	1d2 <udi_cdc_comm_setup+0x3e>
     1ca:	3a22      	subs	r2, #34	; 0x22
     1cc:	4250      	negs	r0, r2
     1ce:	4150      	adcs	r0, r2
     1d0:	4770      	bx	lr
     1d2:	88da      	ldrh	r2, [r3, #6]
     1d4:	2a07      	cmp	r2, #7
     1d6:	d1fb      	bne.n	1d0 <udi_cdc_comm_setup+0x3c>
     1d8:	4903      	ldr	r1, [pc, #12]	; (1e8 <udi_cdc_comm_setup+0x54>)
     1da:	6119      	str	r1, [r3, #16]
     1dc:	e7ea      	b.n	1b4 <udi_cdc_comm_setup+0x20>
     1de:	46c0      	nop			; (mov r8, r8)
     1e0:	20003de0 	.word	0x20003de0
     1e4:	2000014c 	.word	0x2000014c
     1e8:	00000151 	.word	0x00000151

000001ec <udi_cdc_comm_enable>:
     1ec:	2300      	movs	r3, #0
     1ee:	21a1      	movs	r1, #161	; 0xa1
     1f0:	b510      	push	{r4, lr}
     1f2:	4a0f      	ldr	r2, [pc, #60]	; (230 <udi_cdc_comm_enable+0x44>)
     1f4:	4c0f      	ldr	r4, [pc, #60]	; (234 <udi_cdc_comm_enable+0x48>)
     1f6:	7023      	strb	r3, [r4, #0]
     1f8:	8013      	strh	r3, [r2, #0]
     1fa:	4a0f      	ldr	r2, [pc, #60]	; (238 <udi_cdc_comm_enable+0x4c>)
     1fc:	7011      	strb	r1, [r2, #0]
     1fe:	3981      	subs	r1, #129	; 0x81
     200:	7051      	strb	r1, [r2, #1]
     202:	391e      	subs	r1, #30
     204:	80d1      	strh	r1, [r2, #6]
     206:	21fa      	movs	r1, #250	; 0xfa
     208:	8093      	strh	r3, [r2, #4]
     20a:	8053      	strh	r3, [r2, #2]
     20c:	8113      	strh	r3, [r2, #8]
     20e:	4a0b      	ldr	r2, [pc, #44]	; (23c <udi_cdc_comm_enable+0x50>)
     210:	02c9      	lsls	r1, r1, #11
     212:	7113      	strb	r3, [r2, #4]
     214:	7153      	strb	r3, [r2, #5]
     216:	3308      	adds	r3, #8
     218:	7193      	strb	r3, [r2, #6]
     21a:	6011      	str	r1, [r2, #0]
     21c:	4b08      	ldr	r3, [pc, #32]	; (240 <udi_cdc_comm_enable+0x54>)
     21e:	4798      	blx	r3
     220:	2800      	cmp	r0, #0
     222:	d003      	beq.n	22c <udi_cdc_comm_enable+0x40>
     224:	7823      	ldrb	r3, [r4, #0]
     226:	3301      	adds	r3, #1
     228:	b2db      	uxtb	r3, r3
     22a:	7023      	strb	r3, [r4, #0]
     22c:	bd10      	pop	{r4, pc}
     22e:	46c0      	nop			; (mov r8, r8)
     230:	200003e2 	.word	0x200003e2
     234:	20000153 	.word	0x20000153
     238:	20000674 	.word	0x20000674
     23c:	2000014c 	.word	0x2000014c
     240:	000048e5 	.word	0x000048e5

00000244 <udi_cdc_tx_send.isra.3>:
     244:	b5f7      	push	{r0, r1, r2, r4, r5, r6, r7, lr}
     246:	4b36      	ldr	r3, [pc, #216]	; (320 <udi_cdc_tx_send.isra.3+0xdc>)
     248:	781b      	ldrb	r3, [r3, #0]
     24a:	2b00      	cmp	r3, #0
     24c:	d123      	bne.n	296 <udi_cdc_tx_send.isra.3+0x52>
     24e:	4b35      	ldr	r3, [pc, #212]	; (324 <udi_cdc_tx_send.isra.3+0xe0>)
     250:	4798      	blx	r3
     252:	4e35      	ldr	r6, [pc, #212]	; (328 <udi_cdc_tx_send.isra.3+0xe4>)
     254:	4b35      	ldr	r3, [pc, #212]	; (32c <udi_cdc_tx_send.isra.3+0xe8>)
     256:	8834      	ldrh	r4, [r6, #0]
     258:	2800      	cmp	r0, #0
     25a:	d000      	beq.n	25e <udi_cdc_tx_send.isra.3+0x1a>
     25c:	4b34      	ldr	r3, [pc, #208]	; (330 <udi_cdc_tx_send.isra.3+0xec>)
     25e:	4798      	blx	r3
     260:	4284      	cmp	r4, r0
     262:	d018      	beq.n	296 <udi_cdc_tx_send.isra.3+0x52>
     264:	4b33      	ldr	r3, [pc, #204]	; (334 <udi_cdc_tx_send.isra.3+0xf0>)
     266:	4798      	blx	r3
     268:	4b33      	ldr	r3, [pc, #204]	; (338 <udi_cdc_tx_send.isra.3+0xf4>)
     26a:	4a34      	ldr	r2, [pc, #208]	; (33c <udi_cdc_tx_send.isra.3+0xf8>)
     26c:	781c      	ldrb	r4, [r3, #0]
     26e:	0007      	movs	r7, r0
     270:	b2e4      	uxtb	r4, r4
     272:	0063      	lsls	r3, r4, #1
     274:	5a9b      	ldrh	r3, [r3, r2]
     276:	2b00      	cmp	r3, #0
     278:	d116      	bne.n	2a8 <udi_cdc_tx_send.isra.3+0x64>
     27a:	4d31      	ldr	r5, [pc, #196]	; (340 <udi_cdc_tx_send.isra.3+0xfc>)
     27c:	882b      	ldrh	r3, [r5, #0]
     27e:	3301      	adds	r3, #1
     280:	802b      	strh	r3, [r5, #0]
     282:	4b28      	ldr	r3, [pc, #160]	; (324 <udi_cdc_tx_send.isra.3+0xe0>)
     284:	4798      	blx	r3
     286:	2800      	cmp	r0, #0
     288:	d106      	bne.n	298 <udi_cdc_tx_send.isra.3+0x54>
     28a:	882b      	ldrh	r3, [r5, #0]
     28c:	2b63      	cmp	r3, #99	; 0x63
     28e:	d803      	bhi.n	298 <udi_cdc_tx_send.isra.3+0x54>
     290:	0038      	movs	r0, r7
     292:	4b2c      	ldr	r3, [pc, #176]	; (344 <udi_cdc_tx_send.isra.3+0x100>)
     294:	4798      	blx	r3
     296:	bdf7      	pop	{r0, r1, r2, r4, r5, r6, r7, pc}
     298:	4b22      	ldr	r3, [pc, #136]	; (324 <udi_cdc_tx_send.isra.3+0xe0>)
     29a:	4798      	blx	r3
     29c:	2800      	cmp	r0, #0
     29e:	d003      	beq.n	2a8 <udi_cdc_tx_send.isra.3+0x64>
     2a0:	4b29      	ldr	r3, [pc, #164]	; (348 <udi_cdc_tx_send.isra.3+0x104>)
     2a2:	882a      	ldrh	r2, [r5, #0]
     2a4:	429a      	cmp	r2, r3
     2a6:	d9f3      	bls.n	290 <udi_cdc_tx_send.isra.3+0x4c>
     2a8:	2200      	movs	r2, #0
     2aa:	4b25      	ldr	r3, [pc, #148]	; (340 <udi_cdc_tx_send.isra.3+0xfc>)
     2ac:	801a      	strh	r2, [r3, #0]
     2ae:	4b27      	ldr	r3, [pc, #156]	; (34c <udi_cdc_tx_send.isra.3+0x108>)
     2b0:	781b      	ldrb	r3, [r3, #0]
     2b2:	4293      	cmp	r3, r2
     2b4:	d12d      	bne.n	312 <udi_cdc_tx_send.isra.3+0xce>
     2b6:	4263      	negs	r3, r4
     2b8:	4163      	adcs	r3, r4
     2ba:	4a1f      	ldr	r2, [pc, #124]	; (338 <udi_cdc_tx_send.isra.3+0xf4>)
     2bc:	b2db      	uxtb	r3, r3
     2be:	7013      	strb	r3, [r2, #0]
     2c0:	2301      	movs	r3, #1
     2c2:	4a17      	ldr	r2, [pc, #92]	; (320 <udi_cdc_tx_send.isra.3+0xdc>)
     2c4:	0038      	movs	r0, r7
     2c6:	7013      	strb	r3, [r2, #0]
     2c8:	4b1e      	ldr	r3, [pc, #120]	; (344 <udi_cdc_tx_send.isra.3+0x100>)
     2ca:	4798      	blx	r3
     2cc:	4b1b      	ldr	r3, [pc, #108]	; (33c <udi_cdc_tx_send.isra.3+0xf8>)
     2ce:	0067      	lsls	r7, r4, #1
     2d0:	5bdb      	ldrh	r3, [r3, r7]
     2d2:	001d      	movs	r5, r3
     2d4:	3d41      	subs	r5, #65	; 0x41
     2d6:	3dff      	subs	r5, #255	; 0xff
     2d8:	1e6a      	subs	r2, r5, #1
     2da:	4195      	sbcs	r5, r2
     2dc:	22a0      	movs	r2, #160	; 0xa0
     2de:	b2ed      	uxtb	r5, r5
     2e0:	0052      	lsls	r2, r2, #1
     2e2:	4293      	cmp	r3, r2
     2e4:	d019      	beq.n	31a <udi_cdc_tx_send.isra.3+0xd6>
     2e6:	4b0f      	ldr	r3, [pc, #60]	; (324 <udi_cdc_tx_send.isra.3+0xe0>)
     2e8:	4798      	blx	r3
     2ea:	4b11      	ldr	r3, [pc, #68]	; (330 <udi_cdc_tx_send.isra.3+0xec>)
     2ec:	2800      	cmp	r0, #0
     2ee:	d100      	bne.n	2f2 <udi_cdc_tx_send.isra.3+0xae>
     2f0:	4b0e      	ldr	r3, [pc, #56]	; (32c <udi_cdc_tx_send.isra.3+0xe8>)
     2f2:	4798      	blx	r3
     2f4:	8030      	strh	r0, [r6, #0]
     2f6:	22a0      	movs	r2, #160	; 0xa0
     2f8:	0052      	lsls	r2, r2, #1
     2fa:	4354      	muls	r4, r2
     2fc:	4914      	ldr	r1, [pc, #80]	; (350 <udi_cdc_tx_send.isra.3+0x10c>)
     2fe:	4b0f      	ldr	r3, [pc, #60]	; (33c <udi_cdc_tx_send.isra.3+0xf8>)
     300:	4a14      	ldr	r2, [pc, #80]	; (354 <udi_cdc_tx_send.isra.3+0x110>)
     302:	5bdb      	ldrh	r3, [r3, r7]
     304:	1912      	adds	r2, r2, r4
     306:	9100      	str	r1, [sp, #0]
     308:	4c13      	ldr	r4, [pc, #76]	; (358 <udi_cdc_tx_send.isra.3+0x114>)
     30a:	0029      	movs	r1, r5
     30c:	2081      	movs	r0, #129	; 0x81
     30e:	47a0      	blx	r4
     310:	e7c1      	b.n	296 <udi_cdc_tx_send.isra.3+0x52>
     312:	4262      	negs	r2, r4
     314:	4154      	adcs	r4, r2
     316:	b2e4      	uxtb	r4, r4
     318:	e7d2      	b.n	2c0 <udi_cdc_tx_send.isra.3+0x7c>
     31a:	2300      	movs	r3, #0
     31c:	8033      	strh	r3, [r6, #0]
     31e:	e7ea      	b.n	2f6 <udi_cdc_tx_send.isra.3+0xb2>
     320:	20000670 	.word	0x20000670
     324:	00002079 	.word	0x00002079
     328:	2000066e 	.word	0x2000066e
     32c:	0000207d 	.word	0x0000207d
     330:	0000208d 	.word	0x0000208d
     334:	00000115 	.word	0x00000115
     338:	2000066c 	.word	0x2000066c
     33c:	20000668 	.word	0x20000668
     340:	20000148 	.word	0x20000148
     344:	0000017d 	.word	0x0000017d
     348:	0000031f 	.word	0x0000031f
     34c:	200003e4 	.word	0x200003e4
     350:	00000369 	.word	0x00000369
     354:	200003e8 	.word	0x200003e8
     358:	0000230d 	.word	0x0000230d

0000035c <udi_cdc_data_sof_notify>:
     35c:	b510      	push	{r4, lr}
     35e:	4b01      	ldr	r3, [pc, #4]	; (364 <udi_cdc_data_sof_notify+0x8>)
     360:	4798      	blx	r3
     362:	bd10      	pop	{r4, pc}
     364:	00000245 	.word	0x00000245

00000368 <udi_cdc_data_sent>:
     368:	b510      	push	{r4, lr}
     36a:	2800      	cmp	r0, #0
     36c:	d10c      	bne.n	388 <udi_cdc_data_sent+0x20>
     36e:	4b07      	ldr	r3, [pc, #28]	; (38c <udi_cdc_data_sent+0x24>)
     370:	781b      	ldrb	r3, [r3, #0]
     372:	425a      	negs	r2, r3
     374:	4153      	adcs	r3, r2
     376:	4a06      	ldr	r2, [pc, #24]	; (390 <udi_cdc_data_sent+0x28>)
     378:	005b      	lsls	r3, r3, #1
     37a:	5298      	strh	r0, [r3, r2]
     37c:	4b05      	ldr	r3, [pc, #20]	; (394 <udi_cdc_data_sent+0x2c>)
     37e:	7018      	strb	r0, [r3, #0]
     380:	4b05      	ldr	r3, [pc, #20]	; (398 <udi_cdc_data_sent+0x30>)
     382:	7018      	strb	r0, [r3, #0]
     384:	4b05      	ldr	r3, [pc, #20]	; (39c <udi_cdc_data_sent+0x34>)
     386:	4798      	blx	r3
     388:	bd10      	pop	{r4, pc}
     38a:	46c0      	nop			; (mov r8, r8)
     38c:	2000066c 	.word	0x2000066c
     390:	20000668 	.word	0x20000668
     394:	200003e4 	.word	0x200003e4
     398:	20000670 	.word	0x20000670
     39c:	00000245 	.word	0x00000245

000003a0 <udi_cdc_multi_get_nb_received_data>:
     3a0:	b570      	push	{r4, r5, r6, lr}
     3a2:	4b07      	ldr	r3, [pc, #28]	; (3c0 <udi_cdc_multi_get_nb_received_data+0x20>)
     3a4:	4798      	blx	r3
     3a6:	4b07      	ldr	r3, [pc, #28]	; (3c4 <udi_cdc_multi_get_nb_received_data+0x24>)
     3a8:	4a07      	ldr	r2, [pc, #28]	; (3c8 <udi_cdc_multi_get_nb_received_data+0x28>)
     3aa:	881d      	ldrh	r5, [r3, #0]
     3ac:	4b07      	ldr	r3, [pc, #28]	; (3cc <udi_cdc_multi_get_nb_received_data+0x2c>)
     3ae:	b2ad      	uxth	r5, r5
     3b0:	781b      	ldrb	r3, [r3, #0]
     3b2:	005b      	lsls	r3, r3, #1
     3b4:	5a9c      	ldrh	r4, [r3, r2]
     3b6:	4b06      	ldr	r3, [pc, #24]	; (3d0 <udi_cdc_multi_get_nb_received_data+0x30>)
     3b8:	b2a4      	uxth	r4, r4
     3ba:	4798      	blx	r3
     3bc:	1b60      	subs	r0, r4, r5
     3be:	bd70      	pop	{r4, r5, r6, pc}
     3c0:	00000115 	.word	0x00000115
     3c4:	200003de 	.word	0x200003de
     3c8:	200003d8 	.word	0x200003d8
     3cc:	200003dc 	.word	0x200003dc
     3d0:	0000017d 	.word	0x0000017d

000003d4 <udi_cdc_multi_is_rx_ready>:
     3d4:	b510      	push	{r4, lr}
     3d6:	4b03      	ldr	r3, [pc, #12]	; (3e4 <udi_cdc_multi_is_rx_ready+0x10>)
     3d8:	4798      	blx	r3
     3da:	1e43      	subs	r3, r0, #1
     3dc:	4198      	sbcs	r0, r3
     3de:	b2c0      	uxtb	r0, r0
     3e0:	bd10      	pop	{r4, pc}
     3e2:	46c0      	nop			; (mov r8, r8)
     3e4:	000003a1 	.word	0x000003a1

000003e8 <udi_cdc_rx_start.isra.9>:
     3e8:	b5f7      	push	{r0, r1, r2, r4, r5, r6, r7, lr}
     3ea:	4b17      	ldr	r3, [pc, #92]	; (448 <udi_cdc_rx_start.isra.9+0x60>)
     3ec:	4798      	blx	r3
     3ee:	4917      	ldr	r1, [pc, #92]	; (44c <udi_cdc_rx_start.isra.9+0x64>)
     3f0:	4b17      	ldr	r3, [pc, #92]	; (450 <udi_cdc_rx_start.isra.9+0x68>)
     3f2:	780c      	ldrb	r4, [r1, #0]
     3f4:	781d      	ldrb	r5, [r3, #0]
     3f6:	b2e4      	uxtb	r4, r4
     3f8:	b2ed      	uxtb	r5, r5
     3fa:	2d00      	cmp	r5, #0
     3fc:	d106      	bne.n	40c <udi_cdc_rx_start.isra.9+0x24>
     3fe:	4e15      	ldr	r6, [pc, #84]	; (454 <udi_cdc_rx_start.isra.9+0x6c>)
     400:	4a15      	ldr	r2, [pc, #84]	; (458 <udi_cdc_rx_start.isra.9+0x70>)
     402:	0063      	lsls	r3, r4, #1
     404:	8837      	ldrh	r7, [r6, #0]
     406:	5a9b      	ldrh	r3, [r3, r2]
     408:	429f      	cmp	r7, r3
     40a:	d203      	bcs.n	414 <udi_cdc_rx_start.isra.9+0x2c>
     40c:	4b13      	ldr	r3, [pc, #76]	; (45c <udi_cdc_rx_start.isra.9+0x74>)
     40e:	4798      	blx	r3
     410:	2000      	movs	r0, #0
     412:	bdfe      	pop	{r1, r2, r3, r4, r5, r6, r7, pc}
     414:	8035      	strh	r5, [r6, #0]
     416:	4263      	negs	r3, r4
     418:	4163      	adcs	r3, r4
     41a:	2601      	movs	r6, #1
     41c:	b2db      	uxtb	r3, r3
     41e:	700b      	strb	r3, [r1, #0]
     420:	4b0b      	ldr	r3, [pc, #44]	; (450 <udi_cdc_rx_start.isra.9+0x68>)
     422:	701e      	strb	r6, [r3, #0]
     424:	4b0d      	ldr	r3, [pc, #52]	; (45c <udi_cdc_rx_start.isra.9+0x74>)
     426:	4798      	blx	r3
     428:	0028      	movs	r0, r5
     42a:	4b0d      	ldr	r3, [pc, #52]	; (460 <udi_cdc_rx_start.isra.9+0x78>)
     42c:	4798      	blx	r3
     42e:	23a0      	movs	r3, #160	; 0xa0
     430:	005b      	lsls	r3, r3, #1
     432:	435c      	muls	r4, r3
     434:	4a0b      	ldr	r2, [pc, #44]	; (464 <udi_cdc_rx_start.isra.9+0x7c>)
     436:	0031      	movs	r1, r6
     438:	1914      	adds	r4, r2, r4
     43a:	4a0b      	ldr	r2, [pc, #44]	; (468 <udi_cdc_rx_start.isra.9+0x80>)
     43c:	2002      	movs	r0, #2
     43e:	9200      	str	r2, [sp, #0]
     440:	0022      	movs	r2, r4
     442:	4c0a      	ldr	r4, [pc, #40]	; (46c <udi_cdc_rx_start.isra.9+0x84>)
     444:	47a0      	blx	r4
     446:	e7e4      	b.n	412 <udi_cdc_rx_start.isra.9+0x2a>
     448:	00000115 	.word	0x00000115
     44c:	200003dc 	.word	0x200003dc
     450:	200003e0 	.word	0x200003e0
     454:	200003de 	.word	0x200003de
     458:	200003d8 	.word	0x200003d8
     45c:	0000017d 	.word	0x0000017d
     460:	000003d5 	.word	0x000003d5
     464:	20000158 	.word	0x20000158
     468:	000004f9 	.word	0x000004f9
     46c:	0000230d 	.word	0x0000230d

00000470 <udi_cdc_data_enable>:
     470:	b570      	push	{r4, r5, r6, lr}
     472:	2400      	movs	r4, #0
     474:	4b13      	ldr	r3, [pc, #76]	; (4c4 <udi_cdc_data_enable+0x54>)
     476:	4d14      	ldr	r5, [pc, #80]	; (4c8 <udi_cdc_data_enable+0x58>)
     478:	702c      	strb	r4, [r5, #0]
     47a:	701c      	strb	r4, [r3, #0]
     47c:	4b13      	ldr	r3, [pc, #76]	; (4cc <udi_cdc_data_enable+0x5c>)
     47e:	701c      	strb	r4, [r3, #0]
     480:	4b13      	ldr	r3, [pc, #76]	; (4d0 <udi_cdc_data_enable+0x60>)
     482:	701c      	strb	r4, [r3, #0]
     484:	4b13      	ldr	r3, [pc, #76]	; (4d4 <udi_cdc_data_enable+0x64>)
     486:	801c      	strh	r4, [r3, #0]
     488:	805c      	strh	r4, [r3, #2]
     48a:	4b13      	ldr	r3, [pc, #76]	; (4d8 <udi_cdc_data_enable+0x68>)
     48c:	801c      	strh	r4, [r3, #0]
     48e:	4b13      	ldr	r3, [pc, #76]	; (4dc <udi_cdc_data_enable+0x6c>)
     490:	4798      	blx	r3
     492:	4b13      	ldr	r3, [pc, #76]	; (4e0 <udi_cdc_data_enable+0x70>)
     494:	701c      	strb	r4, [r3, #0]
     496:	4b13      	ldr	r3, [pc, #76]	; (4e4 <udi_cdc_data_enable+0x74>)
     498:	701c      	strb	r4, [r3, #0]
     49a:	4b13      	ldr	r3, [pc, #76]	; (4e8 <udi_cdc_data_enable+0x78>)
     49c:	801c      	strh	r4, [r3, #0]
     49e:	805c      	strh	r4, [r3, #2]
     4a0:	4b12      	ldr	r3, [pc, #72]	; (4ec <udi_cdc_data_enable+0x7c>)
     4a2:	801c      	strh	r4, [r3, #0]
     4a4:	4b12      	ldr	r3, [pc, #72]	; (4f0 <udi_cdc_data_enable+0x80>)
     4a6:	4798      	blx	r3
     4a8:	42a0      	cmp	r0, r4
     4aa:	d009      	beq.n	4c0 <udi_cdc_data_enable+0x50>
     4ac:	782b      	ldrb	r3, [r5, #0]
     4ae:	3301      	adds	r3, #1
     4b0:	b2db      	uxtb	r3, r3
     4b2:	702b      	strb	r3, [r5, #0]
     4b4:	782b      	ldrb	r3, [r5, #0]
     4b6:	b2db      	uxtb	r3, r3
     4b8:	2b01      	cmp	r3, #1
     4ba:	d101      	bne.n	4c0 <udi_cdc_data_enable+0x50>
     4bc:	4a0d      	ldr	r2, [pc, #52]	; (4f4 <udi_cdc_data_enable+0x84>)
     4be:	7013      	strb	r3, [r2, #0]
     4c0:	bd70      	pop	{r4, r5, r6, pc}
     4c2:	46c0      	nop			; (mov r8, r8)
     4c4:	20000670 	.word	0x20000670
     4c8:	20000154 	.word	0x20000154
     4cc:	200003e4 	.word	0x200003e4
     4d0:	2000066c 	.word	0x2000066c
     4d4:	20000668 	.word	0x20000668
     4d8:	2000066e 	.word	0x2000066e
     4dc:	00000245 	.word	0x00000245
     4e0:	200003e0 	.word	0x200003e0
     4e4:	200003dc 	.word	0x200003dc
     4e8:	200003d8 	.word	0x200003d8
     4ec:	200003de 	.word	0x200003de
     4f0:	000003e9 	.word	0x000003e9
     4f4:	2000014a 	.word	0x2000014a

000004f8 <udi_cdc_data_received>:
     4f8:	b513      	push	{r0, r1, r4, lr}
     4fa:	0003      	movs	r3, r0
     4fc:	0010      	movs	r0, r2
     4fe:	2b00      	cmp	r3, #0
     500:	d110      	bne.n	524 <udi_cdc_data_received+0x2c>
     502:	4a0d      	ldr	r2, [pc, #52]	; (538 <udi_cdc_data_received+0x40>)
     504:	7812      	ldrb	r2, [r2, #0]
     506:	4254      	negs	r4, r2
     508:	4162      	adcs	r2, r4
     50a:	b2d2      	uxtb	r2, r2
     50c:	2900      	cmp	r1, #0
     50e:	d10a      	bne.n	526 <udi_cdc_data_received+0x2e>
     510:	3341      	adds	r3, #65	; 0x41
     512:	33ff      	adds	r3, #255	; 0xff
     514:	435a      	muls	r2, r3
     516:	4909      	ldr	r1, [pc, #36]	; (53c <udi_cdc_data_received+0x44>)
     518:	4c09      	ldr	r4, [pc, #36]	; (540 <udi_cdc_data_received+0x48>)
     51a:	188a      	adds	r2, r1, r2
     51c:	4909      	ldr	r1, [pc, #36]	; (544 <udi_cdc_data_received+0x4c>)
     51e:	9100      	str	r1, [sp, #0]
     520:	2101      	movs	r1, #1
     522:	47a0      	blx	r4
     524:	bd13      	pop	{r0, r1, r4, pc}
     526:	4808      	ldr	r0, [pc, #32]	; (548 <udi_cdc_data_received+0x50>)
     528:	b289      	uxth	r1, r1
     52a:	0052      	lsls	r2, r2, #1
     52c:	5211      	strh	r1, [r2, r0]
     52e:	4a07      	ldr	r2, [pc, #28]	; (54c <udi_cdc_data_received+0x54>)
     530:	7013      	strb	r3, [r2, #0]
     532:	4b07      	ldr	r3, [pc, #28]	; (550 <udi_cdc_data_received+0x58>)
     534:	4798      	blx	r3
     536:	e7f5      	b.n	524 <udi_cdc_data_received+0x2c>
     538:	200003dc 	.word	0x200003dc
     53c:	20000158 	.word	0x20000158
     540:	0000230d 	.word	0x0000230d
     544:	000004f9 	.word	0x000004f9
     548:	200003d8 	.word	0x200003d8
     54c:	200003e0 	.word	0x200003e0
     550:	000003e9 	.word	0x000003e9

00000554 <udi_cdc_multi_get_free_tx_buffer>:
     554:	b570      	push	{r4, r5, r6, lr}
     556:	4b11      	ldr	r3, [pc, #68]	; (59c <udi_cdc_multi_get_free_tx_buffer+0x48>)
     558:	4798      	blx	r3
     55a:	4911      	ldr	r1, [pc, #68]	; (5a0 <udi_cdc_multi_get_free_tx_buffer+0x4c>)
     55c:	4a11      	ldr	r2, [pc, #68]	; (5a4 <udi_cdc_multi_get_free_tx_buffer+0x50>)
     55e:	780b      	ldrb	r3, [r1, #0]
     560:	b2db      	uxtb	r3, r3
     562:	005c      	lsls	r4, r3, #1
     564:	5aa4      	ldrh	r4, [r4, r2]
     566:	22a0      	movs	r2, #160	; 0xa0
     568:	0052      	lsls	r2, r2, #1
     56a:	4294      	cmp	r4, r2
     56c:	d10f      	bne.n	58e <udi_cdc_multi_get_free_tx_buffer+0x3a>
     56e:	4a0e      	ldr	r2, [pc, #56]	; (5a8 <udi_cdc_multi_get_free_tx_buffer+0x54>)
     570:	7812      	ldrb	r2, [r2, #0]
     572:	2a00      	cmp	r2, #0
     574:	d10b      	bne.n	58e <udi_cdc_multi_get_free_tx_buffer+0x3a>
     576:	4d0d      	ldr	r5, [pc, #52]	; (5ac <udi_cdc_multi_get_free_tx_buffer+0x58>)
     578:	782a      	ldrb	r2, [r5, #0]
     57a:	b2d2      	uxtb	r2, r2
     57c:	2a00      	cmp	r2, #0
     57e:	d106      	bne.n	58e <udi_cdc_multi_get_free_tx_buffer+0x3a>
     580:	2401      	movs	r4, #1
     582:	702c      	strb	r4, [r5, #0]
     584:	425c      	negs	r4, r3
     586:	4163      	adcs	r3, r4
     588:	0014      	movs	r4, r2
     58a:	b2db      	uxtb	r3, r3
     58c:	700b      	strb	r3, [r1, #0]
     58e:	4b08      	ldr	r3, [pc, #32]	; (5b0 <udi_cdc_multi_get_free_tx_buffer+0x5c>)
     590:	4798      	blx	r3
     592:	20a0      	movs	r0, #160	; 0xa0
     594:	0040      	lsls	r0, r0, #1
     596:	1b00      	subs	r0, r0, r4
     598:	bd70      	pop	{r4, r5, r6, pc}
     59a:	46c0      	nop			; (mov r8, r8)
     59c:	00000115 	.word	0x00000115
     5a0:	2000066c 	.word	0x2000066c
     5a4:	20000668 	.word	0x20000668
     5a8:	20000670 	.word	0x20000670
     5ac:	200003e4 	.word	0x200003e4
     5b0:	0000017d 	.word	0x0000017d

000005b4 <udi_cdc_get_free_tx_buffer>:
     5b4:	b510      	push	{r4, lr}
     5b6:	2000      	movs	r0, #0
     5b8:	4b01      	ldr	r3, [pc, #4]	; (5c0 <udi_cdc_get_free_tx_buffer+0xc>)
     5ba:	4798      	blx	r3
     5bc:	bd10      	pop	{r4, pc}
     5be:	46c0      	nop			; (mov r8, r8)
     5c0:	00000555 	.word	0x00000555

000005c4 <udi_cdc_multi_is_tx_ready>:
     5c4:	b510      	push	{r4, lr}
     5c6:	4b03      	ldr	r3, [pc, #12]	; (5d4 <udi_cdc_multi_is_tx_ready+0x10>)
     5c8:	4798      	blx	r3
     5ca:	1e43      	subs	r3, r0, #1
     5cc:	4198      	sbcs	r0, r3
     5ce:	b2c0      	uxtb	r0, r0
     5d0:	bd10      	pop	{r4, pc}
     5d2:	46c0      	nop			; (mov r8, r8)
     5d4:	00000555 	.word	0x00000555

000005d8 <udi_cdc_is_tx_ready>:
     5d8:	b510      	push	{r4, lr}
     5da:	2000      	movs	r0, #0
     5dc:	4b01      	ldr	r3, [pc, #4]	; (5e4 <udi_cdc_is_tx_ready+0xc>)
     5de:	4798      	blx	r3
     5e0:	bd10      	pop	{r4, pc}
     5e2:	46c0      	nop			; (mov r8, r8)
     5e4:	000005c5 	.word	0x000005c5

000005e8 <udi_cdc_multi_write_buf>:
     5e8:	b5f7      	push	{r0, r1, r2, r4, r5, r6, r7, lr}
     5ea:	4b1d      	ldr	r3, [pc, #116]	; (660 <udi_cdc_multi_write_buf+0x78>)
     5ec:	799b      	ldrb	r3, [r3, #6]
     5ee:	2b09      	cmp	r3, #9
     5f0:	d100      	bne.n	5f4 <udi_cdc_multi_write_buf+0xc>
     5f2:	0052      	lsls	r2, r2, #1
     5f4:	0014      	movs	r4, r2
     5f6:	9100      	str	r1, [sp, #0]
     5f8:	2000      	movs	r0, #0
     5fa:	4b1a      	ldr	r3, [pc, #104]	; (664 <udi_cdc_multi_write_buf+0x7c>)
     5fc:	4798      	blx	r3
     5fe:	2800      	cmp	r0, #0
     600:	d105      	bne.n	60e <udi_cdc_multi_write_buf+0x26>
     602:	4b19      	ldr	r3, [pc, #100]	; (668 <udi_cdc_multi_write_buf+0x80>)
     604:	781b      	ldrb	r3, [r3, #0]
     606:	2b00      	cmp	r3, #0
     608:	d1f6      	bne.n	5f8 <udi_cdc_multi_write_buf+0x10>
     60a:	0020      	movs	r0, r4
     60c:	bdfe      	pop	{r1, r2, r3, r4, r5, r6, r7, pc}
     60e:	4b17      	ldr	r3, [pc, #92]	; (66c <udi_cdc_multi_write_buf+0x84>)
     610:	4798      	blx	r3
     612:	4b17      	ldr	r3, [pc, #92]	; (670 <udi_cdc_multi_write_buf+0x88>)
     614:	9001      	str	r0, [sp, #4]
     616:	781d      	ldrb	r5, [r3, #0]
     618:	4b16      	ldr	r3, [pc, #88]	; (674 <udi_cdc_multi_write_buf+0x8c>)
     61a:	b2ed      	uxtb	r5, r5
     61c:	006a      	lsls	r2, r5, #1
     61e:	5ad7      	ldrh	r7, [r2, r3]
     620:	23a0      	movs	r3, #160	; 0xa0
     622:	005b      	lsls	r3, r3, #1
     624:	1bdb      	subs	r3, r3, r7
     626:	0026      	movs	r6, r4
     628:	429c      	cmp	r4, r3
     62a:	d900      	bls.n	62e <udi_cdc_multi_write_buf+0x46>
     62c:	001e      	movs	r6, r3
     62e:	23a0      	movs	r3, #160	; 0xa0
     630:	005b      	lsls	r3, r3, #1
     632:	436b      	muls	r3, r5
     634:	4810      	ldr	r0, [pc, #64]	; (678 <udi_cdc_multi_write_buf+0x90>)
     636:	19db      	adds	r3, r3, r7
     638:	18c0      	adds	r0, r0, r3
     63a:	0032      	movs	r2, r6
     63c:	9900      	ldr	r1, [sp, #0]
     63e:	4b0f      	ldr	r3, [pc, #60]	; (67c <udi_cdc_multi_write_buf+0x94>)
     640:	4798      	blx	r3
     642:	4b0c      	ldr	r3, [pc, #48]	; (674 <udi_cdc_multi_write_buf+0x8c>)
     644:	006d      	lsls	r5, r5, #1
     646:	19bf      	adds	r7, r7, r6
     648:	52ef      	strh	r7, [r5, r3]
     64a:	9801      	ldr	r0, [sp, #4]
     64c:	4b0c      	ldr	r3, [pc, #48]	; (680 <udi_cdc_multi_write_buf+0x98>)
     64e:	4798      	blx	r3
     650:	9b00      	ldr	r3, [sp, #0]
     652:	1ba4      	subs	r4, r4, r6
     654:	199b      	adds	r3, r3, r6
     656:	9300      	str	r3, [sp, #0]
     658:	2c00      	cmp	r4, #0
     65a:	d1cd      	bne.n	5f8 <udi_cdc_multi_write_buf+0x10>
     65c:	e7d5      	b.n	60a <udi_cdc_multi_write_buf+0x22>
     65e:	46c0      	nop			; (mov r8, r8)
     660:	2000014c 	.word	0x2000014c
     664:	000005c5 	.word	0x000005c5
     668:	2000014a 	.word	0x2000014a
     66c:	00000115 	.word	0x00000115
     670:	2000066c 	.word	0x2000066c
     674:	20000668 	.word	0x20000668
     678:	200003e8 	.word	0x200003e8
     67c:	0000ae15 	.word	0x0000ae15
     680:	0000017d 	.word	0x0000017d

00000684 <udi_cdc_write_buf>:
     684:	b510      	push	{r4, lr}
     686:	000a      	movs	r2, r1
     688:	4b02      	ldr	r3, [pc, #8]	; (694 <udi_cdc_write_buf+0x10>)
     68a:	0001      	movs	r1, r0
     68c:	2000      	movs	r0, #0
     68e:	4798      	blx	r3
     690:	bd10      	pop	{r4, pc}
     692:	46c0      	nop			; (mov r8, r8)
     694:	000005e9 	.word	0x000005e9

00000698 <udc_valid_address>:
     698:	b510      	push	{r4, lr}
     69a:	4b03      	ldr	r3, [pc, #12]	; (6a8 <udc_valid_address+0x10>)
     69c:	8858      	ldrh	r0, [r3, #2]
     69e:	237f      	movs	r3, #127	; 0x7f
     6a0:	4018      	ands	r0, r3
     6a2:	4b02      	ldr	r3, [pc, #8]	; (6ac <udc_valid_address+0x14>)
     6a4:	4798      	blx	r3
     6a6:	bd10      	pop	{r4, pc}
     6a8:	20003de0 	.word	0x20003de0
     6ac:	00002485 	.word	0x00002485

000006b0 <udc_update_iface_desc>:
     6b0:	b5f0      	push	{r4, r5, r6, r7, lr}
     6b2:	4b16      	ldr	r3, [pc, #88]	; (70c <udc_update_iface_desc+0x5c>)
     6b4:	781b      	ldrb	r3, [r3, #0]
     6b6:	2b00      	cmp	r3, #0
     6b8:	d101      	bne.n	6be <udc_update_iface_desc+0xe>
     6ba:	2000      	movs	r0, #0
     6bc:	bdf0      	pop	{r4, r5, r6, r7, pc}
     6be:	4b14      	ldr	r3, [pc, #80]	; (710 <udc_update_iface_desc+0x60>)
     6c0:	681b      	ldr	r3, [r3, #0]
     6c2:	681b      	ldr	r3, [r3, #0]
     6c4:	791a      	ldrb	r2, [r3, #4]
     6c6:	4282      	cmp	r2, r0
     6c8:	d9f7      	bls.n	6ba <udc_update_iface_desc+0xa>
     6ca:	4c12      	ldr	r4, [pc, #72]	; (714 <udc_update_iface_desc+0x64>)
     6cc:	2601      	movs	r6, #1
     6ce:	6023      	str	r3, [r4, #0]
     6d0:	78da      	ldrb	r2, [r3, #3]
     6d2:	789d      	ldrb	r5, [r3, #2]
     6d4:	0212      	lsls	r2, r2, #8
     6d6:	432a      	orrs	r2, r5
     6d8:	2500      	movs	r5, #0
     6da:	189a      	adds	r2, r3, r2
     6dc:	429a      	cmp	r2, r3
     6de:	d803      	bhi.n	6e8 <udc_update_iface_desc+0x38>
     6e0:	2d00      	cmp	r5, #0
     6e2:	d0ea      	beq.n	6ba <udc_update_iface_desc+0xa>
     6e4:	6023      	str	r3, [r4, #0]
     6e6:	e7e8      	b.n	6ba <udc_update_iface_desc+0xa>
     6e8:	785f      	ldrb	r7, [r3, #1]
     6ea:	2f04      	cmp	r7, #4
     6ec:	d10a      	bne.n	704 <udc_update_iface_desc+0x54>
     6ee:	789f      	ldrb	r7, [r3, #2]
     6f0:	4287      	cmp	r7, r0
     6f2:	d107      	bne.n	704 <udc_update_iface_desc+0x54>
     6f4:	78df      	ldrb	r7, [r3, #3]
     6f6:	428f      	cmp	r7, r1
     6f8:	d104      	bne.n	704 <udc_update_iface_desc+0x54>
     6fa:	2d00      	cmp	r5, #0
     6fc:	d000      	beq.n	700 <udc_update_iface_desc+0x50>
     6fe:	6023      	str	r3, [r4, #0]
     700:	2001      	movs	r0, #1
     702:	e7db      	b.n	6bc <udc_update_iface_desc+0xc>
     704:	781d      	ldrb	r5, [r3, #0]
     706:	195b      	adds	r3, r3, r5
     708:	0035      	movs	r5, r6
     70a:	e7e7      	b.n	6dc <udc_update_iface_desc+0x2c>
     70c:	20000688 	.word	0x20000688
     710:	2000068c 	.word	0x2000068c
     714:	20000690 	.word	0x20000690

00000718 <udc_next_desc_in_iface.constprop.3>:
     718:	4b09      	ldr	r3, [pc, #36]	; (740 <udc_next_desc_in_iface.constprop.3+0x28>)
     71a:	681b      	ldr	r3, [r3, #0]
     71c:	681b      	ldr	r3, [r3, #0]
     71e:	78da      	ldrb	r2, [r3, #3]
     720:	7899      	ldrb	r1, [r3, #2]
     722:	0212      	lsls	r2, r2, #8
     724:	430a      	orrs	r2, r1
     726:	189b      	adds	r3, r3, r2
     728:	7802      	ldrb	r2, [r0, #0]
     72a:	1880      	adds	r0, r0, r2
     72c:	4298      	cmp	r0, r3
     72e:	d301      	bcc.n	734 <udc_next_desc_in_iface.constprop.3+0x1c>
     730:	2000      	movs	r0, #0
     732:	e004      	b.n	73e <udc_next_desc_in_iface.constprop.3+0x26>
     734:	7842      	ldrb	r2, [r0, #1]
     736:	2a04      	cmp	r2, #4
     738:	d0fa      	beq.n	730 <udc_next_desc_in_iface.constprop.3+0x18>
     73a:	2a05      	cmp	r2, #5
     73c:	d1f4      	bne.n	728 <udc_next_desc_in_iface.constprop.3+0x10>
     73e:	4770      	bx	lr
     740:	2000068c 	.word	0x2000068c

00000744 <udc_iface_enable>:
     744:	b570      	push	{r4, r5, r6, lr}
     746:	4b10      	ldr	r3, [pc, #64]	; (788 <udc_iface_enable+0x44>)
     748:	0005      	movs	r5, r0
     74a:	4798      	blx	r3
     74c:	2800      	cmp	r0, #0
     74e:	d101      	bne.n	754 <udc_iface_enable+0x10>
     750:	2000      	movs	r0, #0
     752:	bd70      	pop	{r4, r5, r6, pc}
     754:	4b0d      	ldr	r3, [pc, #52]	; (78c <udc_iface_enable+0x48>)
     756:	681c      	ldr	r4, [r3, #0]
     758:	0020      	movs	r0, r4
     75a:	4b0d      	ldr	r3, [pc, #52]	; (790 <udc_iface_enable+0x4c>)
     75c:	4798      	blx	r3
     75e:	1e04      	subs	r4, r0, #0
     760:	d00a      	beq.n	778 <udc_iface_enable+0x34>
     762:	7942      	ldrb	r2, [r0, #5]
     764:	7903      	ldrb	r3, [r0, #4]
     766:	0212      	lsls	r2, r2, #8
     768:	431a      	orrs	r2, r3
     76a:	78c1      	ldrb	r1, [r0, #3]
     76c:	4b09      	ldr	r3, [pc, #36]	; (794 <udc_iface_enable+0x50>)
     76e:	7880      	ldrb	r0, [r0, #2]
     770:	4798      	blx	r3
     772:	2800      	cmp	r0, #0
     774:	d1f0      	bne.n	758 <udc_iface_enable+0x14>
     776:	e7eb      	b.n	750 <udc_iface_enable+0xc>
     778:	4b07      	ldr	r3, [pc, #28]	; (798 <udc_iface_enable+0x54>)
     77a:	00ad      	lsls	r5, r5, #2
     77c:	681b      	ldr	r3, [r3, #0]
     77e:	685b      	ldr	r3, [r3, #4]
     780:	58eb      	ldr	r3, [r5, r3]
     782:	681b      	ldr	r3, [r3, #0]
     784:	4798      	blx	r3
     786:	e7e4      	b.n	752 <udc_iface_enable+0xe>
     788:	000006b1 	.word	0x000006b1
     78c:	20000690 	.word	0x20000690
     790:	00000719 	.word	0x00000719
     794:	000020f1 	.word	0x000020f1
     798:	2000068c 	.word	0x2000068c

0000079c <udc_iface_disable>:
     79c:	b570      	push	{r4, r5, r6, lr}
     79e:	2100      	movs	r1, #0
     7a0:	4d10      	ldr	r5, [pc, #64]	; (7e4 <udc_iface_disable+0x48>)
     7a2:	0004      	movs	r4, r0
     7a4:	47a8      	blx	r5
     7a6:	2800      	cmp	r0, #0
     7a8:	d102      	bne.n	7b0 <udc_iface_disable+0x14>
     7aa:	2500      	movs	r5, #0
     7ac:	0028      	movs	r0, r5
     7ae:	bd70      	pop	{r4, r5, r6, pc}
     7b0:	4b0d      	ldr	r3, [pc, #52]	; (7e8 <udc_iface_disable+0x4c>)
     7b2:	00a2      	lsls	r2, r4, #2
     7b4:	681b      	ldr	r3, [r3, #0]
     7b6:	685b      	ldr	r3, [r3, #4]
     7b8:	58d6      	ldr	r6, [r2, r3]
     7ba:	68f3      	ldr	r3, [r6, #12]
     7bc:	4798      	blx	r3
     7be:	0001      	movs	r1, r0
     7c0:	0020      	movs	r0, r4
     7c2:	47a8      	blx	r5
     7c4:	1e05      	subs	r5, r0, #0
     7c6:	d0f0      	beq.n	7aa <udc_iface_disable+0xe>
     7c8:	4b08      	ldr	r3, [pc, #32]	; (7ec <udc_iface_disable+0x50>)
     7ca:	681c      	ldr	r4, [r3, #0]
     7cc:	0020      	movs	r0, r4
     7ce:	4b08      	ldr	r3, [pc, #32]	; (7f0 <udc_iface_disable+0x54>)
     7d0:	4798      	blx	r3
     7d2:	1e04      	subs	r4, r0, #0
     7d4:	d003      	beq.n	7de <udc_iface_disable+0x42>
     7d6:	7880      	ldrb	r0, [r0, #2]
     7d8:	4b06      	ldr	r3, [pc, #24]	; (7f4 <udc_iface_disable+0x58>)
     7da:	4798      	blx	r3
     7dc:	e7f6      	b.n	7cc <udc_iface_disable+0x30>
     7de:	6873      	ldr	r3, [r6, #4]
     7e0:	4798      	blx	r3
     7e2:	e7e3      	b.n	7ac <udc_iface_disable+0x10>
     7e4:	000006b1 	.word	0x000006b1
     7e8:	2000068c 	.word	0x2000068c
     7ec:	20000690 	.word	0x20000690
     7f0:	00000719 	.word	0x00000719
     7f4:	0000209d 	.word	0x0000209d

000007f8 <udc_start>:
     7f8:	b510      	push	{r4, lr}
     7fa:	4b01      	ldr	r3, [pc, #4]	; (800 <udc_start+0x8>)
     7fc:	4798      	blx	r3
     7fe:	bd10      	pop	{r4, pc}
     800:	00002535 	.word	0x00002535

00000804 <udc_reset>:
     804:	b570      	push	{r4, r5, r6, lr}
     806:	4d0b      	ldr	r5, [pc, #44]	; (834 <udc_reset+0x30>)
     808:	2400      	movs	r4, #0
     80a:	782b      	ldrb	r3, [r5, #0]
     80c:	2b00      	cmp	r3, #0
     80e:	d10a      	bne.n	826 <udc_reset+0x22>
     810:	2300      	movs	r3, #0
     812:	2201      	movs	r2, #1
     814:	702b      	strb	r3, [r5, #0]
     816:	4b08      	ldr	r3, [pc, #32]	; (838 <udc_reset+0x34>)
     818:	801a      	strh	r2, [r3, #0]
     81a:	bd70      	pop	{r4, r5, r6, pc}
     81c:	0020      	movs	r0, r4
     81e:	4b07      	ldr	r3, [pc, #28]	; (83c <udc_reset+0x38>)
     820:	4798      	blx	r3
     822:	3401      	adds	r4, #1
     824:	b2e4      	uxtb	r4, r4
     826:	4b06      	ldr	r3, [pc, #24]	; (840 <udc_reset+0x3c>)
     828:	681b      	ldr	r3, [r3, #0]
     82a:	681b      	ldr	r3, [r3, #0]
     82c:	791b      	ldrb	r3, [r3, #4]
     82e:	42a3      	cmp	r3, r4
     830:	d8f4      	bhi.n	81c <udc_reset+0x18>
     832:	e7ed      	b.n	810 <udc_reset+0xc>
     834:	20000688 	.word	0x20000688
     838:	2000067e 	.word	0x2000067e
     83c:	0000079d 	.word	0x0000079d
     840:	2000068c 	.word	0x2000068c

00000844 <udc_sof_notify>:
     844:	b510      	push	{r4, lr}
     846:	4b0b      	ldr	r3, [pc, #44]	; (874 <udc_sof_notify+0x30>)
     848:	2400      	movs	r4, #0
     84a:	781b      	ldrb	r3, [r3, #0]
     84c:	2b00      	cmp	r3, #0
     84e:	d109      	bne.n	864 <udc_sof_notify+0x20>
     850:	bd10      	pop	{r4, pc}
     852:	685b      	ldr	r3, [r3, #4]
     854:	00a2      	lsls	r2, r4, #2
     856:	58d3      	ldr	r3, [r2, r3]
     858:	691b      	ldr	r3, [r3, #16]
     85a:	2b00      	cmp	r3, #0
     85c:	d000      	beq.n	860 <udc_sof_notify+0x1c>
     85e:	4798      	blx	r3
     860:	3401      	adds	r4, #1
     862:	b2e4      	uxtb	r4, r4
     864:	4b04      	ldr	r3, [pc, #16]	; (878 <udc_sof_notify+0x34>)
     866:	681b      	ldr	r3, [r3, #0]
     868:	681a      	ldr	r2, [r3, #0]
     86a:	7912      	ldrb	r2, [r2, #4]
     86c:	42a2      	cmp	r2, r4
     86e:	d8f0      	bhi.n	852 <udc_sof_notify+0xe>
     870:	e7ee      	b.n	850 <udc_sof_notify+0xc>
     872:	46c0      	nop			; (mov r8, r8)
     874:	20000688 	.word	0x20000688
     878:	2000068c 	.word	0x2000068c

0000087c <udc_process_setup>:
     87c:	b5f8      	push	{r3, r4, r5, r6, r7, lr}
     87e:	2300      	movs	r3, #0
     880:	4cae      	ldr	r4, [pc, #696]	; (b3c <udc_process_setup+0x2c0>)
     882:	81a3      	strh	r3, [r4, #12]
     884:	6123      	str	r3, [r4, #16]
     886:	6163      	str	r3, [r4, #20]
     888:	7823      	ldrb	r3, [r4, #0]
     88a:	b258      	sxtb	r0, r3
     88c:	2800      	cmp	r0, #0
     88e:	da05      	bge.n	89c <udc_process_setup+0x20>
     890:	88e2      	ldrh	r2, [r4, #6]
     892:	2a00      	cmp	r2, #0
     894:	d102      	bne.n	89c <udc_process_setup+0x20>
     896:	2500      	movs	r5, #0
     898:	0028      	movs	r0, r5
     89a:	bdf8      	pop	{r3, r4, r5, r6, r7, pc}
     89c:	2160      	movs	r1, #96	; 0x60
     89e:	4019      	ands	r1, r3
     8a0:	d11e      	bne.n	8e0 <udc_process_setup+0x64>
     8a2:	221f      	movs	r2, #31
     8a4:	2800      	cmp	r0, #0
     8a6:	db00      	blt.n	8aa <udc_process_setup+0x2e>
     8a8:	e0b2      	b.n	a10 <udc_process_setup+0x194>
     8aa:	88e5      	ldrh	r5, [r4, #6]
     8ac:	2d00      	cmp	r5, #0
     8ae:	d017      	beq.n	8e0 <udc_process_setup+0x64>
     8b0:	4013      	ands	r3, r2
     8b2:	d174      	bne.n	99e <udc_process_setup+0x122>
     8b4:	7863      	ldrb	r3, [r4, #1]
     8b6:	2b06      	cmp	r3, #6
     8b8:	d00b      	beq.n	8d2 <udc_process_setup+0x56>
     8ba:	2b08      	cmp	r3, #8
     8bc:	d068      	beq.n	990 <udc_process_setup+0x114>
     8be:	2b00      	cmp	r3, #0
     8c0:	d10e      	bne.n	8e0 <udc_process_setup+0x64>
     8c2:	2d02      	cmp	r5, #2
     8c4:	d112      	bne.n	8ec <udc_process_setup+0x70>
     8c6:	0029      	movs	r1, r5
     8c8:	489d      	ldr	r0, [pc, #628]	; (b40 <udc_process_setup+0x2c4>)
     8ca:	4b9e      	ldr	r3, [pc, #632]	; (b44 <udc_process_setup+0x2c8>)
     8cc:	4798      	blx	r3
     8ce:	2501      	movs	r5, #1
     8d0:	e7e2      	b.n	898 <udc_process_setup+0x1c>
     8d2:	8863      	ldrh	r3, [r4, #2]
     8d4:	0a1d      	lsrs	r5, r3, #8
     8d6:	2d02      	cmp	r5, #2
     8d8:	d03d      	beq.n	956 <udc_process_setup+0xda>
     8da:	d829      	bhi.n	930 <udc_process_setup+0xb4>
     8dc:	2d01      	cmp	r5, #1
     8de:	d034      	beq.n	94a <udc_process_setup+0xce>
     8e0:	221f      	movs	r2, #31
     8e2:	7823      	ldrb	r3, [r4, #0]
     8e4:	4013      	ands	r3, r2
     8e6:	2b01      	cmp	r3, #1
     8e8:	d100      	bne.n	8ec <udc_process_setup+0x70>
     8ea:	e14f      	b.n	b8c <udc_process_setup+0x310>
     8ec:	221f      	movs	r2, #31
     8ee:	7823      	ldrb	r3, [r4, #0]
     8f0:	4013      	ands	r3, r2
     8f2:	2b02      	cmp	r3, #2
     8f4:	d1cf      	bne.n	896 <udc_process_setup+0x1a>
     8f6:	4b94      	ldr	r3, [pc, #592]	; (b48 <udc_process_setup+0x2cc>)
     8f8:	2400      	movs	r4, #0
     8fa:	781b      	ldrb	r3, [r3, #0]
     8fc:	2b00      	cmp	r3, #0
     8fe:	d0ca      	beq.n	896 <udc_process_setup+0x1a>
     900:	4b92      	ldr	r3, [pc, #584]	; (b4c <udc_process_setup+0x2d0>)
     902:	681b      	ldr	r3, [r3, #0]
     904:	681a      	ldr	r2, [r3, #0]
     906:	7912      	ldrb	r2, [r2, #4]
     908:	42a2      	cmp	r2, r4
     90a:	d9c4      	bls.n	896 <udc_process_setup+0x1a>
     90c:	685b      	ldr	r3, [r3, #4]
     90e:	00a2      	lsls	r2, r4, #2
     910:	58d5      	ldr	r5, [r2, r3]
     912:	68eb      	ldr	r3, [r5, #12]
     914:	4798      	blx	r3
     916:	4b8e      	ldr	r3, [pc, #568]	; (b50 <udc_process_setup+0x2d4>)
     918:	0001      	movs	r1, r0
     91a:	0020      	movs	r0, r4
     91c:	4798      	blx	r3
     91e:	2800      	cmp	r0, #0
     920:	d0b9      	beq.n	896 <udc_process_setup+0x1a>
     922:	68ab      	ldr	r3, [r5, #8]
     924:	4798      	blx	r3
     926:	2800      	cmp	r0, #0
     928:	d1d1      	bne.n	8ce <udc_process_setup+0x52>
     92a:	3401      	adds	r4, #1
     92c:	b2e4      	uxtb	r4, r4
     92e:	e7e7      	b.n	900 <udc_process_setup+0x84>
     930:	2d03      	cmp	r5, #3
     932:	d027      	beq.n	984 <udc_process_setup+0x108>
     934:	2d0f      	cmp	r5, #15
     936:	d1d3      	bne.n	8e0 <udc_process_setup+0x64>
     938:	4b86      	ldr	r3, [pc, #536]	; (b54 <udc_process_setup+0x2d8>)
     93a:	6898      	ldr	r0, [r3, #8]
     93c:	2800      	cmp	r0, #0
     93e:	d0d5      	beq.n	8ec <udc_process_setup+0x70>
     940:	78c1      	ldrb	r1, [r0, #3]
     942:	7883      	ldrb	r3, [r0, #2]
     944:	0209      	lsls	r1, r1, #8
     946:	4319      	orrs	r1, r3
     948:	e002      	b.n	950 <udc_process_setup+0xd4>
     94a:	4b82      	ldr	r3, [pc, #520]	; (b54 <udc_process_setup+0x2d8>)
     94c:	6818      	ldr	r0, [r3, #0]
     94e:	7801      	ldrb	r1, [r0, #0]
     950:	4b7c      	ldr	r3, [pc, #496]	; (b44 <udc_process_setup+0x2c8>)
     952:	4798      	blx	r3
     954:	e010      	b.n	978 <udc_process_setup+0xfc>
     956:	4a7f      	ldr	r2, [pc, #508]	; (b54 <udc_process_setup+0x2d8>)
     958:	b2db      	uxtb	r3, r3
     95a:	6811      	ldr	r1, [r2, #0]
     95c:	7c49      	ldrb	r1, [r1, #17]
     95e:	4299      	cmp	r1, r3
     960:	d9c4      	bls.n	8ec <udc_process_setup+0x70>
     962:	6852      	ldr	r2, [r2, #4]
     964:	00db      	lsls	r3, r3, #3
     966:	5898      	ldr	r0, [r3, r2]
     968:	78c1      	ldrb	r1, [r0, #3]
     96a:	7883      	ldrb	r3, [r0, #2]
     96c:	0209      	lsls	r1, r1, #8
     96e:	4319      	orrs	r1, r3
     970:	4b74      	ldr	r3, [pc, #464]	; (b44 <udc_process_setup+0x2c8>)
     972:	4798      	blx	r3
     974:	68a3      	ldr	r3, [r4, #8]
     976:	705d      	strb	r5, [r3, #1]
     978:	88e3      	ldrh	r3, [r4, #6]
     97a:	89a2      	ldrh	r2, [r4, #12]
     97c:	429a      	cmp	r2, r3
     97e:	d9a6      	bls.n	8ce <udc_process_setup+0x52>
     980:	81a3      	strh	r3, [r4, #12]
     982:	e7a4      	b.n	8ce <udc_process_setup+0x52>
     984:	b2db      	uxtb	r3, r3
     986:	2b00      	cmp	r3, #0
     988:	d1aa      	bne.n	8e0 <udc_process_setup+0x64>
     98a:	2104      	movs	r1, #4
     98c:	4872      	ldr	r0, [pc, #456]	; (b58 <udc_process_setup+0x2dc>)
     98e:	e7df      	b.n	950 <udc_process_setup+0xd4>
     990:	2d01      	cmp	r5, #1
     992:	d1ab      	bne.n	8ec <udc_process_setup+0x70>
     994:	0029      	movs	r1, r5
     996:	486c      	ldr	r0, [pc, #432]	; (b48 <udc_process_setup+0x2cc>)
     998:	4b6a      	ldr	r3, [pc, #424]	; (b44 <udc_process_setup+0x2c8>)
     99a:	4798      	blx	r3
     99c:	e77c      	b.n	898 <udc_process_setup+0x1c>
     99e:	2b01      	cmp	r3, #1
     9a0:	d121      	bne.n	9e6 <udc_process_setup+0x16a>
     9a2:	7863      	ldrb	r3, [r4, #1]
     9a4:	2b0a      	cmp	r3, #10
     9a6:	d19b      	bne.n	8e0 <udc_process_setup+0x64>
     9a8:	2d01      	cmp	r5, #1
     9aa:	d000      	beq.n	9ae <udc_process_setup+0x132>
     9ac:	e0ee      	b.n	b8c <udc_process_setup+0x310>
     9ae:	4b66      	ldr	r3, [pc, #408]	; (b48 <udc_process_setup+0x2cc>)
     9b0:	781b      	ldrb	r3, [r3, #0]
     9b2:	2b00      	cmp	r3, #0
     9b4:	d100      	bne.n	9b8 <udc_process_setup+0x13c>
     9b6:	e0e9      	b.n	b8c <udc_process_setup+0x310>
     9b8:	4b64      	ldr	r3, [pc, #400]	; (b4c <udc_process_setup+0x2d0>)
     9ba:	7926      	ldrb	r6, [r4, #4]
     9bc:	681f      	ldr	r7, [r3, #0]
     9be:	683b      	ldr	r3, [r7, #0]
     9c0:	791b      	ldrb	r3, [r3, #4]
     9c2:	42b3      	cmp	r3, r6
     9c4:	d800      	bhi.n	9c8 <udc_process_setup+0x14c>
     9c6:	e0e1      	b.n	b8c <udc_process_setup+0x310>
     9c8:	0030      	movs	r0, r6
     9ca:	4b61      	ldr	r3, [pc, #388]	; (b50 <udc_process_setup+0x2d4>)
     9cc:	4798      	blx	r3
     9ce:	1e05      	subs	r5, r0, #0
     9d0:	d086      	beq.n	8e0 <udc_process_setup+0x64>
     9d2:	687b      	ldr	r3, [r7, #4]
     9d4:	00b6      	lsls	r6, r6, #2
     9d6:	58f3      	ldr	r3, [r6, r3]
     9d8:	68db      	ldr	r3, [r3, #12]
     9da:	4798      	blx	r3
     9dc:	4b5f      	ldr	r3, [pc, #380]	; (b5c <udc_process_setup+0x2e0>)
     9de:	2101      	movs	r1, #1
     9e0:	7018      	strb	r0, [r3, #0]
     9e2:	0018      	movs	r0, r3
     9e4:	e7d8      	b.n	998 <udc_process_setup+0x11c>
     9e6:	2b02      	cmp	r3, #2
     9e8:	d000      	beq.n	9ec <udc_process_setup+0x170>
     9ea:	e779      	b.n	8e0 <udc_process_setup+0x64>
     9ec:	7863      	ldrb	r3, [r4, #1]
     9ee:	2b00      	cmp	r3, #0
     9f0:	d000      	beq.n	9f4 <udc_process_setup+0x178>
     9f2:	e775      	b.n	8e0 <udc_process_setup+0x64>
     9f4:	2d02      	cmp	r5, #2
     9f6:	d000      	beq.n	9fa <udc_process_setup+0x17e>
     9f8:	e778      	b.n	8ec <udc_process_setup+0x70>
     9fa:	4b59      	ldr	r3, [pc, #356]	; (b60 <udc_process_setup+0x2e4>)
     9fc:	7920      	ldrb	r0, [r4, #4]
     9fe:	4798      	blx	r3
     a00:	4b58      	ldr	r3, [pc, #352]	; (b64 <udc_process_setup+0x2e8>)
     a02:	0029      	movs	r1, r5
     a04:	8018      	strh	r0, [r3, #0]
     a06:	0018      	movs	r0, r3
     a08:	4b4e      	ldr	r3, [pc, #312]	; (b44 <udc_process_setup+0x2c8>)
     a0a:	4798      	blx	r3
     a0c:	3d01      	subs	r5, #1
     a0e:	e743      	b.n	898 <udc_process_setup+0x1c>
     a10:	4013      	ands	r3, r2
     a12:	d153      	bne.n	abc <udc_process_setup+0x240>
     a14:	7860      	ldrb	r0, [r4, #1]
     a16:	3801      	subs	r0, #1
     a18:	2808      	cmp	r0, #8
     a1a:	d900      	bls.n	a1e <udc_process_setup+0x1a2>
     a1c:	e760      	b.n	8e0 <udc_process_setup+0x64>
     a1e:	f007 f941 	bl	7ca4 <__gnu_thumb1_case_shi>
     a22:	0010      	.short	0x0010
     a24:	ff5fff5f 	.word	0xff5fff5f
     a28:	0009ff5f 	.word	0x0009ff5f
     a2c:	ff5fff5f 	.word	0xff5fff5f
     a30:	001eff5f 	.word	0x001eff5f
     a34:	88e3      	ldrh	r3, [r4, #6]
     a36:	2b00      	cmp	r3, #0
     a38:	d000      	beq.n	a3c <udc_process_setup+0x1c0>
     a3a:	e757      	b.n	8ec <udc_process_setup+0x70>
     a3c:	4b4a      	ldr	r3, [pc, #296]	; (b68 <udc_process_setup+0x2ec>)
     a3e:	6123      	str	r3, [r4, #16]
     a40:	e745      	b.n	8ce <udc_process_setup+0x52>
     a42:	88e3      	ldrh	r3, [r4, #6]
     a44:	2b00      	cmp	r3, #0
     a46:	d000      	beq.n	a4a <udc_process_setup+0x1ce>
     a48:	e750      	b.n	8ec <udc_process_setup+0x70>
     a4a:	8865      	ldrh	r5, [r4, #2]
     a4c:	2d01      	cmp	r5, #1
     a4e:	d000      	beq.n	a52 <udc_process_setup+0x1d6>
     a50:	e74c      	b.n	8ec <udc_process_setup+0x70>
     a52:	2102      	movs	r1, #2
     a54:	4a3a      	ldr	r2, [pc, #232]	; (b40 <udc_process_setup+0x2c4>)
     a56:	8813      	ldrh	r3, [r2, #0]
     a58:	438b      	bics	r3, r1
     a5a:	8013      	strh	r3, [r2, #0]
     a5c:	e71c      	b.n	898 <udc_process_setup+0x1c>
     a5e:	88e5      	ldrh	r5, [r4, #6]
     a60:	2d00      	cmp	r5, #0
     a62:	d000      	beq.n	a66 <udc_process_setup+0x1ea>
     a64:	e742      	b.n	8ec <udc_process_setup+0x70>
     a66:	4b41      	ldr	r3, [pc, #260]	; (b6c <udc_process_setup+0x2f0>)
     a68:	4798      	blx	r3
     a6a:	2800      	cmp	r0, #0
     a6c:	d100      	bne.n	a70 <udc_process_setup+0x1f4>
     a6e:	e737      	b.n	8e0 <udc_process_setup+0x64>
     a70:	4f38      	ldr	r7, [pc, #224]	; (b54 <udc_process_setup+0x2d8>)
     a72:	78a2      	ldrb	r2, [r4, #2]
     a74:	683b      	ldr	r3, [r7, #0]
     a76:	7c5b      	ldrb	r3, [r3, #17]
     a78:	429a      	cmp	r2, r3
     a7a:	dd00      	ble.n	a7e <udc_process_setup+0x202>
     a7c:	e730      	b.n	8e0 <udc_process_setup+0x64>
     a7e:	4b3c      	ldr	r3, [pc, #240]	; (b70 <udc_process_setup+0x2f4>)
     a80:	4798      	blx	r3
     a82:	78a3      	ldrb	r3, [r4, #2]
     a84:	4a30      	ldr	r2, [pc, #192]	; (b48 <udc_process_setup+0x2cc>)
     a86:	7013      	strb	r3, [r2, #0]
     a88:	2b00      	cmp	r3, #0
     a8a:	d100      	bne.n	a8e <udc_process_setup+0x212>
     a8c:	e71f      	b.n	8ce <udc_process_setup+0x52>
     a8e:	4a39      	ldr	r2, [pc, #228]	; (b74 <udc_process_setup+0x2f8>)
     a90:	4e2e      	ldr	r6, [pc, #184]	; (b4c <udc_process_setup+0x2d0>)
     a92:	189b      	adds	r3, r3, r2
     a94:	687a      	ldr	r2, [r7, #4]
     a96:	00db      	lsls	r3, r3, #3
     a98:	18d3      	adds	r3, r2, r3
     a9a:	6033      	str	r3, [r6, #0]
     a9c:	6833      	ldr	r3, [r6, #0]
     a9e:	681b      	ldr	r3, [r3, #0]
     aa0:	791b      	ldrb	r3, [r3, #4]
     aa2:	42ab      	cmp	r3, r5
     aa4:	d800      	bhi.n	aa8 <udc_process_setup+0x22c>
     aa6:	e712      	b.n	8ce <udc_process_setup+0x52>
     aa8:	2100      	movs	r1, #0
     aaa:	0028      	movs	r0, r5
     aac:	4b32      	ldr	r3, [pc, #200]	; (b78 <udc_process_setup+0x2fc>)
     aae:	4798      	blx	r3
     ab0:	2800      	cmp	r0, #0
     ab2:	d100      	bne.n	ab6 <udc_process_setup+0x23a>
     ab4:	e714      	b.n	8e0 <udc_process_setup+0x64>
     ab6:	3501      	adds	r5, #1
     ab8:	b2ed      	uxtb	r5, r5
     aba:	e7ef      	b.n	a9c <udc_process_setup+0x220>
     abc:	2b01      	cmp	r3, #1
     abe:	d11a      	bne.n	af6 <udc_process_setup+0x27a>
     ac0:	7863      	ldrb	r3, [r4, #1]
     ac2:	2b0b      	cmp	r3, #11
     ac4:	d000      	beq.n	ac8 <udc_process_setup+0x24c>
     ac6:	e70b      	b.n	8e0 <udc_process_setup+0x64>
     ac8:	88e3      	ldrh	r3, [r4, #6]
     aca:	2b00      	cmp	r3, #0
     acc:	d15e      	bne.n	b8c <udc_process_setup+0x310>
     ace:	4b1e      	ldr	r3, [pc, #120]	; (b48 <udc_process_setup+0x2cc>)
     ad0:	781b      	ldrb	r3, [r3, #0]
     ad2:	2b00      	cmp	r3, #0
     ad4:	d05a      	beq.n	b8c <udc_process_setup+0x310>
     ad6:	7926      	ldrb	r6, [r4, #4]
     ad8:	4b28      	ldr	r3, [pc, #160]	; (b7c <udc_process_setup+0x300>)
     ada:	0030      	movs	r0, r6
     adc:	8865      	ldrh	r5, [r4, #2]
     ade:	4798      	blx	r3
     ae0:	2800      	cmp	r0, #0
     ae2:	d100      	bne.n	ae6 <udc_process_setup+0x26a>
     ae4:	e6fc      	b.n	8e0 <udc_process_setup+0x64>
     ae6:	b2e9      	uxtb	r1, r5
     ae8:	0030      	movs	r0, r6
     aea:	4b23      	ldr	r3, [pc, #140]	; (b78 <udc_process_setup+0x2fc>)
     aec:	4798      	blx	r3
     aee:	2800      	cmp	r0, #0
     af0:	d000      	beq.n	af4 <udc_process_setup+0x278>
     af2:	e6ec      	b.n	8ce <udc_process_setup+0x52>
     af4:	e6f4      	b.n	8e0 <udc_process_setup+0x64>
     af6:	2b02      	cmp	r3, #2
     af8:	d000      	beq.n	afc <udc_process_setup+0x280>
     afa:	e6f1      	b.n	8e0 <udc_process_setup+0x64>
     afc:	7863      	ldrb	r3, [r4, #1]
     afe:	2b01      	cmp	r3, #1
     b00:	d010      	beq.n	b24 <udc_process_setup+0x2a8>
     b02:	2b03      	cmp	r3, #3
     b04:	d000      	beq.n	b08 <udc_process_setup+0x28c>
     b06:	e6eb      	b.n	8e0 <udc_process_setup+0x64>
     b08:	88e3      	ldrh	r3, [r4, #6]
     b0a:	2b00      	cmp	r3, #0
     b0c:	d000      	beq.n	b10 <udc_process_setup+0x294>
     b0e:	e6ed      	b.n	8ec <udc_process_setup+0x70>
     b10:	8863      	ldrh	r3, [r4, #2]
     b12:	2b00      	cmp	r3, #0
     b14:	d000      	beq.n	b18 <udc_process_setup+0x29c>
     b16:	e6e9      	b.n	8ec <udc_process_setup+0x70>
     b18:	7920      	ldrb	r0, [r4, #4]
     b1a:	4b19      	ldr	r3, [pc, #100]	; (b80 <udc_process_setup+0x304>)
     b1c:	4798      	blx	r3
     b1e:	7920      	ldrb	r0, [r4, #4]
     b20:	4b18      	ldr	r3, [pc, #96]	; (b84 <udc_process_setup+0x308>)
     b22:	e009      	b.n	b38 <udc_process_setup+0x2bc>
     b24:	88e3      	ldrh	r3, [r4, #6]
     b26:	2b00      	cmp	r3, #0
     b28:	d000      	beq.n	b2c <udc_process_setup+0x2b0>
     b2a:	e6df      	b.n	8ec <udc_process_setup+0x70>
     b2c:	8863      	ldrh	r3, [r4, #2]
     b2e:	2b00      	cmp	r3, #0
     b30:	d000      	beq.n	b34 <udc_process_setup+0x2b8>
     b32:	e6db      	b.n	8ec <udc_process_setup+0x70>
     b34:	7920      	ldrb	r0, [r4, #4]
     b36:	4b14      	ldr	r3, [pc, #80]	; (b88 <udc_process_setup+0x30c>)
     b38:	4798      	blx	r3
     b3a:	e7d8      	b.n	aee <udc_process_setup+0x272>
     b3c:	20003de0 	.word	0x20003de0
     b40:	2000067e 	.word	0x2000067e
     b44:	000024a5 	.word	0x000024a5
     b48:	20000688 	.word	0x20000688
     b4c:	2000068c 	.word	0x2000068c
     b50:	000006b1 	.word	0x000006b1
     b54:	20000034 	.word	0x20000034
     b58:	200000b4 	.word	0x200000b4
     b5c:	20000684 	.word	0x20000684
     b60:	000021bd 	.word	0x000021bd
     b64:	20000680 	.word	0x20000680
     b68:	00000699 	.word	0x00000699
     b6c:	00002495 	.word	0x00002495
     b70:	00000805 	.word	0x00000805
     b74:	1fffffff 	.word	0x1fffffff
     b78:	00000745 	.word	0x00000745
     b7c:	0000079d 	.word	0x0000079d
     b80:	0000203d 	.word	0x0000203d
     b84:	000021d1 	.word	0x000021d1
     b88:	000022d1 	.word	0x000022d1
     b8c:	4b12      	ldr	r3, [pc, #72]	; (bd8 <udc_process_setup+0x35c>)
     b8e:	781b      	ldrb	r3, [r3, #0]
     b90:	2b00      	cmp	r3, #0
     b92:	d100      	bne.n	b96 <udc_process_setup+0x31a>
     b94:	e6aa      	b.n	8ec <udc_process_setup+0x70>
     b96:	4b11      	ldr	r3, [pc, #68]	; (bdc <udc_process_setup+0x360>)
     b98:	7925      	ldrb	r5, [r4, #4]
     b9a:	681e      	ldr	r6, [r3, #0]
     b9c:	6833      	ldr	r3, [r6, #0]
     b9e:	791b      	ldrb	r3, [r3, #4]
     ba0:	42ab      	cmp	r3, r5
     ba2:	d800      	bhi.n	ba6 <udc_process_setup+0x32a>
     ba4:	e6a2      	b.n	8ec <udc_process_setup+0x70>
     ba6:	2100      	movs	r1, #0
     ba8:	0028      	movs	r0, r5
     baa:	4f0d      	ldr	r7, [pc, #52]	; (be0 <udc_process_setup+0x364>)
     bac:	47b8      	blx	r7
     bae:	2800      	cmp	r0, #0
     bb0:	d100      	bne.n	bb4 <udc_process_setup+0x338>
     bb2:	e69b      	b.n	8ec <udc_process_setup+0x70>
     bb4:	6873      	ldr	r3, [r6, #4]
     bb6:	00aa      	lsls	r2, r5, #2
     bb8:	58d6      	ldr	r6, [r2, r3]
     bba:	68f3      	ldr	r3, [r6, #12]
     bbc:	4798      	blx	r3
     bbe:	0001      	movs	r1, r0
     bc0:	0028      	movs	r0, r5
     bc2:	47b8      	blx	r7
     bc4:	2800      	cmp	r0, #0
     bc6:	d100      	bne.n	bca <udc_process_setup+0x34e>
     bc8:	e690      	b.n	8ec <udc_process_setup+0x70>
     bca:	68b3      	ldr	r3, [r6, #8]
     bcc:	4798      	blx	r3
     bce:	2800      	cmp	r0, #0
     bd0:	d000      	beq.n	bd4 <udc_process_setup+0x358>
     bd2:	e67c      	b.n	8ce <udc_process_setup+0x52>
     bd4:	e68a      	b.n	8ec <udc_process_setup+0x70>
     bd6:	46c0      	nop			; (mov r8, r8)
     bd8:	20000688 	.word	0x20000688
     bdc:	2000068c 	.word	0x2000068c
     be0:	000006b1 	.word	0x000006b1

00000be4 <adc_is_syncing>:
     be4:	6803      	ldr	r3, [r0, #0]
     be6:	7e58      	ldrb	r0, [r3, #25]
     be8:	09c0      	lsrs	r0, r0, #7
     bea:	4770      	bx	lr

00000bec <_adc_configure_ain_pin>:
     bec:	b530      	push	{r4, r5, lr}
     bee:	b097      	sub	sp, #92	; 0x5c
     bf0:	ad02      	add	r5, sp, #8
     bf2:	0004      	movs	r4, r0
     bf4:	2250      	movs	r2, #80	; 0x50
     bf6:	490a      	ldr	r1, [pc, #40]	; (c20 <_adc_configure_ain_pin+0x34>)
     bf8:	0028      	movs	r0, r5
     bfa:	4b0a      	ldr	r3, [pc, #40]	; (c24 <_adc_configure_ain_pin+0x38>)
     bfc:	4798      	blx	r3
     bfe:	2c13      	cmp	r4, #19
     c00:	d80b      	bhi.n	c1a <_adc_configure_ain_pin+0x2e>
     c02:	2300      	movs	r3, #0
     c04:	00a4      	lsls	r4, r4, #2
     c06:	a901      	add	r1, sp, #4
     c08:	5960      	ldr	r0, [r4, r5]
     c0a:	704b      	strb	r3, [r1, #1]
     c0c:	70cb      	strb	r3, [r1, #3]
     c0e:	708b      	strb	r3, [r1, #2]
     c10:	3301      	adds	r3, #1
     c12:	700b      	strb	r3, [r1, #0]
     c14:	b2c0      	uxtb	r0, r0
     c16:	4b04      	ldr	r3, [pc, #16]	; (c28 <_adc_configure_ain_pin+0x3c>)
     c18:	4798      	blx	r3
     c1a:	b017      	add	sp, #92	; 0x5c
     c1c:	bd30      	pop	{r4, r5, pc}
     c1e:	46c0      	nop			; (mov r8, r8)
     c20:	0000b6dc 	.word	0x0000b6dc
     c24:	0000ae15 	.word	0x0000ae15
     c28:	00007a6d 	.word	0x00007a6d

00000c2c <adc_get_config_defaults>:
     c2c:	22c0      	movs	r2, #192	; 0xc0
     c2e:	0152      	lsls	r2, r2, #5
     c30:	81c2      	strh	r2, [r0, #14]
     c32:	0002      	movs	r2, r0
     c34:	2300      	movs	r3, #0
     c36:	322a      	adds	r2, #42	; 0x2a
     c38:	7003      	strb	r3, [r0, #0]
     c3a:	7043      	strb	r3, [r0, #1]
     c3c:	8043      	strh	r3, [r0, #2]
     c3e:	7103      	strb	r3, [r0, #4]
     c40:	7603      	strb	r3, [r0, #24]
     c42:	6203      	str	r3, [r0, #32]
     c44:	61c3      	str	r3, [r0, #28]
     c46:	6083      	str	r3, [r0, #8]
     c48:	7303      	strb	r3, [r0, #12]
     c4a:	7403      	strb	r3, [r0, #16]
     c4c:	7443      	strb	r3, [r0, #17]
     c4e:	7483      	strb	r3, [r0, #18]
     c50:	74c3      	strb	r3, [r0, #19]
     c52:	7503      	strb	r3, [r0, #20]
     c54:	7013      	strb	r3, [r2, #0]
     c56:	1d42      	adds	r2, r0, #5
     c58:	7543      	strb	r3, [r0, #21]
     c5a:	7583      	strb	r3, [r0, #22]
     c5c:	77d3      	strb	r3, [r2, #31]
     c5e:	84c3      	strh	r3, [r0, #38]	; 0x26
     c60:	8503      	strh	r3, [r0, #40]	; 0x28
     c62:	75c3      	strb	r3, [r0, #23]
     c64:	3226      	adds	r2, #38	; 0x26
     c66:	302c      	adds	r0, #44	; 0x2c
     c68:	7013      	strb	r3, [r2, #0]
     c6a:	7003      	strb	r3, [r0, #0]
     c6c:	4770      	bx	lr
	...

00000c70 <adc_init>:
     c70:	2380      	movs	r3, #128	; 0x80
     c72:	b5f0      	push	{r4, r5, r6, r7, lr}
     c74:	0014      	movs	r4, r2
     c76:	4ab8      	ldr	r2, [pc, #736]	; (f58 <adc_init+0x2e8>)
     c78:	6001      	str	r1, [r0, #0]
     c7a:	0006      	movs	r6, r0
     c7c:	6a10      	ldr	r0, [r2, #32]
     c7e:	025b      	lsls	r3, r3, #9
     c80:	4303      	orrs	r3, r0
     c82:	6213      	str	r3, [r2, #32]
     c84:	780b      	ldrb	r3, [r1, #0]
     c86:	b087      	sub	sp, #28
     c88:	2005      	movs	r0, #5
     c8a:	07db      	lsls	r3, r3, #31
     c8c:	d500      	bpl.n	c90 <adc_init+0x20>
     c8e:	e0ff      	b.n	e90 <adc_init+0x220>
     c90:	780b      	ldrb	r3, [r1, #0]
     c92:	3017      	adds	r0, #23
     c94:	079b      	lsls	r3, r3, #30
     c96:	d500      	bpl.n	c9a <adc_init+0x2a>
     c98:	e0fa      	b.n	e90 <adc_init+0x220>
     c9a:	7863      	ldrb	r3, [r4, #1]
     c9c:	7133      	strb	r3, [r6, #4]
     c9e:	2b00      	cmp	r3, #0
     ca0:	d104      	bne.n	cac <adc_init+0x3c>
     ca2:	4aae      	ldr	r2, [pc, #696]	; (f5c <adc_init+0x2ec>)
     ca4:	3304      	adds	r3, #4
     ca6:	6c11      	ldr	r1, [r2, #64]	; 0x40
     ca8:	430b      	orrs	r3, r1
     caa:	6413      	str	r3, [r2, #64]	; 0x40
     cac:	4aac      	ldr	r2, [pc, #688]	; (f60 <adc_init+0x2f0>)
     cae:	2300      	movs	r3, #0
     cb0:	6016      	str	r6, [r2, #0]
     cb2:	0022      	movs	r2, r4
     cb4:	322a      	adds	r2, #42	; 0x2a
     cb6:	8333      	strh	r3, [r6, #24]
     cb8:	60b3      	str	r3, [r6, #8]
     cba:	60f3      	str	r3, [r6, #12]
     cbc:	6133      	str	r3, [r6, #16]
     cbe:	76b3      	strb	r3, [r6, #26]
     cc0:	76f3      	strb	r3, [r6, #27]
     cc2:	7733      	strb	r3, [r6, #28]
     cc4:	9202      	str	r2, [sp, #8]
     cc6:	7812      	ldrb	r2, [r2, #0]
     cc8:	429a      	cmp	r2, r3
     cca:	d103      	bne.n	cd4 <adc_init+0x64>
     ccc:	7d22      	ldrb	r2, [r4, #20]
     cce:	429a      	cmp	r2, r3
     cd0:	d100      	bne.n	cd4 <adc_init+0x64>
     cd2:	3301      	adds	r3, #1
     cd4:	7773      	strb	r3, [r6, #29]
     cd6:	7823      	ldrb	r3, [r4, #0]
     cd8:	a905      	add	r1, sp, #20
     cda:	700b      	strb	r3, [r1, #0]
     cdc:	201e      	movs	r0, #30
     cde:	4ba1      	ldr	r3, [pc, #644]	; (f64 <adc_init+0x2f4>)
     ce0:	6837      	ldr	r7, [r6, #0]
     ce2:	4798      	blx	r3
     ce4:	4ba0      	ldr	r3, [pc, #640]	; (f68 <adc_init+0x2f8>)
     ce6:	201e      	movs	r0, #30
     ce8:	4798      	blx	r3
     cea:	0023      	movs	r3, r4
     cec:	332c      	adds	r3, #44	; 0x2c
     cee:	781b      	ldrb	r3, [r3, #0]
     cf0:	7b22      	ldrb	r2, [r4, #12]
     cf2:	9201      	str	r2, [sp, #4]
     cf4:	2b00      	cmp	r3, #0
     cf6:	d033      	beq.n	d60 <adc_init+0xf0>
     cf8:	0022      	movs	r2, r4
     cfa:	322b      	adds	r2, #43	; 0x2b
     cfc:	7815      	ldrb	r5, [r2, #0]
     cfe:	9a01      	ldr	r2, [sp, #4]
     d00:	1955      	adds	r5, r2, r5
     d02:	b2ed      	uxtb	r5, r5
     d04:	195b      	adds	r3, r3, r5
     d06:	b2db      	uxtb	r3, r3
     d08:	9303      	str	r3, [sp, #12]
     d0a:	9b01      	ldr	r3, [sp, #4]
     d0c:	1ae8      	subs	r0, r5, r3
     d0e:	9b03      	ldr	r3, [sp, #12]
     d10:	b2c0      	uxtb	r0, r0
     d12:	42ab      	cmp	r3, r5
     d14:	d81b      	bhi.n	d4e <adc_init+0xde>
     d16:	89e0      	ldrh	r0, [r4, #14]
     d18:	4b94      	ldr	r3, [pc, #592]	; (f6c <adc_init+0x2fc>)
     d1a:	4798      	blx	r3
     d1c:	7d63      	ldrb	r3, [r4, #21]
     d1e:	009b      	lsls	r3, r3, #2
     d20:	b2db      	uxtb	r3, r3
     d22:	703b      	strb	r3, [r7, #0]
     d24:	7da3      	ldrb	r3, [r4, #22]
     d26:	7862      	ldrb	r2, [r4, #1]
     d28:	01db      	lsls	r3, r3, #7
     d2a:	4313      	orrs	r3, r2
     d2c:	b2db      	uxtb	r3, r3
     d2e:	707b      	strb	r3, [r7, #1]
     d30:	7925      	ldrb	r5, [r4, #4]
     d32:	2d30      	cmp	r5, #48	; 0x30
     d34:	d100      	bne.n	d38 <adc_init+0xc8>
     d36:	e0b8      	b.n	eaa <adc_init+0x23a>
     d38:	d818      	bhi.n	d6c <adc_init+0xfc>
     d3a:	2d10      	cmp	r5, #16
     d3c:	d100      	bne.n	d40 <adc_init+0xd0>
     d3e:	e0b1      	b.n	ea4 <adc_init+0x234>
     d40:	2d20      	cmp	r5, #32
     d42:	d100      	bne.n	d46 <adc_init+0xd6>
     d44:	e0b1      	b.n	eaa <adc_init+0x23a>
     d46:	2d00      	cmp	r5, #0
     d48:	d11a      	bne.n	d80 <adc_init+0x110>
     d4a:	002b      	movs	r3, r5
     d4c:	e0ab      	b.n	ea6 <adc_init+0x236>
     d4e:	230f      	movs	r3, #15
     d50:	4018      	ands	r0, r3
     d52:	7b23      	ldrb	r3, [r4, #12]
     d54:	3501      	adds	r5, #1
     d56:	18c0      	adds	r0, r0, r3
     d58:	4b84      	ldr	r3, [pc, #528]	; (f6c <adc_init+0x2fc>)
     d5a:	4798      	blx	r3
     d5c:	b2ed      	uxtb	r5, r5
     d5e:	e7d4      	b.n	d0a <adc_init+0x9a>
     d60:	9801      	ldr	r0, [sp, #4]
     d62:	4d82      	ldr	r5, [pc, #520]	; (f6c <adc_init+0x2fc>)
     d64:	47a8      	blx	r5
     d66:	89e0      	ldrh	r0, [r4, #14]
     d68:	47a8      	blx	r5
     d6a:	e7d7      	b.n	d1c <adc_init+0xac>
     d6c:	2d32      	cmp	r5, #50	; 0x32
     d6e:	d009      	beq.n	d84 <adc_init+0x114>
     d70:	d200      	bcs.n	d74 <adc_init+0x104>
     d72:	e09c      	b.n	eae <adc_init+0x23e>
     d74:	2d33      	cmp	r5, #51	; 0x33
     d76:	d100      	bne.n	d7a <adc_init+0x10a>
     d78:	e090      	b.n	e9c <adc_init+0x22c>
     d7a:	2d34      	cmp	r5, #52	; 0x34
     d7c:	d100      	bne.n	d80 <adc_init+0x110>
     d7e:	e089      	b.n	e94 <adc_init+0x224>
     d80:	2017      	movs	r0, #23
     d82:	e085      	b.n	e90 <adc_init+0x220>
     d84:	2304      	movs	r3, #4
     d86:	2510      	movs	r5, #16
     d88:	2202      	movs	r2, #2
     d8a:	2170      	movs	r1, #112	; 0x70
     d8c:	0112      	lsls	r2, r2, #4
     d8e:	400a      	ands	r2, r1
     d90:	4313      	orrs	r3, r2
     d92:	70bb      	strb	r3, [r7, #2]
     d94:	7de3      	ldrb	r3, [r4, #23]
     d96:	2b3f      	cmp	r3, #63	; 0x3f
     d98:	d8f2      	bhi.n	d80 <adc_init+0x110>
     d9a:	70fb      	strb	r3, [r7, #3]
     d9c:	0030      	movs	r0, r6
     d9e:	4b74      	ldr	r3, [pc, #464]	; (f70 <adc_init+0x300>)
     da0:	4798      	blx	r3
     da2:	2800      	cmp	r0, #0
     da4:	d1fa      	bne.n	d9c <adc_init+0x12c>
     da6:	8862      	ldrh	r2, [r4, #2]
     da8:	7ce3      	ldrb	r3, [r4, #19]
     daa:	4313      	orrs	r3, r2
     dac:	1d62      	adds	r2, r4, #5
     dae:	9203      	str	r2, [sp, #12]
     db0:	7fd2      	ldrb	r2, [r2, #31]
     db2:	00d2      	lsls	r2, r2, #3
     db4:	4313      	orrs	r3, r2
     db6:	7d22      	ldrb	r2, [r4, #20]
     db8:	0092      	lsls	r2, r2, #2
     dba:	4313      	orrs	r3, r2
     dbc:	7ca2      	ldrb	r2, [r4, #18]
     dbe:	0052      	lsls	r2, r2, #1
     dc0:	4313      	orrs	r3, r2
     dc2:	432b      	orrs	r3, r5
     dc4:	80bb      	strh	r3, [r7, #4]
     dc6:	7e23      	ldrb	r3, [r4, #24]
     dc8:	2b00      	cmp	r3, #0
     dca:	d007      	beq.n	ddc <adc_init+0x16c>
     dcc:	2d10      	cmp	r5, #16
     dce:	d100      	bne.n	dd2 <adc_init+0x162>
     dd0:	e0b3      	b.n	f3a <adc_init+0x2ca>
     dd2:	d900      	bls.n	dd6 <adc_init+0x166>
     dd4:	e06d      	b.n	eb2 <adc_init+0x242>
     dd6:	2d00      	cmp	r5, #0
     dd8:	d100      	bne.n	ddc <adc_init+0x16c>
     dda:	e09f      	b.n	f1c <adc_init+0x2ac>
     ddc:	0030      	movs	r0, r6
     dde:	4b64      	ldr	r3, [pc, #400]	; (f70 <adc_init+0x300>)
     de0:	4798      	blx	r3
     de2:	2800      	cmp	r0, #0
     de4:	d1fa      	bne.n	ddc <adc_init+0x16c>
     de6:	7e23      	ldrb	r3, [r4, #24]
     de8:	723b      	strb	r3, [r7, #8]
     dea:	0030      	movs	r0, r6
     dec:	4b60      	ldr	r3, [pc, #384]	; (f70 <adc_init+0x300>)
     dee:	4798      	blx	r3
     df0:	2800      	cmp	r0, #0
     df2:	d1fa      	bne.n	dea <adc_init+0x17a>
     df4:	8ba3      	ldrh	r3, [r4, #28]
     df6:	83bb      	strh	r3, [r7, #28]
     df8:	0030      	movs	r0, r6
     dfa:	4b5d      	ldr	r3, [pc, #372]	; (f70 <adc_init+0x300>)
     dfc:	4798      	blx	r3
     dfe:	2800      	cmp	r0, #0
     e00:	d1fa      	bne.n	df8 <adc_init+0x188>
     e02:	8c23      	ldrh	r3, [r4, #32]
     e04:	843b      	strh	r3, [r7, #32]
     e06:	0023      	movs	r3, r4
     e08:	332c      	adds	r3, #44	; 0x2c
     e0a:	781d      	ldrb	r5, [r3, #0]
     e0c:	2d00      	cmp	r5, #0
     e0e:	d003      	beq.n	e18 <adc_init+0x1a8>
     e10:	3d01      	subs	r5, #1
     e12:	b2ed      	uxtb	r5, r5
     e14:	2d0f      	cmp	r5, #15
     e16:	d8b3      	bhi.n	d80 <adc_init+0x110>
     e18:	0023      	movs	r3, r4
     e1a:	332b      	adds	r3, #43	; 0x2b
     e1c:	9301      	str	r3, [sp, #4]
     e1e:	781b      	ldrb	r3, [r3, #0]
     e20:	2b0f      	cmp	r3, #15
     e22:	d8ad      	bhi.n	d80 <adc_init+0x110>
     e24:	0030      	movs	r0, r6
     e26:	4b52      	ldr	r3, [pc, #328]	; (f70 <adc_init+0x300>)
     e28:	4798      	blx	r3
     e2a:	2800      	cmp	r0, #0
     e2c:	d1fa      	bne.n	e24 <adc_init+0x1b4>
     e2e:	7b22      	ldrb	r2, [r4, #12]
     e30:	89e3      	ldrh	r3, [r4, #14]
     e32:	042d      	lsls	r5, r5, #16
     e34:	4313      	orrs	r3, r2
     e36:	68a2      	ldr	r2, [r4, #8]
     e38:	4313      	orrs	r3, r2
     e3a:	9a01      	ldr	r2, [sp, #4]
     e3c:	7812      	ldrb	r2, [r2, #0]
     e3e:	0512      	lsls	r2, r2, #20
     e40:	4313      	orrs	r3, r2
     e42:	431d      	orrs	r5, r3
     e44:	9b02      	ldr	r3, [sp, #8]
     e46:	613d      	str	r5, [r7, #16]
     e48:	781b      	ldrb	r3, [r3, #0]
     e4a:	753b      	strb	r3, [r7, #20]
     e4c:	230f      	movs	r3, #15
     e4e:	75bb      	strb	r3, [r7, #22]
     e50:	9b03      	ldr	r3, [sp, #12]
     e52:	7fdb      	ldrb	r3, [r3, #31]
     e54:	2b00      	cmp	r3, #0
     e56:	d00c      	beq.n	e72 <adc_init+0x202>
     e58:	8ce3      	ldrh	r3, [r4, #38]	; 0x26
     e5a:	4946      	ldr	r1, [pc, #280]	; (f74 <adc_init+0x304>)
     e5c:	428b      	cmp	r3, r1
     e5e:	d88f      	bhi.n	d80 <adc_init+0x110>
     e60:	84bb      	strh	r3, [r7, #36]	; 0x24
     e62:	2380      	movs	r3, #128	; 0x80
     e64:	8d22      	ldrh	r2, [r4, #40]	; 0x28
     e66:	011b      	lsls	r3, r3, #4
     e68:	18d3      	adds	r3, r2, r3
     e6a:	b29b      	uxth	r3, r3
     e6c:	428b      	cmp	r3, r1
     e6e:	d887      	bhi.n	d80 <adc_init+0x110>
     e70:	84fa      	strh	r2, [r7, #38]	; 0x26
     e72:	22e0      	movs	r2, #224	; 0xe0
     e74:	4b40      	ldr	r3, [pc, #256]	; (f78 <adc_init+0x308>)
     e76:	2000      	movs	r0, #0
     e78:	6819      	ldr	r1, [r3, #0]
     e7a:	00d2      	lsls	r2, r2, #3
     e7c:	014b      	lsls	r3, r1, #5
     e7e:	0019      	movs	r1, r3
     e80:	401a      	ands	r2, r3
     e82:	4b3e      	ldr	r3, [pc, #248]	; (f7c <adc_init+0x30c>)
     e84:	681b      	ldr	r3, [r3, #0]
     e86:	0edb      	lsrs	r3, r3, #27
     e88:	430b      	orrs	r3, r1
     e8a:	b2db      	uxtb	r3, r3
     e8c:	4313      	orrs	r3, r2
     e8e:	853b      	strh	r3, [r7, #40]	; 0x28
     e90:	b007      	add	sp, #28
     e92:	bdf0      	pop	{r4, r5, r6, r7, pc}
     e94:	7c62      	ldrb	r2, [r4, #17]
     e96:	7c23      	ldrb	r3, [r4, #16]
     e98:	2510      	movs	r5, #16
     e9a:	e776      	b.n	d8a <adc_init+0x11a>
     e9c:	2306      	movs	r3, #6
     e9e:	2510      	movs	r5, #16
     ea0:	2201      	movs	r2, #1
     ea2:	e772      	b.n	d8a <adc_init+0x11a>
     ea4:	2308      	movs	r3, #8
     ea6:	2200      	movs	r2, #0
     ea8:	e76f      	b.n	d8a <adc_init+0x11a>
     eaa:	2300      	movs	r3, #0
     eac:	e7fb      	b.n	ea6 <adc_init+0x236>
     eae:	2302      	movs	r3, #2
     eb0:	e7f5      	b.n	e9e <adc_init+0x22e>
     eb2:	2d20      	cmp	r5, #32
     eb4:	d018      	beq.n	ee8 <adc_init+0x278>
     eb6:	2d30      	cmp	r5, #48	; 0x30
     eb8:	d000      	beq.n	ebc <adc_init+0x24c>
     eba:	e78f      	b.n	ddc <adc_init+0x16c>
     ebc:	7ce3      	ldrb	r3, [r4, #19]
     ebe:	69e2      	ldr	r2, [r4, #28]
     ec0:	2b00      	cmp	r3, #0
     ec2:	d009      	beq.n	ed8 <adc_init+0x268>
     ec4:	0013      	movs	r3, r2
     ec6:	3380      	adds	r3, #128	; 0x80
     ec8:	2bff      	cmp	r3, #255	; 0xff
     eca:	d900      	bls.n	ece <adc_init+0x25e>
     ecc:	e758      	b.n	d80 <adc_init+0x110>
     ece:	6a23      	ldr	r3, [r4, #32]
     ed0:	3380      	adds	r3, #128	; 0x80
     ed2:	2bff      	cmp	r3, #255	; 0xff
     ed4:	d900      	bls.n	ed8 <adc_init+0x268>
     ed6:	e753      	b.n	d80 <adc_init+0x110>
     ed8:	2aff      	cmp	r2, #255	; 0xff
     eda:	dd00      	ble.n	ede <adc_init+0x26e>
     edc:	e750      	b.n	d80 <adc_init+0x110>
     ede:	6a23      	ldr	r3, [r4, #32]
     ee0:	2bff      	cmp	r3, #255	; 0xff
     ee2:	dd00      	ble.n	ee6 <adc_init+0x276>
     ee4:	e74c      	b.n	d80 <adc_init+0x110>
     ee6:	e779      	b.n	ddc <adc_init+0x16c>
     ee8:	7ce2      	ldrb	r2, [r4, #19]
     eea:	69e1      	ldr	r1, [r4, #28]
     eec:	4b24      	ldr	r3, [pc, #144]	; (f80 <adc_init+0x310>)
     eee:	2a00      	cmp	r2, #0
     ef0:	d00c      	beq.n	f0c <adc_init+0x29c>
     ef2:	2280      	movs	r2, #128	; 0x80
     ef4:	0092      	lsls	r2, r2, #2
     ef6:	188a      	adds	r2, r1, r2
     ef8:	429a      	cmp	r2, r3
     efa:	d900      	bls.n	efe <adc_init+0x28e>
     efc:	e740      	b.n	d80 <adc_init+0x110>
     efe:	2080      	movs	r0, #128	; 0x80
     f00:	6a22      	ldr	r2, [r4, #32]
     f02:	0080      	lsls	r0, r0, #2
     f04:	1812      	adds	r2, r2, r0
     f06:	429a      	cmp	r2, r3
     f08:	d900      	bls.n	f0c <adc_init+0x29c>
     f0a:	e739      	b.n	d80 <adc_init+0x110>
     f0c:	4299      	cmp	r1, r3
     f0e:	dd00      	ble.n	f12 <adc_init+0x2a2>
     f10:	e736      	b.n	d80 <adc_init+0x110>
     f12:	6a22      	ldr	r2, [r4, #32]
     f14:	429a      	cmp	r2, r3
     f16:	dd00      	ble.n	f1a <adc_init+0x2aa>
     f18:	e732      	b.n	d80 <adc_init+0x110>
     f1a:	e75f      	b.n	ddc <adc_init+0x16c>
     f1c:	7ce2      	ldrb	r2, [r4, #19]
     f1e:	69e1      	ldr	r1, [r4, #28]
     f20:	4b14      	ldr	r3, [pc, #80]	; (f74 <adc_init+0x304>)
     f22:	2a00      	cmp	r2, #0
     f24:	d0f2      	beq.n	f0c <adc_init+0x29c>
     f26:	2280      	movs	r2, #128	; 0x80
     f28:	0112      	lsls	r2, r2, #4
     f2a:	188a      	adds	r2, r1, r2
     f2c:	429a      	cmp	r2, r3
     f2e:	d900      	bls.n	f32 <adc_init+0x2c2>
     f30:	e726      	b.n	d80 <adc_init+0x110>
     f32:	2080      	movs	r0, #128	; 0x80
     f34:	6a22      	ldr	r2, [r4, #32]
     f36:	0100      	lsls	r0, r0, #4
     f38:	e7e4      	b.n	f04 <adc_init+0x294>
     f3a:	7ce2      	ldrb	r2, [r4, #19]
     f3c:	69e1      	ldr	r1, [r4, #28]
     f3e:	4b11      	ldr	r3, [pc, #68]	; (f84 <adc_init+0x314>)
     f40:	2a00      	cmp	r2, #0
     f42:	d0e3      	beq.n	f0c <adc_init+0x29c>
     f44:	2280      	movs	r2, #128	; 0x80
     f46:	0212      	lsls	r2, r2, #8
     f48:	188a      	adds	r2, r1, r2
     f4a:	429a      	cmp	r2, r3
     f4c:	d900      	bls.n	f50 <adc_init+0x2e0>
     f4e:	e717      	b.n	d80 <adc_init+0x110>
     f50:	2080      	movs	r0, #128	; 0x80
     f52:	6a22      	ldr	r2, [r4, #32]
     f54:	0200      	lsls	r0, r0, #8
     f56:	e7d5      	b.n	f04 <adc_init+0x294>
     f58:	40000400 	.word	0x40000400
     f5c:	40000800 	.word	0x40000800
     f60:	20003b6c 	.word	0x20003b6c
     f64:	00007969 	.word	0x00007969
     f68:	000078e1 	.word	0x000078e1
     f6c:	00000bed 	.word	0x00000bed
     f70:	00000be5 	.word	0x00000be5
     f74:	00000fff 	.word	0x00000fff
     f78:	00806024 	.word	0x00806024
     f7c:	00806020 	.word	0x00806020
     f80:	000003ff 	.word	0x000003ff
     f84:	0000ffff 	.word	0x0000ffff

00000f88 <adc_start_conversion>:
     f88:	6803      	ldr	r3, [r0, #0]
     f8a:	7e5a      	ldrb	r2, [r3, #25]
     f8c:	b252      	sxtb	r2, r2
     f8e:	2a00      	cmp	r2, #0
     f90:	dbfb      	blt.n	f8a <adc_start_conversion+0x2>
     f92:	2202      	movs	r2, #2
     f94:	7b19      	ldrb	r1, [r3, #12]
     f96:	430a      	orrs	r2, r1
     f98:	731a      	strb	r2, [r3, #12]
     f9a:	6802      	ldr	r2, [r0, #0]
     f9c:	7e53      	ldrb	r3, [r2, #25]
     f9e:	b25b      	sxtb	r3, r3
     fa0:	2b00      	cmp	r3, #0
     fa2:	dbfb      	blt.n	f9c <adc_start_conversion+0x14>
     fa4:	4770      	bx	lr
	...

00000fa8 <ADC_Handler>:
     fa8:	b570      	push	{r4, r5, r6, lr}
     faa:	4b28      	ldr	r3, [pc, #160]	; (104c <ADC_Handler+0xa4>)
     fac:	681c      	ldr	r4, [r3, #0]
     fae:	6823      	ldr	r3, [r4, #0]
     fb0:	7e1a      	ldrb	r2, [r3, #24]
     fb2:	7ddd      	ldrb	r5, [r3, #23]
     fb4:	4015      	ands	r5, r2
     fb6:	2201      	movs	r2, #1
     fb8:	4215      	tst	r5, r2
     fba:	d028      	beq.n	100e <ADC_Handler+0x66>
     fbc:	761a      	strb	r2, [r3, #24]
     fbe:	6821      	ldr	r1, [r4, #0]
     fc0:	7e4b      	ldrb	r3, [r1, #25]
     fc2:	b25b      	sxtb	r3, r3
     fc4:	2b00      	cmp	r3, #0
     fc6:	dbfb      	blt.n	fc0 <ADC_Handler+0x18>
     fc8:	6962      	ldr	r2, [r4, #20]
     fca:	1c93      	adds	r3, r2, #2
     fcc:	6163      	str	r3, [r4, #20]
     fce:	8b4b      	ldrh	r3, [r1, #26]
     fd0:	b29b      	uxth	r3, r3
     fd2:	8013      	strh	r3, [r2, #0]
     fd4:	8b23      	ldrh	r3, [r4, #24]
     fd6:	3b01      	subs	r3, #1
     fd8:	b29b      	uxth	r3, r3
     fda:	8323      	strh	r3, [r4, #24]
     fdc:	2b00      	cmp	r3, #0
     fde:	d110      	bne.n	1002 <ADC_Handler+0x5a>
     fe0:	2201      	movs	r2, #1
     fe2:	6821      	ldr	r1, [r4, #0]
     fe4:	758a      	strb	r2, [r1, #22]
     fe6:	7f21      	ldrb	r1, [r4, #28]
     fe8:	2905      	cmp	r1, #5
     fea:	d110      	bne.n	100e <ADC_Handler+0x66>
     fec:	7723      	strb	r3, [r4, #28]
     fee:	7ee3      	ldrb	r3, [r4, #27]
     ff0:	4213      	tst	r3, r2
     ff2:	d00c      	beq.n	100e <ADC_Handler+0x66>
     ff4:	7ea3      	ldrb	r3, [r4, #26]
     ff6:	4213      	tst	r3, r2
     ff8:	d009      	beq.n	100e <ADC_Handler+0x66>
     ffa:	0020      	movs	r0, r4
     ffc:	68a3      	ldr	r3, [r4, #8]
     ffe:	4798      	blx	r3
    1000:	e005      	b.n	100e <ADC_Handler+0x66>
    1002:	7f63      	ldrb	r3, [r4, #29]
    1004:	2b00      	cmp	r3, #0
    1006:	d002      	beq.n	100e <ADC_Handler+0x66>
    1008:	0020      	movs	r0, r4
    100a:	4b11      	ldr	r3, [pc, #68]	; (1050 <ADC_Handler+0xa8>)
    100c:	4798      	blx	r3
    100e:	2304      	movs	r3, #4
    1010:	421d      	tst	r5, r3
    1012:	d00b      	beq.n	102c <ADC_Handler+0x84>
    1014:	6822      	ldr	r2, [r4, #0]
    1016:	7613      	strb	r3, [r2, #24]
    1018:	7ee2      	ldrb	r2, [r4, #27]
    101a:	3b02      	subs	r3, #2
    101c:	421a      	tst	r2, r3
    101e:	d005      	beq.n	102c <ADC_Handler+0x84>
    1020:	7ea2      	ldrb	r2, [r4, #26]
    1022:	421a      	tst	r2, r3
    1024:	d002      	beq.n	102c <ADC_Handler+0x84>
    1026:	0020      	movs	r0, r4
    1028:	68e3      	ldr	r3, [r4, #12]
    102a:	4798      	blx	r3
    102c:	2302      	movs	r3, #2
    102e:	421d      	tst	r5, r3
    1030:	d00b      	beq.n	104a <ADC_Handler+0xa2>
    1032:	6822      	ldr	r2, [r4, #0]
    1034:	7613      	strb	r3, [r2, #24]
    1036:	7ee2      	ldrb	r2, [r4, #27]
    1038:	18db      	adds	r3, r3, r3
    103a:	421a      	tst	r2, r3
    103c:	d005      	beq.n	104a <ADC_Handler+0xa2>
    103e:	7ea2      	ldrb	r2, [r4, #26]
    1040:	421a      	tst	r2, r3
    1042:	d002      	beq.n	104a <ADC_Handler+0xa2>
    1044:	6923      	ldr	r3, [r4, #16]
    1046:	0020      	movs	r0, r4
    1048:	4798      	blx	r3
    104a:	bd70      	pop	{r4, r5, r6, pc}
    104c:	20003b6c 	.word	0x20003b6c
    1050:	00000f89 	.word	0x00000f89

00001054 <adc_register_callback>:
    1054:	1c93      	adds	r3, r2, #2
    1056:	009b      	lsls	r3, r3, #2
    1058:	5019      	str	r1, [r3, r0]
    105a:	2301      	movs	r3, #1
    105c:	4093      	lsls	r3, r2
    105e:	001a      	movs	r2, r3
    1060:	7e83      	ldrb	r3, [r0, #26]
    1062:	4313      	orrs	r3, r2
    1064:	7683      	strb	r3, [r0, #26]
    1066:	4770      	bx	lr

00001068 <adc_read_buffer_job>:
    1068:	b570      	push	{r4, r5, r6, lr}
    106a:	8b03      	ldrh	r3, [r0, #24]
    106c:	2405      	movs	r4, #5
    106e:	b29b      	uxth	r3, r3
    1070:	2b00      	cmp	r3, #0
    1072:	d10e      	bne.n	1092 <adc_read_buffer_job+0x2a>
    1074:	7f05      	ldrb	r5, [r0, #28]
    1076:	42a5      	cmp	r5, r4
    1078:	d00b      	beq.n	1092 <adc_read_buffer_job+0x2a>
    107a:	7704      	strb	r4, [r0, #28]
    107c:	8302      	strh	r2, [r0, #24]
    107e:	2201      	movs	r2, #1
    1080:	6141      	str	r1, [r0, #20]
    1082:	6801      	ldr	r1, [r0, #0]
    1084:	001c      	movs	r4, r3
    1086:	75ca      	strb	r2, [r1, #23]
    1088:	7f42      	ldrb	r2, [r0, #29]
    108a:	2a00      	cmp	r2, #0
    108c:	d001      	beq.n	1092 <adc_read_buffer_job+0x2a>
    108e:	4b02      	ldr	r3, [pc, #8]	; (1098 <adc_read_buffer_job+0x30>)
    1090:	4798      	blx	r3
    1092:	0020      	movs	r0, r4
    1094:	bd70      	pop	{r4, r5, r6, pc}
    1096:	46c0      	nop			; (mov r8, r8)
    1098:	00000f89 	.word	0x00000f89

0000109c <adc_get_job_status>:
    109c:	2317      	movs	r3, #23
    109e:	2900      	cmp	r1, #0
    10a0:	d101      	bne.n	10a6 <adc_get_job_status+0xa>
    10a2:	7f03      	ldrb	r3, [r0, #28]
    10a4:	b2db      	uxtb	r3, r3
    10a6:	0018      	movs	r0, r3
    10a8:	4770      	bx	lr

000010aa <dac_is_syncing>:
    10aa:	6803      	ldr	r3, [r0, #0]
    10ac:	79d8      	ldrb	r0, [r3, #7]
    10ae:	09c0      	lsrs	r0, r0, #7
    10b0:	4770      	bx	lr

000010b2 <dac_get_config_defaults>:
    10b2:	2300      	movs	r3, #0
    10b4:	2201      	movs	r2, #1
    10b6:	7003      	strb	r3, [r0, #0]
    10b8:	7042      	strb	r2, [r0, #1]
    10ba:	7083      	strb	r3, [r0, #2]
    10bc:	7103      	strb	r3, [r0, #4]
    10be:	7143      	strb	r3, [r0, #5]
    10c0:	70c3      	strb	r3, [r0, #3]
    10c2:	7183      	strb	r3, [r0, #6]
    10c4:	4770      	bx	lr
	...

000010c8 <dac_init>:
    10c8:	2380      	movs	r3, #128	; 0x80
    10ca:	b5f7      	push	{r0, r1, r2, r4, r5, r6, r7, lr}
    10cc:	2702      	movs	r7, #2
    10ce:	0015      	movs	r5, r2
    10d0:	4a25      	ldr	r2, [pc, #148]	; (1168 <dac_init+0xa0>)
    10d2:	6001      	str	r1, [r0, #0]
    10d4:	0004      	movs	r4, r0
    10d6:	6a10      	ldr	r0, [r2, #32]
    10d8:	02db      	lsls	r3, r3, #11
    10da:	4303      	orrs	r3, r0
    10dc:	6213      	str	r3, [r2, #32]
    10de:	780b      	ldrb	r3, [r1, #0]
    10e0:	201c      	movs	r0, #28
    10e2:	423b      	tst	r3, r7
    10e4:	d13f      	bne.n	1166 <dac_init+0x9e>
    10e6:	2301      	movs	r3, #1
    10e8:	780e      	ldrb	r6, [r1, #0]
    10ea:	3817      	subs	r0, #23
    10ec:	401e      	ands	r6, r3
    10ee:	d13a      	bne.n	1166 <dac_init+0x9e>
    10f0:	466a      	mov	r2, sp
    10f2:	78eb      	ldrb	r3, [r5, #3]
    10f4:	4669      	mov	r1, sp
    10f6:	7013      	strb	r3, [r2, #0]
    10f8:	301c      	adds	r0, #28
    10fa:	4b1c      	ldr	r3, [pc, #112]	; (116c <dac_init+0xa4>)
    10fc:	4798      	blx	r3
    10fe:	2021      	movs	r0, #33	; 0x21
    1100:	4b1b      	ldr	r3, [pc, #108]	; (1170 <dac_init+0xa8>)
    1102:	4798      	blx	r3
    1104:	2301      	movs	r3, #1
    1106:	a901      	add	r1, sp, #4
    1108:	700b      	strb	r3, [r1, #0]
    110a:	0038      	movs	r0, r7
    110c:	4b19      	ldr	r3, [pc, #100]	; (1174 <dac_init+0xac>)
    110e:	704e      	strb	r6, [r1, #1]
    1110:	70ce      	strb	r6, [r1, #3]
    1112:	708e      	strb	r6, [r1, #2]
    1114:	4798      	blx	r3
    1116:	786b      	ldrb	r3, [r5, #1]
    1118:	71a6      	strb	r6, [r4, #6]
    111a:	7123      	strb	r3, [r4, #4]
    111c:	79ab      	ldrb	r3, [r5, #6]
    111e:	6827      	ldr	r7, [r4, #0]
    1120:	1e5a      	subs	r2, r3, #1
    1122:	4193      	sbcs	r3, r2
    1124:	78aa      	ldrb	r2, [r5, #2]
    1126:	009b      	lsls	r3, r3, #2
    1128:	782e      	ldrb	r6, [r5, #0]
    112a:	2a00      	cmp	r2, #0
    112c:	d001      	beq.n	1132 <dac_init+0x6a>
    112e:	2204      	movs	r2, #4
    1130:	4316      	orrs	r6, r2
    1132:	792a      	ldrb	r2, [r5, #4]
    1134:	2a00      	cmp	r2, #0
    1136:	d001      	beq.n	113c <dac_init+0x74>
    1138:	2210      	movs	r2, #16
    113a:	4316      	orrs	r6, r2
    113c:	796a      	ldrb	r2, [r5, #5]
    113e:	2a00      	cmp	r2, #0
    1140:	d001      	beq.n	1146 <dac_init+0x7e>
    1142:	2208      	movs	r2, #8
    1144:	4316      	orrs	r6, r2
    1146:	b2db      	uxtb	r3, r3
    1148:	703b      	strb	r3, [r7, #0]
    114a:	0020      	movs	r0, r4
    114c:	4b0a      	ldr	r3, [pc, #40]	; (1178 <dac_init+0xb0>)
    114e:	4798      	blx	r3
    1150:	2800      	cmp	r0, #0
    1152:	d1fa      	bne.n	114a <dac_init+0x82>
    1154:	b2f6      	uxtb	r6, r6
    1156:	707e      	strb	r6, [r7, #1]
    1158:	782b      	ldrb	r3, [r5, #0]
    115a:	6160      	str	r0, [r4, #20]
    115c:	7163      	strb	r3, [r4, #5]
    115e:	4b07      	ldr	r3, [pc, #28]	; (117c <dac_init+0xb4>)
    1160:	61a0      	str	r0, [r4, #24]
    1162:	61e0      	str	r0, [r4, #28]
    1164:	601c      	str	r4, [r3, #0]
    1166:	bdfe      	pop	{r1, r2, r3, r4, r5, r6, r7, pc}
    1168:	40000400 	.word	0x40000400
    116c:	00007969 	.word	0x00007969
    1170:	000078e1 	.word	0x000078e1
    1174:	00007a6d 	.word	0x00007a6d
    1178:	000010ab 	.word	0x000010ab
    117c:	20003b70 	.word	0x20003b70

00001180 <dac_enable>:
    1180:	b570      	push	{r4, r5, r6, lr}
    1182:	0004      	movs	r4, r0
    1184:	6805      	ldr	r5, [r0, #0]
    1186:	7902      	ldrb	r2, [r0, #4]
    1188:	786b      	ldrb	r3, [r5, #1]
    118a:	4313      	orrs	r3, r2
    118c:	706b      	strb	r3, [r5, #1]
    118e:	0020      	movs	r0, r4
    1190:	4b08      	ldr	r3, [pc, #32]	; (11b4 <dac_enable+0x34>)
    1192:	4798      	blx	r3
    1194:	2800      	cmp	r0, #0
    1196:	d1fa      	bne.n	118e <dac_enable+0xe>
    1198:	2302      	movs	r3, #2
    119a:	782a      	ldrb	r2, [r5, #0]
    119c:	4313      	orrs	r3, r2
    119e:	702b      	strb	r3, [r5, #0]
    11a0:	7963      	ldrb	r3, [r4, #5]
    11a2:	2b00      	cmp	r3, #0
    11a4:	d104      	bne.n	11b0 <dac_enable+0x30>
    11a6:	4a04      	ldr	r2, [pc, #16]	; (11b8 <dac_enable+0x38>)
    11a8:	3304      	adds	r3, #4
    11aa:	6c11      	ldr	r1, [r2, #64]	; 0x40
    11ac:	430b      	orrs	r3, r1
    11ae:	6413      	str	r3, [r2, #64]	; 0x40
    11b0:	bd70      	pop	{r4, r5, r6, pc}
    11b2:	46c0      	nop			; (mov r8, r8)
    11b4:	000010ab 	.word	0x000010ab
    11b8:	40000800 	.word	0x40000800

000011bc <dac_chan_get_config_defaults>:
    11bc:	4770      	bx	lr

000011be <dac_chan_set_config>:
    11be:	4770      	bx	lr

000011c0 <dac_chan_enable>:
    11c0:	4770      	bx	lr
	...

000011c4 <dac_chan_write>:
    11c4:	b570      	push	{r4, r5, r6, lr}
    11c6:	0004      	movs	r4, r0
    11c8:	0016      	movs	r6, r2
    11ca:	6805      	ldr	r5, [r0, #0]
    11cc:	0020      	movs	r0, r4
    11ce:	4b06      	ldr	r3, [pc, #24]	; (11e8 <dac_chan_write+0x24>)
    11d0:	4798      	blx	r3
    11d2:	2800      	cmp	r0, #0
    11d4:	d1fa      	bne.n	11cc <dac_chan_write+0x8>
    11d6:	79a3      	ldrb	r3, [r4, #6]
    11d8:	2b00      	cmp	r3, #0
    11da:	d002      	beq.n	11e2 <dac_chan_write+0x1e>
    11dc:	81ae      	strh	r6, [r5, #12]
    11de:	2000      	movs	r0, #0
    11e0:	bd70      	pop	{r4, r5, r6, pc}
    11e2:	812e      	strh	r6, [r5, #8]
    11e4:	e7fb      	b.n	11de <dac_chan_write+0x1a>
    11e6:	46c0      	nop			; (mov r8, r8)
    11e8:	000010ab 	.word	0x000010ab

000011ec <DAC_Handler>:
    11ec:	b570      	push	{r4, r5, r6, lr}
    11ee:	4b1e      	ldr	r3, [pc, #120]	; (1268 <DAC_Handler+0x7c>)
    11f0:	681c      	ldr	r4, [r3, #0]
    11f2:	2301      	movs	r3, #1
    11f4:	6825      	ldr	r5, [r4, #0]
    11f6:	79aa      	ldrb	r2, [r5, #6]
    11f8:	421a      	tst	r2, r3
    11fa:	d006      	beq.n	120a <DAC_Handler+0x1e>
    11fc:	71ab      	strb	r3, [r5, #6]
    11fe:	7c63      	ldrb	r3, [r4, #17]
    1200:	2b00      	cmp	r3, #0
    1202:	d002      	beq.n	120a <DAC_Handler+0x1e>
    1204:	2000      	movs	r0, #0
    1206:	69a3      	ldr	r3, [r4, #24]
    1208:	4798      	blx	r3
    120a:	2202      	movs	r2, #2
    120c:	79ab      	ldrb	r3, [r5, #6]
    120e:	4213      	tst	r3, r2
    1210:	d029      	beq.n	1266 <DAC_Handler+0x7a>
    1212:	71aa      	strb	r2, [r5, #6]
    1214:	89a3      	ldrh	r3, [r4, #12]
    1216:	2b00      	cmp	r3, #0
    1218:	d01f      	beq.n	125a <DAC_Handler+0x6e>
    121a:	89e3      	ldrh	r3, [r4, #14]
    121c:	b29b      	uxth	r3, r3
    121e:	1c59      	adds	r1, r3, #1
    1220:	b289      	uxth	r1, r1
    1222:	81e1      	strh	r1, [r4, #14]
    1224:	68a1      	ldr	r1, [r4, #8]
    1226:	005b      	lsls	r3, r3, #1
    1228:	18cb      	adds	r3, r1, r3
    122a:	881b      	ldrh	r3, [r3, #0]
    122c:	b29b      	uxth	r3, r3
    122e:	81ab      	strh	r3, [r5, #12]
    1230:	89a3      	ldrh	r3, [r4, #12]
    1232:	3b01      	subs	r3, #1
    1234:	b29b      	uxth	r3, r3
    1236:	81a3      	strh	r3, [r4, #12]
    1238:	89a0      	ldrh	r0, [r4, #12]
    123a:	b280      	uxth	r0, r0
    123c:	2800      	cmp	r0, #0
    123e:	d10c      	bne.n	125a <DAC_Handler+0x6e>
    1240:	1c63      	adds	r3, r4, #1
    1242:	77d8      	strb	r0, [r3, #31]
    1244:	712a      	strb	r2, [r5, #4]
    1246:	71aa      	strb	r2, [r5, #6]
    1248:	2280      	movs	r2, #128	; 0x80
    124a:	4b08      	ldr	r3, [pc, #32]	; (126c <DAC_Handler+0x80>)
    124c:	0492      	lsls	r2, r2, #18
    124e:	67da      	str	r2, [r3, #124]	; 0x7c
    1250:	7ca3      	ldrb	r3, [r4, #18]
    1252:	2b00      	cmp	r3, #0
    1254:	d001      	beq.n	125a <DAC_Handler+0x6e>
    1256:	69e3      	ldr	r3, [r4, #28]
    1258:	4798      	blx	r3
    125a:	7c23      	ldrb	r3, [r4, #16]
    125c:	2b00      	cmp	r3, #0
    125e:	d002      	beq.n	1266 <DAC_Handler+0x7a>
    1260:	6963      	ldr	r3, [r4, #20]
    1262:	2000      	movs	r0, #0
    1264:	4798      	blx	r3
    1266:	bd70      	pop	{r4, r5, r6, pc}
    1268:	20003b70 	.word	0x20003b70
    126c:	e000e104 	.word	0xe000e104

00001270 <EIC_Handler>:
    1270:	2300      	movs	r3, #0
    1272:	b570      	push	{r4, r5, r6, lr}
    1274:	2501      	movs	r5, #1
    1276:	4c0b      	ldr	r4, [pc, #44]	; (12a4 <EIC_Handler+0x34>)
    1278:	7023      	strb	r3, [r4, #0]
    127a:	7823      	ldrb	r3, [r4, #0]
    127c:	2b0f      	cmp	r3, #15
    127e:	d900      	bls.n	1282 <EIC_Handler+0x12>
    1280:	bd70      	pop	{r4, r5, r6, pc}
    1282:	0029      	movs	r1, r5
    1284:	4099      	lsls	r1, r3
    1286:	4a08      	ldr	r2, [pc, #32]	; (12a8 <EIC_Handler+0x38>)
    1288:	6910      	ldr	r0, [r2, #16]
    128a:	4208      	tst	r0, r1
    128c:	d006      	beq.n	129c <EIC_Handler+0x2c>
    128e:	6111      	str	r1, [r2, #16]
    1290:	4a06      	ldr	r2, [pc, #24]	; (12ac <EIC_Handler+0x3c>)
    1292:	009b      	lsls	r3, r3, #2
    1294:	589b      	ldr	r3, [r3, r2]
    1296:	2b00      	cmp	r3, #0
    1298:	d000      	beq.n	129c <EIC_Handler+0x2c>
    129a:	4798      	blx	r3
    129c:	7823      	ldrb	r3, [r4, #0]
    129e:	3301      	adds	r3, #1
    12a0:	7023      	strb	r3, [r4, #0]
    12a2:	e7ea      	b.n	127a <EIC_Handler+0xa>
    12a4:	20003b74 	.word	0x20003b74
    12a8:	40001800 	.word	0x40001800
    12ac:	20003b78 	.word	0x20003b78

000012b0 <extint_is_syncing>:
    12b0:	4b01      	ldr	r3, [pc, #4]	; (12b8 <extint_is_syncing+0x8>)
    12b2:	7858      	ldrb	r0, [r3, #1]
    12b4:	09c0      	lsrs	r0, r0, #7
    12b6:	4770      	bx	lr
    12b8:	40001800 	.word	0x40001800

000012bc <_extint_enable>:
    12bc:	2302      	movs	r3, #2
    12be:	b510      	push	{r4, lr}
    12c0:	4a04      	ldr	r2, [pc, #16]	; (12d4 <_extint_enable+0x18>)
    12c2:	7811      	ldrb	r1, [r2, #0]
    12c4:	430b      	orrs	r3, r1
    12c6:	7013      	strb	r3, [r2, #0]
    12c8:	4b03      	ldr	r3, [pc, #12]	; (12d8 <_extint_enable+0x1c>)
    12ca:	4798      	blx	r3
    12cc:	2800      	cmp	r0, #0
    12ce:	d1fb      	bne.n	12c8 <_extint_enable+0xc>
    12d0:	bd10      	pop	{r4, pc}
    12d2:	46c0      	nop			; (mov r8, r8)
    12d4:	40001800 	.word	0x40001800
    12d8:	000012b1 	.word	0x000012b1

000012dc <_system_extint_init>:
    12dc:	2340      	movs	r3, #64	; 0x40
    12de:	b507      	push	{r0, r1, r2, lr}
    12e0:	4a10      	ldr	r2, [pc, #64]	; (1324 <_system_extint_init+0x48>)
    12e2:	2005      	movs	r0, #5
    12e4:	6991      	ldr	r1, [r2, #24]
    12e6:	430b      	orrs	r3, r1
    12e8:	6193      	str	r3, [r2, #24]
    12ea:	2300      	movs	r3, #0
    12ec:	a901      	add	r1, sp, #4
    12ee:	700b      	strb	r3, [r1, #0]
    12f0:	4b0d      	ldr	r3, [pc, #52]	; (1328 <_system_extint_init+0x4c>)
    12f2:	4798      	blx	r3
    12f4:	4b0d      	ldr	r3, [pc, #52]	; (132c <_system_extint_init+0x50>)
    12f6:	2005      	movs	r0, #5
    12f8:	4798      	blx	r3
    12fa:	2301      	movs	r3, #1
    12fc:	4a0c      	ldr	r2, [pc, #48]	; (1330 <_system_extint_init+0x54>)
    12fe:	7811      	ldrb	r1, [r2, #0]
    1300:	430b      	orrs	r3, r1
    1302:	7013      	strb	r3, [r2, #0]
    1304:	4b0b      	ldr	r3, [pc, #44]	; (1334 <_system_extint_init+0x58>)
    1306:	4798      	blx	r3
    1308:	2800      	cmp	r0, #0
    130a:	d1fb      	bne.n	1304 <_system_extint_init+0x28>
    130c:	0002      	movs	r2, r0
    130e:	4b0a      	ldr	r3, [pc, #40]	; (1338 <_system_extint_init+0x5c>)
    1310:	501a      	str	r2, [r3, r0]
    1312:	3004      	adds	r0, #4
    1314:	2840      	cmp	r0, #64	; 0x40
    1316:	d1fb      	bne.n	1310 <_system_extint_init+0x34>
    1318:	2210      	movs	r2, #16
    131a:	4b08      	ldr	r3, [pc, #32]	; (133c <_system_extint_init+0x60>)
    131c:	601a      	str	r2, [r3, #0]
    131e:	4b08      	ldr	r3, [pc, #32]	; (1340 <_system_extint_init+0x64>)
    1320:	4798      	blx	r3
    1322:	bd07      	pop	{r0, r1, r2, pc}
    1324:	40000400 	.word	0x40000400
    1328:	00007969 	.word	0x00007969
    132c:	000078e1 	.word	0x000078e1
    1330:	40001800 	.word	0x40001800
    1334:	000012b1 	.word	0x000012b1
    1338:	20003b78 	.word	0x20003b78
    133c:	e000e100 	.word	0xe000e100
    1340:	000012bd 	.word	0x000012bd

00001344 <i2c_master_init>:
    1344:	b5f0      	push	{r4, r5, r6, r7, lr}
    1346:	0007      	movs	r7, r0
    1348:	b08b      	sub	sp, #44	; 0x2c
    134a:	6039      	str	r1, [r7, #0]
    134c:	0008      	movs	r0, r1
    134e:	4b9b      	ldr	r3, [pc, #620]	; (15bc <i2c_master_init+0x278>)
    1350:	0014      	movs	r4, r2
    1352:	000e      	movs	r6, r1
    1354:	4798      	blx	r3
    1356:	2501      	movs	r5, #1
    1358:	1c83      	adds	r3, r0, #2
    135a:	409d      	lsls	r5, r3
    135c:	002b      	movs	r3, r5
    135e:	4a98      	ldr	r2, [pc, #608]	; (15c0 <i2c_master_init+0x27c>)
    1360:	3014      	adds	r0, #20
    1362:	6a11      	ldr	r1, [r2, #32]
    1364:	b2c5      	uxtb	r5, r0
    1366:	430b      	orrs	r3, r1
    1368:	6213      	str	r3, [r2, #32]
    136a:	7b23      	ldrb	r3, [r4, #12]
    136c:	aa08      	add	r2, sp, #32
    136e:	7013      	strb	r3, [r2, #0]
    1370:	0011      	movs	r1, r2
    1372:	0028      	movs	r0, r5
    1374:	4b93      	ldr	r3, [pc, #588]	; (15c4 <i2c_master_init+0x280>)
    1376:	4798      	blx	r3
    1378:	0028      	movs	r0, r5
    137a:	4b93      	ldr	r3, [pc, #588]	; (15c8 <i2c_master_init+0x284>)
    137c:	4798      	blx	r3
    137e:	4b93      	ldr	r3, [pc, #588]	; (15cc <i2c_master_init+0x288>)
    1380:	7b20      	ldrb	r0, [r4, #12]
    1382:	2100      	movs	r1, #0
    1384:	4798      	blx	r3
    1386:	6833      	ldr	r3, [r6, #0]
    1388:	201c      	movs	r0, #28
    138a:	079b      	lsls	r3, r3, #30
    138c:	d500      	bpl.n	1390 <i2c_master_init+0x4c>
    138e:	e109      	b.n	15a4 <i2c_master_init+0x260>
    1390:	2301      	movs	r3, #1
    1392:	6835      	ldr	r5, [r6, #0]
    1394:	3817      	subs	r0, #23
    1396:	401d      	ands	r5, r3
    1398:	d000      	beq.n	139c <i2c_master_init+0x58>
    139a:	e103      	b.n	15a4 <i2c_master_init+0x260>
    139c:	4b87      	ldr	r3, [pc, #540]	; (15bc <i2c_master_init+0x278>)
    139e:	6838      	ldr	r0, [r7, #0]
    13a0:	4798      	blx	r3
    13a2:	498b      	ldr	r1, [pc, #556]	; (15d0 <i2c_master_init+0x28c>)
    13a4:	4b8b      	ldr	r3, [pc, #556]	; (15d4 <i2c_master_init+0x290>)
    13a6:	9004      	str	r0, [sp, #16]
    13a8:	4798      	blx	r3
    13aa:	9b04      	ldr	r3, [sp, #16]
    13ac:	763d      	strb	r5, [r7, #24]
    13ae:	009a      	lsls	r2, r3, #2
    13b0:	4b89      	ldr	r3, [pc, #548]	; (15d8 <i2c_master_init+0x294>)
    13b2:	767d      	strb	r5, [r7, #25]
    13b4:	50d7      	str	r7, [r2, r3]
    13b6:	1dbb      	adds	r3, r7, #6
    13b8:	837d      	strh	r5, [r7, #26]
    13ba:	83bd      	strh	r5, [r7, #28]
    13bc:	77dd      	strb	r5, [r3, #31]
    13be:	2314      	movs	r3, #20
    13c0:	623d      	str	r5, [r7, #32]
    13c2:	6033      	str	r3, [r6, #0]
    13c4:	683b      	ldr	r3, [r7, #0]
    13c6:	ae09      	add	r6, sp, #36	; 0x24
    13c8:	9304      	str	r3, [sp, #16]
    13ca:	0018      	movs	r0, r3
    13cc:	4b7b      	ldr	r3, [pc, #492]	; (15bc <i2c_master_init+0x278>)
    13ce:	4798      	blx	r3
    13d0:	2380      	movs	r3, #128	; 0x80
    13d2:	9000      	str	r0, [sp, #0]
    13d4:	69e0      	ldr	r0, [r4, #28]
    13d6:	7033      	strb	r3, [r6, #0]
    13d8:	3b7f      	subs	r3, #127	; 0x7f
    13da:	7075      	strb	r5, [r6, #1]
    13dc:	70f5      	strb	r5, [r6, #3]
    13de:	70b3      	strb	r3, [r6, #2]
    13e0:	6a25      	ldr	r5, [r4, #32]
    13e2:	2800      	cmp	r0, #0
    13e4:	d103      	bne.n	13ee <i2c_master_init+0xaa>
    13e6:	0001      	movs	r1, r0
    13e8:	4b7c      	ldr	r3, [pc, #496]	; (15dc <i2c_master_init+0x298>)
    13ea:	9804      	ldr	r0, [sp, #16]
    13ec:	4798      	blx	r3
    13ee:	2302      	movs	r3, #2
    13f0:	7030      	strb	r0, [r6, #0]
    13f2:	0c00      	lsrs	r0, r0, #16
    13f4:	7073      	strb	r3, [r6, #1]
    13f6:	b2c0      	uxtb	r0, r0
    13f8:	0031      	movs	r1, r6
    13fa:	4b79      	ldr	r3, [pc, #484]	; (15e0 <i2c_master_init+0x29c>)
    13fc:	4798      	blx	r3
    13fe:	2d00      	cmp	r5, #0
    1400:	d104      	bne.n	140c <i2c_master_init+0xc8>
    1402:	2101      	movs	r1, #1
    1404:	9804      	ldr	r0, [sp, #16]
    1406:	4b75      	ldr	r3, [pc, #468]	; (15dc <i2c_master_init+0x298>)
    1408:	4798      	blx	r3
    140a:	0005      	movs	r5, r0
    140c:	2302      	movs	r3, #2
    140e:	7035      	strb	r5, [r6, #0]
    1410:	0c2d      	lsrs	r5, r5, #16
    1412:	7073      	strb	r3, [r6, #1]
    1414:	b2e8      	uxtb	r0, r5
    1416:	4b72      	ldr	r3, [pc, #456]	; (15e0 <i2c_master_init+0x29c>)
    1418:	0031      	movs	r1, r6
    141a:	4798      	blx	r3
    141c:	8aa3      	ldrh	r3, [r4, #20]
    141e:	80fb      	strh	r3, [r7, #6]
    1420:	8ae3      	ldrh	r3, [r4, #22]
    1422:	813b      	strh	r3, [r7, #8]
    1424:	7e22      	ldrb	r2, [r4, #24]
    1426:	2380      	movs	r3, #128	; 0x80
    1428:	2a00      	cmp	r2, #0
    142a:	d106      	bne.n	143a <i2c_master_init+0xf6>
    142c:	4b6d      	ldr	r3, [pc, #436]	; (15e4 <i2c_master_init+0x2a0>)
    142e:	3202      	adds	r2, #2
    1430:	789b      	ldrb	r3, [r3, #2]
    1432:	4013      	ands	r3, r2
    1434:	1e5f      	subs	r7, r3, #1
    1436:	41bb      	sbcs	r3, r7
    1438:	01db      	lsls	r3, r3, #7
    143a:	68a2      	ldr	r2, [r4, #8]
    143c:	6927      	ldr	r7, [r4, #16]
    143e:	4317      	orrs	r7, r2
    1440:	431f      	orrs	r7, r3
    1442:	1d63      	adds	r3, r4, #5
    1444:	7fdb      	ldrb	r3, [r3, #31]
    1446:	2b00      	cmp	r3, #0
    1448:	d002      	beq.n	1450 <i2c_master_init+0x10c>
    144a:	2380      	movs	r3, #128	; 0x80
    144c:	05db      	lsls	r3, r3, #23
    144e:	431f      	orrs	r7, r3
    1450:	6aa3      	ldr	r3, [r4, #40]	; 0x28
    1452:	431f      	orrs	r7, r3
    1454:	0023      	movs	r3, r4
    1456:	332c      	adds	r3, #44	; 0x2c
    1458:	781b      	ldrb	r3, [r3, #0]
    145a:	2b00      	cmp	r3, #0
    145c:	d103      	bne.n	1466 <i2c_master_init+0x122>
    145e:	2380      	movs	r3, #128	; 0x80
    1460:	049b      	lsls	r3, r3, #18
    1462:	429a      	cmp	r2, r3
    1464:	d102      	bne.n	146c <i2c_master_init+0x128>
    1466:	2380      	movs	r3, #128	; 0x80
    1468:	051b      	lsls	r3, r3, #20
    146a:	431f      	orrs	r7, r3
    146c:	0023      	movs	r3, r4
    146e:	332d      	adds	r3, #45	; 0x2d
    1470:	781b      	ldrb	r3, [r3, #0]
    1472:	2b00      	cmp	r3, #0
    1474:	d002      	beq.n	147c <i2c_master_init+0x138>
    1476:	2380      	movs	r3, #128	; 0x80
    1478:	041b      	lsls	r3, r3, #16
    147a:	431f      	orrs	r7, r3
    147c:	0023      	movs	r3, r4
    147e:	332e      	adds	r3, #46	; 0x2e
    1480:	781b      	ldrb	r3, [r3, #0]
    1482:	2b00      	cmp	r3, #0
    1484:	d002      	beq.n	148c <i2c_master_init+0x148>
    1486:	2380      	movs	r3, #128	; 0x80
    1488:	03db      	lsls	r3, r3, #15
    148a:	431f      	orrs	r7, r3
    148c:	9b04      	ldr	r3, [sp, #16]
    148e:	9800      	ldr	r0, [sp, #0]
    1490:	681b      	ldr	r3, [r3, #0]
    1492:	25fa      	movs	r5, #250	; 0xfa
    1494:	431f      	orrs	r7, r3
    1496:	9b04      	ldr	r3, [sp, #16]
    1498:	9a04      	ldr	r2, [sp, #16]
    149a:	601f      	str	r7, [r3, #0]
    149c:	2380      	movs	r3, #128	; 0x80
    149e:	3014      	adds	r0, #20
    14a0:	005b      	lsls	r3, r3, #1
    14a2:	6053      	str	r3, [r2, #4]
    14a4:	b2c0      	uxtb	r0, r0
    14a6:	4b50      	ldr	r3, [pc, #320]	; (15e8 <i2c_master_init+0x2a4>)
    14a8:	4798      	blx	r3
    14aa:	6823      	ldr	r3, [r4, #0]
    14ac:	00ad      	lsls	r5, r5, #2
    14ae:	435d      	muls	r5, r3
    14b0:	6863      	ldr	r3, [r4, #4]
    14b2:	0007      	movs	r7, r0
    14b4:	9305      	str	r3, [sp, #20]
    14b6:	4b4d      	ldr	r3, [pc, #308]	; (15ec <i2c_master_init+0x2a8>)
    14b8:	4798      	blx	r3
    14ba:	4b4c      	ldr	r3, [pc, #304]	; (15ec <i2c_master_init+0x2a8>)
    14bc:	9000      	str	r0, [sp, #0]
    14be:	9101      	str	r1, [sp, #4]
    14c0:	0068      	lsls	r0, r5, #1
    14c2:	4798      	blx	r3
    14c4:	9002      	str	r0, [sp, #8]
    14c6:	9103      	str	r1, [sp, #12]
    14c8:	4b48      	ldr	r3, [pc, #288]	; (15ec <i2c_master_init+0x2a8>)
    14ca:	8e20      	ldrh	r0, [r4, #48]	; 0x30
    14cc:	4798      	blx	r3
    14ce:	4e48      	ldr	r6, [pc, #288]	; (15f0 <i2c_master_init+0x2ac>)
    14d0:	9006      	str	r0, [sp, #24]
    14d2:	9107      	str	r1, [sp, #28]
    14d4:	9800      	ldr	r0, [sp, #0]
    14d6:	9901      	ldr	r1, [sp, #4]
    14d8:	4a46      	ldr	r2, [pc, #280]	; (15f4 <i2c_master_init+0x2b0>)
    14da:	4b47      	ldr	r3, [pc, #284]	; (15f8 <i2c_master_init+0x2b4>)
    14dc:	47b0      	blx	r6
    14de:	0002      	movs	r2, r0
    14e0:	000b      	movs	r3, r1
    14e2:	9806      	ldr	r0, [sp, #24]
    14e4:	9907      	ldr	r1, [sp, #28]
    14e6:	47b0      	blx	r6
    14e8:	4e44      	ldr	r6, [pc, #272]	; (15fc <i2c_master_init+0x2b8>)
    14ea:	2200      	movs	r2, #0
    14ec:	4b44      	ldr	r3, [pc, #272]	; (1600 <i2c_master_init+0x2bc>)
    14ee:	47b0      	blx	r6
    14f0:	4b3e      	ldr	r3, [pc, #248]	; (15ec <i2c_master_init+0x2a8>)
    14f2:	9006      	str	r0, [sp, #24]
    14f4:	9107      	str	r1, [sp, #28]
    14f6:	0028      	movs	r0, r5
    14f8:	4798      	blx	r3
    14fa:	4d3d      	ldr	r5, [pc, #244]	; (15f0 <i2c_master_init+0x2ac>)
    14fc:	0002      	movs	r2, r0
    14fe:	000b      	movs	r3, r1
    1500:	9806      	ldr	r0, [sp, #24]
    1502:	9907      	ldr	r1, [sp, #28]
    1504:	47a8      	blx	r5
    1506:	4d3f      	ldr	r5, [pc, #252]	; (1604 <i2c_master_init+0x2c0>)
    1508:	0002      	movs	r2, r0
    150a:	000b      	movs	r3, r1
    150c:	9800      	ldr	r0, [sp, #0]
    150e:	9901      	ldr	r1, [sp, #4]
    1510:	47a8      	blx	r5
    1512:	9a02      	ldr	r2, [sp, #8]
    1514:	9b03      	ldr	r3, [sp, #12]
    1516:	47b0      	blx	r6
    1518:	2200      	movs	r2, #0
    151a:	4b3b      	ldr	r3, [pc, #236]	; (1608 <i2c_master_init+0x2c4>)
    151c:	47a8      	blx	r5
    151e:	9a02      	ldr	r2, [sp, #8]
    1520:	9b03      	ldr	r3, [sp, #12]
    1522:	4e3a      	ldr	r6, [pc, #232]	; (160c <i2c_master_init+0x2c8>)
    1524:	47b0      	blx	r6
    1526:	4b3a      	ldr	r3, [pc, #232]	; (1610 <i2c_master_init+0x2cc>)
    1528:	4798      	blx	r3
    152a:	2380      	movs	r3, #128	; 0x80
    152c:	9002      	str	r0, [sp, #8]
    152e:	68a2      	ldr	r2, [r4, #8]
    1530:	049b      	lsls	r3, r3, #18
    1532:	429a      	cmp	r2, r3
    1534:	d13e      	bne.n	15b4 <i2c_master_init+0x270>
    1536:	23fa      	movs	r3, #250	; 0xfa
    1538:	9c05      	ldr	r4, [sp, #20]
    153a:	009b      	lsls	r3, r3, #2
    153c:	435c      	muls	r4, r3
    153e:	9a00      	ldr	r2, [sp, #0]
    1540:	9b01      	ldr	r3, [sp, #4]
    1542:	4e2e      	ldr	r6, [pc, #184]	; (15fc <i2c_master_init+0x2b8>)
    1544:	0010      	movs	r0, r2
    1546:	0019      	movs	r1, r3
    1548:	47b0      	blx	r6
    154a:	4b28      	ldr	r3, [pc, #160]	; (15ec <i2c_master_init+0x2a8>)
    154c:	9000      	str	r0, [sp, #0]
    154e:	9101      	str	r1, [sp, #4]
    1550:	0020      	movs	r0, r4
    1552:	4798      	blx	r3
    1554:	2200      	movs	r2, #0
    1556:	4b2f      	ldr	r3, [pc, #188]	; (1614 <i2c_master_init+0x2d0>)
    1558:	4e25      	ldr	r6, [pc, #148]	; (15f0 <i2c_master_init+0x2ac>)
    155a:	47b0      	blx	r6
    155c:	4e2b      	ldr	r6, [pc, #172]	; (160c <i2c_master_init+0x2c8>)
    155e:	0002      	movs	r2, r0
    1560:	000b      	movs	r3, r1
    1562:	9800      	ldr	r0, [sp, #0]
    1564:	9901      	ldr	r1, [sp, #4]
    1566:	47b0      	blx	r6
    1568:	2200      	movs	r2, #0
    156a:	4b27      	ldr	r3, [pc, #156]	; (1608 <i2c_master_init+0x2c4>)
    156c:	47a8      	blx	r5
    156e:	4b28      	ldr	r3, [pc, #160]	; (1610 <i2c_master_init+0x2cc>)
    1570:	4798      	blx	r3
    1572:	4b29      	ldr	r3, [pc, #164]	; (1618 <i2c_master_init+0x2d4>)
    1574:	1e06      	subs	r6, r0, #0
    1576:	d017      	beq.n	15a8 <i2c_master_init+0x264>
    1578:	0021      	movs	r1, r4
    157a:	0038      	movs	r0, r7
    157c:	4798      	blx	r3
    157e:	3802      	subs	r0, #2
    1580:	1b83      	subs	r3, r0, r6
    1582:	9a02      	ldr	r2, [sp, #8]
    1584:	2040      	movs	r0, #64	; 0x40
    1586:	2aff      	cmp	r2, #255	; 0xff
    1588:	d80c      	bhi.n	15a4 <i2c_master_init+0x260>
    158a:	2bff      	cmp	r3, #255	; 0xff
    158c:	d80a      	bhi.n	15a4 <i2c_master_init+0x260>
    158e:	20ff      	movs	r0, #255	; 0xff
    1590:	0015      	movs	r5, r2
    1592:	0400      	lsls	r0, r0, #16
    1594:	041b      	lsls	r3, r3, #16
    1596:	4003      	ands	r3, r0
    1598:	2000      	movs	r0, #0
    159a:	0636      	lsls	r6, r6, #24
    159c:	4335      	orrs	r5, r6
    159e:	9a04      	ldr	r2, [sp, #16]
    15a0:	432b      	orrs	r3, r5
    15a2:	60d3      	str	r3, [r2, #12]
    15a4:	b00b      	add	sp, #44	; 0x2c
    15a6:	bdf0      	pop	{r4, r5, r6, r7, pc}
    15a8:	0061      	lsls	r1, r4, #1
    15aa:	1e48      	subs	r0, r1, #1
    15ac:	19c0      	adds	r0, r0, r7
    15ae:	4798      	blx	r3
    15b0:	1e43      	subs	r3, r0, #1
    15b2:	e7e6      	b.n	1582 <i2c_master_init+0x23e>
    15b4:	2600      	movs	r6, #0
    15b6:	0033      	movs	r3, r6
    15b8:	e7e3      	b.n	1582 <i2c_master_init+0x23e>
    15ba:	46c0      	nop			; (mov r8, r8)
    15bc:	00006fa1 	.word	0x00006fa1
    15c0:	40000400 	.word	0x40000400
    15c4:	00007969 	.word	0x00007969
    15c8:	000078e1 	.word	0x000078e1
    15cc:	00006e01 	.word	0x00006e01
    15d0:	000018b5 	.word	0x000018b5
    15d4:	00006fd5 	.word	0x00006fd5
    15d8:	20003f80 	.word	0x20003f80
    15dc:	00006e45 	.word	0x00006e45
    15e0:	00007a6d 	.word	0x00007a6d
    15e4:	41002000 	.word	0x41002000
    15e8:	000079b5 	.word	0x000079b5
    15ec:	0000ab8d 	.word	0x0000ab8d
    15f0:	00009f75 	.word	0x00009f75
    15f4:	e826d695 	.word	0xe826d695
    15f8:	3e112e0b 	.word	0x3e112e0b
    15fc:	000090ed 	.word	0x000090ed
    1600:	40240000 	.word	0x40240000
    1604:	0000a475 	.word	0x0000a475
    1608:	3ff00000 	.word	0x3ff00000
    160c:	0000970d 	.word	0x0000970d
    1610:	0000aaa1 	.word	0x0000aaa1
    1614:	40080000 	.word	0x40080000
    1618:	00007cb9 	.word	0x00007cb9

0000161c <_i2c_master_address_response>:
    161c:	2202      	movs	r2, #2
    161e:	6803      	ldr	r3, [r0, #0]
    1620:	7e19      	ldrb	r1, [r3, #24]
    1622:	4211      	tst	r1, r2
    1624:	d006      	beq.n	1634 <_i2c_master_address_response+0x18>
    1626:	761a      	strb	r2, [r3, #24]
    1628:	8b5b      	ldrh	r3, [r3, #26]
    162a:	2041      	movs	r0, #65	; 0x41
    162c:	4213      	tst	r3, r2
    162e:	d10a      	bne.n	1646 <_i2c_master_address_response+0x2a>
    1630:	2000      	movs	r0, #0
    1632:	e008      	b.n	1646 <_i2c_master_address_response+0x2a>
    1634:	8b5a      	ldrh	r2, [r3, #26]
    1636:	0752      	lsls	r2, r2, #29
    1638:	d5fa      	bpl.n	1630 <_i2c_master_address_response+0x14>
    163a:	22c0      	movs	r2, #192	; 0xc0
    163c:	2018      	movs	r0, #24
    163e:	6859      	ldr	r1, [r3, #4]
    1640:	0292      	lsls	r2, r2, #10
    1642:	430a      	orrs	r2, r1
    1644:	605a      	str	r2, [r3, #4]
    1646:	4770      	bx	lr

00001648 <_i2c_master_wait_for_bus>:
    1648:	b570      	push	{r4, r5, r6, lr}
    164a:	2200      	movs	r2, #0
    164c:	2601      	movs	r6, #1
    164e:	2402      	movs	r4, #2
    1650:	6801      	ldr	r1, [r0, #0]
    1652:	7e0b      	ldrb	r3, [r1, #24]
    1654:	4033      	ands	r3, r6
    1656:	d102      	bne.n	165e <_i2c_master_wait_for_bus+0x16>
    1658:	7e0d      	ldrb	r5, [r1, #24]
    165a:	4225      	tst	r5, r4
    165c:	d001      	beq.n	1662 <_i2c_master_wait_for_bus+0x1a>
    165e:	2000      	movs	r0, #0
    1660:	e005      	b.n	166e <_i2c_master_wait_for_bus+0x26>
    1662:	3201      	adds	r2, #1
    1664:	8903      	ldrh	r3, [r0, #8]
    1666:	b292      	uxth	r2, r2
    1668:	4293      	cmp	r3, r2
    166a:	d8f2      	bhi.n	1652 <_i2c_master_wait_for_bus+0xa>
    166c:	2012      	movs	r0, #18
    166e:	bd70      	pop	{r4, r5, r6, pc}

00001670 <_i2c_master_send_hs_master_code>:
    1670:	2380      	movs	r3, #128	; 0x80
    1672:	b510      	push	{r4, lr}
    1674:	6804      	ldr	r4, [r0, #0]
    1676:	02db      	lsls	r3, r3, #11
    1678:	6862      	ldr	r2, [r4, #4]
    167a:	4313      	orrs	r3, r2
    167c:	6063      	str	r3, [r4, #4]
    167e:	6261      	str	r1, [r4, #36]	; 0x24
    1680:	4b02      	ldr	r3, [pc, #8]	; (168c <_i2c_master_send_hs_master_code+0x1c>)
    1682:	4798      	blx	r3
    1684:	2301      	movs	r3, #1
    1686:	7623      	strb	r3, [r4, #24]
    1688:	bd10      	pop	{r4, pc}
    168a:	46c0      	nop			; (mov r8, r8)
    168c:	00001649 	.word	0x00001649

00001690 <_i2c_master_wait_for_sync>:
    1690:	2307      	movs	r3, #7
    1692:	6801      	ldr	r1, [r0, #0]
    1694:	69ca      	ldr	r2, [r1, #28]
    1696:	421a      	tst	r2, r3
    1698:	d1fc      	bne.n	1694 <_i2c_master_wait_for_sync+0x4>
    169a:	4770      	bx	lr

0000169c <_i2c_master_read>:
    169c:	b5f8      	push	{r3, r4, r5, r6, r7, lr}
    169e:	6805      	ldr	r5, [r0, #0]
    16a0:	0004      	movs	r4, r0
    16a2:	682a      	ldr	r2, [r5, #0]
    16a4:	8b46      	ldrh	r6, [r0, #26]
    16a6:	8b83      	ldrh	r3, [r0, #28]
    16a8:	1af6      	subs	r6, r6, r3
    16aa:	8b83      	ldrh	r3, [r0, #28]
    16ac:	b2b6      	uxth	r6, r6
    16ae:	3b01      	subs	r3, #1
    16b0:	b29b      	uxth	r3, r3
    16b2:	8383      	strh	r3, [r0, #28]
    16b4:	7ac3      	ldrb	r3, [r0, #11]
    16b6:	0112      	lsls	r2, r2, #4
    16b8:	d50a      	bpl.n	16d0 <_i2c_master_read+0x34>
    16ba:	2b00      	cmp	r3, #0
    16bc:	d00d      	beq.n	16da <_i2c_master_read+0x3e>
    16be:	8b83      	ldrh	r3, [r0, #28]
    16c0:	2b01      	cmp	r3, #1
    16c2:	d10a      	bne.n	16da <_i2c_master_read+0x3e>
    16c4:	2380      	movs	r3, #128	; 0x80
    16c6:	686a      	ldr	r2, [r5, #4]
    16c8:	02db      	lsls	r3, r3, #11
    16ca:	4313      	orrs	r3, r2
    16cc:	606b      	str	r3, [r5, #4]
    16ce:	e004      	b.n	16da <_i2c_master_read+0x3e>
    16d0:	2b00      	cmp	r3, #0
    16d2:	d002      	beq.n	16da <_i2c_master_read+0x3e>
    16d4:	8b83      	ldrh	r3, [r0, #28]
    16d6:	2b00      	cmp	r3, #0
    16d8:	d0f4      	beq.n	16c4 <_i2c_master_read+0x28>
    16da:	8ba3      	ldrh	r3, [r4, #28]
    16dc:	4f0a      	ldr	r7, [pc, #40]	; (1708 <_i2c_master_read+0x6c>)
    16de:	2b00      	cmp	r3, #0
    16e0:	d109      	bne.n	16f6 <_i2c_master_read+0x5a>
    16e2:	7aa3      	ldrb	r3, [r4, #10]
    16e4:	2b00      	cmp	r3, #0
    16e6:	d006      	beq.n	16f6 <_i2c_master_read+0x5a>
    16e8:	0020      	movs	r0, r4
    16ea:	47b8      	blx	r7
    16ec:	23c0      	movs	r3, #192	; 0xc0
    16ee:	686a      	ldr	r2, [r5, #4]
    16f0:	029b      	lsls	r3, r3, #10
    16f2:	4313      	orrs	r3, r2
    16f4:	606b      	str	r3, [r5, #4]
    16f6:	0020      	movs	r0, r4
    16f8:	47b8      	blx	r7
    16fa:	6a23      	ldr	r3, [r4, #32]
    16fc:	3528      	adds	r5, #40	; 0x28
    16fe:	199e      	adds	r6, r3, r6
    1700:	782b      	ldrb	r3, [r5, #0]
    1702:	b2db      	uxtb	r3, r3
    1704:	7033      	strb	r3, [r6, #0]
    1706:	bdf8      	pop	{r3, r4, r5, r6, r7, pc}
    1708:	00001691 	.word	0x00001691

0000170c <_i2c_master_write>:
    170c:	b570      	push	{r4, r5, r6, lr}
    170e:	6806      	ldr	r6, [r0, #0]
    1710:	0004      	movs	r4, r0
    1712:	8b73      	ldrh	r3, [r6, #26]
    1714:	075b      	lsls	r3, r3, #29
    1716:	d503      	bpl.n	1720 <_i2c_master_write+0x14>
    1718:	231e      	movs	r3, #30
    171a:	3406      	adds	r4, #6
    171c:	77e3      	strb	r3, [r4, #31]
    171e:	bd70      	pop	{r4, r5, r6, pc}
    1720:	8b45      	ldrh	r5, [r0, #26]
    1722:	8b83      	ldrh	r3, [r0, #28]
    1724:	3628      	adds	r6, #40	; 0x28
    1726:	1aed      	subs	r5, r5, r3
    1728:	8b83      	ldrh	r3, [r0, #28]
    172a:	b2ad      	uxth	r5, r5
    172c:	3b01      	subs	r3, #1
    172e:	b29b      	uxth	r3, r3
    1730:	8383      	strh	r3, [r0, #28]
    1732:	4b04      	ldr	r3, [pc, #16]	; (1744 <_i2c_master_write+0x38>)
    1734:	4798      	blx	r3
    1736:	6a23      	ldr	r3, [r4, #32]
    1738:	195d      	adds	r5, r3, r5
    173a:	782b      	ldrb	r3, [r5, #0]
    173c:	b2db      	uxtb	r3, r3
    173e:	7033      	strb	r3, [r6, #0]
    1740:	e7ed      	b.n	171e <_i2c_master_write+0x12>
    1742:	46c0      	nop			; (mov r8, r8)
    1744:	00001691 	.word	0x00001691

00001748 <_i2c_master_write_packet>:
    1748:	b570      	push	{r4, r5, r6, lr}
    174a:	7a4b      	ldrb	r3, [r1, #9]
    174c:	0005      	movs	r5, r0
    174e:	000e      	movs	r6, r1
    1750:	6804      	ldr	r4, [r0, #0]
    1752:	2b00      	cmp	r3, #0
    1754:	d002      	beq.n	175c <_i2c_master_write_packet+0x14>
    1756:	7a89      	ldrb	r1, [r1, #10]
    1758:	4b0f      	ldr	r3, [pc, #60]	; (1798 <_i2c_master_write_packet+0x50>)
    175a:	4798      	blx	r3
    175c:	6863      	ldr	r3, [r4, #4]
    175e:	4a0f      	ldr	r2, [pc, #60]	; (179c <_i2c_master_write_packet+0x54>)
    1760:	4013      	ands	r3, r2
    1762:	2200      	movs	r2, #0
    1764:	6063      	str	r3, [r4, #4]
    1766:	6873      	ldr	r3, [r6, #4]
    1768:	622b      	str	r3, [r5, #32]
    176a:	8873      	ldrh	r3, [r6, #2]
    176c:	83ab      	strh	r3, [r5, #28]
    176e:	1d6b      	adds	r3, r5, #5
    1770:	77da      	strb	r2, [r3, #31]
    1772:	2305      	movs	r3, #5
    1774:	3506      	adds	r5, #6
    1776:	77eb      	strb	r3, [r5, #31]
    1778:	3b02      	subs	r3, #2
    177a:	75a3      	strb	r3, [r4, #22]
    177c:	7a72      	ldrb	r2, [r6, #9]
    177e:	8833      	ldrh	r3, [r6, #0]
    1780:	7a31      	ldrb	r1, [r6, #8]
    1782:	005b      	lsls	r3, r3, #1
    1784:	0392      	lsls	r2, r2, #14
    1786:	4313      	orrs	r3, r2
    1788:	2900      	cmp	r1, #0
    178a:	d002      	beq.n	1792 <_i2c_master_write_packet+0x4a>
    178c:	2280      	movs	r2, #128	; 0x80
    178e:	0212      	lsls	r2, r2, #8
    1790:	4313      	orrs	r3, r2
    1792:	2000      	movs	r0, #0
    1794:	6263      	str	r3, [r4, #36]	; 0x24
    1796:	bd70      	pop	{r4, r5, r6, pc}
    1798:	00001671 	.word	0x00001671
    179c:	fffbffff 	.word	0xfffbffff

000017a0 <_i2c_master_read_packet>:
    17a0:	2201      	movs	r2, #1
    17a2:	b5f8      	push	{r3, r4, r5, r6, r7, lr}
    17a4:	684b      	ldr	r3, [r1, #4]
    17a6:	6804      	ldr	r4, [r0, #0]
    17a8:	6203      	str	r3, [r0, #32]
    17aa:	884b      	ldrh	r3, [r1, #2]
    17ac:	0006      	movs	r6, r0
    17ae:	8383      	strh	r3, [r0, #28]
    17b0:	1d43      	adds	r3, r0, #5
    17b2:	77da      	strb	r2, [r3, #31]
    17b4:	1d83      	adds	r3, r0, #6
    17b6:	3204      	adds	r2, #4
    17b8:	77da      	strb	r2, [r3, #31]
    17ba:	6827      	ldr	r7, [r4, #0]
    17bc:	7a4b      	ldrb	r3, [r1, #9]
    17be:	013f      	lsls	r7, r7, #4
    17c0:	000d      	movs	r5, r1
    17c2:	0fff      	lsrs	r7, r7, #31
    17c4:	2b00      	cmp	r3, #0
    17c6:	d002      	beq.n	17ce <_i2c_master_read_packet+0x2e>
    17c8:	7a89      	ldrb	r1, [r1, #10]
    17ca:	4b20      	ldr	r3, [pc, #128]	; (184c <_i2c_master_read_packet+0xac>)
    17cc:	4798      	blx	r3
    17ce:	2f00      	cmp	r7, #0
    17d0:	d02f      	beq.n	1832 <_i2c_master_read_packet+0x92>
    17d2:	886b      	ldrh	r3, [r5, #2]
    17d4:	2b01      	cmp	r3, #1
    17d6:	d12c      	bne.n	1832 <_i2c_master_read_packet+0x92>
    17d8:	2380      	movs	r3, #128	; 0x80
    17da:	6862      	ldr	r2, [r4, #4]
    17dc:	02db      	lsls	r3, r3, #11
    17de:	4313      	orrs	r3, r2
    17e0:	6063      	str	r3, [r4, #4]
    17e2:	7a28      	ldrb	r0, [r5, #8]
    17e4:	2800      	cmp	r0, #0
    17e6:	d028      	beq.n	183a <_i2c_master_read_packet+0x9a>
    17e8:	882b      	ldrh	r3, [r5, #0]
    17ea:	7a6a      	ldrb	r2, [r5, #9]
    17ec:	005b      	lsls	r3, r3, #1
    17ee:	0392      	lsls	r2, r2, #14
    17f0:	4313      	orrs	r3, r2
    17f2:	2280      	movs	r2, #128	; 0x80
    17f4:	0212      	lsls	r2, r2, #8
    17f6:	4313      	orrs	r3, r2
    17f8:	6263      	str	r3, [r4, #36]	; 0x24
    17fa:	0030      	movs	r0, r6
    17fc:	4b14      	ldr	r3, [pc, #80]	; (1850 <_i2c_master_read_packet+0xb0>)
    17fe:	4798      	blx	r3
    1800:	6863      	ldr	r3, [r4, #4]
    1802:	4a14      	ldr	r2, [pc, #80]	; (1854 <_i2c_master_read_packet+0xb4>)
    1804:	4013      	ands	r3, r2
    1806:	6063      	str	r3, [r4, #4]
    1808:	2800      	cmp	r0, #0
    180a:	d111      	bne.n	1830 <_i2c_master_read_packet+0x90>
    180c:	0030      	movs	r0, r6
    180e:	4b12      	ldr	r3, [pc, #72]	; (1858 <_i2c_master_read_packet+0xb8>)
    1810:	4798      	blx	r3
    1812:	2800      	cmp	r0, #0
    1814:	d10c      	bne.n	1830 <_i2c_master_read_packet+0x90>
    1816:	2303      	movs	r3, #3
    1818:	75a3      	strb	r3, [r4, #22]
    181a:	882a      	ldrh	r2, [r5, #0]
    181c:	3375      	adds	r3, #117	; 0x75
    181e:	0a12      	lsrs	r2, r2, #8
    1820:	4313      	orrs	r3, r2
    1822:	2201      	movs	r2, #1
    1824:	7a69      	ldrb	r1, [r5, #9]
    1826:	005b      	lsls	r3, r3, #1
    1828:	0389      	lsls	r1, r1, #14
    182a:	430a      	orrs	r2, r1
    182c:	4313      	orrs	r3, r2
    182e:	6263      	str	r3, [r4, #36]	; 0x24
    1830:	bdf8      	pop	{r3, r4, r5, r6, r7, pc}
    1832:	6863      	ldr	r3, [r4, #4]
    1834:	4a07      	ldr	r2, [pc, #28]	; (1854 <_i2c_master_read_packet+0xb4>)
    1836:	4013      	ands	r3, r2
    1838:	e7d2      	b.n	17e0 <_i2c_master_read_packet+0x40>
    183a:	2303      	movs	r3, #3
    183c:	75a3      	strb	r3, [r4, #22]
    183e:	882b      	ldrh	r3, [r5, #0]
    1840:	7a6a      	ldrb	r2, [r5, #9]
    1842:	005b      	lsls	r3, r3, #1
    1844:	0392      	lsls	r2, r2, #14
    1846:	4313      	orrs	r3, r2
    1848:	2201      	movs	r2, #1
    184a:	e7ef      	b.n	182c <_i2c_master_read_packet+0x8c>
    184c:	00001671 	.word	0x00001671
    1850:	00001649 	.word	0x00001649
    1854:	fffbffff 	.word	0xfffbffff
    1858:	0000161d 	.word	0x0000161d

0000185c <i2c_master_register_callback>:
    185c:	1c93      	adds	r3, r2, #2
    185e:	009b      	lsls	r3, r3, #2
    1860:	18c3      	adds	r3, r0, r3
    1862:	6059      	str	r1, [r3, #4]
    1864:	2301      	movs	r3, #1
    1866:	4093      	lsls	r3, r2
    1868:	7e01      	ldrb	r1, [r0, #24]
    186a:	430b      	orrs	r3, r1
    186c:	b2db      	uxtb	r3, r3
    186e:	7603      	strb	r3, [r0, #24]
    1870:	4770      	bx	lr
	...

00001874 <i2c_master_read_packet_job>:
    1874:	b510      	push	{r4, lr}
    1876:	8b82      	ldrh	r2, [r0, #28]
    1878:	0003      	movs	r3, r0
    187a:	2005      	movs	r0, #5
    187c:	2a00      	cmp	r2, #0
    187e:	d105      	bne.n	188c <i2c_master_read_packet_job+0x18>
    1880:	3201      	adds	r2, #1
    1882:	729a      	strb	r2, [r3, #10]
    1884:	72da      	strb	r2, [r3, #11]
    1886:	0018      	movs	r0, r3
    1888:	4b01      	ldr	r3, [pc, #4]	; (1890 <i2c_master_read_packet_job+0x1c>)
    188a:	4798      	blx	r3
    188c:	bd10      	pop	{r4, pc}
    188e:	46c0      	nop			; (mov r8, r8)
    1890:	000017a1 	.word	0x000017a1

00001894 <i2c_master_write_packet_job>:
    1894:	b510      	push	{r4, lr}
    1896:	8b82      	ldrh	r2, [r0, #28]
    1898:	0003      	movs	r3, r0
    189a:	2005      	movs	r0, #5
    189c:	2a00      	cmp	r2, #0
    189e:	d105      	bne.n	18ac <i2c_master_write_packet_job+0x18>
    18a0:	3201      	adds	r2, #1
    18a2:	729a      	strb	r2, [r3, #10]
    18a4:	72da      	strb	r2, [r3, #11]
    18a6:	0018      	movs	r0, r3
    18a8:	4b01      	ldr	r3, [pc, #4]	; (18b0 <i2c_master_write_packet_job+0x1c>)
    18aa:	4798      	blx	r3
    18ac:	bd10      	pop	{r4, pc}
    18ae:	46c0      	nop			; (mov r8, r8)
    18b0:	00001749 	.word	0x00001749

000018b4 <_i2c_master_interrupt_handler>:
    18b4:	b5f8      	push	{r3, r4, r5, r6, r7, lr}
    18b6:	4b5e      	ldr	r3, [pc, #376]	; (1a30 <_i2c_master_interrupt_handler+0x17c>)
    18b8:	0080      	lsls	r0, r0, #2
    18ba:	58c4      	ldr	r4, [r0, r3]
    18bc:	6825      	ldr	r5, [r4, #0]
    18be:	1da6      	adds	r6, r4, #6
    18c0:	682b      	ldr	r3, [r5, #0]
    18c2:	7e62      	ldrb	r2, [r4, #25]
    18c4:	7e27      	ldrb	r7, [r4, #24]
    18c6:	011b      	lsls	r3, r3, #4
    18c8:	4017      	ands	r7, r2
    18ca:	8b62      	ldrh	r2, [r4, #26]
    18cc:	0fdb      	lsrs	r3, r3, #31
    18ce:	2a00      	cmp	r2, #0
    18d0:	d12e      	bne.n	1930 <_i2c_master_interrupt_handler+0x7c>
    18d2:	8ba2      	ldrh	r2, [r4, #28]
    18d4:	2a00      	cmp	r2, #0
    18d6:	d02b      	beq.n	1930 <_i2c_master_interrupt_handler+0x7c>
    18d8:	2301      	movs	r3, #1
    18da:	7e2a      	ldrb	r2, [r5, #24]
    18dc:	421a      	tst	r2, r3
    18de:	d006      	beq.n	18ee <_i2c_master_interrupt_handler+0x3a>
    18e0:	2202      	movs	r2, #2
    18e2:	762b      	strb	r3, [r5, #24]
    18e4:	8b6b      	ldrh	r3, [r5, #26]
    18e6:	4013      	ands	r3, r2
    18e8:	d010      	beq.n	190c <_i2c_master_interrupt_handler+0x58>
    18ea:	2341      	movs	r3, #65	; 0x41
    18ec:	77f3      	strb	r3, [r6, #31]
    18ee:	8ba3      	ldrh	r3, [r4, #28]
    18f0:	b29b      	uxth	r3, r3
    18f2:	8363      	strh	r3, [r4, #26]
    18f4:	7ff3      	ldrb	r3, [r6, #31]
    18f6:	2b05      	cmp	r3, #5
    18f8:	d13c      	bne.n	1974 <_i2c_master_interrupt_handler+0xc0>
    18fa:	1d63      	adds	r3, r4, #5
    18fc:	7fdb      	ldrb	r3, [r3, #31]
    18fe:	0020      	movs	r0, r4
    1900:	2b00      	cmp	r3, #0
    1902:	d000      	beq.n	1906 <_i2c_master_interrupt_handler+0x52>
    1904:	e08a      	b.n	1a1c <_i2c_master_interrupt_handler+0x168>
    1906:	4b4b      	ldr	r3, [pc, #300]	; (1a34 <_i2c_master_interrupt_handler+0x180>)
    1908:	4798      	blx	r3
    190a:	e033      	b.n	1974 <_i2c_master_interrupt_handler+0xc0>
    190c:	8b6a      	ldrh	r2, [r5, #26]
    190e:	0752      	lsls	r2, r2, #29
    1910:	d5ed      	bpl.n	18ee <_i2c_master_interrupt_handler+0x3a>
    1912:	2218      	movs	r2, #24
    1914:	77f2      	strb	r2, [r6, #31]
    1916:	83a3      	strh	r3, [r4, #28]
    1918:	7aa3      	ldrb	r3, [r4, #10]
    191a:	2b00      	cmp	r3, #0
    191c:	d0e7      	beq.n	18ee <_i2c_master_interrupt_handler+0x3a>
    191e:	4b46      	ldr	r3, [pc, #280]	; (1a38 <_i2c_master_interrupt_handler+0x184>)
    1920:	0020      	movs	r0, r4
    1922:	4798      	blx	r3
    1924:	23c0      	movs	r3, #192	; 0xc0
    1926:	686a      	ldr	r2, [r5, #4]
    1928:	029b      	lsls	r3, r3, #10
    192a:	4313      	orrs	r3, r2
    192c:	606b      	str	r3, [r5, #4]
    192e:	e7de      	b.n	18ee <_i2c_master_interrupt_handler+0x3a>
    1930:	8b62      	ldrh	r2, [r4, #26]
    1932:	2a00      	cmp	r2, #0
    1934:	d05f      	beq.n	19f6 <_i2c_master_interrupt_handler+0x142>
    1936:	8ba2      	ldrh	r2, [r4, #28]
    1938:	2a00      	cmp	r2, #0
    193a:	d15c      	bne.n	19f6 <_i2c_master_interrupt_handler+0x142>
    193c:	7ff2      	ldrb	r2, [r6, #31]
    193e:	2a05      	cmp	r2, #5
    1940:	d159      	bne.n	19f6 <_i2c_master_interrupt_handler+0x142>
    1942:	1d62      	adds	r2, r4, #5
    1944:	7fd2      	ldrb	r2, [r2, #31]
    1946:	b2d2      	uxtb	r2, r2
    1948:	2a00      	cmp	r2, #0
    194a:	d154      	bne.n	19f6 <_i2c_master_interrupt_handler+0x142>
    194c:	2303      	movs	r3, #3
    194e:	752b      	strb	r3, [r5, #20]
    1950:	8362      	strh	r2, [r4, #26]
    1952:	77f2      	strb	r2, [r6, #31]
    1954:	7aa3      	ldrb	r3, [r4, #10]
    1956:	2b00      	cmp	r3, #0
    1958:	d04a      	beq.n	19f0 <_i2c_master_interrupt_handler+0x13c>
    195a:	4b37      	ldr	r3, [pc, #220]	; (1a38 <_i2c_master_interrupt_handler+0x184>)
    195c:	0020      	movs	r0, r4
    195e:	4798      	blx	r3
    1960:	23c0      	movs	r3, #192	; 0xc0
    1962:	686a      	ldr	r2, [r5, #4]
    1964:	029b      	lsls	r3, r3, #10
    1966:	4313      	orrs	r3, r2
    1968:	606b      	str	r3, [r5, #4]
    196a:	07fb      	lsls	r3, r7, #31
    196c:	d502      	bpl.n	1974 <_i2c_master_interrupt_handler+0xc0>
    196e:	68e3      	ldr	r3, [r4, #12]
    1970:	0020      	movs	r0, r4
    1972:	4798      	blx	r3
    1974:	8b63      	ldrh	r3, [r4, #26]
    1976:	2b00      	cmp	r3, #0
    1978:	d01b      	beq.n	19b2 <_i2c_master_interrupt_handler+0xfe>
    197a:	8ba3      	ldrh	r3, [r4, #28]
    197c:	2b00      	cmp	r3, #0
    197e:	d118      	bne.n	19b2 <_i2c_master_interrupt_handler+0xfe>
    1980:	7ff3      	ldrb	r3, [r6, #31]
    1982:	2b05      	cmp	r3, #5
    1984:	d115      	bne.n	19b2 <_i2c_master_interrupt_handler+0xfe>
    1986:	1d63      	adds	r3, r4, #5
    1988:	7fda      	ldrb	r2, [r3, #31]
    198a:	2a01      	cmp	r2, #1
    198c:	d111      	bne.n	19b2 <_i2c_master_interrupt_handler+0xfe>
    198e:	7e29      	ldrb	r1, [r5, #24]
    1990:	3201      	adds	r2, #1
    1992:	4211      	tst	r1, r2
    1994:	d000      	beq.n	1998 <_i2c_master_interrupt_handler+0xe4>
    1996:	762a      	strb	r2, [r5, #24]
    1998:	2203      	movs	r2, #3
    199a:	752a      	strb	r2, [r5, #20]
    199c:	2200      	movs	r2, #0
    199e:	8362      	strh	r2, [r4, #26]
    19a0:	77f2      	strb	r2, [r6, #31]
    19a2:	07ba      	lsls	r2, r7, #30
    19a4:	d53c      	bpl.n	1a20 <_i2c_master_interrupt_handler+0x16c>
    19a6:	7fda      	ldrb	r2, [r3, #31]
    19a8:	2a01      	cmp	r2, #1
    19aa:	d139      	bne.n	1a20 <_i2c_master_interrupt_handler+0x16c>
    19ac:	6923      	ldr	r3, [r4, #16]
    19ae:	0020      	movs	r0, r4
    19b0:	4798      	blx	r3
    19b2:	7ff3      	ldrb	r3, [r6, #31]
    19b4:	2b05      	cmp	r3, #5
    19b6:	d01a      	beq.n	19ee <_i2c_master_interrupt_handler+0x13a>
    19b8:	7ff3      	ldrb	r3, [r6, #31]
    19ba:	2b00      	cmp	r3, #0
    19bc:	d017      	beq.n	19ee <_i2c_master_interrupt_handler+0x13a>
    19be:	2303      	movs	r3, #3
    19c0:	752b      	strb	r3, [r5, #20]
    19c2:	2300      	movs	r3, #0
    19c4:	8363      	strh	r3, [r4, #26]
    19c6:	83a3      	strh	r3, [r4, #28]
    19c8:	7ff3      	ldrb	r3, [r6, #31]
    19ca:	2b41      	cmp	r3, #65	; 0x41
    19cc:	d00a      	beq.n	19e4 <_i2c_master_interrupt_handler+0x130>
    19ce:	7aa3      	ldrb	r3, [r4, #10]
    19d0:	2b00      	cmp	r3, #0
    19d2:	d007      	beq.n	19e4 <_i2c_master_interrupt_handler+0x130>
    19d4:	4b18      	ldr	r3, [pc, #96]	; (1a38 <_i2c_master_interrupt_handler+0x184>)
    19d6:	0020      	movs	r0, r4
    19d8:	4798      	blx	r3
    19da:	23e0      	movs	r3, #224	; 0xe0
    19dc:	686a      	ldr	r2, [r5, #4]
    19de:	02db      	lsls	r3, r3, #11
    19e0:	4313      	orrs	r3, r2
    19e2:	606b      	str	r3, [r5, #4]
    19e4:	077b      	lsls	r3, r7, #29
    19e6:	d502      	bpl.n	19ee <_i2c_master_interrupt_handler+0x13a>
    19e8:	6963      	ldr	r3, [r4, #20]
    19ea:	0020      	movs	r0, r4
    19ec:	4798      	blx	r3
    19ee:	bdf8      	pop	{r3, r4, r5, r6, r7, pc}
    19f0:	2301      	movs	r3, #1
    19f2:	762b      	strb	r3, [r5, #24]
    19f4:	e7b9      	b.n	196a <_i2c_master_interrupt_handler+0xb6>
    19f6:	8b62      	ldrh	r2, [r4, #26]
    19f8:	2a00      	cmp	r2, #0
    19fa:	d0bb      	beq.n	1974 <_i2c_master_interrupt_handler+0xc0>
    19fc:	8ba2      	ldrh	r2, [r4, #28]
    19fe:	2a00      	cmp	r2, #0
    1a00:	d0b8      	beq.n	1974 <_i2c_master_interrupt_handler+0xc0>
    1a02:	8b6a      	ldrh	r2, [r5, #26]
    1a04:	0692      	lsls	r2, r2, #26
    1a06:	d500      	bpl.n	1a0a <_i2c_master_interrupt_handler+0x156>
    1a08:	e777      	b.n	18fa <_i2c_master_interrupt_handler+0x46>
    1a0a:	2b00      	cmp	r3, #0
    1a0c:	d003      	beq.n	1a16 <_i2c_master_interrupt_handler+0x162>
    1a0e:	8ba3      	ldrh	r3, [r4, #28]
    1a10:	2b01      	cmp	r3, #1
    1a12:	d100      	bne.n	1a16 <_i2c_master_interrupt_handler+0x162>
    1a14:	e771      	b.n	18fa <_i2c_master_interrupt_handler+0x46>
    1a16:	2341      	movs	r3, #65	; 0x41
    1a18:	77f3      	strb	r3, [r6, #31]
    1a1a:	e7ab      	b.n	1974 <_i2c_master_interrupt_handler+0xc0>
    1a1c:	4b07      	ldr	r3, [pc, #28]	; (1a3c <_i2c_master_interrupt_handler+0x188>)
    1a1e:	e773      	b.n	1908 <_i2c_master_interrupt_handler+0x54>
    1a20:	07fa      	lsls	r2, r7, #31
    1a22:	d5c6      	bpl.n	19b2 <_i2c_master_interrupt_handler+0xfe>
    1a24:	7fdb      	ldrb	r3, [r3, #31]
    1a26:	2b00      	cmp	r3, #0
    1a28:	d1c3      	bne.n	19b2 <_i2c_master_interrupt_handler+0xfe>
    1a2a:	68e3      	ldr	r3, [r4, #12]
    1a2c:	e7bf      	b.n	19ae <_i2c_master_interrupt_handler+0xfa>
    1a2e:	46c0      	nop			; (mov r8, r8)
    1a30:	20003f80 	.word	0x20003f80
    1a34:	0000170d 	.word	0x0000170d
    1a38:	00001691 	.word	0x00001691
    1a3c:	0000169d 	.word	0x0000169d

00001a40 <cpu_irq_save>:
    1a40:	b082      	sub	sp, #8
    1a42:	f3ef 8310 	mrs	r3, PRIMASK
    1a46:	425a      	negs	r2, r3
    1a48:	4153      	adcs	r3, r2
    1a4a:	9301      	str	r3, [sp, #4]
    1a4c:	b672      	cpsid	i
    1a4e:	f3bf 8f5f 	dmb	sy
    1a52:	2200      	movs	r2, #0
    1a54:	4b02      	ldr	r3, [pc, #8]	; (1a60 <cpu_irq_save+0x20>)
    1a56:	701a      	strb	r2, [r3, #0]
    1a58:	9801      	ldr	r0, [sp, #4]
    1a5a:	b002      	add	sp, #8
    1a5c:	4770      	bx	lr
    1a5e:	46c0      	nop			; (mov r8, r8)
    1a60:	200000c6 	.word	0x200000c6

00001a64 <udd_ep_get_job>:
    1a64:	227f      	movs	r2, #127	; 0x7f
    1a66:	4002      	ands	r2, r0
    1a68:	1e13      	subs	r3, r2, #0
    1a6a:	d009      	beq.n	1a80 <udd_ep_get_job+0x1c>
    1a6c:	230f      	movs	r3, #15
    1a6e:	4003      	ands	r3, r0
    1a70:	005b      	lsls	r3, r3, #1
    1a72:	09c0      	lsrs	r0, r0, #7
    1a74:	1818      	adds	r0, r3, r0
    1a76:	2314      	movs	r3, #20
    1a78:	3802      	subs	r0, #2
    1a7a:	4358      	muls	r0, r3
    1a7c:	4b01      	ldr	r3, [pc, #4]	; (1a84 <udd_ep_get_job+0x20>)
    1a7e:	181b      	adds	r3, r3, r0
    1a80:	0018      	movs	r0, r3
    1a82:	4770      	bx	lr
    1a84:	2000069c 	.word	0x2000069c

00001a88 <udd_ep_transfer_process>:
    1a88:	b5f0      	push	{r4, r5, r6, r7, lr}
    1a8a:	798d      	ldrb	r5, [r1, #6]
    1a8c:	b085      	sub	sp, #20
    1a8e:	b26a      	sxtb	r2, r5
    1a90:	000e      	movs	r6, r1
    1a92:	4b54      	ldr	r3, [pc, #336]	; (1be4 <udd_ep_transfer_process+0x15c>)
    1a94:	0028      	movs	r0, r5
    1a96:	2a00      	cmp	r2, #0
    1a98:	da48      	bge.n	1b2c <udd_ep_transfer_process+0xa4>
    1a9a:	270f      	movs	r7, #15
    1a9c:	4798      	blx	r3
    1a9e:	402f      	ands	r7, r5
    1aa0:	9701      	str	r7, [sp, #4]
    1aa2:	8a03      	ldrh	r3, [r0, #16]
    1aa4:	6881      	ldr	r1, [r0, #8]
    1aa6:	9302      	str	r3, [sp, #8]
    1aa8:	8876      	ldrh	r6, [r6, #2]
    1aaa:	68c3      	ldr	r3, [r0, #12]
    1aac:	0004      	movs	r4, r0
    1aae:	18f6      	adds	r6, r6, r3
    1ab0:	60c6      	str	r6, [r0, #12]
    1ab2:	7c87      	ldrb	r7, [r0, #18]
    1ab4:	428e      	cmp	r6, r1
    1ab6:	d025      	beq.n	1b04 <udd_ep_transfer_process+0x7c>
    1ab8:	1b8d      	subs	r5, r1, r6
    1aba:	4b4b      	ldr	r3, [pc, #300]	; (1be8 <udd_ep_transfer_process+0x160>)
    1abc:	b2ad      	uxth	r5, r5
    1abe:	429d      	cmp	r5, r3
    1ac0:	d906      	bls.n	1ad0 <udd_ep_transfer_process+0x48>
    1ac2:	0018      	movs	r0, r3
    1ac4:	9902      	ldr	r1, [sp, #8]
    1ac6:	4b49      	ldr	r3, [pc, #292]	; (1bec <udd_ep_transfer_process+0x164>)
    1ac8:	4798      	blx	r3
    1aca:	4b47      	ldr	r3, [pc, #284]	; (1be8 <udd_ep_transfer_process+0x160>)
    1acc:	1a5d      	subs	r5, r3, r1
    1ace:	b2ad      	uxth	r5, r5
    1ad0:	2100      	movs	r1, #0
    1ad2:	07bb      	lsls	r3, r7, #30
    1ad4:	d507      	bpl.n	1ae6 <udd_ep_transfer_process+0x5e>
    1ad6:	4b46      	ldr	r3, [pc, #280]	; (1bf0 <udd_ep_transfer_process+0x168>)
    1ad8:	9902      	ldr	r1, [sp, #8]
    1ada:	0028      	movs	r0, r5
    1adc:	4798      	blx	r3
    1ade:	b28b      	uxth	r3, r1
    1ae0:	4259      	negs	r1, r3
    1ae2:	4159      	adcs	r1, r3
    1ae4:	b2c9      	uxtb	r1, r1
    1ae6:	2202      	movs	r2, #2
    1ae8:	7ca3      	ldrb	r3, [r4, #18]
    1aea:	0049      	lsls	r1, r1, #1
    1aec:	4393      	bics	r3, r2
    1aee:	4319      	orrs	r1, r3
    1af0:	002b      	movs	r3, r5
    1af2:	6862      	ldr	r2, [r4, #4]
    1af4:	74a1      	strb	r1, [r4, #18]
    1af6:	1992      	adds	r2, r2, r6
    1af8:	9901      	ldr	r1, [sp, #4]
    1afa:	483e      	ldr	r0, [pc, #248]	; (1bf4 <udd_ep_transfer_process+0x16c>)
    1afc:	4c3e      	ldr	r4, [pc, #248]	; (1bf8 <udd_ep_transfer_process+0x170>)
    1afe:	47a0      	blx	r4
    1b00:	b005      	add	sp, #20
    1b02:	bdf0      	pop	{r4, r5, r6, r7, pc}
    1b04:	2302      	movs	r3, #2
    1b06:	0038      	movs	r0, r7
    1b08:	4018      	ands	r0, r3
    1b0a:	d005      	beq.n	1b18 <udd_ep_transfer_process+0x90>
    1b0c:	6862      	ldr	r2, [r4, #4]
    1b0e:	439f      	bics	r7, r3
    1b10:	74a7      	strb	r7, [r4, #18]
    1b12:	1992      	adds	r2, r2, r6
    1b14:	2300      	movs	r3, #0
    1b16:	e7ef      	b.n	1af8 <udd_ep_transfer_process+0x70>
    1b18:	2301      	movs	r3, #1
    1b1a:	439f      	bics	r7, r3
    1b1c:	6823      	ldr	r3, [r4, #0]
    1b1e:	74a7      	strb	r7, [r4, #18]
    1b20:	2b00      	cmp	r3, #0
    1b22:	d0ed      	beq.n	1b00 <udd_ep_transfer_process+0x78>
    1b24:	002a      	movs	r2, r5
    1b26:	0031      	movs	r1, r6
    1b28:	4798      	blx	r3
    1b2a:	e7e9      	b.n	1b00 <udd_ep_transfer_process+0x78>
    1b2c:	4798      	blx	r3
    1b2e:	230f      	movs	r3, #15
    1b30:	402b      	ands	r3, r5
    1b32:	9302      	str	r3, [sp, #8]
    1b34:	8a03      	ldrh	r3, [r0, #16]
    1b36:	0004      	movs	r4, r0
    1b38:	9301      	str	r3, [sp, #4]
    1b3a:	7c83      	ldrb	r3, [r0, #18]
    1b3c:	8837      	ldrh	r7, [r6, #0]
    1b3e:	075b      	lsls	r3, r3, #29
    1b40:	d511      	bpl.n	1b66 <udd_ep_transfer_process+0xde>
    1b42:	68c2      	ldr	r2, [r0, #12]
    1b44:	6843      	ldr	r3, [r0, #4]
    1b46:	4694      	mov	ip, r2
    1b48:	4463      	add	r3, ip
    1b4a:	9303      	str	r3, [sp, #12]
    1b4c:	9901      	ldr	r1, [sp, #4]
    1b4e:	4b28      	ldr	r3, [pc, #160]	; (1bf0 <udd_ep_transfer_process+0x168>)
    1b50:	6880      	ldr	r0, [r0, #8]
    1b52:	4798      	blx	r3
    1b54:	9b02      	ldr	r3, [sp, #8]
    1b56:	000a      	movs	r2, r1
    1b58:	3b01      	subs	r3, #1
    1b5a:	4928      	ldr	r1, [pc, #160]	; (1bfc <udd_ep_transfer_process+0x174>)
    1b5c:	019b      	lsls	r3, r3, #6
    1b5e:	1859      	adds	r1, r3, r1
    1b60:	9803      	ldr	r0, [sp, #12]
    1b62:	4b27      	ldr	r3, [pc, #156]	; (1c00 <udd_ep_transfer_process+0x178>)
    1b64:	4798      	blx	r3
    1b66:	68e3      	ldr	r3, [r4, #12]
    1b68:	18fa      	adds	r2, r7, r3
    1b6a:	68a3      	ldr	r3, [r4, #8]
    1b6c:	60e2      	str	r2, [r4, #12]
    1b6e:	429a      	cmp	r2, r3
    1b70:	d900      	bls.n	1b74 <udd_ep_transfer_process+0xec>
    1b72:	60e3      	str	r3, [r4, #12]
    1b74:	88b2      	ldrh	r2, [r6, #4]
    1b76:	42ba      	cmp	r2, r7
    1b78:	d127      	bne.n	1bca <udd_ep_transfer_process+0x142>
    1b7a:	68e6      	ldr	r6, [r4, #12]
    1b7c:	42b3      	cmp	r3, r6
    1b7e:	d024      	beq.n	1bca <udd_ep_transfer_process+0x142>
    1b80:	1b9d      	subs	r5, r3, r6
    1b82:	4f19      	ldr	r7, [pc, #100]	; (1be8 <udd_ep_transfer_process+0x160>)
    1b84:	b2ad      	uxth	r5, r5
    1b86:	9901      	ldr	r1, [sp, #4]
    1b88:	42bd      	cmp	r5, r7
    1b8a:	d916      	bls.n	1bba <udd_ep_transfer_process+0x132>
    1b8c:	4b17      	ldr	r3, [pc, #92]	; (1bec <udd_ep_transfer_process+0x164>)
    1b8e:	0038      	movs	r0, r7
    1b90:	4798      	blx	r3
    1b92:	1a7b      	subs	r3, r7, r1
    1b94:	9a01      	ldr	r2, [sp, #4]
    1b96:	b29b      	uxth	r3, r3
    1b98:	4816      	ldr	r0, [pc, #88]	; (1bf4 <udd_ep_transfer_process+0x16c>)
    1b9a:	4f1a      	ldr	r7, [pc, #104]	; (1c04 <udd_ep_transfer_process+0x17c>)
    1b9c:	429a      	cmp	r2, r3
    1b9e:	d911      	bls.n	1bc4 <udd_ep_transfer_process+0x13c>
    1ba0:	2304      	movs	r3, #4
    1ba2:	7ca2      	ldrb	r2, [r4, #18]
    1ba4:	4313      	orrs	r3, r2
    1ba6:	74a3      	strb	r3, [r4, #18]
    1ba8:	9b02      	ldr	r3, [sp, #8]
    1baa:	1e5a      	subs	r2, r3, #1
    1bac:	4b13      	ldr	r3, [pc, #76]	; (1bfc <udd_ep_transfer_process+0x174>)
    1bae:	0192      	lsls	r2, r2, #6
    1bb0:	18d2      	adds	r2, r2, r3
    1bb2:	9b01      	ldr	r3, [sp, #4]
    1bb4:	9902      	ldr	r1, [sp, #8]
    1bb6:	47b8      	blx	r7
    1bb8:	e7a2      	b.n	1b00 <udd_ep_transfer_process+0x78>
    1bba:	4b0d      	ldr	r3, [pc, #52]	; (1bf0 <udd_ep_transfer_process+0x168>)
    1bbc:	0028      	movs	r0, r5
    1bbe:	4798      	blx	r3
    1bc0:	1a6b      	subs	r3, r5, r1
    1bc2:	e7e7      	b.n	1b94 <udd_ep_transfer_process+0x10c>
    1bc4:	6862      	ldr	r2, [r4, #4]
    1bc6:	1992      	adds	r2, r2, r6
    1bc8:	e7f4      	b.n	1bb4 <udd_ep_transfer_process+0x12c>
    1bca:	2201      	movs	r2, #1
    1bcc:	7ca3      	ldrb	r3, [r4, #18]
    1bce:	4393      	bics	r3, r2
    1bd0:	74a3      	strb	r3, [r4, #18]
    1bd2:	6823      	ldr	r3, [r4, #0]
    1bd4:	2b00      	cmp	r3, #0
    1bd6:	d100      	bne.n	1bda <udd_ep_transfer_process+0x152>
    1bd8:	e792      	b.n	1b00 <udd_ep_transfer_process+0x78>
    1bda:	002a      	movs	r2, r5
    1bdc:	68e1      	ldr	r1, [r4, #12]
    1bde:	2000      	movs	r0, #0
    1be0:	e7a2      	b.n	1b28 <udd_ep_transfer_process+0xa0>
    1be2:	46c0      	nop			; (mov r8, r8)
    1be4:	00001a65 	.word	0x00001a65
    1be8:	00001fff 	.word	0x00001fff
    1bec:	00007f99 	.word	0x00007f99
    1bf0:	00007dc5 	.word	0x00007dc5
    1bf4:	20003c78 	.word	0x20003c78
    1bf8:	000029c9 	.word	0x000029c9
    1bfc:	20003bb8 	.word	0x20003bb8
    1c00:	0000ae15 	.word	0x0000ae15
    1c04:	00002a15 	.word	0x00002a15

00001c08 <udd_ctrl_stall_data>:
    1c08:	2205      	movs	r2, #5
    1c0a:	b510      	push	{r4, lr}
    1c0c:	4b05      	ldr	r3, [pc, #20]	; (1c24 <udd_ctrl_stall_data+0x1c>)
    1c0e:	4c06      	ldr	r4, [pc, #24]	; (1c28 <udd_ctrl_stall_data+0x20>)
    1c10:	701a      	strb	r2, [r3, #0]
    1c12:	0020      	movs	r0, r4
    1c14:	2180      	movs	r1, #128	; 0x80
    1c16:	4b05      	ldr	r3, [pc, #20]	; (1c2c <udd_ctrl_stall_data+0x24>)
    1c18:	4798      	blx	r3
    1c1a:	2100      	movs	r1, #0
    1c1c:	0020      	movs	r0, r4
    1c1e:	4b04      	ldr	r3, [pc, #16]	; (1c30 <udd_ctrl_stall_data+0x28>)
    1c20:	4798      	blx	r3
    1c22:	bd10      	pop	{r4, pc}
    1c24:	2000069a 	.word	0x2000069a
    1c28:	20003c78 	.word	0x20003c78
    1c2c:	0000294f 	.word	0x0000294f
    1c30:	00002969 	.word	0x00002969

00001c34 <_usb_on_bus_reset>:
    1c34:	b537      	push	{r0, r1, r2, r4, r5, lr}
    1c36:	0004      	movs	r4, r0
    1c38:	4b1d      	ldr	r3, [pc, #116]	; (1cb0 <_usb_on_bus_reset+0x7c>)
    1c3a:	4798      	blx	r3
    1c3c:	2380      	movs	r3, #128	; 0x80
    1c3e:	6822      	ldr	r2, [r4, #0]
    1c40:	ad01      	add	r5, sp, #4
    1c42:	7293      	strb	r3, [r2, #10]
    1c44:	0028      	movs	r0, r5
    1c46:	4b1b      	ldr	r3, [pc, #108]	; (1cb4 <_usb_on_bus_reset+0x80>)
    1c48:	4798      	blx	r3
    1c4a:	2303      	movs	r3, #3
    1c4c:	0029      	movs	r1, r5
    1c4e:	706b      	strb	r3, [r5, #1]
    1c50:	0020      	movs	r0, r4
    1c52:	4b19      	ldr	r3, [pc, #100]	; (1cb8 <_usb_on_bus_reset+0x84>)
    1c54:	4798      	blx	r3
    1c56:	4919      	ldr	r1, [pc, #100]	; (1cbc <_usb_on_bus_reset+0x88>)
    1c58:	0020      	movs	r0, r4
    1c5a:	4b19      	ldr	r3, [pc, #100]	; (1cc0 <_usb_on_bus_reset+0x8c>)
    1c5c:	4798      	blx	r3
    1c5e:	4d19      	ldr	r5, [pc, #100]	; (1cc4 <_usb_on_bus_reset+0x90>)
    1c60:	4b19      	ldr	r3, [pc, #100]	; (1cc8 <_usb_on_bus_reset+0x94>)
    1c62:	2202      	movs	r2, #2
    1c64:	2100      	movs	r1, #0
    1c66:	0020      	movs	r0, r4
    1c68:	47a8      	blx	r5
    1c6a:	2200      	movs	r2, #0
    1c6c:	4b17      	ldr	r3, [pc, #92]	; (1ccc <_usb_on_bus_reset+0x98>)
    1c6e:	0011      	movs	r1, r2
    1c70:	0020      	movs	r0, r4
    1c72:	47a8      	blx	r5
    1c74:	4b16      	ldr	r3, [pc, #88]	; (1cd0 <_usb_on_bus_reset+0x9c>)
    1c76:	2201      	movs	r2, #1
    1c78:	2100      	movs	r1, #0
    1c7a:	0020      	movs	r0, r4
    1c7c:	47a8      	blx	r5
    1c7e:	4d15      	ldr	r5, [pc, #84]	; (1cd4 <_usb_on_bus_reset+0xa0>)
    1c80:	2202      	movs	r2, #2
    1c82:	2100      	movs	r1, #0
    1c84:	0020      	movs	r0, r4
    1c86:	47a8      	blx	r5
    1c88:	2200      	movs	r2, #0
    1c8a:	0020      	movs	r0, r4
    1c8c:	0011      	movs	r1, r2
    1c8e:	47a8      	blx	r5
    1c90:	2201      	movs	r2, #1
    1c92:	2100      	movs	r1, #0
    1c94:	0020      	movs	r0, r4
    1c96:	47a8      	blx	r5
    1c98:	6821      	ldr	r1, [r4, #0]
    1c9a:	4a0f      	ldr	r2, [pc, #60]	; (1cd8 <_usb_on_bus_reset+0xa4>)
    1c9c:	890b      	ldrh	r3, [r1, #8]
    1c9e:	401a      	ands	r2, r3
    1ca0:	2380      	movs	r3, #128	; 0x80
    1ca2:	00db      	lsls	r3, r3, #3
    1ca4:	4313      	orrs	r3, r2
    1ca6:	2200      	movs	r2, #0
    1ca8:	810b      	strh	r3, [r1, #8]
    1caa:	4b0c      	ldr	r3, [pc, #48]	; (1cdc <_usb_on_bus_reset+0xa8>)
    1cac:	701a      	strb	r2, [r3, #0]
    1cae:	bd37      	pop	{r0, r1, r2, r4, r5, pc}
    1cb0:	00000805 	.word	0x00000805
    1cb4:	00002765 	.word	0x00002765
    1cb8:	00002775 	.word	0x00002775
    1cbc:	20003df8 	.word	0x20003df8
    1cc0:	00002a5d 	.word	0x00002a5d
    1cc4:	000025fd 	.word	0x000025fd
    1cc8:	00001e45 	.word	0x00001e45
    1ccc:	000021fd 	.word	0x000021fd
    1cd0:	00001d1d 	.word	0x00001d1d
    1cd4:	0000264d 	.word	0x0000264d
    1cd8:	fffff3ff 	.word	0xfffff3ff
    1cdc:	2000069a 	.word	0x2000069a

00001ce0 <udd_ctrl_send_zlp_in>:
    1ce0:	2203      	movs	r2, #3
    1ce2:	b510      	push	{r4, lr}
    1ce4:	4b07      	ldr	r3, [pc, #28]	; (1d04 <udd_ctrl_send_zlp_in+0x24>)
    1ce6:	4c08      	ldr	r4, [pc, #32]	; (1d08 <udd_ctrl_send_zlp_in+0x28>)
    1ce8:	701a      	strb	r2, [r3, #0]
    1cea:	4908      	ldr	r1, [pc, #32]	; (1d0c <udd_ctrl_send_zlp_in+0x2c>)
    1cec:	0020      	movs	r0, r4
    1cee:	4b08      	ldr	r3, [pc, #32]	; (1d10 <udd_ctrl_send_zlp_in+0x30>)
    1cf0:	4798      	blx	r3
    1cf2:	2300      	movs	r3, #0
    1cf4:	4a07      	ldr	r2, [pc, #28]	; (1d14 <udd_ctrl_send_zlp_in+0x34>)
    1cf6:	0019      	movs	r1, r3
    1cf8:	6892      	ldr	r2, [r2, #8]
    1cfa:	0020      	movs	r0, r4
    1cfc:	4c06      	ldr	r4, [pc, #24]	; (1d18 <udd_ctrl_send_zlp_in+0x38>)
    1cfe:	47a0      	blx	r4
    1d00:	bd10      	pop	{r4, pc}
    1d02:	46c0      	nop			; (mov r8, r8)
    1d04:	2000069a 	.word	0x2000069a
    1d08:	20003c78 	.word	0x20003c78
    1d0c:	20003df8 	.word	0x20003df8
    1d10:	00002a5d 	.word	0x00002a5d
    1d14:	20003de0 	.word	0x20003de0
    1d18:	000029c9 	.word	0x000029c9

00001d1c <_usb_ep0_on_tansfer_fail>:
    1d1c:	b510      	push	{r4, lr}
    1d1e:	7989      	ldrb	r1, [r1, #6]
    1d20:	4b0c      	ldr	r3, [pc, #48]	; (1d54 <_usb_ep0_on_tansfer_fail+0x38>)
    1d22:	b24a      	sxtb	r2, r1
    1d24:	2a00      	cmp	r2, #0
    1d26:	da0b      	bge.n	1d40 <_usb_ep0_on_tansfer_fail+0x24>
    1d28:	781b      	ldrb	r3, [r3, #0]
    1d2a:	2b01      	cmp	r3, #1
    1d2c:	d102      	bne.n	1d34 <_usb_ep0_on_tansfer_fail+0x18>
    1d2e:	4b0a      	ldr	r3, [pc, #40]	; (1d58 <_usb_ep0_on_tansfer_fail+0x3c>)
    1d30:	4798      	blx	r3
    1d32:	bd10      	pop	{r4, pc}
    1d34:	2b04      	cmp	r3, #4
    1d36:	d1fc      	bne.n	1d32 <_usb_ep0_on_tansfer_fail+0x16>
    1d38:	4808      	ldr	r0, [pc, #32]	; (1d5c <_usb_ep0_on_tansfer_fail+0x40>)
    1d3a:	4b09      	ldr	r3, [pc, #36]	; (1d60 <_usb_ep0_on_tansfer_fail+0x44>)
    1d3c:	4798      	blx	r3
    1d3e:	e7f8      	b.n	1d32 <_usb_ep0_on_tansfer_fail+0x16>
    1d40:	781a      	ldrb	r2, [r3, #0]
    1d42:	2a02      	cmp	r2, #2
    1d44:	d102      	bne.n	1d4c <_usb_ep0_on_tansfer_fail+0x30>
    1d46:	3202      	adds	r2, #2
    1d48:	701a      	strb	r2, [r3, #0]
    1d4a:	e7f2      	b.n	1d32 <_usb_ep0_on_tansfer_fail+0x16>
    1d4c:	2a03      	cmp	r2, #3
    1d4e:	d1f0      	bne.n	1d32 <_usb_ep0_on_tansfer_fail+0x16>
    1d50:	e7f2      	b.n	1d38 <_usb_ep0_on_tansfer_fail+0x1c>
    1d52:	46c0      	nop			; (mov r8, r8)
    1d54:	2000069a 	.word	0x2000069a
    1d58:	00001ce1 	.word	0x00001ce1
    1d5c:	20003c78 	.word	0x20003c78
    1d60:	0000294f 	.word	0x0000294f

00001d64 <udd_ctrl_in_sent>:
    1d64:	b570      	push	{r4, r5, r6, lr}
    1d66:	4d1d      	ldr	r5, [pc, #116]	; (1ddc <udd_ctrl_in_sent+0x78>)
    1d68:	4e1d      	ldr	r6, [pc, #116]	; (1de0 <udd_ctrl_in_sent+0x7c>)
    1d6a:	882b      	ldrh	r3, [r5, #0]
    1d6c:	89b4      	ldrh	r4, [r6, #12]
    1d6e:	1ae4      	subs	r4, r4, r3
    1d70:	b2a4      	uxth	r4, r4
    1d72:	2c00      	cmp	r4, #0
    1d74:	d11b      	bne.n	1dae <udd_ctrl_in_sent+0x4a>
    1d76:	4a1b      	ldr	r2, [pc, #108]	; (1de4 <udd_ctrl_in_sent+0x80>)
    1d78:	8811      	ldrh	r1, [r2, #0]
    1d7a:	185b      	adds	r3, r3, r1
    1d7c:	b29b      	uxth	r3, r3
    1d7e:	8013      	strh	r3, [r2, #0]
    1d80:	88f2      	ldrh	r2, [r6, #6]
    1d82:	429a      	cmp	r2, r3
    1d84:	d003      	beq.n	1d8e <udd_ctrl_in_sent+0x2a>
    1d86:	4b18      	ldr	r3, [pc, #96]	; (1de8 <udd_ctrl_in_sent+0x84>)
    1d88:	781b      	ldrb	r3, [r3, #0]
    1d8a:	2b00      	cmp	r3, #0
    1d8c:	d007      	beq.n	1d9e <udd_ctrl_in_sent+0x3a>
    1d8e:	2204      	movs	r2, #4
    1d90:	4b16      	ldr	r3, [pc, #88]	; (1dec <udd_ctrl_in_sent+0x88>)
    1d92:	4917      	ldr	r1, [pc, #92]	; (1df0 <udd_ctrl_in_sent+0x8c>)
    1d94:	701a      	strb	r2, [r3, #0]
    1d96:	4817      	ldr	r0, [pc, #92]	; (1df4 <udd_ctrl_in_sent+0x90>)
    1d98:	4b17      	ldr	r3, [pc, #92]	; (1df8 <udd_ctrl_in_sent+0x94>)
    1d9a:	4798      	blx	r3
    1d9c:	bd70      	pop	{r4, r5, r6, pc}
    1d9e:	6973      	ldr	r3, [r6, #20]
    1da0:	2b00      	cmp	r3, #0
    1da2:	d016      	beq.n	1dd2 <udd_ctrl_in_sent+0x6e>
    1da4:	4798      	blx	r3
    1da6:	2800      	cmp	r0, #0
    1da8:	d013      	beq.n	1dd2 <udd_ctrl_in_sent+0x6e>
    1daa:	802c      	strh	r4, [r5, #0]
    1dac:	89b4      	ldrh	r4, [r6, #12]
    1dae:	2c3f      	cmp	r4, #63	; 0x3f
    1db0:	d90f      	bls.n	1dd2 <udd_ctrl_in_sent+0x6e>
    1db2:	2200      	movs	r2, #0
    1db4:	2440      	movs	r4, #64	; 0x40
    1db6:	4b0c      	ldr	r3, [pc, #48]	; (1de8 <udd_ctrl_in_sent+0x84>)
    1db8:	701a      	strb	r2, [r3, #0]
    1dba:	882b      	ldrh	r3, [r5, #0]
    1dbc:	68b2      	ldr	r2, [r6, #8]
    1dbe:	2100      	movs	r1, #0
    1dc0:	18d2      	adds	r2, r2, r3
    1dc2:	480c      	ldr	r0, [pc, #48]	; (1df4 <udd_ctrl_in_sent+0x90>)
    1dc4:	0023      	movs	r3, r4
    1dc6:	4e0d      	ldr	r6, [pc, #52]	; (1dfc <udd_ctrl_in_sent+0x98>)
    1dc8:	47b0      	blx	r6
    1dca:	882b      	ldrh	r3, [r5, #0]
    1dcc:	18e4      	adds	r4, r4, r3
    1dce:	802c      	strh	r4, [r5, #0]
    1dd0:	e7e4      	b.n	1d9c <udd_ctrl_in_sent+0x38>
    1dd2:	2201      	movs	r2, #1
    1dd4:	4b04      	ldr	r3, [pc, #16]	; (1de8 <udd_ctrl_in_sent+0x84>)
    1dd6:	701a      	strb	r2, [r3, #0]
    1dd8:	e7ef      	b.n	1dba <udd_ctrl_in_sent+0x56>
    1dda:	46c0      	nop			; (mov r8, r8)
    1ddc:	20000696 	.word	0x20000696
    1de0:	20003de0 	.word	0x20003de0
    1de4:	20000698 	.word	0x20000698
    1de8:	20000694 	.word	0x20000694
    1dec:	2000069a 	.word	0x2000069a
    1df0:	20003df8 	.word	0x20003df8
    1df4:	20003c78 	.word	0x20003c78
    1df8:	00002a5d 	.word	0x00002a5d
    1dfc:	000029c9 	.word	0x000029c9

00001e00 <_usb_on_sof_notify>:
    1e00:	b510      	push	{r4, lr}
    1e02:	4b01      	ldr	r3, [pc, #4]	; (1e08 <_usb_on_sof_notify+0x8>)
    1e04:	4798      	blx	r3
    1e06:	bd10      	pop	{r4, pc}
    1e08:	00000845 	.word	0x00000845

00001e0c <cpu_irq_restore.part.0>:
    1e0c:	2201      	movs	r2, #1
    1e0e:	4b03      	ldr	r3, [pc, #12]	; (1e1c <cpu_irq_restore.part.0+0x10>)
    1e10:	701a      	strb	r2, [r3, #0]
    1e12:	f3bf 8f5f 	dmb	sy
    1e16:	b662      	cpsie	i
    1e18:	4770      	bx	lr
    1e1a:	46c0      	nop			; (mov r8, r8)
    1e1c:	200000c6 	.word	0x200000c6

00001e20 <udd_wait_clock_ready>:
    1e20:	4b07      	ldr	r3, [pc, #28]	; (1e40 <udd_wait_clock_ready+0x20>)
    1e22:	8c9a      	ldrh	r2, [r3, #36]	; 0x24
    1e24:	0692      	lsls	r2, r2, #26
    1e26:	d405      	bmi.n	1e34 <udd_wait_clock_ready+0x14>
    1e28:	21d0      	movs	r1, #208	; 0xd0
    1e2a:	68da      	ldr	r2, [r3, #12]
    1e2c:	400a      	ands	r2, r1
    1e2e:	2ad0      	cmp	r2, #208	; 0xd0
    1e30:	d1fb      	bne.n	1e2a <udd_wait_clock_ready+0xa>
    1e32:	4770      	bx	lr
    1e34:	2210      	movs	r2, #16
    1e36:	68d9      	ldr	r1, [r3, #12]
    1e38:	4211      	tst	r1, r2
    1e3a:	d0fc      	beq.n	1e36 <udd_wait_clock_ready+0x16>
    1e3c:	e7f9      	b.n	1e32 <udd_wait_clock_ready+0x12>
    1e3e:	46c0      	nop			; (mov r8, r8)
    1e40:	40000800 	.word	0x40000800

00001e44 <_usb_ep0_on_setup>:
    1e44:	b570      	push	{r4, r5, r6, lr}
    1e46:	4e27      	ldr	r6, [pc, #156]	; (1ee4 <_usb_ep0_on_setup+0xa0>)
    1e48:	000c      	movs	r4, r1
    1e4a:	7833      	ldrb	r3, [r6, #0]
    1e4c:	2b00      	cmp	r3, #0
    1e4e:	d006      	beq.n	1e5e <_usb_ep0_on_setup+0x1a>
    1e50:	4b25      	ldr	r3, [pc, #148]	; (1ee8 <_usb_ep0_on_setup+0xa4>)
    1e52:	691b      	ldr	r3, [r3, #16]
    1e54:	2b00      	cmp	r3, #0
    1e56:	d000      	beq.n	1e5a <_usb_ep0_on_setup+0x16>
    1e58:	4798      	blx	r3
    1e5a:	2300      	movs	r3, #0
    1e5c:	7033      	strb	r3, [r6, #0]
    1e5e:	8823      	ldrh	r3, [r4, #0]
    1e60:	2b08      	cmp	r3, #8
    1e62:	d002      	beq.n	1e6a <_usb_ep0_on_setup+0x26>
    1e64:	4b21      	ldr	r3, [pc, #132]	; (1eec <_usb_ep0_on_setup+0xa8>)
    1e66:	4798      	blx	r3
    1e68:	bd70      	pop	{r4, r5, r6, pc}
    1e6a:	4c21      	ldr	r4, [pc, #132]	; (1ef0 <_usb_ep0_on_setup+0xac>)
    1e6c:	4d1e      	ldr	r5, [pc, #120]	; (1ee8 <_usb_ep0_on_setup+0xa4>)
    1e6e:	7823      	ldrb	r3, [r4, #0]
    1e70:	702b      	strb	r3, [r5, #0]
    1e72:	7863      	ldrb	r3, [r4, #1]
    1e74:	706b      	strb	r3, [r5, #1]
    1e76:	78e2      	ldrb	r2, [r4, #3]
    1e78:	78a3      	ldrb	r3, [r4, #2]
    1e7a:	0212      	lsls	r2, r2, #8
    1e7c:	189b      	adds	r3, r3, r2
    1e7e:	806b      	strh	r3, [r5, #2]
    1e80:	7962      	ldrb	r2, [r4, #5]
    1e82:	7923      	ldrb	r3, [r4, #4]
    1e84:	0212      	lsls	r2, r2, #8
    1e86:	189b      	adds	r3, r3, r2
    1e88:	80ab      	strh	r3, [r5, #4]
    1e8a:	79e2      	ldrb	r2, [r4, #7]
    1e8c:	79a3      	ldrb	r3, [r4, #6]
    1e8e:	0212      	lsls	r2, r2, #8
    1e90:	189b      	adds	r3, r3, r2
    1e92:	80eb      	strh	r3, [r5, #6]
    1e94:	4b17      	ldr	r3, [pc, #92]	; (1ef4 <_usb_ep0_on_setup+0xb0>)
    1e96:	4798      	blx	r3
    1e98:	2800      	cmp	r0, #0
    1e9a:	d0e3      	beq.n	1e64 <_usb_ep0_on_setup+0x20>
    1e9c:	782b      	ldrb	r3, [r5, #0]
    1e9e:	2b7f      	cmp	r3, #127	; 0x7f
    1ea0:	d90d      	bls.n	1ebe <_usb_ep0_on_setup+0x7a>
    1ea2:	2100      	movs	r1, #0
    1ea4:	4b14      	ldr	r3, [pc, #80]	; (1ef8 <_usb_ep0_on_setup+0xb4>)
    1ea6:	0022      	movs	r2, r4
    1ea8:	8019      	strh	r1, [r3, #0]
    1eaa:	4b14      	ldr	r3, [pc, #80]	; (1efc <_usb_ep0_on_setup+0xb8>)
    1eac:	4814      	ldr	r0, [pc, #80]	; (1f00 <_usb_ep0_on_setup+0xbc>)
    1eae:	8019      	strh	r1, [r3, #0]
    1eb0:	2302      	movs	r3, #2
    1eb2:	4c14      	ldr	r4, [pc, #80]	; (1f04 <_usb_ep0_on_setup+0xc0>)
    1eb4:	7033      	strb	r3, [r6, #0]
    1eb6:	333e      	adds	r3, #62	; 0x3e
    1eb8:	47a0      	blx	r4
    1eba:	4b13      	ldr	r3, [pc, #76]	; (1f08 <_usb_ep0_on_setup+0xc4>)
    1ebc:	e7d3      	b.n	1e66 <_usb_ep0_on_setup+0x22>
    1ebe:	88eb      	ldrh	r3, [r5, #6]
    1ec0:	2b00      	cmp	r3, #0
    1ec2:	d101      	bne.n	1ec8 <_usb_ep0_on_setup+0x84>
    1ec4:	4b11      	ldr	r3, [pc, #68]	; (1f0c <_usb_ep0_on_setup+0xc8>)
    1ec6:	e7ce      	b.n	1e66 <_usb_ep0_on_setup+0x22>
    1ec8:	2100      	movs	r1, #0
    1eca:	4b0b      	ldr	r3, [pc, #44]	; (1ef8 <_usb_ep0_on_setup+0xb4>)
    1ecc:	0022      	movs	r2, r4
    1ece:	8019      	strh	r1, [r3, #0]
    1ed0:	4b0a      	ldr	r3, [pc, #40]	; (1efc <_usb_ep0_on_setup+0xb8>)
    1ed2:	4c0c      	ldr	r4, [pc, #48]	; (1f04 <_usb_ep0_on_setup+0xc0>)
    1ed4:	8019      	strh	r1, [r3, #0]
    1ed6:	2301      	movs	r3, #1
    1ed8:	4809      	ldr	r0, [pc, #36]	; (1f00 <_usb_ep0_on_setup+0xbc>)
    1eda:	7033      	strb	r3, [r6, #0]
    1edc:	333f      	adds	r3, #63	; 0x3f
    1ede:	47a0      	blx	r4
    1ee0:	e7c2      	b.n	1e68 <_usb_ep0_on_setup+0x24>
    1ee2:	46c0      	nop			; (mov r8, r8)
    1ee4:	2000069a 	.word	0x2000069a
    1ee8:	20003de0 	.word	0x20003de0
    1eec:	00001c09 	.word	0x00001c09
    1ef0:	20003df8 	.word	0x20003df8
    1ef4:	0000087d 	.word	0x0000087d
    1ef8:	20000698 	.word	0x20000698
    1efc:	20000696 	.word	0x20000696
    1f00:	20003c78 	.word	0x20003c78
    1f04:	00002a15 	.word	0x00002a15
    1f08:	00001d65 	.word	0x00001d65
    1f0c:	00001ce1 	.word	0x00001ce1

00001f10 <udd_sleep_mode>:
    1f10:	2300      	movs	r3, #0
    1f12:	b5f0      	push	{r4, r5, r6, r7, lr}
    1f14:	b085      	sub	sp, #20
    1f16:	ac03      	add	r4, sp, #12
    1f18:	7023      	strb	r3, [r4, #0]
    1f1a:	3303      	adds	r3, #3
    1f1c:	7063      	strb	r3, [r4, #1]
    1f1e:	3b01      	subs	r3, #1
    1f20:	70a3      	strb	r3, [r4, #2]
    1f22:	3b01      	subs	r3, #1
    1f24:	70e3      	strb	r3, [r4, #3]
    1f26:	4b16      	ldr	r3, [pc, #88]	; (1f80 <udd_sleep_mode+0x70>)
    1f28:	0005      	movs	r5, r0
    1f2a:	781b      	ldrb	r3, [r3, #0]
    1f2c:	9301      	str	r3, [sp, #4]
    1f2e:	4283      	cmp	r3, r0
    1f30:	d024      	beq.n	1f7c <udd_sleep_mode+0x6c>
    1f32:	2800      	cmp	r0, #0
    1f34:	d00e      	beq.n	1f54 <udd_sleep_mode+0x44>
    1f36:	5c26      	ldrb	r6, [r4, r0]
    1f38:	4f12      	ldr	r7, [pc, #72]	; (1f84 <udd_sleep_mode+0x74>)
    1f3a:	5dbb      	ldrb	r3, [r7, r6]
    1f3c:	2bff      	cmp	r3, #255	; 0xff
    1f3e:	d100      	bne.n	1f42 <udd_sleep_mode+0x32>
    1f40:	e7fe      	b.n	1f40 <udd_sleep_mode+0x30>
    1f42:	4b11      	ldr	r3, [pc, #68]	; (1f88 <udd_sleep_mode+0x78>)
    1f44:	4798      	blx	r3
    1f46:	5dbb      	ldrb	r3, [r7, r6]
    1f48:	3301      	adds	r3, #1
    1f4a:	55bb      	strb	r3, [r7, r6]
    1f4c:	2800      	cmp	r0, #0
    1f4e:	d001      	beq.n	1f54 <udd_sleep_mode+0x44>
    1f50:	4b0e      	ldr	r3, [pc, #56]	; (1f8c <udd_sleep_mode+0x7c>)
    1f52:	4798      	blx	r3
    1f54:	9b01      	ldr	r3, [sp, #4]
    1f56:	2b00      	cmp	r3, #0
    1f58:	d00e      	beq.n	1f78 <udd_sleep_mode+0x68>
    1f5a:	5ce4      	ldrb	r4, [r4, r3]
    1f5c:	4e09      	ldr	r6, [pc, #36]	; (1f84 <udd_sleep_mode+0x74>)
    1f5e:	5d33      	ldrb	r3, [r6, r4]
    1f60:	2b00      	cmp	r3, #0
    1f62:	d100      	bne.n	1f66 <udd_sleep_mode+0x56>
    1f64:	e7fe      	b.n	1f64 <udd_sleep_mode+0x54>
    1f66:	4b08      	ldr	r3, [pc, #32]	; (1f88 <udd_sleep_mode+0x78>)
    1f68:	4798      	blx	r3
    1f6a:	5d33      	ldrb	r3, [r6, r4]
    1f6c:	3b01      	subs	r3, #1
    1f6e:	5533      	strb	r3, [r6, r4]
    1f70:	2800      	cmp	r0, #0
    1f72:	d001      	beq.n	1f78 <udd_sleep_mode+0x68>
    1f74:	4b05      	ldr	r3, [pc, #20]	; (1f8c <udd_sleep_mode+0x7c>)
    1f76:	4798      	blx	r3
    1f78:	4b01      	ldr	r3, [pc, #4]	; (1f80 <udd_sleep_mode+0x70>)
    1f7a:	701d      	strb	r5, [r3, #0]
    1f7c:	b005      	add	sp, #20
    1f7e:	bdf0      	pop	{r4, r5, r6, r7, pc}
    1f80:	20000714 	.word	0x20000714
    1f84:	20003b64 	.word	0x20003b64
    1f88:	00001a41 	.word	0x00001a41
    1f8c:	00001e0d 	.word	0x00001e0d

00001f90 <_usb_device_lpm_suspend>:
    1f90:	b570      	push	{r4, r5, r6, lr}
    1f92:	4c08      	ldr	r4, [pc, #32]	; (1fb4 <_usb_device_lpm_suspend+0x24>)
    1f94:	4d08      	ldr	r5, [pc, #32]	; (1fb8 <_usb_device_lpm_suspend+0x28>)
    1f96:	2106      	movs	r1, #6
    1f98:	0020      	movs	r0, r4
    1f9a:	47a8      	blx	r5
    1f9c:	2104      	movs	r1, #4
    1f9e:	0020      	movs	r0, r4
    1fa0:	47a8      	blx	r5
    1fa2:	2102      	movs	r1, #2
    1fa4:	0020      	movs	r0, r4
    1fa6:	4b05      	ldr	r3, [pc, #20]	; (1fbc <_usb_device_lpm_suspend+0x2c>)
    1fa8:	4798      	blx	r3
    1faa:	2002      	movs	r0, #2
    1fac:	4b04      	ldr	r3, [pc, #16]	; (1fc0 <_usb_device_lpm_suspend+0x30>)
    1fae:	4798      	blx	r3
    1fb0:	bd70      	pop	{r4, r5, r6, pc}
    1fb2:	46c0      	nop			; (mov r8, r8)
    1fb4:	20003c78 	.word	0x20003c78
    1fb8:	000025e1 	.word	0x000025e1
    1fbc:	000025c1 	.word	0x000025c1
    1fc0:	00001f11 	.word	0x00001f11

00001fc4 <_usb_on_wakeup>:
    1fc4:	b570      	push	{r4, r5, r6, lr}
    1fc6:	4b0b      	ldr	r3, [pc, #44]	; (1ff4 <_usb_on_wakeup+0x30>)
    1fc8:	4798      	blx	r3
    1fca:	4c0b      	ldr	r4, [pc, #44]	; (1ff8 <_usb_on_wakeup+0x34>)
    1fcc:	4b0b      	ldr	r3, [pc, #44]	; (1ffc <_usb_on_wakeup+0x38>)
    1fce:	2102      	movs	r1, #2
    1fd0:	0020      	movs	r0, r4
    1fd2:	4798      	blx	r3
    1fd4:	4d0a      	ldr	r5, [pc, #40]	; (2000 <STACK_SIZE>)
    1fd6:	2104      	movs	r1, #4
    1fd8:	0020      	movs	r0, r4
    1fda:	47a8      	blx	r5
    1fdc:	4a09      	ldr	r2, [pc, #36]	; (2004 <STACK_SIZE+0x4>)
    1fde:	4b0a      	ldr	r3, [pc, #40]	; (2008 <STACK_SIZE+0x8>)
    1fe0:	2106      	movs	r1, #6
    1fe2:	0020      	movs	r0, r4
    1fe4:	4798      	blx	r3
    1fe6:	2106      	movs	r1, #6
    1fe8:	0020      	movs	r0, r4
    1fea:	47a8      	blx	r5
    1fec:	2003      	movs	r0, #3
    1fee:	4b07      	ldr	r3, [pc, #28]	; (200c <STACK_SIZE+0xc>)
    1ff0:	4798      	blx	r3
    1ff2:	bd70      	pop	{r4, r5, r6, pc}
    1ff4:	00001e21 	.word	0x00001e21
    1ff8:	20003c78 	.word	0x20003c78
    1ffc:	000025e1 	.word	0x000025e1
    2000:	000025c1 	.word	0x000025c1
    2004:	00001f91 	.word	0x00001f91
    2008:	0000259d 	.word	0x0000259d
    200c:	00001f11 	.word	0x00001f11

00002010 <_usb_on_suspend>:
    2010:	b510      	push	{r4, lr}
    2012:	4c06      	ldr	r4, [pc, #24]	; (202c <_usb_on_suspend+0x1c>)
    2014:	2104      	movs	r1, #4
    2016:	0020      	movs	r0, r4
    2018:	4b05      	ldr	r3, [pc, #20]	; (2030 <_usb_on_suspend+0x20>)
    201a:	4798      	blx	r3
    201c:	2102      	movs	r1, #2
    201e:	0020      	movs	r0, r4
    2020:	4b04      	ldr	r3, [pc, #16]	; (2034 <_usb_on_suspend+0x24>)
    2022:	4798      	blx	r3
    2024:	2001      	movs	r0, #1
    2026:	4b04      	ldr	r3, [pc, #16]	; (2038 <_usb_on_suspend+0x28>)
    2028:	4798      	blx	r3
    202a:	bd10      	pop	{r4, pc}
    202c:	20003c78 	.word	0x20003c78
    2030:	000025e1 	.word	0x000025e1
    2034:	000025c1 	.word	0x000025c1
    2038:	00001f11 	.word	0x00001f11

0000203c <udd_ep_abort>:
    203c:	b570      	push	{r4, r5, r6, lr}
    203e:	0004      	movs	r4, r0
    2040:	0001      	movs	r1, r0
    2042:	4b0a      	ldr	r3, [pc, #40]	; (206c <udd_ep_abort+0x30>)
    2044:	480a      	ldr	r0, [pc, #40]	; (2070 <udd_ep_abort+0x34>)
    2046:	4798      	blx	r3
    2048:	4b0a      	ldr	r3, [pc, #40]	; (2074 <udd_ep_abort+0x38>)
    204a:	0020      	movs	r0, r4
    204c:	4798      	blx	r3
    204e:	0003      	movs	r3, r0
    2050:	7c82      	ldrb	r2, [r0, #18]
    2052:	2001      	movs	r0, #1
    2054:	4202      	tst	r2, r0
    2056:	d007      	beq.n	2068 <udd_ep_abort+0x2c>
    2058:	681d      	ldr	r5, [r3, #0]
    205a:	4382      	bics	r2, r0
    205c:	749a      	strb	r2, [r3, #18]
    205e:	2d00      	cmp	r5, #0
    2060:	d002      	beq.n	2068 <udd_ep_abort+0x2c>
    2062:	0022      	movs	r2, r4
    2064:	68d9      	ldr	r1, [r3, #12]
    2066:	47a8      	blx	r5
    2068:	bd70      	pop	{r4, r5, r6, pc}
    206a:	46c0      	nop			; (mov r8, r8)
    206c:	00002905 	.word	0x00002905
    2070:	20003c78 	.word	0x20003c78
    2074:	00001a65 	.word	0x00001a65

00002078 <udd_is_high_speed>:
    2078:	2000      	movs	r0, #0
    207a:	4770      	bx	lr

0000207c <udd_get_frame_number>:
    207c:	4b02      	ldr	r3, [pc, #8]	; (2088 <udd_get_frame_number+0xc>)
    207e:	681b      	ldr	r3, [r3, #0]
    2080:	8a18      	ldrh	r0, [r3, #16]
    2082:	0480      	lsls	r0, r0, #18
    2084:	0d40      	lsrs	r0, r0, #21
    2086:	4770      	bx	lr
    2088:	20003c78 	.word	0x20003c78

0000208c <udd_get_micro_frame_number>:
    208c:	4b02      	ldr	r3, [pc, #8]	; (2098 <udd_get_micro_frame_number+0xc>)
    208e:	681b      	ldr	r3, [r3, #0]
    2090:	8a18      	ldrh	r0, [r3, #16]
    2092:	b280      	uxth	r0, r0
    2094:	4770      	bx	lr
    2096:	46c0      	nop			; (mov r8, r8)
    2098:	20003c78 	.word	0x20003c78

0000209c <udd_ep_free>:
    209c:	b5f7      	push	{r0, r1, r2, r4, r5, r6, r7, lr}
    209e:	0004      	movs	r4, r0
    20a0:	2700      	movs	r7, #0
    20a2:	ad01      	add	r5, sp, #4
    20a4:	0028      	movs	r0, r5
    20a6:	4b0c      	ldr	r3, [pc, #48]	; (20d8 <udd_ep_free+0x3c>)
    20a8:	4798      	blx	r3
    20aa:	0020      	movs	r0, r4
    20ac:	4b0b      	ldr	r3, [pc, #44]	; (20dc <udd_ep_free+0x40>)
    20ae:	4798      	blx	r3
    20b0:	4e0b      	ldr	r6, [pc, #44]	; (20e0 <udd_ep_free+0x44>)
    20b2:	0029      	movs	r1, r5
    20b4:	0030      	movs	r0, r6
    20b6:	4b0b      	ldr	r3, [pc, #44]	; (20e4 <udd_ep_free+0x48>)
    20b8:	70ef      	strb	r7, [r5, #3]
    20ba:	702c      	strb	r4, [r5, #0]
    20bc:	4798      	blx	r3
    20be:	210f      	movs	r1, #15
    20c0:	003a      	movs	r2, r7
    20c2:	4021      	ands	r1, r4
    20c4:	0030      	movs	r0, r6
    20c6:	4b08      	ldr	r3, [pc, #32]	; (20e8 <udd_ep_free+0x4c>)
    20c8:	4798      	blx	r3
    20ca:	003a      	movs	r2, r7
    20cc:	0030      	movs	r0, r6
    20ce:	0021      	movs	r1, r4
    20d0:	4b06      	ldr	r3, [pc, #24]	; (20ec <udd_ep_free+0x50>)
    20d2:	4798      	blx	r3
    20d4:	bdf7      	pop	{r0, r1, r2, r4, r5, r6, r7, pc}
    20d6:	46c0      	nop			; (mov r8, r8)
    20d8:	00002765 	.word	0x00002765
    20dc:	0000203d 	.word	0x0000203d
    20e0:	20003c78 	.word	0x20003c78
    20e4:	00002775 	.word	0x00002775
    20e8:	00002625 	.word	0x00002625
    20ec:	000026d9 	.word	0x000026d9

000020f0 <udd_ep_alloc>:
    20f0:	b5f7      	push	{r0, r1, r2, r4, r5, r6, r7, lr}
    20f2:	0006      	movs	r6, r0
    20f4:	ac01      	add	r4, sp, #4
    20f6:	4b29      	ldr	r3, [pc, #164]	; (219c <udd_ep_alloc+0xac>)
    20f8:	0020      	movs	r0, r4
    20fa:	000f      	movs	r7, r1
    20fc:	0015      	movs	r5, r2
    20fe:	4798      	blx	r3
    2100:	7026      	strb	r6, [r4, #0]
    2102:	2300      	movs	r3, #0
    2104:	2d08      	cmp	r5, #8
    2106:	d910      	bls.n	212a <udd_ep_alloc+0x3a>
    2108:	2301      	movs	r3, #1
    210a:	2d10      	cmp	r5, #16
    210c:	d90d      	bls.n	212a <udd_ep_alloc+0x3a>
    210e:	2302      	movs	r3, #2
    2110:	2d20      	cmp	r5, #32
    2112:	d90a      	bls.n	212a <udd_ep_alloc+0x3a>
    2114:	2303      	movs	r3, #3
    2116:	2d40      	cmp	r5, #64	; 0x40
    2118:	d907      	bls.n	212a <udd_ep_alloc+0x3a>
    211a:	2304      	movs	r3, #4
    211c:	2d80      	cmp	r5, #128	; 0x80
    211e:	d904      	bls.n	212a <udd_ep_alloc+0x3a>
    2120:	2380      	movs	r3, #128	; 0x80
    2122:	005b      	lsls	r3, r3, #1
    2124:	429d      	cmp	r5, r3
    2126:	d824      	bhi.n	2172 <udd_ep_alloc+0x82>
    2128:	3bfb      	subs	r3, #251	; 0xfb
    212a:	7063      	strb	r3, [r4, #1]
    212c:	0030      	movs	r0, r6
    212e:	4b1c      	ldr	r3, [pc, #112]	; (21a0 <udd_ep_alloc+0xb0>)
    2130:	4798      	blx	r3
    2132:	2303      	movs	r3, #3
    2134:	8205      	strh	r5, [r0, #16]
    2136:	401f      	ands	r7, r3
    2138:	2f01      	cmp	r7, #1
    213a:	d128      	bne.n	218e <udd_ep_alloc+0x9e>
    213c:	3b01      	subs	r3, #1
    213e:	4d19      	ldr	r5, [pc, #100]	; (21a4 <udd_ep_alloc+0xb4>)
    2140:	70e3      	strb	r3, [r4, #3]
    2142:	0021      	movs	r1, r4
    2144:	0028      	movs	r0, r5
    2146:	4b18      	ldr	r3, [pc, #96]	; (21a8 <udd_ep_alloc+0xb8>)
    2148:	4798      	blx	r3
    214a:	1e04      	subs	r4, r0, #0
    214c:	d11b      	bne.n	2186 <udd_ep_alloc+0x96>
    214e:	210f      	movs	r1, #15
    2150:	4b16      	ldr	r3, [pc, #88]	; (21ac <udd_ep_alloc+0xbc>)
    2152:	0002      	movs	r2, r0
    2154:	4031      	ands	r1, r6
    2156:	0028      	movs	r0, r5
    2158:	4f15      	ldr	r7, [pc, #84]	; (21b0 <udd_ep_alloc+0xc0>)
    215a:	47b8      	blx	r7
    215c:	0022      	movs	r2, r4
    215e:	0031      	movs	r1, r6
    2160:	4c14      	ldr	r4, [pc, #80]	; (21b4 <udd_ep_alloc+0xc4>)
    2162:	0028      	movs	r0, r5
    2164:	47a0      	blx	r4
    2166:	2201      	movs	r2, #1
    2168:	0031      	movs	r1, r6
    216a:	0028      	movs	r0, r5
    216c:	47a0      	blx	r4
    216e:	2001      	movs	r0, #1
    2170:	e00a      	b.n	2188 <udd_ep_alloc+0x98>
    2172:	2380      	movs	r3, #128	; 0x80
    2174:	009b      	lsls	r3, r3, #2
    2176:	429d      	cmp	r5, r3
    2178:	d802      	bhi.n	2180 <udd_ep_alloc+0x90>
    217a:	3bfb      	subs	r3, #251	; 0xfb
    217c:	3bff      	subs	r3, #255	; 0xff
    217e:	e7d4      	b.n	212a <udd_ep_alloc+0x3a>
    2180:	4b0d      	ldr	r3, [pc, #52]	; (21b8 <udd_ep_alloc+0xc8>)
    2182:	429d      	cmp	r5, r3
    2184:	d901      	bls.n	218a <udd_ep_alloc+0x9a>
    2186:	2000      	movs	r0, #0
    2188:	bdfe      	pop	{r1, r2, r3, r4, r5, r6, r7, pc}
    218a:	2307      	movs	r3, #7
    218c:	e7cd      	b.n	212a <udd_ep_alloc+0x3a>
    218e:	2f02      	cmp	r7, #2
    2190:	d0d5      	beq.n	213e <udd_ep_alloc+0x4e>
    2192:	2f03      	cmp	r7, #3
    2194:	d1f7      	bne.n	2186 <udd_ep_alloc+0x96>
    2196:	2304      	movs	r3, #4
    2198:	e7d1      	b.n	213e <udd_ep_alloc+0x4e>
    219a:	46c0      	nop			; (mov r8, r8)
    219c:	00002765 	.word	0x00002765
    21a0:	00001a65 	.word	0x00001a65
    21a4:	20003c78 	.word	0x20003c78
    21a8:	00002775 	.word	0x00002775
    21ac:	00001a89 	.word	0x00001a89
    21b0:	000025fd 	.word	0x000025fd
    21b4:	0000264d 	.word	0x0000264d
    21b8:	000003ff 	.word	0x000003ff

000021bc <udd_ep_is_halted>:
    21bc:	b510      	push	{r4, lr}
    21be:	0001      	movs	r1, r0
    21c0:	4b01      	ldr	r3, [pc, #4]	; (21c8 <udd_ep_is_halted+0xc>)
    21c2:	4802      	ldr	r0, [pc, #8]	; (21cc <udd_ep_is_halted+0x10>)
    21c4:	4798      	blx	r3
    21c6:	bd10      	pop	{r4, pc}
    21c8:	00002931 	.word	0x00002931
    21cc:	20003c78 	.word	0x20003c78

000021d0 <udd_ep_set_halt>:
    21d0:	230f      	movs	r3, #15
    21d2:	b510      	push	{r4, lr}
    21d4:	4003      	ands	r3, r0
    21d6:	0004      	movs	r4, r0
    21d8:	2000      	movs	r0, #0
    21da:	2b03      	cmp	r3, #3
    21dc:	d807      	bhi.n	21ee <udd_ep_set_halt+0x1e>
    21de:	0021      	movs	r1, r4
    21e0:	4803      	ldr	r0, [pc, #12]	; (21f0 <udd_ep_set_halt+0x20>)
    21e2:	4b04      	ldr	r3, [pc, #16]	; (21f4 <udd_ep_set_halt+0x24>)
    21e4:	4798      	blx	r3
    21e6:	0020      	movs	r0, r4
    21e8:	4b03      	ldr	r3, [pc, #12]	; (21f8 <udd_ep_set_halt+0x28>)
    21ea:	4798      	blx	r3
    21ec:	2001      	movs	r0, #1
    21ee:	bd10      	pop	{r4, pc}
    21f0:	20003c78 	.word	0x20003c78
    21f4:	0000294f 	.word	0x0000294f
    21f8:	0000203d 	.word	0x0000203d

000021fc <_usb_ep0_on_tansfer_ok>:
    21fc:	b5f8      	push	{r3, r4, r5, r6, r7, lr}
    21fe:	4f29      	ldr	r7, [pc, #164]	; (22a4 <_usb_ep0_on_tansfer_ok+0xa8>)
    2200:	783b      	ldrb	r3, [r7, #0]
    2202:	2b01      	cmp	r3, #1
    2204:	d141      	bne.n	228a <_usb_ep0_on_tansfer_ok+0x8e>
    2206:	4a28      	ldr	r2, [pc, #160]	; (22a8 <_usb_ep0_on_tansfer_ok+0xac>)
    2208:	4d28      	ldr	r5, [pc, #160]	; (22ac <_usb_ep0_on_tansfer_ok+0xb0>)
    220a:	880e      	ldrh	r6, [r1, #0]
    220c:	8814      	ldrh	r4, [r2, #0]
    220e:	89ab      	ldrh	r3, [r5, #12]
    2210:	19a2      	adds	r2, r4, r6
    2212:	4293      	cmp	r3, r2
    2214:	da01      	bge.n	221a <_usb_ep0_on_tansfer_ok+0x1e>
    2216:	1b1e      	subs	r6, r3, r4
    2218:	b2b6      	uxth	r6, r6
    221a:	68ab      	ldr	r3, [r5, #8]
    221c:	0032      	movs	r2, r6
    221e:	1918      	adds	r0, r3, r4
    2220:	4923      	ldr	r1, [pc, #140]	; (22b0 <_usb_ep0_on_tansfer_ok+0xb4>)
    2222:	4b24      	ldr	r3, [pc, #144]	; (22b4 <_usb_ep0_on_tansfer_ok+0xb8>)
    2224:	19a4      	adds	r4, r4, r6
    2226:	4798      	blx	r3
    2228:	b2a3      	uxth	r3, r4
    222a:	4c1f      	ldr	r4, [pc, #124]	; (22a8 <_usb_ep0_on_tansfer_ok+0xac>)
    222c:	8023      	strh	r3, [r4, #0]
    222e:	2e40      	cmp	r6, #64	; 0x40
    2230:	d105      	bne.n	223e <_usb_ep0_on_tansfer_ok+0x42>
    2232:	4e21      	ldr	r6, [pc, #132]	; (22b8 <_usb_ep0_on_tansfer_ok+0xbc>)
    2234:	88e9      	ldrh	r1, [r5, #6]
    2236:	8832      	ldrh	r2, [r6, #0]
    2238:	18d2      	adds	r2, r2, r3
    223a:	4291      	cmp	r1, r2
    223c:	dc0f      	bgt.n	225e <_usb_ep0_on_tansfer_ok+0x62>
    223e:	81ab      	strh	r3, [r5, #12]
    2240:	696b      	ldr	r3, [r5, #20]
    2242:	2b00      	cmp	r3, #0
    2244:	d008      	beq.n	2258 <_usb_ep0_on_tansfer_ok+0x5c>
    2246:	4798      	blx	r3
    2248:	2800      	cmp	r0, #0
    224a:	d105      	bne.n	2258 <_usb_ep0_on_tansfer_ok+0x5c>
    224c:	2305      	movs	r3, #5
    224e:	2000      	movs	r0, #0
    2250:	703b      	strb	r3, [r7, #0]
    2252:	4b1a      	ldr	r3, [pc, #104]	; (22bc <_usb_ep0_on_tansfer_ok+0xc0>)
    2254:	4798      	blx	r3
    2256:	bdf8      	pop	{r3, r4, r5, r6, r7, pc}
    2258:	4b19      	ldr	r3, [pc, #100]	; (22c0 <_usb_ep0_on_tansfer_ok+0xc4>)
    225a:	4798      	blx	r3
    225c:	e7fb      	b.n	2256 <_usb_ep0_on_tansfer_ok+0x5a>
    225e:	89aa      	ldrh	r2, [r5, #12]
    2260:	429a      	cmp	r2, r3
    2262:	d10b      	bne.n	227c <_usb_ep0_on_tansfer_ok+0x80>
    2264:	696b      	ldr	r3, [r5, #20]
    2266:	2b00      	cmp	r3, #0
    2268:	d0f0      	beq.n	224c <_usb_ep0_on_tansfer_ok+0x50>
    226a:	4798      	blx	r3
    226c:	2800      	cmp	r0, #0
    226e:	d0ed      	beq.n	224c <_usb_ep0_on_tansfer_ok+0x50>
    2270:	8833      	ldrh	r3, [r6, #0]
    2272:	8822      	ldrh	r2, [r4, #0]
    2274:	189b      	adds	r3, r3, r2
    2276:	8033      	strh	r3, [r6, #0]
    2278:	2300      	movs	r3, #0
    227a:	8023      	strh	r3, [r4, #0]
    227c:	2340      	movs	r3, #64	; 0x40
    227e:	4a0c      	ldr	r2, [pc, #48]	; (22b0 <_usb_ep0_on_tansfer_ok+0xb4>)
    2280:	2100      	movs	r1, #0
    2282:	4c10      	ldr	r4, [pc, #64]	; (22c4 <_usb_ep0_on_tansfer_ok+0xc8>)
    2284:	4810      	ldr	r0, [pc, #64]	; (22c8 <_usb_ep0_on_tansfer_ok+0xcc>)
    2286:	47a0      	blx	r4
    2288:	e7e5      	b.n	2256 <_usb_ep0_on_tansfer_ok+0x5a>
    228a:	2b02      	cmp	r3, #2
    228c:	d101      	bne.n	2292 <_usb_ep0_on_tansfer_ok+0x96>
    228e:	4b0f      	ldr	r3, [pc, #60]	; (22cc <_usb_ep0_on_tansfer_ok+0xd0>)
    2290:	e7e3      	b.n	225a <_usb_ep0_on_tansfer_ok+0x5e>
    2292:	4b06      	ldr	r3, [pc, #24]	; (22ac <_usb_ep0_on_tansfer_ok+0xb0>)
    2294:	691b      	ldr	r3, [r3, #16]
    2296:	2b00      	cmp	r3, #0
    2298:	d000      	beq.n	229c <_usb_ep0_on_tansfer_ok+0xa0>
    229a:	4798      	blx	r3
    229c:	2300      	movs	r3, #0
    229e:	703b      	strb	r3, [r7, #0]
    22a0:	e7d9      	b.n	2256 <_usb_ep0_on_tansfer_ok+0x5a>
    22a2:	46c0      	nop			; (mov r8, r8)
    22a4:	2000069a 	.word	0x2000069a
    22a8:	20000696 	.word	0x20000696
    22ac:	20003de0 	.word	0x20003de0
    22b0:	20003df8 	.word	0x20003df8
    22b4:	0000ae15 	.word	0x0000ae15
    22b8:	20000698 	.word	0x20000698
    22bc:	000021d1 	.word	0x000021d1
    22c0:	00001ce1 	.word	0x00001ce1
    22c4:	00002a15 	.word	0x00002a15
    22c8:	20003c78 	.word	0x20003c78
    22cc:	00001d65 	.word	0x00001d65

000022d0 <udd_ep_clear_halt>:
    22d0:	230f      	movs	r3, #15
    22d2:	b570      	push	{r4, r5, r6, lr}
    22d4:	4003      	ands	r3, r0
    22d6:	0006      	movs	r6, r0
    22d8:	2400      	movs	r4, #0
    22da:	2b03      	cmp	r3, #3
    22dc:	d80e      	bhi.n	22fc <udd_ep_clear_halt+0x2c>
    22de:	4b08      	ldr	r3, [pc, #32]	; (2300 <udd_ep_clear_halt+0x30>)
    22e0:	4798      	blx	r3
    22e2:	0005      	movs	r5, r0
    22e4:	4b07      	ldr	r3, [pc, #28]	; (2304 <udd_ep_clear_halt+0x34>)
    22e6:	0031      	movs	r1, r6
    22e8:	4807      	ldr	r0, [pc, #28]	; (2308 <udd_ep_clear_halt+0x38>)
    22ea:	4798      	blx	r3
    22ec:	7cab      	ldrb	r3, [r5, #18]
    22ee:	3401      	adds	r4, #1
    22f0:	4223      	tst	r3, r4
    22f2:	d003      	beq.n	22fc <udd_ep_clear_halt+0x2c>
    22f4:	43a3      	bics	r3, r4
    22f6:	74ab      	strb	r3, [r5, #18]
    22f8:	682b      	ldr	r3, [r5, #0]
    22fa:	4798      	blx	r3
    22fc:	0020      	movs	r0, r4
    22fe:	bd70      	pop	{r4, r5, r6, pc}
    2300:	00001a65 	.word	0x00001a65
    2304:	00002969 	.word	0x00002969
    2308:	20003c78 	.word	0x20003c78

0000230c <udd_ep_run>:
    230c:	b5f0      	push	{r4, r5, r6, r7, lr}
    230e:	b085      	sub	sp, #20
    2310:	9203      	str	r2, [sp, #12]
    2312:	001e      	movs	r6, r3
    2314:	0002      	movs	r2, r0
    2316:	230f      	movs	r3, #15
    2318:	401a      	ands	r2, r3
    231a:	9002      	str	r0, [sp, #8]
    231c:	000d      	movs	r5, r1
    231e:	9201      	str	r2, [sp, #4]
    2320:	2a03      	cmp	r2, #3
    2322:	d903      	bls.n	232c <udd_ep_run+0x20>
    2324:	2700      	movs	r7, #0
    2326:	0038      	movs	r0, r7
    2328:	b005      	add	sp, #20
    232a:	bdf0      	pop	{r4, r5, r6, r7, pc}
    232c:	9802      	ldr	r0, [sp, #8]
    232e:	4b4a      	ldr	r3, [pc, #296]	; (2458 <udd_ep_run+0x14c>)
    2330:	4798      	blx	r3
    2332:	1e07      	subs	r7, r0, #0
    2334:	d1f6      	bne.n	2324 <udd_ep_run+0x18>
    2336:	4b49      	ldr	r3, [pc, #292]	; (245c <udd_ep_run+0x150>)
    2338:	9802      	ldr	r0, [sp, #8]
    233a:	4798      	blx	r3
    233c:	0004      	movs	r4, r0
    233e:	4b48      	ldr	r3, [pc, #288]	; (2460 <udd_ep_run+0x154>)
    2340:	4798      	blx	r3
    2342:	2301      	movs	r3, #1
    2344:	7ca2      	ldrb	r2, [r4, #18]
    2346:	421a      	tst	r2, r3
    2348:	d004      	beq.n	2354 <udd_ep_run+0x48>
    234a:	2800      	cmp	r0, #0
    234c:	d0ea      	beq.n	2324 <udd_ep_run+0x18>
    234e:	4b45      	ldr	r3, [pc, #276]	; (2464 <udd_ep_run+0x158>)
    2350:	4798      	blx	r3
    2352:	e7e8      	b.n	2326 <udd_ep_run+0x1a>
    2354:	4313      	orrs	r3, r2
    2356:	74a3      	strb	r3, [r4, #18]
    2358:	2800      	cmp	r0, #0
    235a:	d001      	beq.n	2360 <udd_ep_run+0x54>
    235c:	4b41      	ldr	r3, [pc, #260]	; (2464 <udd_ep_run+0x158>)
    235e:	4798      	blx	r3
    2360:	9b03      	ldr	r3, [sp, #12]
    2362:	2202      	movs	r2, #2
    2364:	6063      	str	r3, [r4, #4]
    2366:	2300      	movs	r3, #0
    2368:	60e3      	str	r3, [r4, #12]
    236a:	9b0a      	ldr	r3, [sp, #40]	; 0x28
    236c:	60a6      	str	r6, [r4, #8]
    236e:	6023      	str	r3, [r4, #0]
    2370:	2301      	movs	r3, #1
    2372:	401d      	ands	r5, r3
    2374:	0069      	lsls	r1, r5, #1
    2376:	7ca5      	ldrb	r5, [r4, #18]
    2378:	4395      	bics	r5, r2
    237a:	430d      	orrs	r5, r1
    237c:	2104      	movs	r1, #4
    237e:	438d      	bics	r5, r1
    2380:	4669      	mov	r1, sp
    2382:	7a09      	ldrb	r1, [r1, #8]
    2384:	74a5      	strb	r5, [r4, #18]
    2386:	b249      	sxtb	r1, r1
    2388:	2900      	cmp	r1, #0
    238a:	da3b      	bge.n	2404 <udd_ep_run+0xf8>
    238c:	b2ed      	uxtb	r5, r5
    238e:	2e00      	cmp	r6, #0
    2390:	d026      	beq.n	23e0 <udd_ep_run+0xd4>
    2392:	4b35      	ldr	r3, [pc, #212]	; (2468 <udd_ep_run+0x15c>)
    2394:	b2b6      	uxth	r6, r6
    2396:	429e      	cmp	r6, r3
    2398:	d906      	bls.n	23a8 <udd_ep_run+0x9c>
    239a:	0018      	movs	r0, r3
    239c:	8a21      	ldrh	r1, [r4, #16]
    239e:	4b33      	ldr	r3, [pc, #204]	; (246c <udd_ep_run+0x160>)
    23a0:	4798      	blx	r3
    23a2:	4b31      	ldr	r3, [pc, #196]	; (2468 <udd_ep_run+0x15c>)
    23a4:	1a5e      	subs	r6, r3, r1
    23a6:	b2b6      	uxth	r6, r6
    23a8:	07ab      	lsls	r3, r5, #30
    23aa:	d507      	bpl.n	23bc <udd_ep_run+0xb0>
    23ac:	8a21      	ldrh	r1, [r4, #16]
    23ae:	0030      	movs	r0, r6
    23b0:	4b2f      	ldr	r3, [pc, #188]	; (2470 <udd_ep_run+0x164>)
    23b2:	4798      	blx	r3
    23b4:	b289      	uxth	r1, r1
    23b6:	4248      	negs	r0, r1
    23b8:	4148      	adcs	r0, r1
    23ba:	b2c7      	uxtb	r7, r0
    23bc:	2001      	movs	r0, #1
    23be:	2302      	movs	r3, #2
    23c0:	4038      	ands	r0, r7
    23c2:	0041      	lsls	r1, r0, #1
    23c4:	7ca0      	ldrb	r0, [r4, #18]
    23c6:	4398      	bics	r0, r3
    23c8:	4308      	orrs	r0, r1
    23ca:	74a0      	strb	r0, [r4, #18]
    23cc:	0033      	movs	r3, r6
    23ce:	9a03      	ldr	r2, [sp, #12]
    23d0:	9901      	ldr	r1, [sp, #4]
    23d2:	4828      	ldr	r0, [pc, #160]	; (2474 <udd_ep_run+0x168>)
    23d4:	4c28      	ldr	r4, [pc, #160]	; (2478 <udd_ep_run+0x16c>)
    23d6:	47a0      	blx	r4
    23d8:	4243      	negs	r3, r0
    23da:	4158      	adcs	r0, r3
    23dc:	b2c7      	uxtb	r7, r0
    23de:	e7a2      	b.n	2326 <udd_ep_run+0x1a>
    23e0:	4215      	tst	r5, r2
    23e2:	d002      	beq.n	23ea <udd_ep_run+0xde>
    23e4:	4395      	bics	r5, r2
    23e6:	74a5      	strb	r5, [r4, #18]
    23e8:	e7f0      	b.n	23cc <udd_ep_run+0xc0>
    23ea:	439d      	bics	r5, r3
    23ec:	74a5      	strb	r5, [r4, #18]
    23ee:	9b0a      	ldr	r3, [sp, #40]	; 0x28
    23f0:	2b00      	cmp	r3, #0
    23f2:	d101      	bne.n	23f8 <udd_ep_run+0xec>
    23f4:	2701      	movs	r7, #1
    23f6:	e796      	b.n	2326 <udd_ep_run+0x1a>
    23f8:	2100      	movs	r1, #0
    23fa:	9a02      	ldr	r2, [sp, #8]
    23fc:	0008      	movs	r0, r1
    23fe:	9b0a      	ldr	r3, [sp, #40]	; 0x28
    2400:	4798      	blx	r3
    2402:	e7f7      	b.n	23f4 <udd_ep_run+0xe8>
    2404:	2e00      	cmp	r6, #0
    2406:	d022      	beq.n	244e <udd_ep_run+0x142>
    2408:	8a27      	ldrh	r7, [r4, #16]
    240a:	4d17      	ldr	r5, [pc, #92]	; (2468 <udd_ep_run+0x15c>)
    240c:	b2b6      	uxth	r6, r6
    240e:	0039      	movs	r1, r7
    2410:	42ae      	cmp	r6, r5
    2412:	d916      	bls.n	2442 <udd_ep_run+0x136>
    2414:	4b15      	ldr	r3, [pc, #84]	; (246c <udd_ep_run+0x160>)
    2416:	0028      	movs	r0, r5
    2418:	4798      	blx	r3
    241a:	1a6b      	subs	r3, r5, r1
    241c:	b29b      	uxth	r3, r3
    241e:	4815      	ldr	r0, [pc, #84]	; (2474 <udd_ep_run+0x168>)
    2420:	4d16      	ldr	r5, [pc, #88]	; (247c <udd_ep_run+0x170>)
    2422:	9a03      	ldr	r2, [sp, #12]
    2424:	42bb      	cmp	r3, r7
    2426:	d209      	bcs.n	243c <udd_ep_run+0x130>
    2428:	2304      	movs	r3, #4
    242a:	7ca2      	ldrb	r2, [r4, #18]
    242c:	4313      	orrs	r3, r2
    242e:	74a3      	strb	r3, [r4, #18]
    2430:	9b01      	ldr	r3, [sp, #4]
    2432:	1e5a      	subs	r2, r3, #1
    2434:	4b12      	ldr	r3, [pc, #72]	; (2480 <udd_ep_run+0x174>)
    2436:	0192      	lsls	r2, r2, #6
    2438:	18d2      	adds	r2, r2, r3
    243a:	003b      	movs	r3, r7
    243c:	9901      	ldr	r1, [sp, #4]
    243e:	47a8      	blx	r5
    2440:	e7ca      	b.n	23d8 <udd_ep_run+0xcc>
    2442:	0030      	movs	r0, r6
    2444:	4b0a      	ldr	r3, [pc, #40]	; (2470 <udd_ep_run+0x164>)
    2446:	4798      	blx	r3
    2448:	1a76      	subs	r6, r6, r1
    244a:	b2b3      	uxth	r3, r6
    244c:	e7e7      	b.n	241e <udd_ep_run+0x112>
    244e:	7ca2      	ldrb	r2, [r4, #18]
    2450:	439a      	bics	r2, r3
    2452:	74a2      	strb	r2, [r4, #18]
    2454:	e7cb      	b.n	23ee <udd_ep_run+0xe2>
    2456:	46c0      	nop			; (mov r8, r8)
    2458:	000021bd 	.word	0x000021bd
    245c:	00001a65 	.word	0x00001a65
    2460:	00001a41 	.word	0x00001a41
    2464:	00001e0d 	.word	0x00001e0d
    2468:	00001fff 	.word	0x00001fff
    246c:	00007f99 	.word	0x00007f99
    2470:	00007dc5 	.word	0x00007dc5
    2474:	20003c78 	.word	0x20003c78
    2478:	000029c9 	.word	0x000029c9
    247c:	00002a15 	.word	0x00002a15
    2480:	20003bb8 	.word	0x20003bb8

00002484 <udd_set_address>:
    2484:	2280      	movs	r2, #128	; 0x80
    2486:	4b02      	ldr	r3, [pc, #8]	; (2490 <udd_set_address+0xc>)
    2488:	4310      	orrs	r0, r2
    248a:	681b      	ldr	r3, [r3, #0]
    248c:	7298      	strb	r0, [r3, #10]
    248e:	4770      	bx	lr
    2490:	20003c78 	.word	0x20003c78

00002494 <udd_getaddress>:
    2494:	4b02      	ldr	r3, [pc, #8]	; (24a0 <udd_getaddress+0xc>)
    2496:	681b      	ldr	r3, [r3, #0]
    2498:	7a98      	ldrb	r0, [r3, #10]
    249a:	0640      	lsls	r0, r0, #25
    249c:	0e40      	lsrs	r0, r0, #25
    249e:	4770      	bx	lr
    24a0:	20003c78 	.word	0x20003c78

000024a4 <udd_set_setup_payload>:
    24a4:	4b01      	ldr	r3, [pc, #4]	; (24ac <udd_set_setup_payload+0x8>)
    24a6:	6098      	str	r0, [r3, #8]
    24a8:	8199      	strh	r1, [r3, #12]
    24aa:	4770      	bx	lr
    24ac:	20003de0 	.word	0x20003de0

000024b0 <udd_attach>:
    24b0:	b5f8      	push	{r3, r4, r5, r6, r7, lr}
    24b2:	2701      	movs	r7, #1
    24b4:	2003      	movs	r0, #3
    24b6:	4b16      	ldr	r3, [pc, #88]	; (2510 <udd_attach+0x60>)
    24b8:	4798      	blx	r3
    24ba:	4c16      	ldr	r4, [pc, #88]	; (2514 <udd_attach+0x64>)
    24bc:	4e16      	ldr	r6, [pc, #88]	; (2518 <udd_attach+0x68>)
    24be:	6822      	ldr	r2, [r4, #0]
    24c0:	2104      	movs	r1, #4
    24c2:	8913      	ldrh	r3, [r2, #8]
    24c4:	0020      	movs	r0, r4
    24c6:	43bb      	bics	r3, r7
    24c8:	8113      	strh	r3, [r2, #8]
    24ca:	4a14      	ldr	r2, [pc, #80]	; (251c <udd_attach+0x6c>)
    24cc:	47b0      	blx	r6
    24ce:	4a14      	ldr	r2, [pc, #80]	; (2520 <udd_attach+0x70>)
    24d0:	2100      	movs	r1, #0
    24d2:	0020      	movs	r0, r4
    24d4:	47b0      	blx	r6
    24d6:	0039      	movs	r1, r7
    24d8:	4a12      	ldr	r2, [pc, #72]	; (2524 <udd_attach+0x74>)
    24da:	0020      	movs	r0, r4
    24dc:	47b0      	blx	r6
    24de:	4a12      	ldr	r2, [pc, #72]	; (2528 <udd_attach+0x78>)
    24e0:	2102      	movs	r1, #2
    24e2:	0020      	movs	r0, r4
    24e4:	47b0      	blx	r6
    24e6:	4d11      	ldr	r5, [pc, #68]	; (252c <udd_attach+0x7c>)
    24e8:	2104      	movs	r1, #4
    24ea:	0020      	movs	r0, r4
    24ec:	47a8      	blx	r5
    24ee:	2100      	movs	r1, #0
    24f0:	0020      	movs	r0, r4
    24f2:	47a8      	blx	r5
    24f4:	0039      	movs	r1, r7
    24f6:	0020      	movs	r0, r4
    24f8:	47a8      	blx	r5
    24fa:	2102      	movs	r1, #2
    24fc:	0020      	movs	r0, r4
    24fe:	47a8      	blx	r5
    2500:	4a0b      	ldr	r2, [pc, #44]	; (2530 <udd_attach+0x80>)
    2502:	2106      	movs	r1, #6
    2504:	0020      	movs	r0, r4
    2506:	47b0      	blx	r6
    2508:	2106      	movs	r1, #6
    250a:	0020      	movs	r0, r4
    250c:	47a8      	blx	r5
    250e:	bdf8      	pop	{r3, r4, r5, r6, r7, pc}
    2510:	00001f11 	.word	0x00001f11
    2514:	20003c78 	.word	0x20003c78
    2518:	0000259d 	.word	0x0000259d
    251c:	00002011 	.word	0x00002011
    2520:	00001e01 	.word	0x00001e01
    2524:	00001c35 	.word	0x00001c35
    2528:	00001fc5 	.word	0x00001fc5
    252c:	000025c1 	.word	0x000025c1
    2530:	00001f91 	.word	0x00001f91

00002534 <udd_enable>:
    2534:	b573      	push	{r0, r1, r4, r5, r6, lr}
    2536:	4b0f      	ldr	r3, [pc, #60]	; (2574 <udd_enable+0x40>)
    2538:	4798      	blx	r3
    253a:	ac01      	add	r4, sp, #4
    253c:	0006      	movs	r6, r0
    253e:	4b0e      	ldr	r3, [pc, #56]	; (2578 <udd_enable+0x44>)
    2540:	0020      	movs	r0, r4
    2542:	4798      	blx	r3
    2544:	2300      	movs	r3, #0
    2546:	4d0d      	ldr	r5, [pc, #52]	; (257c <udd_enable+0x48>)
    2548:	0022      	movs	r2, r4
    254a:	490d      	ldr	r1, [pc, #52]	; (2580 <udd_enable+0x4c>)
    254c:	70a3      	strb	r3, [r4, #2]
    254e:	0028      	movs	r0, r5
    2550:	4b0c      	ldr	r3, [pc, #48]	; (2584 <udd_enable+0x50>)
    2552:	4798      	blx	r3
    2554:	0028      	movs	r0, r5
    2556:	4b0c      	ldr	r3, [pc, #48]	; (2588 <udd_enable+0x54>)
    2558:	4798      	blx	r3
    255a:	4b0c      	ldr	r3, [pc, #48]	; (258c <udd_enable+0x58>)
    255c:	4798      	blx	r3
    255e:	4b0c      	ldr	r3, [pc, #48]	; (2590 <udd_enable+0x5c>)
    2560:	2001      	movs	r0, #1
    2562:	4798      	blx	r3
    2564:	4b0b      	ldr	r3, [pc, #44]	; (2594 <udd_enable+0x60>)
    2566:	4798      	blx	r3
    2568:	2e00      	cmp	r6, #0
    256a:	d001      	beq.n	2570 <udd_enable+0x3c>
    256c:	4b0a      	ldr	r3, [pc, #40]	; (2598 <udd_enable+0x64>)
    256e:	4798      	blx	r3
    2570:	bd73      	pop	{r0, r1, r4, r5, r6, pc}
    2572:	46c0      	nop			; (mov r8, r8)
    2574:	00001a41 	.word	0x00001a41
    2578:	00003051 	.word	0x00003051
    257c:	20003c78 	.word	0x20003c78
    2580:	41005000 	.word	0x41005000
    2584:	00003061 	.word	0x00003061
    2588:	00002a8d 	.word	0x00002a8d
    258c:	00001e21 	.word	0x00001e21
    2590:	00001f11 	.word	0x00001f11
    2594:	000024b1 	.word	0x000024b1
    2598:	00001e0d 	.word	0x00001e0d

0000259c <usb_device_register_callback>:
    259c:	000b      	movs	r3, r1
    259e:	332e      	adds	r3, #46	; 0x2e
    25a0:	009b      	lsls	r3, r3, #2
    25a2:	b510      	push	{r4, lr}
    25a4:	501a      	str	r2, [r3, r0]
    25a6:	22aa      	movs	r2, #170	; 0xaa
    25a8:	4c04      	ldr	r4, [pc, #16]	; (25bc <usb_device_register_callback+0x20>)
    25aa:	0052      	lsls	r2, r2, #1
    25ac:	0049      	lsls	r1, r1, #1
    25ae:	5a83      	ldrh	r3, [r0, r2]
    25b0:	5b09      	ldrh	r1, [r1, r4]
    25b2:	430b      	orrs	r3, r1
    25b4:	5283      	strh	r3, [r0, r2]
    25b6:	2000      	movs	r0, #0
    25b8:	bd10      	pop	{r4, pc}
    25ba:	46c0      	nop			; (mov r8, r8)
    25bc:	0000b72c 	.word	0x0000b72c

000025c0 <usb_device_enable_callback>:
    25c0:	4b06      	ldr	r3, [pc, #24]	; (25dc <usb_device_enable_callback+0x1c>)
    25c2:	0049      	lsls	r1, r1, #1
    25c4:	5acb      	ldrh	r3, [r1, r3]
    25c6:	21ab      	movs	r1, #171	; 0xab
    25c8:	6802      	ldr	r2, [r0, #0]
    25ca:	0049      	lsls	r1, r1, #1
    25cc:	8393      	strh	r3, [r2, #28]
    25ce:	5a42      	ldrh	r2, [r0, r1]
    25d0:	431a      	orrs	r2, r3
    25d2:	5242      	strh	r2, [r0, r1]
    25d4:	6802      	ldr	r2, [r0, #0]
    25d6:	2000      	movs	r0, #0
    25d8:	8313      	strh	r3, [r2, #24]
    25da:	4770      	bx	lr
    25dc:	0000b72c 	.word	0x0000b72c

000025e0 <usb_device_disable_callback>:
    25e0:	4b05      	ldr	r3, [pc, #20]	; (25f8 <usb_device_disable_callback+0x18>)
    25e2:	0049      	lsls	r1, r1, #1
    25e4:	5aca      	ldrh	r2, [r1, r3]
    25e6:	21ab      	movs	r1, #171	; 0xab
    25e8:	0049      	lsls	r1, r1, #1
    25ea:	5a43      	ldrh	r3, [r0, r1]
    25ec:	4393      	bics	r3, r2
    25ee:	5243      	strh	r3, [r0, r1]
    25f0:	6803      	ldr	r3, [r0, #0]
    25f2:	2000      	movs	r0, #0
    25f4:	829a      	strh	r2, [r3, #20]
    25f6:	4770      	bx	lr
    25f8:	0000b72c 	.word	0x0000b72c

000025fc <usb_device_endpoint_register_callback>:
    25fc:	b510      	push	{r4, lr}
    25fe:	008c      	lsls	r4, r1, #2
    2600:	18a4      	adds	r4, r4, r2
    2602:	3434      	adds	r4, #52	; 0x34
    2604:	00a4      	lsls	r4, r4, #2
    2606:	1904      	adds	r4, r0, r4
    2608:	1840      	adds	r0, r0, r1
    260a:	3059      	adds	r0, #89	; 0x59
    260c:	4904      	ldr	r1, [pc, #16]	; (2620 <usb_device_endpoint_register_callback+0x24>)
    260e:	6063      	str	r3, [r4, #4]
    2610:	30ff      	adds	r0, #255	; 0xff
    2612:	7803      	ldrb	r3, [r0, #0]
    2614:	5c8a      	ldrb	r2, [r1, r2]
    2616:	4313      	orrs	r3, r2
    2618:	7003      	strb	r3, [r0, #0]
    261a:	2000      	movs	r0, #0
    261c:	bd10      	pop	{r4, pc}
    261e:	46c0      	nop			; (mov r8, r8)
    2620:	0000b73a 	.word	0x0000b73a

00002624 <usb_device_endpoint_unregister_callback>:
    2624:	008b      	lsls	r3, r1, #2
    2626:	189b      	adds	r3, r3, r2
    2628:	3334      	adds	r3, #52	; 0x34
    262a:	b510      	push	{r4, lr}
    262c:	009b      	lsls	r3, r3, #2
    262e:	0004      	movs	r4, r0
    2630:	18c3      	adds	r3, r0, r3
    2632:	2000      	movs	r0, #0
    2634:	1864      	adds	r4, r4, r1
    2636:	6058      	str	r0, [r3, #4]
    2638:	3459      	adds	r4, #89	; 0x59
    263a:	4b03      	ldr	r3, [pc, #12]	; (2648 <usb_device_endpoint_unregister_callback+0x24>)
    263c:	34ff      	adds	r4, #255	; 0xff
    263e:	5c9a      	ldrb	r2, [r3, r2]
    2640:	7823      	ldrb	r3, [r4, #0]
    2642:	4393      	bics	r3, r2
    2644:	7023      	strb	r3, [r4, #0]
    2646:	bd10      	pop	{r4, pc}
    2648:	0000b73a 	.word	0x0000b73a

0000264c <usb_device_endpoint_enable_callback>:
    264c:	230f      	movs	r3, #15
    264e:	b570      	push	{r4, r5, r6, lr}
    2650:	400b      	ands	r3, r1
    2652:	18c4      	adds	r4, r0, r3
    2654:	3461      	adds	r4, #97	; 0x61
    2656:	4e1f      	ldr	r6, [pc, #124]	; (26d4 <usb_device_endpoint_enable_callback+0x88>)
    2658:	34ff      	adds	r4, #255	; 0xff
    265a:	7825      	ldrb	r5, [r4, #0]
    265c:	5cb6      	ldrb	r6, [r6, r2]
    265e:	4335      	orrs	r5, r6
    2660:	7025      	strb	r5, [r4, #0]
    2662:	2a00      	cmp	r2, #0
    2664:	d10f      	bne.n	2686 <usb_device_endpoint_enable_callback+0x3a>
    2666:	6802      	ldr	r2, [r0, #0]
    2668:	2b00      	cmp	r3, #0
    266a:	d103      	bne.n	2674 <usb_device_endpoint_enable_callback+0x28>
    266c:	32ff      	adds	r2, #255	; 0xff
    266e:	3303      	adds	r3, #3
    2670:	7293      	strb	r3, [r2, #10]
    2672:	e021      	b.n	26b8 <usb_device_endpoint_enable_callback+0x6c>
    2674:	015b      	lsls	r3, r3, #5
    2676:	18d2      	adds	r2, r2, r3
    2678:	b249      	sxtb	r1, r1
    267a:	32ff      	adds	r2, #255	; 0xff
    267c:	2302      	movs	r3, #2
    267e:	2900      	cmp	r1, #0
    2680:	dbf6      	blt.n	2670 <usb_device_endpoint_enable_callback+0x24>
    2682:	2301      	movs	r3, #1
    2684:	e7f4      	b.n	2670 <usb_device_endpoint_enable_callback+0x24>
    2686:	2a01      	cmp	r2, #1
    2688:	d10e      	bne.n	26a8 <usb_device_endpoint_enable_callback+0x5c>
    268a:	6802      	ldr	r2, [r0, #0]
    268c:	2b00      	cmp	r3, #0
    268e:	d102      	bne.n	2696 <usb_device_endpoint_enable_callback+0x4a>
    2690:	32ff      	adds	r2, #255	; 0xff
    2692:	330c      	adds	r3, #12
    2694:	e7ec      	b.n	2670 <usb_device_endpoint_enable_callback+0x24>
    2696:	015b      	lsls	r3, r3, #5
    2698:	18d2      	adds	r2, r2, r3
    269a:	b249      	sxtb	r1, r1
    269c:	32ff      	adds	r2, #255	; 0xff
    269e:	2308      	movs	r3, #8
    26a0:	2900      	cmp	r1, #0
    26a2:	dbe5      	blt.n	2670 <usb_device_endpoint_enable_callback+0x24>
    26a4:	2304      	movs	r3, #4
    26a6:	e7e3      	b.n	2670 <usb_device_endpoint_enable_callback+0x24>
    26a8:	2a02      	cmp	r2, #2
    26aa:	d107      	bne.n	26bc <usb_device_endpoint_enable_callback+0x70>
    26ac:	6802      	ldr	r2, [r0, #0]
    26ae:	015b      	lsls	r3, r3, #5
    26b0:	18d3      	adds	r3, r2, r3
    26b2:	2210      	movs	r2, #16
    26b4:	33ff      	adds	r3, #255	; 0xff
    26b6:	729a      	strb	r2, [r3, #10]
    26b8:	2000      	movs	r0, #0
    26ba:	bd70      	pop	{r4, r5, r6, pc}
    26bc:	2a03      	cmp	r2, #3
    26be:	d1fb      	bne.n	26b8 <usb_device_endpoint_enable_callback+0x6c>
    26c0:	6802      	ldr	r2, [r0, #0]
    26c2:	015b      	lsls	r3, r3, #5
    26c4:	18d2      	adds	r2, r2, r3
    26c6:	b249      	sxtb	r1, r1
    26c8:	32ff      	adds	r2, #255	; 0xff
    26ca:	2340      	movs	r3, #64	; 0x40
    26cc:	2900      	cmp	r1, #0
    26ce:	dbcf      	blt.n	2670 <usb_device_endpoint_enable_callback+0x24>
    26d0:	2320      	movs	r3, #32
    26d2:	e7cd      	b.n	2670 <usb_device_endpoint_enable_callback+0x24>
    26d4:	0000b73a 	.word	0x0000b73a

000026d8 <usb_device_endpoint_disable_callback>:
    26d8:	230f      	movs	r3, #15
    26da:	b570      	push	{r4, r5, r6, lr}
    26dc:	400b      	ands	r3, r1
    26de:	18c4      	adds	r4, r0, r3
    26e0:	4d1f      	ldr	r5, [pc, #124]	; (2760 <usb_device_endpoint_disable_callback+0x88>)
    26e2:	3461      	adds	r4, #97	; 0x61
    26e4:	34ff      	adds	r4, #255	; 0xff
    26e6:	5cae      	ldrb	r6, [r5, r2]
    26e8:	7825      	ldrb	r5, [r4, #0]
    26ea:	43b5      	bics	r5, r6
    26ec:	7025      	strb	r5, [r4, #0]
    26ee:	2a00      	cmp	r2, #0
    26f0:	d10f      	bne.n	2712 <usb_device_endpoint_disable_callback+0x3a>
    26f2:	6802      	ldr	r2, [r0, #0]
    26f4:	2b00      	cmp	r3, #0
    26f6:	d103      	bne.n	2700 <usb_device_endpoint_disable_callback+0x28>
    26f8:	32ff      	adds	r2, #255	; 0xff
    26fa:	3303      	adds	r3, #3
    26fc:	7253      	strb	r3, [r2, #9]
    26fe:	e021      	b.n	2744 <usb_device_endpoint_disable_callback+0x6c>
    2700:	015b      	lsls	r3, r3, #5
    2702:	18d2      	adds	r2, r2, r3
    2704:	b249      	sxtb	r1, r1
    2706:	32ff      	adds	r2, #255	; 0xff
    2708:	2302      	movs	r3, #2
    270a:	2900      	cmp	r1, #0
    270c:	dbf6      	blt.n	26fc <usb_device_endpoint_disable_callback+0x24>
    270e:	2301      	movs	r3, #1
    2710:	e7f4      	b.n	26fc <usb_device_endpoint_disable_callback+0x24>
    2712:	2a01      	cmp	r2, #1
    2714:	d10e      	bne.n	2734 <usb_device_endpoint_disable_callback+0x5c>
    2716:	6802      	ldr	r2, [r0, #0]
    2718:	2b00      	cmp	r3, #0
    271a:	d102      	bne.n	2722 <usb_device_endpoint_disable_callback+0x4a>
    271c:	32ff      	adds	r2, #255	; 0xff
    271e:	330c      	adds	r3, #12
    2720:	e7ec      	b.n	26fc <usb_device_endpoint_disable_callback+0x24>
    2722:	015b      	lsls	r3, r3, #5
    2724:	18d2      	adds	r2, r2, r3
    2726:	b249      	sxtb	r1, r1
    2728:	32ff      	adds	r2, #255	; 0xff
    272a:	2308      	movs	r3, #8
    272c:	2900      	cmp	r1, #0
    272e:	dbe5      	blt.n	26fc <usb_device_endpoint_disable_callback+0x24>
    2730:	2304      	movs	r3, #4
    2732:	e7e3      	b.n	26fc <usb_device_endpoint_disable_callback+0x24>
    2734:	2a02      	cmp	r2, #2
    2736:	d107      	bne.n	2748 <usb_device_endpoint_disable_callback+0x70>
    2738:	6802      	ldr	r2, [r0, #0]
    273a:	015b      	lsls	r3, r3, #5
    273c:	18d3      	adds	r3, r2, r3
    273e:	2210      	movs	r2, #16
    2740:	33ff      	adds	r3, #255	; 0xff
    2742:	725a      	strb	r2, [r3, #9]
    2744:	2000      	movs	r0, #0
    2746:	bd70      	pop	{r4, r5, r6, pc}
    2748:	2a03      	cmp	r2, #3
    274a:	d1fb      	bne.n	2744 <usb_device_endpoint_disable_callback+0x6c>
    274c:	6802      	ldr	r2, [r0, #0]
    274e:	015b      	lsls	r3, r3, #5
    2750:	18d2      	adds	r2, r2, r3
    2752:	b249      	sxtb	r1, r1
    2754:	32ff      	adds	r2, #255	; 0xff
    2756:	2340      	movs	r3, #64	; 0x40
    2758:	2900      	cmp	r1, #0
    275a:	dbcf      	blt.n	26fc <usb_device_endpoint_disable_callback+0x24>
    275c:	2320      	movs	r3, #32
    275e:	e7cd      	b.n	26fc <usb_device_endpoint_disable_callback+0x24>
    2760:	0000b73a 	.word	0x0000b73a

00002764 <usb_device_endpoint_get_config_defaults>:
    2764:	2300      	movs	r3, #0
    2766:	7003      	strb	r3, [r0, #0]
    2768:	7043      	strb	r3, [r0, #1]
    276a:	7083      	strb	r3, [r0, #2]
    276c:	3301      	adds	r3, #1
    276e:	70c3      	strb	r3, [r0, #3]
    2770:	4770      	bx	lr
	...

00002774 <usb_device_endpoint_set_config>:
    2774:	230f      	movs	r3, #15
    2776:	b5f0      	push	{r4, r5, r6, r7, lr}
    2778:	0004      	movs	r4, r0
    277a:	780d      	ldrb	r5, [r1, #0]
    277c:	78c8      	ldrb	r0, [r1, #3]
    277e:	402b      	ands	r3, r5
    2780:	b26d      	sxtb	r5, r5
    2782:	2804      	cmp	r0, #4
    2784:	d860      	bhi.n	2848 <usb_device_endpoint_set_config+0xd4>
    2786:	6822      	ldr	r2, [r4, #0]
    2788:	f005 fa82 	bl	7c90 <__gnu_thumb1_case_uqi>
    278c:	87490803 	.word	0x87490803
    2790:	9d          	.byte	0x9d
    2791:	00          	.byte	0x00
    2792:	2000      	movs	r0, #0
    2794:	3308      	adds	r3, #8
    2796:	015b      	lsls	r3, r3, #5
    2798:	54d0      	strb	r0, [r2, r3]
    279a:	bdf0      	pop	{r4, r5, r6, r7, pc}
    279c:	015e      	lsls	r6, r3, #5
    279e:	1992      	adds	r2, r2, r6
    27a0:	32ff      	adds	r2, #255	; 0xff
    27a2:	7855      	ldrb	r5, [r2, #1]
    27a4:	201c      	movs	r0, #28
    27a6:	076d      	lsls	r5, r5, #29
    27a8:	d1f7      	bne.n	279a <usb_device_endpoint_set_config+0x26>
    27aa:	2570      	movs	r5, #112	; 0x70
    27ac:	7857      	ldrb	r7, [r2, #1]
    27ae:	422f      	tst	r7, r5
    27b0:	d1f3      	bne.n	279a <usb_device_endpoint_set_config+0x26>
    27b2:	380b      	subs	r0, #11
    27b4:	7050      	strb	r0, [r2, #1]
    27b6:	6822      	ldr	r2, [r4, #0]
    27b8:	3308      	adds	r3, #8
    27ba:	015b      	lsls	r3, r3, #5
    27bc:	18d2      	adds	r2, r2, r3
    27be:	302f      	adds	r0, #47	; 0x2f
    27c0:	7150      	strb	r0, [r2, #5]
    27c2:	6822      	ldr	r2, [r4, #0]
    27c4:	18d3      	adds	r3, r2, r3
    27c6:	2280      	movs	r2, #128	; 0x80
    27c8:	711a      	strb	r2, [r3, #4]
    27ca:	788a      	ldrb	r2, [r1, #2]
    27cc:	4b4b      	ldr	r3, [pc, #300]	; (28fc <usb_device_endpoint_set_config+0x188>)
    27ce:	2a00      	cmp	r2, #0
    27d0:	d01b      	beq.n	280a <usb_device_endpoint_set_config+0x96>
    27d2:	2080      	movs	r0, #128	; 0x80
    27d4:	199a      	adds	r2, r3, r6
    27d6:	6854      	ldr	r4, [r2, #4]
    27d8:	0600      	lsls	r0, r0, #24
    27da:	4304      	orrs	r4, r0
    27dc:	6054      	str	r4, [r2, #4]
    27de:	6954      	ldr	r4, [r2, #20]
    27e0:	4320      	orrs	r0, r4
    27e2:	6150      	str	r0, [r2, #20]
    27e4:	2507      	movs	r5, #7
    27e6:	784a      	ldrb	r2, [r1, #1]
    27e8:	199b      	adds	r3, r3, r6
    27ea:	6858      	ldr	r0, [r3, #4]
    27ec:	4c44      	ldr	r4, [pc, #272]	; (2900 <usb_device_endpoint_set_config+0x18c>)
    27ee:	402a      	ands	r2, r5
    27f0:	0712      	lsls	r2, r2, #28
    27f2:	4020      	ands	r0, r4
    27f4:	4310      	orrs	r0, r2
    27f6:	6058      	str	r0, [r3, #4]
    27f8:	7849      	ldrb	r1, [r1, #1]
    27fa:	695a      	ldr	r2, [r3, #20]
    27fc:	4029      	ands	r1, r5
    27fe:	0709      	lsls	r1, r1, #28
    2800:	4022      	ands	r2, r4
    2802:	430a      	orrs	r2, r1
    2804:	615a      	str	r2, [r3, #20]
    2806:	2000      	movs	r0, #0
    2808:	e7c7      	b.n	279a <usb_device_endpoint_set_config+0x26>
    280a:	1998      	adds	r0, r3, r6
    280c:	6842      	ldr	r2, [r0, #4]
    280e:	0052      	lsls	r2, r2, #1
    2810:	0852      	lsrs	r2, r2, #1
    2812:	6042      	str	r2, [r0, #4]
    2814:	6942      	ldr	r2, [r0, #20]
    2816:	0052      	lsls	r2, r2, #1
    2818:	0852      	lsrs	r2, r2, #1
    281a:	6142      	str	r2, [r0, #20]
    281c:	e7e2      	b.n	27e4 <usb_device_endpoint_set_config+0x70>
    281e:	0158      	lsls	r0, r3, #5
    2820:	1812      	adds	r2, r2, r0
    2822:	32ff      	adds	r2, #255	; 0xff
    2824:	2d00      	cmp	r5, #0
    2826:	da27      	bge.n	2878 <usb_device_endpoint_set_config+0x104>
    2828:	2670      	movs	r6, #112	; 0x70
    282a:	7857      	ldrb	r7, [r2, #1]
    282c:	201c      	movs	r0, #28
    282e:	4237      	tst	r7, r6
    2830:	d1b3      	bne.n	279a <usb_device_endpoint_set_config+0x26>
    2832:	7856      	ldrb	r6, [r2, #1]
    2834:	3004      	adds	r0, #4
    2836:	4330      	orrs	r0, r6
    2838:	7050      	strb	r0, [r2, #1]
    283a:	0018      	movs	r0, r3
    283c:	6822      	ldr	r2, [r4, #0]
    283e:	3008      	adds	r0, #8
    2840:	0140      	lsls	r0, r0, #5
    2842:	1812      	adds	r2, r2, r0
    2844:	2080      	movs	r0, #128	; 0x80
    2846:	7110      	strb	r0, [r2, #4]
    2848:	2407      	movs	r4, #7
    284a:	0fed      	lsrs	r5, r5, #31
    284c:	005b      	lsls	r3, r3, #1
    284e:	4a2b      	ldr	r2, [pc, #172]	; (28fc <usb_device_endpoint_set_config+0x188>)
    2850:	195b      	adds	r3, r3, r5
    2852:	7848      	ldrb	r0, [r1, #1]
    2854:	011b      	lsls	r3, r3, #4
    2856:	18d3      	adds	r3, r2, r3
    2858:	685a      	ldr	r2, [r3, #4]
    285a:	4020      	ands	r0, r4
    285c:	4c28      	ldr	r4, [pc, #160]	; (2900 <usb_device_endpoint_set_config+0x18c>)
    285e:	0700      	lsls	r0, r0, #28
    2860:	4022      	ands	r2, r4
    2862:	4302      	orrs	r2, r0
    2864:	605a      	str	r2, [r3, #4]
    2866:	7888      	ldrb	r0, [r1, #2]
    2868:	2800      	cmp	r0, #0
    286a:	d042      	beq.n	28f2 <usb_device_endpoint_set_config+0x17e>
    286c:	2280      	movs	r2, #128	; 0x80
    286e:	6859      	ldr	r1, [r3, #4]
    2870:	0612      	lsls	r2, r2, #24
    2872:	430a      	orrs	r2, r1
    2874:	605a      	str	r2, [r3, #4]
    2876:	e7c6      	b.n	2806 <usb_device_endpoint_set_config+0x92>
    2878:	7856      	ldrb	r6, [r2, #1]
    287a:	201c      	movs	r0, #28
    287c:	0776      	lsls	r6, r6, #29
    287e:	d000      	beq.n	2882 <usb_device_endpoint_set_config+0x10e>
    2880:	e78b      	b.n	279a <usb_device_endpoint_set_config+0x26>
    2882:	7856      	ldrb	r6, [r2, #1]
    2884:	381a      	subs	r0, #26
    2886:	4330      	orrs	r0, r6
    2888:	7050      	strb	r0, [r2, #1]
    288a:	0018      	movs	r0, r3
    288c:	6822      	ldr	r2, [r4, #0]
    288e:	3008      	adds	r0, #8
    2890:	0140      	lsls	r0, r0, #5
    2892:	1812      	adds	r2, r2, r0
    2894:	2040      	movs	r0, #64	; 0x40
    2896:	7150      	strb	r0, [r2, #5]
    2898:	e7d6      	b.n	2848 <usb_device_endpoint_set_config+0xd4>
    289a:	0158      	lsls	r0, r3, #5
    289c:	1812      	adds	r2, r2, r0
    289e:	32ff      	adds	r2, #255	; 0xff
    28a0:	2d00      	cmp	r5, #0
    28a2:	da08      	bge.n	28b6 <usb_device_endpoint_set_config+0x142>
    28a4:	2670      	movs	r6, #112	; 0x70
    28a6:	7857      	ldrb	r7, [r2, #1]
    28a8:	201c      	movs	r0, #28
    28aa:	4237      	tst	r7, r6
    28ac:	d000      	beq.n	28b0 <usb_device_endpoint_set_config+0x13c>
    28ae:	e774      	b.n	279a <usb_device_endpoint_set_config+0x26>
    28b0:	7856      	ldrb	r6, [r2, #1]
    28b2:	3014      	adds	r0, #20
    28b4:	e7bf      	b.n	2836 <usb_device_endpoint_set_config+0xc2>
    28b6:	7856      	ldrb	r6, [r2, #1]
    28b8:	201c      	movs	r0, #28
    28ba:	0776      	lsls	r6, r6, #29
    28bc:	d000      	beq.n	28c0 <usb_device_endpoint_set_config+0x14c>
    28be:	e76c      	b.n	279a <usb_device_endpoint_set_config+0x26>
    28c0:	7856      	ldrb	r6, [r2, #1]
    28c2:	3819      	subs	r0, #25
    28c4:	e7df      	b.n	2886 <usb_device_endpoint_set_config+0x112>
    28c6:	0158      	lsls	r0, r3, #5
    28c8:	1812      	adds	r2, r2, r0
    28ca:	32ff      	adds	r2, #255	; 0xff
    28cc:	2d00      	cmp	r5, #0
    28ce:	da08      	bge.n	28e2 <usb_device_endpoint_set_config+0x16e>
    28d0:	2670      	movs	r6, #112	; 0x70
    28d2:	7857      	ldrb	r7, [r2, #1]
    28d4:	201c      	movs	r0, #28
    28d6:	4237      	tst	r7, r6
    28d8:	d000      	beq.n	28dc <usb_device_endpoint_set_config+0x168>
    28da:	e75e      	b.n	279a <usb_device_endpoint_set_config+0x26>
    28dc:	7856      	ldrb	r6, [r2, #1]
    28de:	3024      	adds	r0, #36	; 0x24
    28e0:	e7a9      	b.n	2836 <usb_device_endpoint_set_config+0xc2>
    28e2:	7856      	ldrb	r6, [r2, #1]
    28e4:	201c      	movs	r0, #28
    28e6:	0776      	lsls	r6, r6, #29
    28e8:	d000      	beq.n	28ec <usb_device_endpoint_set_config+0x178>
    28ea:	e756      	b.n	279a <usb_device_endpoint_set_config+0x26>
    28ec:	7856      	ldrb	r6, [r2, #1]
    28ee:	3818      	subs	r0, #24
    28f0:	e7c9      	b.n	2886 <usb_device_endpoint_set_config+0x112>
    28f2:	685a      	ldr	r2, [r3, #4]
    28f4:	0052      	lsls	r2, r2, #1
    28f6:	0852      	lsrs	r2, r2, #1
    28f8:	605a      	str	r2, [r3, #4]
    28fa:	e74e      	b.n	279a <usb_device_endpoint_set_config+0x26>
    28fc:	20003e38 	.word	0x20003e38
    2900:	8fffffff 	.word	0x8fffffff

00002904 <usb_device_endpoint_abort_job>:
    2904:	230f      	movs	r3, #15
    2906:	400b      	ands	r3, r1
    2908:	6802      	ldr	r2, [r0, #0]
    290a:	3308      	adds	r3, #8
    290c:	015b      	lsls	r3, r3, #5
    290e:	b249      	sxtb	r1, r1
    2910:	18d2      	adds	r2, r2, r3
    2912:	2900      	cmp	r1, #0
    2914:	da06      	bge.n	2924 <usb_device_endpoint_abort_job+0x20>
    2916:	2180      	movs	r1, #128	; 0x80
    2918:	7111      	strb	r1, [r2, #4]
    291a:	6802      	ldr	r2, [r0, #0]
    291c:	18d3      	adds	r3, r2, r3
    291e:	2202      	movs	r2, #2
    2920:	71da      	strb	r2, [r3, #7]
    2922:	4770      	bx	lr
    2924:	2140      	movs	r1, #64	; 0x40
    2926:	7151      	strb	r1, [r2, #5]
    2928:	6802      	ldr	r2, [r0, #0]
    292a:	18d3      	adds	r3, r2, r3
    292c:	2201      	movs	r2, #1
    292e:	e7f7      	b.n	2920 <usb_device_endpoint_abort_job+0x1c>

00002930 <usb_device_endpoint_is_halted>:
    2930:	230f      	movs	r3, #15
    2932:	400b      	ands	r3, r1
    2934:	6800      	ldr	r0, [r0, #0]
    2936:	3308      	adds	r3, #8
    2938:	015b      	lsls	r3, r3, #5
    293a:	18c3      	adds	r3, r0, r3
    293c:	b249      	sxtb	r1, r1
    293e:	7998      	ldrb	r0, [r3, #6]
    2940:	2900      	cmp	r1, #0
    2942:	da02      	bge.n	294a <usb_device_endpoint_is_halted+0x1a>
    2944:	0680      	lsls	r0, r0, #26
    2946:	0fc0      	lsrs	r0, r0, #31
    2948:	4770      	bx	lr
    294a:	06c0      	lsls	r0, r0, #27
    294c:	e7fb      	b.n	2946 <usb_device_endpoint_is_halted+0x16>

0000294e <usb_device_endpoint_set_halt>:
    294e:	230f      	movs	r3, #15
    2950:	400b      	ands	r3, r1
    2952:	6800      	ldr	r0, [r0, #0]
    2954:	3308      	adds	r3, #8
    2956:	015b      	lsls	r3, r3, #5
    2958:	b249      	sxtb	r1, r1
    295a:	18c3      	adds	r3, r0, r3
    295c:	2220      	movs	r2, #32
    295e:	2900      	cmp	r1, #0
    2960:	db00      	blt.n	2964 <usb_device_endpoint_set_halt+0x16>
    2962:	2210      	movs	r2, #16
    2964:	715a      	strb	r2, [r3, #5]
    2966:	4770      	bx	lr

00002968 <usb_device_endpoint_clear_halt>:
    2968:	230f      	movs	r3, #15
    296a:	b530      	push	{r4, r5, lr}
    296c:	400b      	ands	r3, r1
    296e:	6802      	ldr	r2, [r0, #0]
    2970:	015c      	lsls	r4, r3, #5
    2972:	1912      	adds	r2, r2, r4
    2974:	32ff      	adds	r2, #255	; 0xff
    2976:	b249      	sxtb	r1, r1
    2978:	79d5      	ldrb	r5, [r2, #7]
    297a:	2900      	cmp	r1, #0
    297c:	da12      	bge.n	29a4 <usb_device_endpoint_clear_halt+0x3c>
    297e:	2120      	movs	r1, #32
    2980:	420d      	tst	r5, r1
    2982:	d00e      	beq.n	29a2 <usb_device_endpoint_clear_halt+0x3a>
    2984:	7151      	strb	r1, [r2, #5]
    2986:	6802      	ldr	r2, [r0, #0]
    2988:	1849      	adds	r1, r1, r1
    298a:	1912      	adds	r2, r2, r4
    298c:	32ff      	adds	r2, #255	; 0xff
    298e:	7a14      	ldrb	r4, [r2, #8]
    2990:	420c      	tst	r4, r1
    2992:	d006      	beq.n	29a2 <usb_device_endpoint_clear_halt+0x3a>
    2994:	7211      	strb	r1, [r2, #8]
    2996:	6802      	ldr	r2, [r0, #0]
    2998:	3308      	adds	r3, #8
    299a:	015b      	lsls	r3, r3, #5
    299c:	18d3      	adds	r3, r2, r3
    299e:	2202      	movs	r2, #2
    29a0:	711a      	strb	r2, [r3, #4]
    29a2:	bd30      	pop	{r4, r5, pc}
    29a4:	2110      	movs	r1, #16
    29a6:	420d      	tst	r5, r1
    29a8:	d0fb      	beq.n	29a2 <usb_device_endpoint_clear_halt+0x3a>
    29aa:	7151      	strb	r1, [r2, #5]
    29ac:	6802      	ldr	r2, [r0, #0]
    29ae:	1849      	adds	r1, r1, r1
    29b0:	1912      	adds	r2, r2, r4
    29b2:	32ff      	adds	r2, #255	; 0xff
    29b4:	7a14      	ldrb	r4, [r2, #8]
    29b6:	420c      	tst	r4, r1
    29b8:	d0f3      	beq.n	29a2 <usb_device_endpoint_clear_halt+0x3a>
    29ba:	7211      	strb	r1, [r2, #8]
    29bc:	6802      	ldr	r2, [r0, #0]
    29be:	3308      	adds	r3, #8
    29c0:	015b      	lsls	r3, r3, #5
    29c2:	18d3      	adds	r3, r2, r3
    29c4:	2201      	movs	r2, #1
    29c6:	e7eb      	b.n	29a0 <usb_device_endpoint_clear_halt+0x38>

000029c8 <usb_device_endpoint_write_buffer_job>:
    29c8:	b570      	push	{r4, r5, r6, lr}
    29ca:	000c      	movs	r4, r1
    29cc:	6805      	ldr	r5, [r0, #0]
    29ce:	3408      	adds	r4, #8
    29d0:	0164      	lsls	r4, r4, #5
    29d2:	5d65      	ldrb	r5, [r4, r5]
    29d4:	261c      	movs	r6, #28
    29d6:	066d      	lsls	r5, r5, #25
    29d8:	0f6d      	lsrs	r5, r5, #29
    29da:	d014      	beq.n	2a06 <usb_device_endpoint_write_buffer_job+0x3e>
    29dc:	014d      	lsls	r5, r1, #5
    29de:	490b      	ldr	r1, [pc, #44]	; (2a0c <usb_device_endpoint_write_buffer_job+0x44>)
    29e0:	049b      	lsls	r3, r3, #18
    29e2:	1949      	adds	r1, r1, r5
    29e4:	000d      	movs	r5, r1
    29e6:	610a      	str	r2, [r1, #16]
    29e8:	694a      	ldr	r2, [r1, #20]
    29ea:	4909      	ldr	r1, [pc, #36]	; (2a10 <usb_device_endpoint_write_buffer_job+0x48>)
    29ec:	2600      	movs	r6, #0
    29ee:	400a      	ands	r2, r1
    29f0:	616a      	str	r2, [r5, #20]
    29f2:	696a      	ldr	r2, [r5, #20]
    29f4:	0c99      	lsrs	r1, r3, #18
    29f6:	0b93      	lsrs	r3, r2, #14
    29f8:	039b      	lsls	r3, r3, #14
    29fa:	430b      	orrs	r3, r1
    29fc:	616b      	str	r3, [r5, #20]
    29fe:	6803      	ldr	r3, [r0, #0]
    2a00:	191c      	adds	r4, r3, r4
    2a02:	2380      	movs	r3, #128	; 0x80
    2a04:	7163      	strb	r3, [r4, #5]
    2a06:	0030      	movs	r0, r6
    2a08:	bd70      	pop	{r4, r5, r6, pc}
    2a0a:	46c0      	nop			; (mov r8, r8)
    2a0c:	20003e38 	.word	0x20003e38
    2a10:	f0003fff 	.word	0xf0003fff

00002a14 <usb_device_endpoint_read_buffer_job>:
    2a14:	b570      	push	{r4, r5, r6, lr}
    2a16:	000c      	movs	r4, r1
    2a18:	6805      	ldr	r5, [r0, #0]
    2a1a:	3408      	adds	r4, #8
    2a1c:	0164      	lsls	r4, r4, #5
    2a1e:	5d65      	ldrb	r5, [r4, r5]
    2a20:	261c      	movs	r6, #28
    2a22:	076d      	lsls	r5, r5, #29
    2a24:	d013      	beq.n	2a4e <usb_device_endpoint_read_buffer_job+0x3a>
    2a26:	4d0b      	ldr	r5, [pc, #44]	; (2a54 <usb_device_endpoint_read_buffer_job+0x40>)
    2a28:	0149      	lsls	r1, r1, #5
    2a2a:	514a      	str	r2, [r1, r5]
    2a2c:	049b      	lsls	r3, r3, #18
    2a2e:	1869      	adds	r1, r5, r1
    2a30:	684a      	ldr	r2, [r1, #4]
    2a32:	091d      	lsrs	r5, r3, #4
    2a34:	4b08      	ldr	r3, [pc, #32]	; (2a58 <usb_device_endpoint_read_buffer_job+0x44>)
    2a36:	2600      	movs	r6, #0
    2a38:	4013      	ands	r3, r2
    2a3a:	432b      	orrs	r3, r5
    2a3c:	604b      	str	r3, [r1, #4]
    2a3e:	684b      	ldr	r3, [r1, #4]
    2a40:	0b9b      	lsrs	r3, r3, #14
    2a42:	039b      	lsls	r3, r3, #14
    2a44:	604b      	str	r3, [r1, #4]
    2a46:	6803      	ldr	r3, [r0, #0]
    2a48:	191c      	adds	r4, r3, r4
    2a4a:	2340      	movs	r3, #64	; 0x40
    2a4c:	7123      	strb	r3, [r4, #4]
    2a4e:	0030      	movs	r0, r6
    2a50:	bd70      	pop	{r4, r5, r6, pc}
    2a52:	46c0      	nop			; (mov r8, r8)
    2a54:	20003e38 	.word	0x20003e38
    2a58:	f0003fff 	.word	0xf0003fff

00002a5c <usb_device_endpoint_setup_buffer_job>:
    2a5c:	4b09      	ldr	r3, [pc, #36]	; (2a84 <usb_device_endpoint_setup_buffer_job+0x28>)
    2a5e:	6019      	str	r1, [r3, #0]
    2a60:	685a      	ldr	r2, [r3, #4]
    2a62:	4909      	ldr	r1, [pc, #36]	; (2a88 <usb_device_endpoint_setup_buffer_job+0x2c>)
    2a64:	4011      	ands	r1, r2
    2a66:	2280      	movs	r2, #128	; 0x80
    2a68:	0292      	lsls	r2, r2, #10
    2a6a:	430a      	orrs	r2, r1
    2a6c:	605a      	str	r2, [r3, #4]
    2a6e:	685a      	ldr	r2, [r3, #4]
    2a70:	0b92      	lsrs	r2, r2, #14
    2a72:	0392      	lsls	r2, r2, #14
    2a74:	605a      	str	r2, [r3, #4]
    2a76:	2240      	movs	r2, #64	; 0x40
    2a78:	6803      	ldr	r3, [r0, #0]
    2a7a:	2000      	movs	r0, #0
    2a7c:	33ff      	adds	r3, #255	; 0xff
    2a7e:	715a      	strb	r2, [r3, #5]
    2a80:	4770      	bx	lr
    2a82:	46c0      	nop			; (mov r8, r8)
    2a84:	20003e38 	.word	0x20003e38
    2a88:	f0003fff 	.word	0xf0003fff

00002a8c <usb_enable>:
    2a8c:	2302      	movs	r3, #2
    2a8e:	6802      	ldr	r2, [r0, #0]
    2a90:	7811      	ldrb	r1, [r2, #0]
    2a92:	430b      	orrs	r3, r1
    2a94:	7013      	strb	r3, [r2, #0]
    2a96:	6802      	ldr	r2, [r0, #0]
    2a98:	7893      	ldrb	r3, [r2, #2]
    2a9a:	2b02      	cmp	r3, #2
    2a9c:	d0fc      	beq.n	2a98 <usb_enable+0xc>
    2a9e:	4770      	bx	lr

00002aa0 <USB_Handler>:
    2aa0:	b5f0      	push	{r4, r5, r6, r7, lr}
    2aa2:	4ed7      	ldr	r6, [pc, #860]	; (2e00 <USB_Handler+0x360>)
    2aa4:	b085      	sub	sp, #20
    2aa6:	6837      	ldr	r7, [r6, #0]
    2aa8:	683d      	ldr	r5, [r7, #0]
    2aaa:	782b      	ldrb	r3, [r5, #0]
    2aac:	09db      	lsrs	r3, r3, #7
    2aae:	d100      	bne.n	2ab2 <USB_Handler+0x12>
    2ab0:	e122      	b.n	2cf8 <USB_Handler+0x258>
    2ab2:	8c2b      	ldrh	r3, [r5, #32]
    2ab4:	2b00      	cmp	r3, #0
    2ab6:	d100      	bne.n	2aba <USB_Handler+0x1a>
    2ab8:	e22d      	b.n	2f16 <USB_Handler+0x476>
    2aba:	8c28      	ldrh	r0, [r5, #32]
    2abc:	4bd1      	ldr	r3, [pc, #836]	; (2e04 <USB_Handler+0x364>)
    2abe:	b280      	uxth	r0, r0
    2ac0:	4798      	blx	r3
    2ac2:	0003      	movs	r3, r0
    2ac4:	0004      	movs	r4, r0
    2ac6:	2003      	movs	r0, #3
    2ac8:	3308      	adds	r3, #8
    2aca:	015b      	lsls	r3, r3, #5
    2acc:	18ed      	adds	r5, r5, r3
    2ace:	79ed      	ldrb	r5, [r5, #7]
    2ad0:	b2ea      	uxtb	r2, r5
    2ad2:	9201      	str	r2, [sp, #4]
    2ad4:	4202      	tst	r2, r0
    2ad6:	d031      	beq.n	2b3c <USB_Handler+0x9c>
    2ad8:	2101      	movs	r1, #1
    2ada:	4acb      	ldr	r2, [pc, #812]	; (2e08 <USB_Handler+0x368>)
    2adc:	4694      	mov	ip, r2
    2ade:	000a      	movs	r2, r1
    2ae0:	4665      	mov	r5, ip
    2ae2:	40a2      	lsls	r2, r4
    2ae4:	682d      	ldr	r5, [r5, #0]
    2ae6:	4395      	bics	r5, r2
    2ae8:	002a      	movs	r2, r5
    2aea:	4665      	mov	r5, ip
    2aec:	602a      	str	r2, [r5, #0]
    2aee:	683a      	ldr	r2, [r7, #0]
    2af0:	18d2      	adds	r2, r2, r3
    2af2:	71d0      	strb	r0, [r2, #7]
    2af4:	193a      	adds	r2, r7, r4
    2af6:	32ae      	adds	r2, #174	; 0xae
    2af8:	7812      	ldrb	r2, [r2, #0]
    2afa:	420a      	tst	r2, r1
    2afc:	d01e      	beq.n	2b3c <USB_Handler+0x9c>
    2afe:	4ac3      	ldr	r2, [pc, #780]	; (2e0c <USB_Handler+0x36c>)
    2b00:	0160      	lsls	r0, r4, #5
    2b02:	7014      	strb	r4, [r2, #0]
    2b04:	6839      	ldr	r1, [r7, #0]
    2b06:	5c59      	ldrb	r1, [r3, r1]
    2b08:	4bc1      	ldr	r3, [pc, #772]	; (2e10 <USB_Handler+0x370>)
    2b0a:	0789      	lsls	r1, r1, #30
    2b0c:	0f89      	lsrs	r1, r1, #30
    2b0e:	181b      	adds	r3, r3, r0
    2b10:	2901      	cmp	r1, #1
    2b12:	d000      	beq.n	2b16 <USB_Handler+0x76>
    2b14:	e0b4      	b.n	2c80 <USB_Handler+0x1e0>
    2b16:	6859      	ldr	r1, [r3, #4]
    2b18:	0489      	lsls	r1, r1, #18
    2b1a:	0c89      	lsrs	r1, r1, #18
    2b1c:	8051      	strh	r1, [r2, #2]
    2b1e:	6859      	ldr	r1, [r3, #4]
    2b20:	0109      	lsls	r1, r1, #4
    2b22:	0c89      	lsrs	r1, r1, #18
    2b24:	8091      	strh	r1, [r2, #4]
    2b26:	685a      	ldr	r2, [r3, #4]
    2b28:	0b92      	lsrs	r2, r2, #14
    2b2a:	0392      	lsls	r2, r2, #14
    2b2c:	605a      	str	r2, [r3, #4]
    2b2e:	1ca3      	adds	r3, r4, #2
    2b30:	011b      	lsls	r3, r3, #4
    2b32:	18fb      	adds	r3, r7, r3
    2b34:	685b      	ldr	r3, [r3, #4]
    2b36:	49b5      	ldr	r1, [pc, #724]	; (2e0c <USB_Handler+0x36c>)
    2b38:	0038      	movs	r0, r7
    2b3a:	4798      	blx	r3
    2b3c:	2304      	movs	r3, #4
    2b3e:	9a01      	ldr	r2, [sp, #4]
    2b40:	421a      	tst	r2, r3
    2b42:	d038      	beq.n	2bb6 <USB_Handler+0x116>
    2b44:	0022      	movs	r2, r4
    2b46:	4bae      	ldr	r3, [pc, #696]	; (2e00 <USB_Handler+0x360>)
    2b48:	3208      	adds	r2, #8
    2b4a:	6818      	ldr	r0, [r3, #0]
    2b4c:	0153      	lsls	r3, r2, #5
    2b4e:	6801      	ldr	r1, [r0, #0]
    2b50:	469c      	mov	ip, r3
    2b52:	5c5b      	ldrb	r3, [r3, r1]
    2b54:	069b      	lsls	r3, r3, #26
    2b56:	0f5b      	lsrs	r3, r3, #29
    2b58:	9302      	str	r3, [sp, #8]
    2b5a:	2b02      	cmp	r3, #2
    2b5c:	d000      	beq.n	2b60 <USB_Handler+0xc0>
    2b5e:	e0a4      	b.n	2caa <USB_Handler+0x20a>
    2b60:	4663      	mov	r3, ip
    2b62:	5c5b      	ldrb	r3, [r3, r1]
    2b64:	079b      	lsls	r3, r3, #30
    2b66:	0f9b      	lsrs	r3, r3, #30
    2b68:	2b01      	cmp	r3, #1
    2b6a:	d000      	beq.n	2b6e <USB_Handler+0xce>
    2b6c:	e09d      	b.n	2caa <USB_Handler+0x20a>
    2b6e:	4fa8      	ldr	r7, [pc, #672]	; (2e10 <USB_Handler+0x370>)
    2b70:	0165      	lsls	r5, r4, #5
    2b72:	197d      	adds	r5, r7, r5
    2b74:	002f      	movs	r7, r5
    2b76:	9503      	str	r5, [sp, #12]
    2b78:	3708      	adds	r7, #8
    2b7a:	78bf      	ldrb	r7, [r7, #2]
    2b7c:	07fd      	lsls	r5, r7, #31
    2b7e:	d400      	bmi.n	2b82 <USB_Handler+0xe2>
    2b80:	e093      	b.n	2caa <USB_Handler+0x20a>
    2b82:	40a3      	lsls	r3, r4
    2b84:	4aa0      	ldr	r2, [pc, #640]	; (2e08 <USB_Handler+0x368>)
    2b86:	6811      	ldr	r1, [r2, #0]
    2b88:	4399      	bics	r1, r3
    2b8a:	2300      	movs	r3, #0
    2b8c:	6011      	str	r1, [r2, #0]
    2b8e:	9a03      	ldr	r2, [sp, #12]
    2b90:	7293      	strb	r3, [r2, #10]
    2b92:	2204      	movs	r2, #4
    2b94:	6803      	ldr	r3, [r0, #0]
    2b96:	4463      	add	r3, ip
    2b98:	71da      	strb	r2, [r3, #7]
    2b9a:	1903      	adds	r3, r0, r4
    2b9c:	33ae      	adds	r3, #174	; 0xae
    2b9e:	781b      	ldrb	r3, [r3, #0]
    2ba0:	9a02      	ldr	r2, [sp, #8]
    2ba2:	4213      	tst	r3, r2
    2ba4:	d007      	beq.n	2bb6 <USB_Handler+0x116>
    2ba6:	2310      	movs	r3, #16
    2ba8:	4998      	ldr	r1, [pc, #608]	; (2e0c <USB_Handler+0x36c>)
    2baa:	704b      	strb	r3, [r1, #1]
    2bac:	0123      	lsls	r3, r4, #4
    2bae:	18c3      	adds	r3, r0, r3
    2bb0:	700c      	strb	r4, [r1, #0]
    2bb2:	6a9b      	ldr	r3, [r3, #40]	; 0x28
    2bb4:	4798      	blx	r3
    2bb6:	2208      	movs	r2, #8
    2bb8:	9b01      	ldr	r3, [sp, #4]
    2bba:	4213      	tst	r3, r2
    2bbc:	d01d      	beq.n	2bfa <USB_Handler+0x15a>
    2bbe:	2301      	movs	r3, #1
    2bc0:	40a3      	lsls	r3, r4
    2bc2:	4991      	ldr	r1, [pc, #580]	; (2e08 <USB_Handler+0x368>)
    2bc4:	6808      	ldr	r0, [r1, #0]
    2bc6:	4398      	bics	r0, r3
    2bc8:	6008      	str	r0, [r1, #0]
    2bca:	6830      	ldr	r0, [r6, #0]
    2bcc:	18a3      	adds	r3, r4, r2
    2bce:	6801      	ldr	r1, [r0, #0]
    2bd0:	015b      	lsls	r3, r3, #5
    2bd2:	18cb      	adds	r3, r1, r3
    2bd4:	71da      	strb	r2, [r3, #7]
    2bd6:	1903      	adds	r3, r0, r4
    2bd8:	33ae      	adds	r3, #174	; 0xae
    2bda:	781b      	ldrb	r3, [r3, #0]
    2bdc:	079b      	lsls	r3, r3, #30
    2bde:	d50c      	bpl.n	2bfa <USB_Handler+0x15a>
    2be0:	4b8b      	ldr	r3, [pc, #556]	; (2e10 <USB_Handler+0x370>)
    2be2:	0162      	lsls	r2, r4, #5
    2be4:	189b      	adds	r3, r3, r2
    2be6:	221f      	movs	r2, #31
    2be8:	89db      	ldrh	r3, [r3, #14]
    2bea:	4988      	ldr	r1, [pc, #544]	; (2e0c <USB_Handler+0x36c>)
    2bec:	4013      	ands	r3, r2
    2bee:	704b      	strb	r3, [r1, #1]
    2bf0:	0123      	lsls	r3, r4, #4
    2bf2:	18c3      	adds	r3, r0, r3
    2bf4:	700c      	strb	r4, [r1, #0]
    2bf6:	6a9b      	ldr	r3, [r3, #40]	; 0x28
    2bf8:	4798      	blx	r3
    2bfa:	2210      	movs	r2, #16
    2bfc:	9b01      	ldr	r3, [sp, #4]
    2bfe:	4213      	tst	r3, r2
    2c00:	d01f      	beq.n	2c42 <USB_Handler+0x1a2>
    2c02:	2301      	movs	r3, #1
    2c04:	40a3      	lsls	r3, r4
    2c06:	4980      	ldr	r1, [pc, #512]	; (2e08 <USB_Handler+0x368>)
    2c08:	6808      	ldr	r0, [r1, #0]
    2c0a:	4398      	bics	r0, r3
    2c0c:	0023      	movs	r3, r4
    2c0e:	6008      	str	r0, [r1, #0]
    2c10:	6830      	ldr	r0, [r6, #0]
    2c12:	3308      	adds	r3, #8
    2c14:	6801      	ldr	r1, [r0, #0]
    2c16:	015b      	lsls	r3, r3, #5
    2c18:	18cb      	adds	r3, r1, r3
    2c1a:	71da      	strb	r2, [r3, #7]
    2c1c:	1903      	adds	r3, r0, r4
    2c1e:	33ae      	adds	r3, #174	; 0xae
    2c20:	781b      	ldrb	r3, [r3, #0]
    2c22:	075b      	lsls	r3, r3, #29
    2c24:	d50d      	bpl.n	2c42 <USB_Handler+0x1a2>
    2c26:	4a79      	ldr	r2, [pc, #484]	; (2e0c <USB_Handler+0x36c>)
    2c28:	4b79      	ldr	r3, [pc, #484]	; (2e10 <USB_Handler+0x370>)
    2c2a:	0161      	lsls	r1, r4, #5
    2c2c:	185b      	adds	r3, r3, r1
    2c2e:	7014      	strb	r4, [r2, #0]
    2c30:	685b      	ldr	r3, [r3, #4]
    2c32:	2100      	movs	r1, #0
    2c34:	011b      	lsls	r3, r3, #4
    2c36:	0c9b      	lsrs	r3, r3, #18
    2c38:	8053      	strh	r3, [r2, #2]
    2c3a:	0123      	lsls	r3, r4, #4
    2c3c:	18c3      	adds	r3, r0, r3
    2c3e:	6adb      	ldr	r3, [r3, #44]	; 0x2c
    2c40:	4798      	blx	r3
    2c42:	2220      	movs	r2, #32
    2c44:	9b01      	ldr	r3, [sp, #4]
    2c46:	4213      	tst	r3, r2
    2c48:	d100      	bne.n	2c4c <USB_Handler+0x1ac>
    2c4a:	e1f9      	b.n	3040 <USB_Handler+0x5a0>
    2c4c:	2301      	movs	r3, #1
    2c4e:	40a3      	lsls	r3, r4
    2c50:	496d      	ldr	r1, [pc, #436]	; (2e08 <USB_Handler+0x368>)
    2c52:	6808      	ldr	r0, [r1, #0]
    2c54:	4398      	bics	r0, r3
    2c56:	0023      	movs	r3, r4
    2c58:	6008      	str	r0, [r1, #0]
    2c5a:	6830      	ldr	r0, [r6, #0]
    2c5c:	3308      	adds	r3, #8
    2c5e:	6801      	ldr	r1, [r0, #0]
    2c60:	015b      	lsls	r3, r3, #5
    2c62:	18cb      	adds	r3, r1, r3
    2c64:	71da      	strb	r2, [r3, #7]
    2c66:	1903      	adds	r3, r0, r4
    2c68:	33ae      	adds	r3, #174	; 0xae
    2c6a:	781b      	ldrb	r3, [r3, #0]
    2c6c:	071b      	lsls	r3, r3, #28
    2c6e:	d400      	bmi.n	2c72 <USB_Handler+0x1d2>
    2c70:	e1e6      	b.n	3040 <USB_Handler+0x5a0>
    2c72:	4966      	ldr	r1, [pc, #408]	; (2e0c <USB_Handler+0x36c>)
    2c74:	700c      	strb	r4, [r1, #0]
    2c76:	0124      	lsls	r4, r4, #4
    2c78:	1904      	adds	r4, r0, r4
    2c7a:	6b23      	ldr	r3, [r4, #48]	; 0x30
    2c7c:	4798      	blx	r3
    2c7e:	e1df      	b.n	3040 <USB_Handler+0x5a0>
    2c80:	6859      	ldr	r1, [r3, #4]
    2c82:	4d64      	ldr	r5, [pc, #400]	; (2e14 <USB_Handler+0x374>)
    2c84:	0109      	lsls	r1, r1, #4
    2c86:	0c89      	lsrs	r1, r1, #18
    2c88:	8051      	strh	r1, [r2, #2]
    2c8a:	b288      	uxth	r0, r1
    2c8c:	6859      	ldr	r1, [r3, #4]
    2c8e:	0489      	lsls	r1, r1, #18
    2c90:	0c89      	lsrs	r1, r1, #18
    2c92:	8091      	strh	r1, [r2, #4]
    2c94:	6859      	ldr	r1, [r3, #4]
    2c96:	4029      	ands	r1, r5
    2c98:	6059      	str	r1, [r3, #4]
    2c9a:	2800      	cmp	r0, #0
    2c9c:	d000      	beq.n	2ca0 <USB_Handler+0x200>
    2c9e:	e746      	b.n	2b2e <USB_Handler+0x8e>
    2ca0:	685b      	ldr	r3, [r3, #4]
    2ca2:	049b      	lsls	r3, r3, #18
    2ca4:	0c9b      	lsrs	r3, r3, #18
    2ca6:	8053      	strh	r3, [r2, #2]
    2ca8:	e741      	b.n	2b2e <USB_Handler+0x8e>
    2caa:	0152      	lsls	r2, r2, #5
    2cac:	5c53      	ldrb	r3, [r2, r1]
    2cae:	4d58      	ldr	r5, [pc, #352]	; (2e10 <USB_Handler+0x370>)
    2cb0:	069b      	lsls	r3, r3, #26
    2cb2:	0f5b      	lsrs	r3, r3, #29
    2cb4:	46ac      	mov	ip, r5
    2cb6:	0167      	lsls	r7, r4, #5
    2cb8:	2b03      	cmp	r3, #3
    2cba:	d111      	bne.n	2ce0 <USB_Handler+0x240>
    2cbc:	5c53      	ldrb	r3, [r2, r1]
    2cbe:	079b      	lsls	r3, r3, #30
    2cc0:	0f9b      	lsrs	r3, r3, #30
    2cc2:	2b01      	cmp	r3, #1
    2cc4:	d10c      	bne.n	2ce0 <USB_Handler+0x240>
    2cc6:	0039      	movs	r1, r7
    2cc8:	2300      	movs	r3, #0
    2cca:	4461      	add	r1, ip
    2ccc:	728b      	strb	r3, [r1, #10]
    2cce:	2104      	movs	r1, #4
    2cd0:	6803      	ldr	r3, [r0, #0]
    2cd2:	189b      	adds	r3, r3, r2
    2cd4:	71d9      	strb	r1, [r3, #7]
    2cd6:	6803      	ldr	r3, [r0, #0]
    2cd8:	189a      	adds	r2, r3, r2
    2cda:	2310      	movs	r3, #16
    2cdc:	7153      	strb	r3, [r2, #5]
    2cde:	e76a      	b.n	2bb6 <USB_Handler+0x116>
    2ce0:	003a      	movs	r2, r7
    2ce2:	2300      	movs	r3, #0
    2ce4:	4462      	add	r2, ip
    2ce6:	7293      	strb	r3, [r2, #10]
    2ce8:	0022      	movs	r2, r4
    2cea:	6803      	ldr	r3, [r0, #0]
    2cec:	3208      	adds	r2, #8
    2cee:	0152      	lsls	r2, r2, #5
    2cf0:	189b      	adds	r3, r3, r2
    2cf2:	2204      	movs	r2, #4
    2cf4:	71da      	strb	r2, [r3, #7]
    2cf6:	e75e      	b.n	2bb6 <USB_Handler+0x116>
    2cf8:	8c2c      	ldrh	r4, [r5, #32]
    2cfa:	b2a2      	uxth	r2, r4
    2cfc:	9201      	str	r2, [sp, #4]
    2cfe:	2a00      	cmp	r2, #0
    2d00:	d12c      	bne.n	2d5c <USB_Handler+0x2bc>
    2d02:	8bab      	ldrh	r3, [r5, #28]
    2d04:	3255      	adds	r2, #85	; 0x55
    2d06:	b29b      	uxth	r3, r3
    2d08:	9302      	str	r3, [sp, #8]
    2d0a:	23ab      	movs	r3, #171	; 0xab
    2d0c:	32ff      	adds	r2, #255	; 0xff
    2d0e:	005b      	lsls	r3, r3, #1
    2d10:	5afb      	ldrh	r3, [r7, r3]
    2d12:	5abd      	ldrh	r5, [r7, r2]
    2d14:	2780      	movs	r7, #128	; 0x80
    2d16:	401d      	ands	r5, r3
    2d18:	9b02      	ldr	r3, [sp, #8]
    2d1a:	9c01      	ldr	r4, [sp, #4]
    2d1c:	401d      	ands	r5, r3
    2d1e:	007f      	lsls	r7, r7, #1
    2d20:	4b3d      	ldr	r3, [pc, #244]	; (2e18 <USB_Handler+0x378>)
    2d22:	0062      	lsls	r2, r4, #1
    2d24:	5ad3      	ldrh	r3, [r2, r3]
    2d26:	9a02      	ldr	r2, [sp, #8]
    2d28:	4213      	tst	r3, r2
    2d2a:	d002      	beq.n	2d32 <USB_Handler+0x292>
    2d2c:	6832      	ldr	r2, [r6, #0]
    2d2e:	6812      	ldr	r2, [r2, #0]
    2d30:	8393      	strh	r3, [r2, #28]
    2d32:	422b      	tst	r3, r5
    2d34:	d00e      	beq.n	2d54 <USB_Handler+0x2b4>
    2d36:	4939      	ldr	r1, [pc, #228]	; (2e1c <USB_Handler+0x37c>)
    2d38:	2c06      	cmp	r4, #6
    2d3a:	d104      	bne.n	2d46 <USB_Handler+0x2a6>
    2d3c:	4b34      	ldr	r3, [pc, #208]	; (2e10 <USB_Handler+0x370>)
    2d3e:	891b      	ldrh	r3, [r3, #8]
    2d40:	091b      	lsrs	r3, r3, #4
    2d42:	403b      	ands	r3, r7
    2d44:	600b      	str	r3, [r1, #0]
    2d46:	0023      	movs	r3, r4
    2d48:	6832      	ldr	r2, [r6, #0]
    2d4a:	332e      	adds	r3, #46	; 0x2e
    2d4c:	009b      	lsls	r3, r3, #2
    2d4e:	589b      	ldr	r3, [r3, r2]
    2d50:	0010      	movs	r0, r2
    2d52:	4798      	blx	r3
    2d54:	3401      	adds	r4, #1
    2d56:	2c07      	cmp	r4, #7
    2d58:	d1e2      	bne.n	2d20 <USB_Handler+0x280>
    2d5a:	e171      	b.n	3040 <USB_Handler+0x5a0>
    2d5c:	003e      	movs	r6, r7
    2d5e:	3659      	adds	r6, #89	; 0x59
    2d60:	36ff      	adds	r6, #255	; 0xff
    2d62:	9a01      	ldr	r2, [sp, #4]
    2d64:	2101      	movs	r1, #1
    2d66:	411a      	asrs	r2, r3
    2d68:	b2dc      	uxtb	r4, r3
    2d6a:	420a      	tst	r2, r1
    2d6c:	d100      	bne.n	2d70 <USB_Handler+0x2d0>
    2d6e:	e0cc      	b.n	2f0a <USB_Handler+0x46a>
    2d70:	001a      	movs	r2, r3
    2d72:	3208      	adds	r2, #8
    2d74:	0151      	lsls	r1, r2, #5
    2d76:	1869      	adds	r1, r5, r1
    2d78:	1dc8      	adds	r0, r1, #7
    2d7a:	9003      	str	r0, [sp, #12]
    2d7c:	79c8      	ldrb	r0, [r1, #7]
    2d7e:	7a31      	ldrb	r1, [r6, #8]
    2d80:	9202      	str	r2, [sp, #8]
    2d82:	b2c0      	uxtb	r0, r0
    2d84:	7832      	ldrb	r2, [r6, #0]
    2d86:	4001      	ands	r1, r0
    2d88:	4011      	ands	r1, r2
    2d8a:	2260      	movs	r2, #96	; 0x60
    2d8c:	4210      	tst	r0, r2
    2d8e:	d01a      	beq.n	2dc6 <USB_Handler+0x326>
    2d90:	015a      	lsls	r2, r3, #5
    2d92:	18ad      	adds	r5, r5, r2
    2d94:	2240      	movs	r2, #64	; 0x40
    2d96:	35ff      	adds	r5, #255	; 0xff
    2d98:	7a28      	ldrb	r0, [r5, #8]
    2d9a:	4210      	tst	r0, r2
    2d9c:	d00d      	beq.n	2dba <USB_Handler+0x31a>
    2d9e:	722a      	strb	r2, [r5, #8]
    2da0:	3ac0      	subs	r2, #192	; 0xc0
    2da2:	4314      	orrs	r4, r2
    2da4:	4a1e      	ldr	r2, [pc, #120]	; (2e20 <USB_Handler+0x380>)
    2da6:	7194      	strb	r4, [r2, #6]
    2da8:	2260      	movs	r2, #96	; 0x60
    2daa:	4211      	tst	r1, r2
    2dac:	d100      	bne.n	2db0 <USB_Handler+0x310>
    2dae:	e147      	b.n	3040 <USB_Handler+0x5a0>
    2db0:	011b      	lsls	r3, r3, #4
    2db2:	18fb      	adds	r3, r7, r3
    2db4:	33e0      	adds	r3, #224	; 0xe0
    2db6:	681b      	ldr	r3, [r3, #0]
    2db8:	e052      	b.n	2e60 <USB_Handler+0x3c0>
    2dba:	2220      	movs	r2, #32
    2dbc:	7a28      	ldrb	r0, [r5, #8]
    2dbe:	4210      	tst	r0, r2
    2dc0:	d0f2      	beq.n	2da8 <USB_Handler+0x308>
    2dc2:	722a      	strb	r2, [r5, #8]
    2dc4:	e7ee      	b.n	2da4 <USB_Handler+0x304>
    2dc6:	2210      	movs	r2, #16
    2dc8:	4210      	tst	r0, r2
    2dca:	d02b      	beq.n	2e24 <USB_Handler+0x384>
    2dcc:	2110      	movs	r1, #16
    2dce:	9a03      	ldr	r2, [sp, #12]
    2dd0:	7011      	strb	r1, [r2, #0]
    2dd2:	2110      	movs	r1, #16
    2dd4:	18fa      	adds	r2, r7, r3
    2dd6:	3261      	adds	r2, #97	; 0x61
    2dd8:	32ff      	adds	r2, #255	; 0xff
    2dda:	7812      	ldrb	r2, [r2, #0]
    2ddc:	420a      	tst	r2, r1
    2dde:	d100      	bne.n	2de2 <USB_Handler+0x342>
    2de0:	e12e      	b.n	3040 <USB_Handler+0x5a0>
    2de2:	4a0b      	ldr	r2, [pc, #44]	; (2e10 <USB_Handler+0x370>)
    2de4:	0159      	lsls	r1, r3, #5
    2de6:	1852      	adds	r2, r2, r1
    2de8:	6852      	ldr	r2, [r2, #4]
    2dea:	011b      	lsls	r3, r3, #4
    2dec:	18fb      	adds	r3, r7, r3
    2dee:	0492      	lsls	r2, r2, #18
    2df0:	490b      	ldr	r1, [pc, #44]	; (2e20 <USB_Handler+0x380>)
    2df2:	33dc      	adds	r3, #220	; 0xdc
    2df4:	0c92      	lsrs	r2, r2, #18
    2df6:	681b      	ldr	r3, [r3, #0]
    2df8:	800a      	strh	r2, [r1, #0]
    2dfa:	0038      	movs	r0, r7
    2dfc:	e73e      	b.n	2c7c <USB_Handler+0x1dc>
    2dfe:	46c0      	nop			; (mov r8, r8)
    2e00:	20000718 	.word	0x20000718
    2e04:	000080d1 	.word	0x000080d1
    2e08:	20000728 	.word	0x20000728
    2e0c:	2000072c 	.word	0x2000072c
    2e10:	20003e38 	.word	0x20003e38
    2e14:	f0003fff 	.word	0xf0003fff
    2e18:	0000b72c 	.word	0x0000b72c
    2e1c:	2000071c 	.word	0x2000071c
    2e20:	20000720 	.word	0x20000720
    2e24:	2203      	movs	r2, #3
    2e26:	4210      	tst	r0, r2
    2e28:	d02e      	beq.n	2e88 <USB_Handler+0x3e8>
    2e2a:	2002      	movs	r0, #2
    2e2c:	015a      	lsls	r2, r3, #5
    2e2e:	18ad      	adds	r5, r5, r2
    2e30:	35ff      	adds	r5, #255	; 0xff
    2e32:	7a2e      	ldrb	r6, [r5, #8]
    2e34:	4206      	tst	r6, r0
    2e36:	d015      	beq.n	2e64 <USB_Handler+0x3c4>
    2e38:	7228      	strb	r0, [r5, #8]
    2e3a:	2580      	movs	r5, #128	; 0x80
    2e3c:	4881      	ldr	r0, [pc, #516]	; (3044 <USB_Handler+0x5a4>)
    2e3e:	426d      	negs	r5, r5
    2e40:	432c      	orrs	r4, r5
    2e42:	7184      	strb	r4, [r0, #6]
    2e44:	4c80      	ldr	r4, [pc, #512]	; (3048 <USB_Handler+0x5a8>)
    2e46:	18a2      	adds	r2, r4, r2
    2e48:	3210      	adds	r2, #16
    2e4a:	6852      	ldr	r2, [r2, #4]
    2e4c:	0492      	lsls	r2, r2, #18
    2e4e:	0c92      	lsrs	r2, r2, #18
    2e50:	8042      	strh	r2, [r0, #2]
    2e52:	078a      	lsls	r2, r1, #30
    2e54:	d100      	bne.n	2e58 <USB_Handler+0x3b8>
    2e56:	e0f3      	b.n	3040 <USB_Handler+0x5a0>
    2e58:	330d      	adds	r3, #13
    2e5a:	011b      	lsls	r3, r3, #4
    2e5c:	18fb      	adds	r3, r7, r3
    2e5e:	685b      	ldr	r3, [r3, #4]
    2e60:	4978      	ldr	r1, [pc, #480]	; (3044 <USB_Handler+0x5a4>)
    2e62:	e7ca      	b.n	2dfa <USB_Handler+0x35a>
    2e64:	2601      	movs	r6, #1
    2e66:	7a28      	ldrb	r0, [r5, #8]
    2e68:	4230      	tst	r0, r6
    2e6a:	d0f2      	beq.n	2e52 <USB_Handler+0x3b2>
    2e6c:	4875      	ldr	r0, [pc, #468]	; (3044 <USB_Handler+0x5a4>)
    2e6e:	722e      	strb	r6, [r5, #8]
    2e70:	7184      	strb	r4, [r0, #6]
    2e72:	4c75      	ldr	r4, [pc, #468]	; (3048 <USB_Handler+0x5a8>)
    2e74:	18a4      	adds	r4, r4, r2
    2e76:	6862      	ldr	r2, [r4, #4]
    2e78:	0492      	lsls	r2, r2, #18
    2e7a:	0c92      	lsrs	r2, r2, #18
    2e7c:	8002      	strh	r2, [r0, #0]
    2e7e:	6862      	ldr	r2, [r4, #4]
    2e80:	0112      	lsls	r2, r2, #4
    2e82:	0c92      	lsrs	r2, r2, #18
    2e84:	8082      	strh	r2, [r0, #4]
    2e86:	e7e4      	b.n	2e52 <USB_Handler+0x3b2>
    2e88:	220c      	movs	r2, #12
    2e8a:	4210      	tst	r0, r2
    2e8c:	d03d      	beq.n	2f0a <USB_Handler+0x46a>
    2e8e:	2008      	movs	r0, #8
    2e90:	015e      	lsls	r6, r3, #5
    2e92:	19ad      	adds	r5, r5, r6
    2e94:	35ff      	adds	r5, #255	; 0xff
    2e96:	7a2a      	ldrb	r2, [r5, #8]
    2e98:	4202      	tst	r2, r0
    2e9a:	d01e      	beq.n	2eda <USB_Handler+0x43a>
    2e9c:	7228      	strb	r0, [r5, #8]
    2e9e:	486a      	ldr	r0, [pc, #424]	; (3048 <USB_Handler+0x5a8>)
    2ea0:	1980      	adds	r0, r0, r6
    2ea2:	2602      	movs	r6, #2
    2ea4:	7e85      	ldrb	r5, [r0, #26]
    2ea6:	4235      	tst	r5, r6
    2ea8:	d002      	beq.n	2eb0 <USB_Handler+0x410>
    2eaa:	7e85      	ldrb	r5, [r0, #26]
    2eac:	43b5      	bics	r5, r6
    2eae:	7685      	strb	r5, [r0, #26]
    2eb0:	2080      	movs	r0, #128	; 0x80
    2eb2:	4240      	negs	r0, r0
    2eb4:	4304      	orrs	r4, r0
    2eb6:	4863      	ldr	r0, [pc, #396]	; (3044 <USB_Handler+0x5a4>)
    2eb8:	9a02      	ldr	r2, [sp, #8]
    2eba:	7184      	strb	r4, [r0, #6]
    2ebc:	6838      	ldr	r0, [r7, #0]
    2ebe:	0152      	lsls	r2, r2, #5
    2ec0:	1882      	adds	r2, r0, r2
    2ec2:	79d2      	ldrb	r2, [r2, #7]
    2ec4:	0792      	lsls	r2, r2, #30
    2ec6:	d500      	bpl.n	2eca <USB_Handler+0x42a>
    2ec8:	e0ba      	b.n	3040 <USB_Handler+0x5a0>
    2eca:	220c      	movs	r2, #12
    2ecc:	4211      	tst	r1, r2
    2ece:	d100      	bne.n	2ed2 <USB_Handler+0x432>
    2ed0:	e0b6      	b.n	3040 <USB_Handler+0x5a0>
    2ed2:	011b      	lsls	r3, r3, #4
    2ed4:	18fb      	adds	r3, r7, r3
    2ed6:	33d8      	adds	r3, #216	; 0xd8
    2ed8:	e76d      	b.n	2db6 <USB_Handler+0x316>
    2eda:	2004      	movs	r0, #4
    2edc:	7a2a      	ldrb	r2, [r5, #8]
    2ede:	4202      	tst	r2, r0
    2ee0:	d0f3      	beq.n	2eca <USB_Handler+0x42a>
    2ee2:	7228      	strb	r0, [r5, #8]
    2ee4:	4858      	ldr	r0, [pc, #352]	; (3048 <USB_Handler+0x5a8>)
    2ee6:	1980      	adds	r0, r0, r6
    2ee8:	2602      	movs	r6, #2
    2eea:	7a85      	ldrb	r5, [r0, #10]
    2eec:	4235      	tst	r5, r6
    2eee:	d002      	beq.n	2ef6 <USB_Handler+0x456>
    2ef0:	7a85      	ldrb	r5, [r0, #10]
    2ef2:	43b5      	bics	r5, r6
    2ef4:	7285      	strb	r5, [r0, #10]
    2ef6:	4853      	ldr	r0, [pc, #332]	; (3044 <USB_Handler+0x5a4>)
    2ef8:	9a02      	ldr	r2, [sp, #8]
    2efa:	7184      	strb	r4, [r0, #6]
    2efc:	6838      	ldr	r0, [r7, #0]
    2efe:	0152      	lsls	r2, r2, #5
    2f00:	1882      	adds	r2, r0, r2
    2f02:	79d2      	ldrb	r2, [r2, #7]
    2f04:	07d2      	lsls	r2, r2, #31
    2f06:	d5e0      	bpl.n	2eca <USB_Handler+0x42a>
    2f08:	e09a      	b.n	3040 <USB_Handler+0x5a0>
    2f0a:	3301      	adds	r3, #1
    2f0c:	3601      	adds	r6, #1
    2f0e:	2b08      	cmp	r3, #8
    2f10:	d000      	beq.n	2f14 <USB_Handler+0x474>
    2f12:	e726      	b.n	2d62 <USB_Handler+0x2c2>
    2f14:	e094      	b.n	3040 <USB_Handler+0x5a0>
    2f16:	2304      	movs	r3, #4
    2f18:	8bac      	ldrh	r4, [r5, #28]
    2f1a:	b2a4      	uxth	r4, r4
    2f1c:	421c      	tst	r4, r3
    2f1e:	d026      	beq.n	2f6e <USB_Handler+0x4ce>
    2f20:	83ab      	strh	r3, [r5, #28]
    2f22:	4b4a      	ldr	r3, [pc, #296]	; (304c <USB_Handler+0x5ac>)
    2f24:	681b      	ldr	r3, [r3, #0]
    2f26:	469c      	mov	ip, r3
    2f28:	2301      	movs	r3, #1
    2f2a:	001d      	movs	r5, r3
    2f2c:	002a      	movs	r2, r5
    2f2e:	4661      	mov	r1, ip
    2f30:	409a      	lsls	r2, r3
    2f32:	4211      	tst	r1, r2
    2f34:	d010      	beq.n	2f58 <USB_Handler+0x4b8>
    2f36:	0019      	movs	r1, r3
    2f38:	683a      	ldr	r2, [r7, #0]
    2f3a:	3108      	adds	r1, #8
    2f3c:	0149      	lsls	r1, r1, #5
    2f3e:	5c88      	ldrb	r0, [r1, r2]
    2f40:	0680      	lsls	r0, r0, #26
    2f42:	0f40      	lsrs	r0, r0, #29
    2f44:	2803      	cmp	r0, #3
    2f46:	d107      	bne.n	2f58 <USB_Handler+0x4b8>
    2f48:	5c88      	ldrb	r0, [r1, r2]
    2f4a:	0780      	lsls	r0, r0, #30
    2f4c:	0f80      	lsrs	r0, r0, #30
    2f4e:	2801      	cmp	r0, #1
    2f50:	d102      	bne.n	2f58 <USB_Handler+0x4b8>
    2f52:	1852      	adds	r2, r2, r1
    2f54:	2110      	movs	r1, #16
    2f56:	7111      	strb	r1, [r2, #4]
    2f58:	3301      	adds	r3, #1
    2f5a:	2b08      	cmp	r3, #8
    2f5c:	d1e6      	bne.n	2f2c <USB_Handler+0x48c>
    2f5e:	003b      	movs	r3, r7
    2f60:	33a5      	adds	r3, #165	; 0xa5
    2f62:	781b      	ldrb	r3, [r3, #0]
    2f64:	07db      	lsls	r3, r3, #31
    2f66:	d502      	bpl.n	2f6e <USB_Handler+0x4ce>
    2f68:	687b      	ldr	r3, [r7, #4]
    2f6a:	0038      	movs	r0, r7
    2f6c:	4798      	blx	r3
    2f6e:	2308      	movs	r3, #8
    2f70:	421c      	tst	r4, r3
    2f72:	d00c      	beq.n	2f8e <USB_Handler+0x4ee>
    2f74:	2100      	movs	r1, #0
    2f76:	4a35      	ldr	r2, [pc, #212]	; (304c <USB_Handler+0x5ac>)
    2f78:	6830      	ldr	r0, [r6, #0]
    2f7a:	6011      	str	r1, [r2, #0]
    2f7c:	6802      	ldr	r2, [r0, #0]
    2f7e:	8393      	strh	r3, [r2, #28]
    2f80:	0003      	movs	r3, r0
    2f82:	33a5      	adds	r3, #165	; 0xa5
    2f84:	781b      	ldrb	r3, [r3, #0]
    2f86:	079b      	lsls	r3, r3, #30
    2f88:	d501      	bpl.n	2f8e <USB_Handler+0x4ee>
    2f8a:	6883      	ldr	r3, [r0, #8]
    2f8c:	4798      	blx	r3
    2f8e:	2340      	movs	r3, #64	; 0x40
    2f90:	421c      	tst	r4, r3
    2f92:	d009      	beq.n	2fa8 <USB_Handler+0x508>
    2f94:	6830      	ldr	r0, [r6, #0]
    2f96:	6802      	ldr	r2, [r0, #0]
    2f98:	8393      	strh	r3, [r2, #28]
    2f9a:	0003      	movs	r3, r0
    2f9c:	33a5      	adds	r3, #165	; 0xa5
    2f9e:	781b      	ldrb	r3, [r3, #0]
    2fa0:	06db      	lsls	r3, r3, #27
    2fa2:	d501      	bpl.n	2fa8 <USB_Handler+0x508>
    2fa4:	6943      	ldr	r3, [r0, #20]
    2fa6:	4798      	blx	r3
    2fa8:	2320      	movs	r3, #32
    2faa:	421c      	tst	r4, r3
    2fac:	d009      	beq.n	2fc2 <USB_Handler+0x522>
    2fae:	6830      	ldr	r0, [r6, #0]
    2fb0:	6802      	ldr	r2, [r0, #0]
    2fb2:	8393      	strh	r3, [r2, #28]
    2fb4:	0003      	movs	r3, r0
    2fb6:	33a5      	adds	r3, #165	; 0xa5
    2fb8:	781b      	ldrb	r3, [r3, #0]
    2fba:	071b      	lsls	r3, r3, #28
    2fbc:	d501      	bpl.n	2fc2 <USB_Handler+0x522>
    2fbe:	6903      	ldr	r3, [r0, #16]
    2fc0:	4798      	blx	r3
    2fc2:	2310      	movs	r3, #16
    2fc4:	421c      	tst	r4, r3
    2fc6:	d009      	beq.n	2fdc <USB_Handler+0x53c>
    2fc8:	6830      	ldr	r0, [r6, #0]
    2fca:	6802      	ldr	r2, [r0, #0]
    2fcc:	8393      	strh	r3, [r2, #28]
    2fce:	0003      	movs	r3, r0
    2fd0:	33a5      	adds	r3, #165	; 0xa5
    2fd2:	781b      	ldrb	r3, [r3, #0]
    2fd4:	075b      	lsls	r3, r3, #29
    2fd6:	d501      	bpl.n	2fdc <USB_Handler+0x53c>
    2fd8:	68c3      	ldr	r3, [r0, #12]
    2fda:	4798      	blx	r3
    2fdc:	2380      	movs	r3, #128	; 0x80
    2fde:	421c      	tst	r4, r3
    2fe0:	d00c      	beq.n	2ffc <USB_Handler+0x55c>
    2fe2:	2100      	movs	r1, #0
    2fe4:	4a19      	ldr	r2, [pc, #100]	; (304c <USB_Handler+0x5ac>)
    2fe6:	6830      	ldr	r0, [r6, #0]
    2fe8:	6011      	str	r1, [r2, #0]
    2fea:	6802      	ldr	r2, [r0, #0]
    2fec:	8393      	strh	r3, [r2, #28]
    2fee:	0003      	movs	r3, r0
    2ff0:	33a5      	adds	r3, #165	; 0xa5
    2ff2:	781b      	ldrb	r3, [r3, #0]
    2ff4:	069b      	lsls	r3, r3, #26
    2ff6:	d501      	bpl.n	2ffc <USB_Handler+0x55c>
    2ff8:	6983      	ldr	r3, [r0, #24]
    2ffa:	4798      	blx	r3
    2ffc:	2380      	movs	r3, #128	; 0x80
    2ffe:	005b      	lsls	r3, r3, #1
    3000:	421c      	tst	r4, r3
    3002:	d00c      	beq.n	301e <USB_Handler+0x57e>
    3004:	2100      	movs	r1, #0
    3006:	4a11      	ldr	r2, [pc, #68]	; (304c <USB_Handler+0x5ac>)
    3008:	6830      	ldr	r0, [r6, #0]
    300a:	6011      	str	r1, [r2, #0]
    300c:	6802      	ldr	r2, [r0, #0]
    300e:	8393      	strh	r3, [r2, #28]
    3010:	0003      	movs	r3, r0
    3012:	33a5      	adds	r3, #165	; 0xa5
    3014:	781b      	ldrb	r3, [r3, #0]
    3016:	065b      	lsls	r3, r3, #25
    3018:	d501      	bpl.n	301e <USB_Handler+0x57e>
    301a:	69c3      	ldr	r3, [r0, #28]
    301c:	4798      	blx	r3
    301e:	2380      	movs	r3, #128	; 0x80
    3020:	009b      	lsls	r3, r3, #2
    3022:	421c      	tst	r4, r3
    3024:	d00c      	beq.n	3040 <USB_Handler+0x5a0>
    3026:	2100      	movs	r1, #0
    3028:	4a08      	ldr	r2, [pc, #32]	; (304c <USB_Handler+0x5ac>)
    302a:	6830      	ldr	r0, [r6, #0]
    302c:	6011      	str	r1, [r2, #0]
    302e:	6802      	ldr	r2, [r0, #0]
    3030:	8393      	strh	r3, [r2, #28]
    3032:	0003      	movs	r3, r0
    3034:	33a5      	adds	r3, #165	; 0xa5
    3036:	781b      	ldrb	r3, [r3, #0]
    3038:	2b7f      	cmp	r3, #127	; 0x7f
    303a:	d901      	bls.n	3040 <USB_Handler+0x5a0>
    303c:	6a03      	ldr	r3, [r0, #32]
    303e:	4798      	blx	r3
    3040:	b005      	add	sp, #20
    3042:	bdf0      	pop	{r4, r5, r6, r7, pc}
    3044:	20000720 	.word	0x20000720
    3048:	20003e38 	.word	0x20003e38
    304c:	20000728 	.word	0x20000728

00003050 <usb_get_config_defaults>:
    3050:	2200      	movs	r2, #0
    3052:	2301      	movs	r3, #1
    3054:	7002      	strb	r2, [r0, #0]
    3056:	7043      	strb	r3, [r0, #1]
    3058:	7082      	strb	r2, [r0, #2]
    305a:	70c3      	strb	r3, [r0, #3]
    305c:	4770      	bx	lr
	...

00003060 <usb_init>:
    3060:	2300      	movs	r3, #0
    3062:	b5f7      	push	{r0, r1, r2, r4, r5, r6, r7, lr}
    3064:	0004      	movs	r4, r0
    3066:	0017      	movs	r7, r2
    3068:	4a69      	ldr	r2, [pc, #420]	; (3210 <usb_init+0x1b0>)
    306a:	000d      	movs	r5, r1
    306c:	6013      	str	r3, [r2, #0]
    306e:	4a69      	ldr	r2, [pc, #420]	; (3214 <usb_init+0x1b4>)
    3070:	6021      	str	r1, [r4, #0]
    3072:	6010      	str	r0, [r2, #0]
    3074:	2220      	movs	r2, #32
    3076:	4968      	ldr	r1, [pc, #416]	; (3218 <usb_init+0x1b8>)
    3078:	ae01      	add	r6, sp, #4
    307a:	69c8      	ldr	r0, [r1, #28]
    307c:	4302      	orrs	r2, r0
    307e:	61ca      	str	r2, [r1, #28]
    3080:	2201      	movs	r2, #1
    3082:	7073      	strb	r3, [r6, #1]
    3084:	70f3      	strb	r3, [r6, #3]
    3086:	3306      	adds	r3, #6
    3088:	7033      	strb	r3, [r6, #0]
    308a:	0031      	movs	r1, r6
    308c:	2018      	movs	r0, #24
    308e:	4b63      	ldr	r3, [pc, #396]	; (321c <usb_init+0x1bc>)
    3090:	70b2      	strb	r2, [r6, #2]
    3092:	4798      	blx	r3
    3094:	2306      	movs	r3, #6
    3096:	0031      	movs	r1, r6
    3098:	7033      	strb	r3, [r6, #0]
    309a:	2019      	movs	r0, #25
    309c:	4b5f      	ldr	r3, [pc, #380]	; (321c <usb_init+0x1bc>)
    309e:	4798      	blx	r3
    30a0:	466a      	mov	r2, sp
    30a2:	78bb      	ldrb	r3, [r7, #2]
    30a4:	4669      	mov	r1, sp
    30a6:	7013      	strb	r3, [r2, #0]
    30a8:	2006      	movs	r0, #6
    30aa:	4b5d      	ldr	r3, [pc, #372]	; (3220 <usb_init+0x1c0>)
    30ac:	4798      	blx	r3
    30ae:	4b5d      	ldr	r3, [pc, #372]	; (3224 <usb_init+0x1c4>)
    30b0:	2006      	movs	r0, #6
    30b2:	4798      	blx	r3
    30b4:	2201      	movs	r2, #1
    30b6:	782b      	ldrb	r3, [r5, #0]
    30b8:	4313      	orrs	r3, r2
    30ba:	702b      	strb	r3, [r5, #0]
    30bc:	78ab      	ldrb	r3, [r5, #2]
    30be:	07db      	lsls	r3, r3, #31
    30c0:	d4fc      	bmi.n	30bc <usb_init+0x5c>
    30c2:	2103      	movs	r1, #3
    30c4:	4b58      	ldr	r3, [pc, #352]	; (3228 <usb_init+0x1c8>)
    30c6:	78da      	ldrb	r2, [r3, #3]
    30c8:	438a      	bics	r2, r1
    30ca:	0011      	movs	r1, r2
    30cc:	2202      	movs	r2, #2
    30ce:	430a      	orrs	r2, r1
    30d0:	210c      	movs	r1, #12
    30d2:	70da      	strb	r2, [r3, #3]
    30d4:	78da      	ldrb	r2, [r3, #3]
    30d6:	438a      	bics	r2, r1
    30d8:	0011      	movs	r1, r2
    30da:	2208      	movs	r2, #8
    30dc:	430a      	orrs	r2, r1
    30de:	211f      	movs	r1, #31
    30e0:	70da      	strb	r2, [r3, #3]
    30e2:	4a52      	ldr	r2, [pc, #328]	; (322c <usb_init+0x1cc>)
    30e4:	6813      	ldr	r3, [r2, #0]
    30e6:	0b5b      	lsrs	r3, r3, #13
    30e8:	400b      	ands	r3, r1
    30ea:	428b      	cmp	r3, r1
    30ec:	d100      	bne.n	30f0 <usb_init+0x90>
    30ee:	2305      	movs	r3, #5
    30f0:	8d28      	ldrh	r0, [r5, #40]	; 0x28
    30f2:	4e4f      	ldr	r6, [pc, #316]	; (3230 <usb_init+0x1d0>)
    30f4:	400b      	ands	r3, r1
    30f6:	019b      	lsls	r3, r3, #6
    30f8:	4030      	ands	r0, r6
    30fa:	4303      	orrs	r3, r0
    30fc:	852b      	strh	r3, [r5, #40]	; 0x28
    30fe:	6813      	ldr	r3, [r2, #0]
    3100:	0c9b      	lsrs	r3, r3, #18
    3102:	400b      	ands	r3, r1
    3104:	2b1f      	cmp	r3, #31
    3106:	d100      	bne.n	310a <usb_init+0xaa>
    3108:	3b02      	subs	r3, #2
    310a:	201f      	movs	r0, #31
    310c:	8d29      	ldrh	r1, [r5, #40]	; 0x28
    310e:	4003      	ands	r3, r0
    3110:	4381      	bics	r1, r0
    3112:	430b      	orrs	r3, r1
    3114:	2107      	movs	r1, #7
    3116:	852b      	strh	r3, [r5, #40]	; 0x28
    3118:	6813      	ldr	r3, [r2, #0]
    311a:	0ddb      	lsrs	r3, r3, #23
    311c:	400b      	ands	r3, r1
    311e:	428b      	cmp	r3, r1
    3120:	d100      	bne.n	3124 <usb_init+0xc4>
    3122:	2303      	movs	r3, #3
    3124:	8d2a      	ldrh	r2, [r5, #40]	; 0x28
    3126:	400b      	ands	r3, r1
    3128:	4942      	ldr	r1, [pc, #264]	; (3234 <usb_init+0x1d4>)
    312a:	031b      	lsls	r3, r3, #12
    312c:	400a      	ands	r2, r1
    312e:	217f      	movs	r1, #127	; 0x7f
    3130:	4313      	orrs	r3, r2
    3132:	852b      	strh	r3, [r5, #40]	; 0x28
    3134:	782b      	ldrb	r3, [r5, #0]
    3136:	783a      	ldrb	r2, [r7, #0]
    3138:	400b      	ands	r3, r1
    313a:	01d2      	lsls	r2, r2, #7
    313c:	4313      	orrs	r3, r2
    313e:	702b      	strb	r3, [r5, #0]
    3140:	787a      	ldrb	r2, [r7, #1]
    3142:	782b      	ldrb	r3, [r5, #0]
    3144:	397e      	subs	r1, #126	; 0x7e
    3146:	400a      	ands	r2, r1
    3148:	3103      	adds	r1, #3
    314a:	0092      	lsls	r2, r2, #2
    314c:	438b      	bics	r3, r1
    314e:	483a      	ldr	r0, [pc, #232]	; (3238 <usb_init+0x1d8>)
    3150:	4313      	orrs	r3, r2
    3152:	702b      	strb	r3, [r5, #0]
    3154:	6268      	str	r0, [r5, #36]	; 0x24
    3156:	78fb      	ldrb	r3, [r7, #3]
    3158:	2b01      	cmp	r3, #1
    315a:	d14f      	bne.n	31fc <usb_init+0x19c>
    315c:	6822      	ldr	r2, [r4, #0]
    315e:	3108      	adds	r1, #8
    3160:	8913      	ldrh	r3, [r2, #8]
    3162:	438b      	bics	r3, r1
    3164:	8113      	strh	r3, [r2, #8]
    3166:	2280      	movs	r2, #128	; 0x80
    3168:	2100      	movs	r1, #0
    316a:	0052      	lsls	r2, r2, #1
    316c:	4b33      	ldr	r3, [pc, #204]	; (323c <usb_init+0x1dc>)
    316e:	4798      	blx	r3
    3170:	0022      	movs	r2, r4
    3172:	2100      	movs	r1, #0
    3174:	1d23      	adds	r3, r4, #4
    3176:	3224      	adds	r2, #36	; 0x24
    3178:	c302      	stmia	r3!, {r1}
    317a:	4293      	cmp	r3, r2
    317c:	d1fc      	bne.n	3178 <usb_init+0x118>
    317e:	0021      	movs	r1, r4
    3180:	2200      	movs	r2, #0
    3182:	31a4      	adds	r1, #164	; 0xa4
    3184:	601a      	str	r2, [r3, #0]
    3186:	605a      	str	r2, [r3, #4]
    3188:	609a      	str	r2, [r3, #8]
    318a:	60da      	str	r2, [r3, #12]
    318c:	3310      	adds	r3, #16
    318e:	428b      	cmp	r3, r1
    3190:	d1f8      	bne.n	3184 <usb_init+0x124>
    3192:	701a      	strb	r2, [r3, #0]
    3194:	0023      	movs	r3, r4
    3196:	0021      	movs	r1, r4
    3198:	33a5      	adds	r3, #165	; 0xa5
    319a:	701a      	strb	r2, [r3, #0]
    319c:	2200      	movs	r2, #0
    319e:	3301      	adds	r3, #1
    31a0:	31ae      	adds	r1, #174	; 0xae
    31a2:	701a      	strb	r2, [r3, #0]
    31a4:	721a      	strb	r2, [r3, #8]
    31a6:	3301      	adds	r3, #1
    31a8:	428b      	cmp	r3, r1
    31aa:	d1fa      	bne.n	31a2 <usb_init+0x142>
    31ac:	0023      	movs	r3, r4
    31ae:	0022      	movs	r2, r4
    31b0:	2100      	movs	r1, #0
    31b2:	33b8      	adds	r3, #184	; 0xb8
    31b4:	32d4      	adds	r2, #212	; 0xd4
    31b6:	c302      	stmia	r3!, {r1}
    31b8:	4293      	cmp	r3, r2
    31ba:	d1fc      	bne.n	31b6 <usb_init+0x156>
    31bc:	0021      	movs	r1, r4
    31be:	2200      	movs	r2, #0
    31c0:	3155      	adds	r1, #85	; 0x55
    31c2:	31ff      	adds	r1, #255	; 0xff
    31c4:	601a      	str	r2, [r3, #0]
    31c6:	605a      	str	r2, [r3, #4]
    31c8:	609a      	str	r2, [r3, #8]
    31ca:	60da      	str	r2, [r3, #12]
    31cc:	3310      	adds	r3, #16
    31ce:	4299      	cmp	r1, r3
    31d0:	d1f8      	bne.n	31c4 <usb_init+0x164>
    31d2:	23aa      	movs	r3, #170	; 0xaa
    31d4:	005b      	lsls	r3, r3, #1
    31d6:	52e2      	strh	r2, [r4, r3]
    31d8:	3302      	adds	r3, #2
    31da:	52e2      	strh	r2, [r4, r3]
    31dc:	0023      	movs	r3, r4
    31de:	2200      	movs	r2, #0
    31e0:	3359      	adds	r3, #89	; 0x59
    31e2:	3461      	adds	r4, #97	; 0x61
    31e4:	33ff      	adds	r3, #255	; 0xff
    31e6:	34ff      	adds	r4, #255	; 0xff
    31e8:	701a      	strb	r2, [r3, #0]
    31ea:	721a      	strb	r2, [r3, #8]
    31ec:	3301      	adds	r3, #1
    31ee:	429c      	cmp	r4, r3
    31f0:	d1fa      	bne.n	31e8 <usb_init+0x188>
    31f2:	2280      	movs	r2, #128	; 0x80
    31f4:	4b12      	ldr	r3, [pc, #72]	; (3240 <usb_init+0x1e0>)
    31f6:	2000      	movs	r0, #0
    31f8:	601a      	str	r2, [r3, #0]
    31fa:	bdfe      	pop	{r1, r2, r3, r4, r5, r6, r7, pc}
    31fc:	2b00      	cmp	r3, #0
    31fe:	d1b2      	bne.n	3166 <usb_init+0x106>
    3200:	250c      	movs	r5, #12
    3202:	6822      	ldr	r2, [r4, #0]
    3204:	8913      	ldrh	r3, [r2, #8]
    3206:	43ab      	bics	r3, r5
    3208:	4319      	orrs	r1, r3
    320a:	8111      	strh	r1, [r2, #8]
    320c:	e7ab      	b.n	3166 <usb_init+0x106>
    320e:	46c0      	nop			; (mov r8, r8)
    3210:	20000728 	.word	0x20000728
    3214:	20000718 	.word	0x20000718
    3218:	40000400 	.word	0x40000400
    321c:	00007a6d 	.word	0x00007a6d
    3220:	00007969 	.word	0x00007969
    3224:	000078e1 	.word	0x000078e1
    3228:	41005000 	.word	0x41005000
    322c:	00806024 	.word	0x00806024
    3230:	fffff83f 	.word	0xfffff83f
    3234:	ffff8fff 	.word	0xffff8fff
    3238:	20003e38 	.word	0x20003e38
    323c:	0000ae27 	.word	0x0000ae27
    3240:	e000e100 	.word	0xe000e100

00003244 <prvTaskExitError>:
    3244:	2300      	movs	r3, #0
    3246:	b082      	sub	sp, #8
    3248:	9301      	str	r3, [sp, #4]
    324a:	4b06      	ldr	r3, [pc, #24]	; (3264 <prvTaskExitError+0x20>)
    324c:	681b      	ldr	r3, [r3, #0]
    324e:	3301      	adds	r3, #1
    3250:	d001      	beq.n	3256 <prvTaskExitError+0x12>
    3252:	b672      	cpsid	i
    3254:	e7fe      	b.n	3254 <prvTaskExitError+0x10>
    3256:	b672      	cpsid	i
    3258:	9b01      	ldr	r3, [sp, #4]
    325a:	2b00      	cmp	r3, #0
    325c:	d0fc      	beq.n	3258 <prvTaskExitError+0x14>
    325e:	b002      	add	sp, #8
    3260:	4770      	bx	lr
    3262:	46c0      	nop			; (mov r8, r8)
    3264:	200000b8 	.word	0x200000b8
	...

00003270 <vPortStartFirstTask>:
    3270:	4a0b      	ldr	r2, [pc, #44]	; (32a0 <pxCurrentTCBConst2>)
    3272:	6813      	ldr	r3, [r2, #0]
    3274:	6818      	ldr	r0, [r3, #0]
    3276:	3020      	adds	r0, #32
    3278:	f380 8809 	msr	PSP, r0
    327c:	2002      	movs	r0, #2
    327e:	f380 8814 	msr	CONTROL, r0
    3282:	f3bf 8f6f 	isb	sy
    3286:	bc3f      	pop	{r0, r1, r2, r3, r4, r5}
    3288:	46ae      	mov	lr, r5
    328a:	bc08      	pop	{r3}
    328c:	bc04      	pop	{r2}
    328e:	b662      	cpsie	i
    3290:	4718      	bx	r3
    3292:	46c0      	nop			; (mov r8, r8)
    3294:	46c0      	nop			; (mov r8, r8)
    3296:	46c0      	nop			; (mov r8, r8)
    3298:	46c0      	nop			; (mov r8, r8)
    329a:	46c0      	nop			; (mov r8, r8)
    329c:	46c0      	nop			; (mov r8, r8)
    329e:	46c0      	nop			; (mov r8, r8)

000032a0 <pxCurrentTCBConst2>:
    32a0:	200039dc 	.word	0x200039dc

000032a4 <pxPortInitialiseStack>:
    32a4:	b510      	push	{r4, lr}
    32a6:	2480      	movs	r4, #128	; 0x80
    32a8:	1f03      	subs	r3, r0, #4
    32aa:	0464      	lsls	r4, r4, #17
    32ac:	601c      	str	r4, [r3, #0]
    32ae:	3b04      	subs	r3, #4
    32b0:	6019      	str	r1, [r3, #0]
    32b2:	4903      	ldr	r1, [pc, #12]	; (32c0 <pxPortInitialiseStack+0x1c>)
    32b4:	3b04      	subs	r3, #4
    32b6:	6019      	str	r1, [r3, #0]
    32b8:	3b14      	subs	r3, #20
    32ba:	3840      	subs	r0, #64	; 0x40
    32bc:	601a      	str	r2, [r3, #0]
    32be:	bd10      	pop	{r4, pc}
    32c0:	00003245 	.word	0x00003245

000032c4 <SVC_Handler>:
    32c4:	4770      	bx	lr
	...

000032c8 <xPortStartScheduler>:
    32c8:	22ff      	movs	r2, #255	; 0xff
    32ca:	b510      	push	{r4, lr}
    32cc:	4b0e      	ldr	r3, [pc, #56]	; (3308 <xPortStartScheduler+0x40>)
    32ce:	0412      	lsls	r2, r2, #16
    32d0:	6819      	ldr	r1, [r3, #0]
    32d2:	2400      	movs	r4, #0
    32d4:	430a      	orrs	r2, r1
    32d6:	601a      	str	r2, [r3, #0]
    32d8:	22ff      	movs	r2, #255	; 0xff
    32da:	6819      	ldr	r1, [r3, #0]
    32dc:	0612      	lsls	r2, r2, #24
    32de:	430a      	orrs	r2, r1
    32e0:	601a      	str	r2, [r3, #0]
    32e2:	4b0a      	ldr	r3, [pc, #40]	; (330c <xPortStartScheduler+0x44>)
    32e4:	4a0a      	ldr	r2, [pc, #40]	; (3310 <xPortStartScheduler+0x48>)
    32e6:	601c      	str	r4, [r3, #0]
    32e8:	490a      	ldr	r1, [pc, #40]	; (3314 <xPortStartScheduler+0x4c>)
    32ea:	6014      	str	r4, [r2, #0]
    32ec:	4a0a      	ldr	r2, [pc, #40]	; (3318 <xPortStartScheduler+0x50>)
    32ee:	6011      	str	r1, [r2, #0]
    32f0:	2207      	movs	r2, #7
    32f2:	601a      	str	r2, [r3, #0]
    32f4:	4b09      	ldr	r3, [pc, #36]	; (331c <xPortStartScheduler+0x54>)
    32f6:	601c      	str	r4, [r3, #0]
    32f8:	4b09      	ldr	r3, [pc, #36]	; (3320 <xPortStartScheduler+0x58>)
    32fa:	4798      	blx	r3
    32fc:	4b09      	ldr	r3, [pc, #36]	; (3324 <xPortStartScheduler+0x5c>)
    32fe:	4798      	blx	r3
    3300:	4b09      	ldr	r3, [pc, #36]	; (3328 <xPortStartScheduler+0x60>)
    3302:	4798      	blx	r3
    3304:	0020      	movs	r0, r4
    3306:	bd10      	pop	{r4, pc}
    3308:	e000ed20 	.word	0xe000ed20
    330c:	e000e010 	.word	0xe000e010
    3310:	e000e018 	.word	0xe000e018
    3314:	0000bb7f 	.word	0x0000bb7f
    3318:	e000e014 	.word	0xe000e014
    331c:	200000b8 	.word	0x200000b8
    3320:	00003271 	.word	0x00003271
    3324:	00006031 	.word	0x00006031
    3328:	00003245 	.word	0x00003245

0000332c <vPortYield>:
    332c:	2280      	movs	r2, #128	; 0x80
    332e:	4b04      	ldr	r3, [pc, #16]	; (3340 <vPortYield+0x14>)
    3330:	0552      	lsls	r2, r2, #21
    3332:	601a      	str	r2, [r3, #0]
    3334:	f3bf 8f4f 	dsb	sy
    3338:	f3bf 8f6f 	isb	sy
    333c:	4770      	bx	lr
    333e:	46c0      	nop			; (mov r8, r8)
    3340:	e000ed04 	.word	0xe000ed04

00003344 <vPortEnterCritical>:
    3344:	b672      	cpsid	i
    3346:	4a04      	ldr	r2, [pc, #16]	; (3358 <vPortEnterCritical+0x14>)
    3348:	6813      	ldr	r3, [r2, #0]
    334a:	3301      	adds	r3, #1
    334c:	6013      	str	r3, [r2, #0]
    334e:	f3bf 8f4f 	dsb	sy
    3352:	f3bf 8f6f 	isb	sy
    3356:	4770      	bx	lr
    3358:	200000b8 	.word	0x200000b8

0000335c <vPortExitCritical>:
    335c:	4a05      	ldr	r2, [pc, #20]	; (3374 <vPortExitCritical+0x18>)
    335e:	6813      	ldr	r3, [r2, #0]
    3360:	2b00      	cmp	r3, #0
    3362:	d101      	bne.n	3368 <vPortExitCritical+0xc>
    3364:	b672      	cpsid	i
    3366:	e7fe      	b.n	3366 <vPortExitCritical+0xa>
    3368:	3b01      	subs	r3, #1
    336a:	6013      	str	r3, [r2, #0]
    336c:	2b00      	cmp	r3, #0
    336e:	d100      	bne.n	3372 <vPortExitCritical+0x16>
    3370:	b662      	cpsie	i
    3372:	4770      	bx	lr
    3374:	200000b8 	.word	0x200000b8

00003378 <ulSetInterruptMaskFromISR>:
    3378:	f3ef 8010 	mrs	r0, PRIMASK
    337c:	b672      	cpsid	i
    337e:	4770      	bx	lr

00003380 <vClearInterruptMaskFromISR>:
    3380:	f380 8810 	msr	PRIMASK, r0
    3384:	4770      	bx	lr
	...

00003390 <PendSV_Handler>:
    3390:	f3ef 8009 	mrs	r0, PSP
    3394:	4b0e      	ldr	r3, [pc, #56]	; (33d0 <pxCurrentTCBConst>)
    3396:	681a      	ldr	r2, [r3, #0]
    3398:	3820      	subs	r0, #32
    339a:	6010      	str	r0, [r2, #0]
    339c:	c0f0      	stmia	r0!, {r4, r5, r6, r7}
    339e:	4644      	mov	r4, r8
    33a0:	464d      	mov	r5, r9
    33a2:	4656      	mov	r6, sl
    33a4:	465f      	mov	r7, fp
    33a6:	c0f0      	stmia	r0!, {r4, r5, r6, r7}
    33a8:	b508      	push	{r3, lr}
    33aa:	b672      	cpsid	i
    33ac:	f002 fe40 	bl	6030 <vTaskSwitchContext>
    33b0:	b662      	cpsie	i
    33b2:	bc0c      	pop	{r2, r3}
    33b4:	6811      	ldr	r1, [r2, #0]
    33b6:	6808      	ldr	r0, [r1, #0]
    33b8:	3010      	adds	r0, #16
    33ba:	c8f0      	ldmia	r0!, {r4, r5, r6, r7}
    33bc:	46a0      	mov	r8, r4
    33be:	46a9      	mov	r9, r5
    33c0:	46b2      	mov	sl, r6
    33c2:	46bb      	mov	fp, r7
    33c4:	f380 8809 	msr	PSP, r0
    33c8:	3820      	subs	r0, #32
    33ca:	c8f0      	ldmia	r0!, {r4, r5, r6, r7}
    33cc:	4718      	bx	r3
    33ce:	46c0      	nop			; (mov r8, r8)

000033d0 <pxCurrentTCBConst>:
    33d0:	200039dc 	.word	0x200039dc

000033d4 <SysTick_Handler>:
    33d4:	b510      	push	{r4, lr}
    33d6:	4b07      	ldr	r3, [pc, #28]	; (33f4 <SysTick_Handler+0x20>)
    33d8:	4798      	blx	r3
    33da:	4b07      	ldr	r3, [pc, #28]	; (33f8 <SysTick_Handler+0x24>)
    33dc:	0004      	movs	r4, r0
    33de:	4798      	blx	r3
    33e0:	2800      	cmp	r0, #0
    33e2:	d003      	beq.n	33ec <SysTick_Handler+0x18>
    33e4:	2280      	movs	r2, #128	; 0x80
    33e6:	4b05      	ldr	r3, [pc, #20]	; (33fc <SysTick_Handler+0x28>)
    33e8:	0552      	lsls	r2, r2, #21
    33ea:	601a      	str	r2, [r3, #0]
    33ec:	0020      	movs	r0, r4
    33ee:	4b04      	ldr	r3, [pc, #16]	; (3400 <SysTick_Handler+0x2c>)
    33f0:	4798      	blx	r3
    33f2:	bd10      	pop	{r4, pc}
    33f4:	00003379 	.word	0x00003379
    33f8:	00005d6d 	.word	0x00005d6d
    33fc:	e000ed04 	.word	0xe000ed04
    3400:	00003381 	.word	0x00003381

00003404 <prvInsertBlockIntoFreeList>:
    3404:	b510      	push	{r4, lr}
    3406:	4b10      	ldr	r3, [pc, #64]	; (3448 <prvInsertBlockIntoFreeList+0x44>)
    3408:	681a      	ldr	r2, [r3, #0]
    340a:	4282      	cmp	r2, r0
    340c:	d319      	bcc.n	3442 <prvInsertBlockIntoFreeList+0x3e>
    340e:	685c      	ldr	r4, [r3, #4]
    3410:	1919      	adds	r1, r3, r4
    3412:	4288      	cmp	r0, r1
    3414:	d103      	bne.n	341e <prvInsertBlockIntoFreeList+0x1a>
    3416:	6841      	ldr	r1, [r0, #4]
    3418:	0018      	movs	r0, r3
    341a:	1909      	adds	r1, r1, r4
    341c:	6059      	str	r1, [r3, #4]
    341e:	6841      	ldr	r1, [r0, #4]
    3420:	1844      	adds	r4, r0, r1
    3422:	42a2      	cmp	r2, r4
    3424:	d108      	bne.n	3438 <prvInsertBlockIntoFreeList+0x34>
    3426:	4c09      	ldr	r4, [pc, #36]	; (344c <prvInsertBlockIntoFreeList+0x48>)
    3428:	6824      	ldr	r4, [r4, #0]
    342a:	42a2      	cmp	r2, r4
    342c:	d004      	beq.n	3438 <prvInsertBlockIntoFreeList+0x34>
    342e:	6852      	ldr	r2, [r2, #4]
    3430:	1852      	adds	r2, r2, r1
    3432:	6042      	str	r2, [r0, #4]
    3434:	681a      	ldr	r2, [r3, #0]
    3436:	6812      	ldr	r2, [r2, #0]
    3438:	6002      	str	r2, [r0, #0]
    343a:	4298      	cmp	r0, r3
    343c:	d000      	beq.n	3440 <prvInsertBlockIntoFreeList+0x3c>
    343e:	6018      	str	r0, [r3, #0]
    3440:	bd10      	pop	{r4, pc}
    3442:	0013      	movs	r3, r2
    3444:	e7e0      	b.n	3408 <prvInsertBlockIntoFreeList+0x4>
    3446:	46c0      	nop			; (mov r8, r8)
    3448:	20003624 	.word	0x20003624
    344c:	20000734 	.word	0x20000734

00003450 <pvPortMalloc>:
    3450:	b5f7      	push	{r0, r1, r2, r4, r5, r6, r7, lr}
    3452:	4b3a      	ldr	r3, [pc, #232]	; (353c <pvPortMalloc+0xec>)
    3454:	0004      	movs	r4, r0
    3456:	4798      	blx	r3
    3458:	4a39      	ldr	r2, [pc, #228]	; (3540 <pvPortMalloc+0xf0>)
    345a:	483a      	ldr	r0, [pc, #232]	; (3544 <pvPortMalloc+0xf4>)
    345c:	6813      	ldr	r3, [r2, #0]
    345e:	2b00      	cmp	r3, #0
    3460:	d11d      	bne.n	349e <pvPortMalloc+0x4e>
    3462:	4939      	ldr	r1, [pc, #228]	; (3548 <pvPortMalloc+0xf8>)
    3464:	3307      	adds	r3, #7
    3466:	4219      	tst	r1, r3
    3468:	d035      	beq.n	34d6 <pvPortMalloc+0x86>
    346a:	18cd      	adds	r5, r1, r3
    346c:	439d      	bics	r5, r3
    346e:	4b37      	ldr	r3, [pc, #220]	; (354c <pvPortMalloc+0xfc>)
    3470:	18c9      	adds	r1, r1, r3
    3472:	1b4b      	subs	r3, r1, r5
    3474:	0029      	movs	r1, r5
    3476:	2500      	movs	r5, #0
    3478:	4e35      	ldr	r6, [pc, #212]	; (3550 <pvPortMalloc+0x100>)
    347a:	18cb      	adds	r3, r1, r3
    347c:	6075      	str	r5, [r6, #4]
    347e:	6031      	str	r1, [r6, #0]
    3480:	2607      	movs	r6, #7
    3482:	3b08      	subs	r3, #8
    3484:	43b3      	bics	r3, r6
    3486:	601d      	str	r5, [r3, #0]
    3488:	605d      	str	r5, [r3, #4]
    348a:	1a5d      	subs	r5, r3, r1
    348c:	6013      	str	r3, [r2, #0]
    348e:	c128      	stmia	r1!, {r3, r5}
    3490:	4b30      	ldr	r3, [pc, #192]	; (3554 <pvPortMalloc+0x104>)
    3492:	601d      	str	r5, [r3, #0]
    3494:	4b30      	ldr	r3, [pc, #192]	; (3558 <pvPortMalloc+0x108>)
    3496:	601d      	str	r5, [r3, #0]
    3498:	2380      	movs	r3, #128	; 0x80
    349a:	061b      	lsls	r3, r3, #24
    349c:	6003      	str	r3, [r0, #0]
    349e:	6806      	ldr	r6, [r0, #0]
    34a0:	4234      	tst	r4, r6
    34a2:	d116      	bne.n	34d2 <pvPortMalloc+0x82>
    34a4:	2c00      	cmp	r4, #0
    34a6:	d014      	beq.n	34d2 <pvPortMalloc+0x82>
    34a8:	0023      	movs	r3, r4
    34aa:	2107      	movs	r1, #7
    34ac:	3308      	adds	r3, #8
    34ae:	420b      	tst	r3, r1
    34b0:	d001      	beq.n	34b6 <pvPortMalloc+0x66>
    34b2:	438b      	bics	r3, r1
    34b4:	3308      	adds	r3, #8
    34b6:	2b00      	cmp	r3, #0
    34b8:	d00b      	beq.n	34d2 <pvPortMalloc+0x82>
    34ba:	4f27      	ldr	r7, [pc, #156]	; (3558 <pvPortMalloc+0x108>)
    34bc:	683d      	ldr	r5, [r7, #0]
    34be:	42ab      	cmp	r3, r5
    34c0:	d807      	bhi.n	34d2 <pvPortMalloc+0x82>
    34c2:	4923      	ldr	r1, [pc, #140]	; (3550 <pvPortMalloc+0x100>)
    34c4:	680c      	ldr	r4, [r1, #0]
    34c6:	6860      	ldr	r0, [r4, #4]
    34c8:	4283      	cmp	r3, r0
    34ca:	d806      	bhi.n	34da <pvPortMalloc+0x8a>
    34cc:	6812      	ldr	r2, [r2, #0]
    34ce:	4294      	cmp	r4, r2
    34d0:	d109      	bne.n	34e6 <pvPortMalloc+0x96>
    34d2:	2500      	movs	r5, #0
    34d4:	e026      	b.n	3524 <pvPortMalloc+0xd4>
    34d6:	4b1d      	ldr	r3, [pc, #116]	; (354c <pvPortMalloc+0xfc>)
    34d8:	e7cd      	b.n	3476 <pvPortMalloc+0x26>
    34da:	6820      	ldr	r0, [r4, #0]
    34dc:	2800      	cmp	r0, #0
    34de:	d0f5      	beq.n	34cc <pvPortMalloc+0x7c>
    34e0:	0021      	movs	r1, r4
    34e2:	0004      	movs	r4, r0
    34e4:	e7ef      	b.n	34c6 <pvPortMalloc+0x76>
    34e6:	680a      	ldr	r2, [r1, #0]
    34e8:	9201      	str	r2, [sp, #4]
    34ea:	6822      	ldr	r2, [r4, #0]
    34ec:	600a      	str	r2, [r1, #0]
    34ee:	6862      	ldr	r2, [r4, #4]
    34f0:	1ad2      	subs	r2, r2, r3
    34f2:	2a10      	cmp	r2, #16
    34f4:	d908      	bls.n	3508 <pvPortMalloc+0xb8>
    34f6:	18e0      	adds	r0, r4, r3
    34f8:	0741      	lsls	r1, r0, #29
    34fa:	d001      	beq.n	3500 <pvPortMalloc+0xb0>
    34fc:	b672      	cpsid	i
    34fe:	e7fe      	b.n	34fe <pvPortMalloc+0xae>
    3500:	6042      	str	r2, [r0, #4]
    3502:	6063      	str	r3, [r4, #4]
    3504:	4b15      	ldr	r3, [pc, #84]	; (355c <pvPortMalloc+0x10c>)
    3506:	4798      	blx	r3
    3508:	4a12      	ldr	r2, [pc, #72]	; (3554 <pvPortMalloc+0x104>)
    350a:	6863      	ldr	r3, [r4, #4]
    350c:	6811      	ldr	r1, [r2, #0]
    350e:	1aed      	subs	r5, r5, r3
    3510:	603d      	str	r5, [r7, #0]
    3512:	428d      	cmp	r5, r1
    3514:	d200      	bcs.n	3518 <pvPortMalloc+0xc8>
    3516:	6015      	str	r5, [r2, #0]
    3518:	431e      	orrs	r6, r3
    351a:	2300      	movs	r3, #0
    351c:	9d01      	ldr	r5, [sp, #4]
    351e:	6066      	str	r6, [r4, #4]
    3520:	3508      	adds	r5, #8
    3522:	6023      	str	r3, [r4, #0]
    3524:	4b0e      	ldr	r3, [pc, #56]	; (3560 <pvPortMalloc+0x110>)
    3526:	4798      	blx	r3
    3528:	2d00      	cmp	r5, #0
    352a:	d101      	bne.n	3530 <pvPortMalloc+0xe0>
    352c:	4b0d      	ldr	r3, [pc, #52]	; (3564 <pvPortMalloc+0x114>)
    352e:	4798      	blx	r3
    3530:	076b      	lsls	r3, r5, #29
    3532:	d001      	beq.n	3538 <pvPortMalloc+0xe8>
    3534:	b672      	cpsid	i
    3536:	e7fe      	b.n	3536 <pvPortMalloc+0xe6>
    3538:	0028      	movs	r0, r5
    353a:	bdfe      	pop	{r1, r2, r3, r4, r5, r6, r7, pc}
    353c:	00005d51 	.word	0x00005d51
    3540:	20000734 	.word	0x20000734
    3544:	20003618 	.word	0x20003618
    3548:	20000738 	.word	0x20000738
    354c:	00002ee0 	.word	0x00002ee0
    3550:	20003624 	.word	0x20003624
    3554:	20003620 	.word	0x20003620
    3558:	2000361c 	.word	0x2000361c
    355c:	00003405 	.word	0x00003405
    3560:	00005e89 	.word	0x00005e89
    3564:	00007c81 	.word	0x00007c81

00003568 <vPortFree>:
    3568:	b510      	push	{r4, lr}
    356a:	2800      	cmp	r0, #0
    356c:	d01b      	beq.n	35a6 <vPortFree+0x3e>
    356e:	4a0e      	ldr	r2, [pc, #56]	; (35a8 <vPortFree+0x40>)
    3570:	3808      	subs	r0, #8
    3572:	6843      	ldr	r3, [r0, #4]
    3574:	6812      	ldr	r2, [r2, #0]
    3576:	0004      	movs	r4, r0
    3578:	421a      	tst	r2, r3
    357a:	d101      	bne.n	3580 <vPortFree+0x18>
    357c:	b672      	cpsid	i
    357e:	e7fe      	b.n	357e <vPortFree+0x16>
    3580:	6801      	ldr	r1, [r0, #0]
    3582:	2900      	cmp	r1, #0
    3584:	d001      	beq.n	358a <vPortFree+0x22>
    3586:	b672      	cpsid	i
    3588:	e7fe      	b.n	3588 <vPortFree+0x20>
    358a:	4393      	bics	r3, r2
    358c:	6043      	str	r3, [r0, #4]
    358e:	4b07      	ldr	r3, [pc, #28]	; (35ac <vPortFree+0x44>)
    3590:	4798      	blx	r3
    3592:	4a07      	ldr	r2, [pc, #28]	; (35b0 <vPortFree+0x48>)
    3594:	6863      	ldr	r3, [r4, #4]
    3596:	6811      	ldr	r1, [r2, #0]
    3598:	0020      	movs	r0, r4
    359a:	185b      	adds	r3, r3, r1
    359c:	6013      	str	r3, [r2, #0]
    359e:	4b05      	ldr	r3, [pc, #20]	; (35b4 <vPortFree+0x4c>)
    35a0:	4798      	blx	r3
    35a2:	4b05      	ldr	r3, [pc, #20]	; (35b8 <vPortFree+0x50>)
    35a4:	4798      	blx	r3
    35a6:	bd10      	pop	{r4, pc}
    35a8:	20003618 	.word	0x20003618
    35ac:	00005d51 	.word	0x00005d51
    35b0:	2000361c 	.word	0x2000361c
    35b4:	00003405 	.word	0x00003405
    35b8:	00005e89 	.word	0x00005e89

000035bc <adc_cb>:
    35bc:	b5f7      	push	{r0, r1, r2, r4, r5, r6, r7, lr}
    35be:	4b34      	ldr	r3, [pc, #208]	; (3690 <adc_cb+0xd4>)
    35c0:	2100      	movs	r1, #0
    35c2:	4798      	blx	r3
    35c4:	2800      	cmp	r0, #0
    35c6:	d162      	bne.n	368e <adc_cb+0xd2>
    35c8:	4d32      	ldr	r5, [pc, #200]	; (3694 <adc_cb+0xd8>)
    35ca:	4a33      	ldr	r2, [pc, #204]	; (3698 <adc_cb+0xdc>)
    35cc:	882b      	ldrh	r3, [r5, #0]
    35ce:	b29b      	uxth	r3, r3
    35d0:	8013      	strh	r3, [r2, #0]
    35d2:	886b      	ldrh	r3, [r5, #2]
    35d4:	4a31      	ldr	r2, [pc, #196]	; (369c <adc_cb+0xe0>)
    35d6:	b29b      	uxth	r3, r3
    35d8:	8013      	strh	r3, [r2, #0]
    35da:	4b31      	ldr	r3, [pc, #196]	; (36a0 <adc_cb+0xe4>)
    35dc:	681b      	ldr	r3, [r3, #0]
    35de:	88a8      	ldrh	r0, [r5, #4]
    35e0:	1c1c      	adds	r4, r3, #0
    35e2:	b280      	uxth	r0, r0
    35e4:	4b2f      	ldr	r3, [pc, #188]	; (36a4 <adc_cb+0xe8>)
    35e6:	4798      	blx	r3
    35e8:	4a2f      	ldr	r2, [pc, #188]	; (36a8 <adc_cb+0xec>)
    35ea:	4e30      	ldr	r6, [pc, #192]	; (36ac <adc_cb+0xf0>)
    35ec:	4b30      	ldr	r3, [pc, #192]	; (36b0 <adc_cb+0xf4>)
    35ee:	47b0      	blx	r6
    35f0:	4b30      	ldr	r3, [pc, #192]	; (36b4 <adc_cb+0xf8>)
    35f2:	0006      	movs	r6, r0
    35f4:	1c20      	adds	r0, r4, #0
    35f6:	000f      	movs	r7, r1
    35f8:	4798      	blx	r3
    35fa:	4c2c      	ldr	r4, [pc, #176]	; (36ac <adc_cb+0xf0>)
    35fc:	4a2e      	ldr	r2, [pc, #184]	; (36b8 <adc_cb+0xfc>)
    35fe:	4b2f      	ldr	r3, [pc, #188]	; (36bc <adc_cb+0x100>)
    3600:	47a0      	blx	r4
    3602:	4c2f      	ldr	r4, [pc, #188]	; (36c0 <adc_cb+0x104>)
    3604:	0002      	movs	r2, r0
    3606:	000b      	movs	r3, r1
    3608:	0030      	movs	r0, r6
    360a:	0039      	movs	r1, r7
    360c:	47a0      	blx	r4
    360e:	4b2d      	ldr	r3, [pc, #180]	; (36c4 <adc_cb+0x108>)
    3610:	4798      	blx	r3
    3612:	4b23      	ldr	r3, [pc, #140]	; (36a0 <adc_cb+0xe4>)
    3614:	6018      	str	r0, [r3, #0]
    3616:	685b      	ldr	r3, [r3, #4]
    3618:	9301      	str	r3, [sp, #4]
    361a:	88e8      	ldrh	r0, [r5, #6]
    361c:	4b21      	ldr	r3, [pc, #132]	; (36a4 <adc_cb+0xe8>)
    361e:	b280      	uxth	r0, r0
    3620:	4798      	blx	r3
    3622:	4c22      	ldr	r4, [pc, #136]	; (36ac <adc_cb+0xf0>)
    3624:	4a20      	ldr	r2, [pc, #128]	; (36a8 <adc_cb+0xec>)
    3626:	4b22      	ldr	r3, [pc, #136]	; (36b0 <adc_cb+0xf4>)
    3628:	47a0      	blx	r4
    362a:	4b22      	ldr	r3, [pc, #136]	; (36b4 <adc_cb+0xf8>)
    362c:	0006      	movs	r6, r0
    362e:	9801      	ldr	r0, [sp, #4]
    3630:	000f      	movs	r7, r1
    3632:	4798      	blx	r3
    3634:	4a20      	ldr	r2, [pc, #128]	; (36b8 <adc_cb+0xfc>)
    3636:	4b21      	ldr	r3, [pc, #132]	; (36bc <adc_cb+0x100>)
    3638:	47a0      	blx	r4
    363a:	4c21      	ldr	r4, [pc, #132]	; (36c0 <adc_cb+0x104>)
    363c:	0002      	movs	r2, r0
    363e:	000b      	movs	r3, r1
    3640:	0030      	movs	r0, r6
    3642:	0039      	movs	r1, r7
    3644:	47a0      	blx	r4
    3646:	4b1f      	ldr	r3, [pc, #124]	; (36c4 <adc_cb+0x108>)
    3648:	4798      	blx	r3
    364a:	4b15      	ldr	r3, [pc, #84]	; (36a0 <adc_cb+0xe4>)
    364c:	6058      	str	r0, [r3, #4]
    364e:	689b      	ldr	r3, [r3, #8]
    3650:	9301      	str	r3, [sp, #4]
    3652:	8928      	ldrh	r0, [r5, #8]
    3654:	4b13      	ldr	r3, [pc, #76]	; (36a4 <adc_cb+0xe8>)
    3656:	b280      	uxth	r0, r0
    3658:	4798      	blx	r3
    365a:	4a13      	ldr	r2, [pc, #76]	; (36a8 <adc_cb+0xec>)
    365c:	4c13      	ldr	r4, [pc, #76]	; (36ac <adc_cb+0xf0>)
    365e:	4b14      	ldr	r3, [pc, #80]	; (36b0 <adc_cb+0xf4>)
    3660:	47a0      	blx	r4
    3662:	4b14      	ldr	r3, [pc, #80]	; (36b4 <adc_cb+0xf8>)
    3664:	0006      	movs	r6, r0
    3666:	9801      	ldr	r0, [sp, #4]
    3668:	000f      	movs	r7, r1
    366a:	4798      	blx	r3
    366c:	4a12      	ldr	r2, [pc, #72]	; (36b8 <adc_cb+0xfc>)
    366e:	4b13      	ldr	r3, [pc, #76]	; (36bc <adc_cb+0x100>)
    3670:	47a0      	blx	r4
    3672:	4c13      	ldr	r4, [pc, #76]	; (36c0 <adc_cb+0x104>)
    3674:	0002      	movs	r2, r0
    3676:	000b      	movs	r3, r1
    3678:	0030      	movs	r0, r6
    367a:	0039      	movs	r1, r7
    367c:	47a0      	blx	r4
    367e:	4b11      	ldr	r3, [pc, #68]	; (36c4 <adc_cb+0x108>)
    3680:	4798      	blx	r3
    3682:	4b07      	ldr	r3, [pc, #28]	; (36a0 <adc_cb+0xe4>)
    3684:	4a10      	ldr	r2, [pc, #64]	; (36c8 <adc_cb+0x10c>)
    3686:	6098      	str	r0, [r3, #8]
    3688:	8a2b      	ldrh	r3, [r5, #16]
    368a:	b29b      	uxth	r3, r3
    368c:	8013      	strh	r3, [r2, #0]
    368e:	bdf7      	pop	{r0, r1, r2, r4, r5, r6, r7, pc}
    3690:	0000109d 	.word	0x0000109d
    3694:	2000362c 	.word	0x2000362c
    3698:	20003662 	.word	0x20003662
    369c:	20003664 	.word	0x20003664
    36a0:	20003668 	.word	0x20003668
    36a4:	0000ab09 	.word	0x0000ab09
    36a8:	9999999a 	.word	0x9999999a
    36ac:	00009f75 	.word	0x00009f75
    36b0:	3fb99999 	.word	0x3fb99999
    36b4:	0000abfd 	.word	0x0000abfd
    36b8:	cccccccd 	.word	0xcccccccd
    36bc:	3feccccc 	.word	0x3feccccc
    36c0:	000090ed 	.word	0x000090ed
    36c4:	0000aca1 	.word	0x0000aca1
    36c8:	20003660 	.word	0x20003660

000036cc <adc_request_update>:
    36cc:	b510      	push	{r4, lr}
    36ce:	4b05      	ldr	r3, [pc, #20]	; (36e4 <adc_request_update+0x18>)
    36d0:	781b      	ldrb	r3, [r3, #0]
    36d2:	2b00      	cmp	r3, #0
    36d4:	d004      	beq.n	36e0 <adc_request_update+0x14>
    36d6:	2209      	movs	r2, #9
    36d8:	4903      	ldr	r1, [pc, #12]	; (36e8 <adc_request_update+0x1c>)
    36da:	4804      	ldr	r0, [pc, #16]	; (36ec <adc_request_update+0x20>)
    36dc:	4b04      	ldr	r3, [pc, #16]	; (36f0 <adc_request_update+0x24>)
    36de:	4798      	blx	r3
    36e0:	bd10      	pop	{r4, pc}
    36e2:	46c0      	nop			; (mov r8, r8)
    36e4:	20003674 	.word	0x20003674
    36e8:	2000362c 	.word	0x2000362c
    36ec:	20003640 	.word	0x20003640
    36f0:	00001069 	.word	0x00001069

000036f4 <adc_interface_init>:
    36f4:	b510      	push	{r4, lr}
    36f6:	b08c      	sub	sp, #48	; 0x30
    36f8:	4668      	mov	r0, sp
    36fa:	4b22      	ldr	r3, [pc, #136]	; (3784 <adc_interface_init+0x90>)
    36fc:	4798      	blx	r3
    36fe:	466a      	mov	r2, sp
    3700:	2302      	movs	r3, #2
    3702:	7313      	strb	r3, [r2, #12]
    3704:	23c0      	movs	r3, #192	; 0xc0
    3706:	015b      	lsls	r3, r3, #5
    3708:	81d3      	strh	r3, [r2, #14]
    370a:	2300      	movs	r3, #0
    370c:	4669      	mov	r1, sp
    370e:	74d3      	strb	r3, [r2, #19]
    3710:	2201      	movs	r2, #1
    3712:	700a      	strb	r2, [r1, #0]
    3714:	22c0      	movs	r2, #192	; 0xc0
    3716:	00d2      	lsls	r2, r2, #3
    3718:	804a      	strh	r2, [r1, #2]
    371a:	2203      	movs	r2, #3
    371c:	704a      	strb	r2, [r1, #1]
    371e:	3228      	adds	r2, #40	; 0x28
    3720:	446a      	add	r2, sp
    3722:	7013      	strb	r3, [r2, #0]
    3724:	2209      	movs	r2, #9
    3726:	4c18      	ldr	r4, [pc, #96]	; (3788 <adc_interface_init+0x94>)
    3728:	710b      	strb	r3, [r1, #4]
    372a:	9302      	str	r3, [sp, #8]
    372c:	ab0b      	add	r3, sp, #44	; 0x2c
    372e:	701a      	strb	r2, [r3, #0]
    3730:	4916      	ldr	r1, [pc, #88]	; (378c <adc_interface_init+0x98>)
    3732:	4b17      	ldr	r3, [pc, #92]	; (3790 <adc_interface_init+0x9c>)
    3734:	466a      	mov	r2, sp
    3736:	0020      	movs	r0, r4
    3738:	4798      	blx	r3
    373a:	6823      	ldr	r3, [r4, #0]
    373c:	7e5a      	ldrb	r2, [r3, #25]
    373e:	b252      	sxtb	r2, r2
    3740:	2a00      	cmp	r2, #0
    3742:	dbfb      	blt.n	373c <adc_interface_init+0x48>
    3744:	2180      	movs	r1, #128	; 0x80
    3746:	4a13      	ldr	r2, [pc, #76]	; (3794 <adc_interface_init+0xa0>)
    3748:	0409      	lsls	r1, r1, #16
    374a:	6011      	str	r1, [r2, #0]
    374c:	220f      	movs	r2, #15
    374e:	759a      	strb	r2, [r3, #22]
    3750:	761a      	strb	r2, [r3, #24]
    3752:	7819      	ldrb	r1, [r3, #0]
    3754:	3a0d      	subs	r2, #13
    3756:	430a      	orrs	r2, r1
    3758:	701a      	strb	r2, [r3, #0]
    375a:	6822      	ldr	r2, [r4, #0]
    375c:	7e53      	ldrb	r3, [r2, #25]
    375e:	b25b      	sxtb	r3, r3
    3760:	2b00      	cmp	r3, #0
    3762:	dbfb      	blt.n	375c <adc_interface_init+0x68>
    3764:	490c      	ldr	r1, [pc, #48]	; (3798 <adc_interface_init+0xa4>)
    3766:	0020      	movs	r0, r4
    3768:	2200      	movs	r2, #0
    376a:	4b0c      	ldr	r3, [pc, #48]	; (379c <adc_interface_init+0xa8>)
    376c:	4798      	blx	r3
    376e:	2201      	movs	r2, #1
    3770:	7ee3      	ldrb	r3, [r4, #27]
    3772:	4313      	orrs	r3, r2
    3774:	76e3      	strb	r3, [r4, #27]
    3776:	4b0a      	ldr	r3, [pc, #40]	; (37a0 <adc_interface_init+0xac>)
    3778:	701a      	strb	r2, [r3, #0]
    377a:	4b0a      	ldr	r3, [pc, #40]	; (37a4 <adc_interface_init+0xb0>)
    377c:	4798      	blx	r3
    377e:	b00c      	add	sp, #48	; 0x30
    3780:	bd10      	pop	{r4, pc}
    3782:	46c0      	nop			; (mov r8, r8)
    3784:	00000c2d 	.word	0x00000c2d
    3788:	20003640 	.word	0x20003640
    378c:	42004000 	.word	0x42004000
    3790:	00000c71 	.word	0x00000c71
    3794:	e000e100 	.word	0xe000e100
    3798:	000035bd 	.word	0x000035bd
    379c:	00001055 	.word	0x00001055
    37a0:	20003674 	.word	0x20003674
    37a4:	000036cd 	.word	0x000036cd

000037a8 <get_pressure_sensor_cmH2O>:
    37a8:	b5f8      	push	{r3, r4, r5, r6, r7, lr}
    37aa:	2802      	cmp	r0, #2
    37ac:	d823      	bhi.n	37f6 <get_pressure_sensor_cmH2O+0x4e>
    37ae:	4b13      	ldr	r3, [pc, #76]	; (37fc <get_pressure_sensor_cmH2O+0x54>)
    37b0:	0080      	lsls	r0, r0, #2
    37b2:	4e13      	ldr	r6, [pc, #76]	; (3800 <get_pressure_sensor_cmH2O+0x58>)
    37b4:	58c0      	ldr	r0, [r0, r3]
    37b6:	47b0      	blx	r6
    37b8:	2200      	movs	r2, #0
    37ba:	4b12      	ldr	r3, [pc, #72]	; (3804 <get_pressure_sensor_cmH2O+0x5c>)
    37bc:	4c12      	ldr	r4, [pc, #72]	; (3808 <get_pressure_sensor_cmH2O+0x60>)
    37be:	47a0      	blx	r4
    37c0:	4c12      	ldr	r4, [pc, #72]	; (380c <get_pressure_sensor_cmH2O+0x64>)
    37c2:	4a13      	ldr	r2, [pc, #76]	; (3810 <get_pressure_sensor_cmH2O+0x68>)
    37c4:	4b13      	ldr	r3, [pc, #76]	; (3814 <get_pressure_sensor_cmH2O+0x6c>)
    37c6:	47a0      	blx	r4
    37c8:	4a13      	ldr	r2, [pc, #76]	; (3818 <get_pressure_sensor_cmH2O+0x70>)
    37ca:	4b14      	ldr	r3, [pc, #80]	; (381c <get_pressure_sensor_cmH2O+0x74>)
    37cc:	47a0      	blx	r4
    37ce:	4d14      	ldr	r5, [pc, #80]	; (3820 <get_pressure_sensor_cmH2O+0x78>)
    37d0:	47a8      	blx	r5
    37d2:	47b0      	blx	r6
    37d4:	2200      	movs	r2, #0
    37d6:	4b13      	ldr	r3, [pc, #76]	; (3824 <get_pressure_sensor_cmH2O+0x7c>)
    37d8:	4f13      	ldr	r7, [pc, #76]	; (3828 <get_pressure_sensor_cmH2O+0x80>)
    37da:	47b8      	blx	r7
    37dc:	2200      	movs	r2, #0
    37de:	4b13      	ldr	r3, [pc, #76]	; (382c <get_pressure_sensor_cmH2O+0x84>)
    37e0:	47a0      	blx	r4
    37e2:	2200      	movs	r2, #0
    37e4:	4b12      	ldr	r3, [pc, #72]	; (3830 <get_pressure_sensor_cmH2O+0x88>)
    37e6:	47a0      	blx	r4
    37e8:	47a8      	blx	r5
    37ea:	47b0      	blx	r6
    37ec:	4a11      	ldr	r2, [pc, #68]	; (3834 <get_pressure_sensor_cmH2O+0x8c>)
    37ee:	4b12      	ldr	r3, [pc, #72]	; (3838 <get_pressure_sensor_cmH2O+0x90>)
    37f0:	47a0      	blx	r4
    37f2:	47a8      	blx	r5
    37f4:	bdf8      	pop	{r3, r4, r5, r6, r7, pc}
    37f6:	2000      	movs	r0, #0
    37f8:	e7fc      	b.n	37f4 <get_pressure_sensor_cmH2O+0x4c>
    37fa:	46c0      	nop			; (mov r8, r8)
    37fc:	20003668 	.word	0x20003668
    3800:	0000abfd 	.word	0x0000abfd
    3804:	40affe00 	.word	0x40affe00
    3808:	0000970d 	.word	0x0000970d
    380c:	00009f75 	.word	0x00009f75
    3810:	66666666 	.word	0x66666666
    3814:	400a6666 	.word	0x400a6666
    3818:	8f5c28f6 	.word	0x8f5c28f6
    381c:	3ff8f5c2 	.word	0x3ff8f5c2
    3820:	0000aca1 	.word	0x0000aca1
    3824:	3fe00000 	.word	0x3fe00000
    3828:	0000a475 	.word	0x0000a475
    382c:	40140000 	.word	0x40140000
    3830:	3fd00000 	.word	0x3fd00000
    3834:	e353f7cf 	.word	0xe353f7cf
    3838:	405193a5 	.word	0x405193a5

0000383c <get_pressure_sensor_cmH2O_voted>:
    383c:	b5f0      	push	{r4, r5, r6, r7, lr}
    383e:	2100      	movs	r1, #0
    3840:	b089      	sub	sp, #36	; 0x24
    3842:	2002      	movs	r0, #2
    3844:	4b4f      	ldr	r3, [pc, #316]	; (3984 <get_pressure_sensor_cmH2O_voted+0x148>)
    3846:	4798      	blx	r3
    3848:	2500      	movs	r5, #0
    384a:	b2e8      	uxtb	r0, r5
    384c:	4b4e      	ldr	r3, [pc, #312]	; (3988 <get_pressure_sensor_cmH2O_voted+0x14c>)
    384e:	4798      	blx	r3
    3850:	ac05      	add	r4, sp, #20
    3852:	00ab      	lsls	r3, r5, #2
    3854:	3501      	adds	r5, #1
    3856:	5118      	str	r0, [r3, r4]
    3858:	2d03      	cmp	r5, #3
    385a:	d1f6      	bne.n	384a <get_pressure_sensor_cmH2O_voted+0xe>
    385c:	4d4b      	ldr	r5, [pc, #300]	; (398c <get_pressure_sensor_cmH2O_voted+0x150>)
    385e:	9805      	ldr	r0, [sp, #20]
    3860:	47a8      	blx	r5
    3862:	4e4b      	ldr	r6, [pc, #300]	; (3990 <get_pressure_sensor_cmH2O_voted+0x154>)
    3864:	4a4b      	ldr	r2, [pc, #300]	; (3994 <get_pressure_sensor_cmH2O_voted+0x158>)
    3866:	4b4c      	ldr	r3, [pc, #304]	; (3998 <get_pressure_sensor_cmH2O_voted+0x15c>)
    3868:	47b0      	blx	r6
    386a:	2200      	movs	r2, #0
    386c:	4f4b      	ldr	r7, [pc, #300]	; (399c <get_pressure_sensor_cmH2O_voted+0x160>)
    386e:	2300      	movs	r3, #0
    3870:	47b8      	blx	r7
    3872:	4b4b      	ldr	r3, [pc, #300]	; (39a0 <get_pressure_sensor_cmH2O_voted+0x164>)
    3874:	4798      	blx	r3
    3876:	47a8      	blx	r5
    3878:	9000      	str	r0, [sp, #0]
    387a:	9101      	str	r1, [sp, #4]
    387c:	6860      	ldr	r0, [r4, #4]
    387e:	47a8      	blx	r5
    3880:	4a44      	ldr	r2, [pc, #272]	; (3994 <get_pressure_sensor_cmH2O_voted+0x158>)
    3882:	4b45      	ldr	r3, [pc, #276]	; (3998 <get_pressure_sensor_cmH2O_voted+0x15c>)
    3884:	47b0      	blx	r6
    3886:	0002      	movs	r2, r0
    3888:	000b      	movs	r3, r1
    388a:	9800      	ldr	r0, [sp, #0]
    388c:	9901      	ldr	r1, [sp, #4]
    388e:	47b8      	blx	r7
    3890:	9000      	str	r0, [sp, #0]
    3892:	9101      	str	r1, [sp, #4]
    3894:	68a0      	ldr	r0, [r4, #8]
    3896:	47a8      	blx	r5
    3898:	4a3e      	ldr	r2, [pc, #248]	; (3994 <get_pressure_sensor_cmH2O_voted+0x158>)
    389a:	4b3f      	ldr	r3, [pc, #252]	; (3998 <get_pressure_sensor_cmH2O_voted+0x15c>)
    389c:	47b0      	blx	r6
    389e:	4b40      	ldr	r3, [pc, #256]	; (39a0 <get_pressure_sensor_cmH2O_voted+0x164>)
    38a0:	0006      	movs	r6, r0
    38a2:	000f      	movs	r7, r1
    38a4:	9800      	ldr	r0, [sp, #0]
    38a6:	9901      	ldr	r1, [sp, #4]
    38a8:	4798      	blx	r3
    38aa:	47a8      	blx	r5
    38ac:	4d3b      	ldr	r5, [pc, #236]	; (399c <get_pressure_sensor_cmH2O_voted+0x160>)
    38ae:	0002      	movs	r2, r0
    38b0:	000b      	movs	r3, r1
    38b2:	0030      	movs	r0, r6
    38b4:	0039      	movs	r1, r7
    38b6:	47a8      	blx	r5
    38b8:	4b39      	ldr	r3, [pc, #228]	; (39a0 <get_pressure_sensor_cmH2O_voted+0x164>)
    38ba:	4798      	blx	r3
    38bc:	2300      	movs	r3, #0
    38be:	2600      	movs	r6, #0
    38c0:	001d      	movs	r5, r3
    38c2:	1c07      	adds	r7, r0, #0
    38c4:	9300      	str	r3, [sp, #0]
    38c6:	9403      	str	r4, [sp, #12]
    38c8:	9a03      	ldr	r2, [sp, #12]
    38ca:	00ab      	lsls	r3, r5, #2
    38cc:	5899      	ldr	r1, [r3, r2]
    38ce:	1c38      	adds	r0, r7, #0
    38d0:	4b34      	ldr	r3, [pc, #208]	; (39a4 <get_pressure_sensor_cmH2O_voted+0x168>)
    38d2:	4798      	blx	r3
    38d4:	4b34      	ldr	r3, [pc, #208]	; (39a8 <get_pressure_sensor_cmH2O_voted+0x16c>)
    38d6:	4798      	blx	r3
    38d8:	17c3      	asrs	r3, r0, #31
    38da:	18c0      	adds	r0, r0, r3
    38dc:	4058      	eors	r0, r3
    38de:	4b33      	ldr	r3, [pc, #204]	; (39ac <get_pressure_sensor_cmH2O_voted+0x170>)
    38e0:	4798      	blx	r3
    38e2:	1c31      	adds	r1, r6, #0
    38e4:	4b32      	ldr	r3, [pc, #200]	; (39b0 <get_pressure_sensor_cmH2O_voted+0x174>)
    38e6:	1c04      	adds	r4, r0, #0
    38e8:	4798      	blx	r3
    38ea:	2800      	cmp	r0, #0
    38ec:	d002      	beq.n	38f4 <get_pressure_sensor_cmH2O_voted+0xb8>
    38ee:	b2eb      	uxtb	r3, r5
    38f0:	9300      	str	r3, [sp, #0]
    38f2:	1c26      	adds	r6, r4, #0
    38f4:	3501      	adds	r5, #1
    38f6:	2d03      	cmp	r5, #3
    38f8:	d1e6      	bne.n	38c8 <get_pressure_sensor_cmH2O_voted+0x8c>
    38fa:	2400      	movs	r4, #0
    38fc:	2500      	movs	r5, #0
    38fe:	9b00      	ldr	r3, [sp, #0]
    3900:	42ab      	cmp	r3, r5
    3902:	d016      	beq.n	3932 <get_pressure_sensor_cmH2O_voted+0xf6>
    3904:	aa05      	add	r2, sp, #20
    3906:	00ab      	lsls	r3, r5, #2
    3908:	58d0      	ldr	r0, [r2, r3]
    390a:	4b20      	ldr	r3, [pc, #128]	; (398c <get_pressure_sensor_cmH2O_voted+0x150>)
    390c:	4798      	blx	r3
    390e:	2200      	movs	r2, #0
    3910:	4b28      	ldr	r3, [pc, #160]	; (39b4 <get_pressure_sensor_cmH2O_voted+0x178>)
    3912:	4e1f      	ldr	r6, [pc, #124]	; (3990 <get_pressure_sensor_cmH2O_voted+0x154>)
    3914:	47b0      	blx	r6
    3916:	4b1d      	ldr	r3, [pc, #116]	; (398c <get_pressure_sensor_cmH2O_voted+0x150>)
    3918:	0006      	movs	r6, r0
    391a:	1c20      	adds	r0, r4, #0
    391c:	000f      	movs	r7, r1
    391e:	4798      	blx	r3
    3920:	4c1e      	ldr	r4, [pc, #120]	; (399c <get_pressure_sensor_cmH2O_voted+0x160>)
    3922:	0002      	movs	r2, r0
    3924:	000b      	movs	r3, r1
    3926:	0030      	movs	r0, r6
    3928:	0039      	movs	r1, r7
    392a:	47a0      	blx	r4
    392c:	4b1c      	ldr	r3, [pc, #112]	; (39a0 <get_pressure_sensor_cmH2O_voted+0x164>)
    392e:	4798      	blx	r3
    3930:	1c04      	adds	r4, r0, #0
    3932:	3501      	adds	r5, #1
    3934:	2d03      	cmp	r5, #3
    3936:	d1e2      	bne.n	38fe <get_pressure_sensor_cmH2O_voted+0xc2>
    3938:	9b00      	ldr	r3, [sp, #0]
    393a:	9a03      	ldr	r2, [sp, #12]
    393c:	009b      	lsls	r3, r3, #2
    393e:	58d0      	ldr	r0, [r2, r3]
    3940:	1c21      	adds	r1, r4, #0
    3942:	4b18      	ldr	r3, [pc, #96]	; (39a4 <get_pressure_sensor_cmH2O_voted+0x168>)
    3944:	4798      	blx	r3
    3946:	4b18      	ldr	r3, [pc, #96]	; (39a8 <get_pressure_sensor_cmH2O_voted+0x16c>)
    3948:	4798      	blx	r3
    394a:	17c3      	asrs	r3, r0, #31
    394c:	18c0      	adds	r0, r0, r3
    394e:	4058      	eors	r0, r3
    3950:	4b19      	ldr	r3, [pc, #100]	; (39b8 <get_pressure_sensor_cmH2O_voted+0x17c>)
    3952:	4798      	blx	r3
    3954:	4b0d      	ldr	r3, [pc, #52]	; (398c <get_pressure_sensor_cmH2O_voted+0x150>)
    3956:	0006      	movs	r6, r0
    3958:	1c20      	adds	r0, r4, #0
    395a:	000f      	movs	r7, r1
    395c:	4798      	blx	r3
    395e:	4a17      	ldr	r2, [pc, #92]	; (39bc <get_pressure_sensor_cmH2O_voted+0x180>)
    3960:	4b17      	ldr	r3, [pc, #92]	; (39c0 <get_pressure_sensor_cmH2O_voted+0x184>)
    3962:	4d0b      	ldr	r5, [pc, #44]	; (3990 <get_pressure_sensor_cmH2O_voted+0x154>)
    3964:	47a8      	blx	r5
    3966:	4d17      	ldr	r5, [pc, #92]	; (39c4 <get_pressure_sensor_cmH2O_voted+0x188>)
    3968:	000b      	movs	r3, r1
    396a:	0002      	movs	r2, r0
    396c:	0039      	movs	r1, r7
    396e:	0030      	movs	r0, r6
    3970:	47a8      	blx	r5
    3972:	4b04      	ldr	r3, [pc, #16]	; (3984 <get_pressure_sensor_cmH2O_voted+0x148>)
    3974:	1e01      	subs	r1, r0, #0
    3976:	d000      	beq.n	397a <get_pressure_sensor_cmH2O_voted+0x13e>
    3978:	2101      	movs	r1, #1
    397a:	2002      	movs	r0, #2
    397c:	4798      	blx	r3
    397e:	1c20      	adds	r0, r4, #0
    3980:	b009      	add	sp, #36	; 0x24
    3982:	bdf0      	pop	{r4, r5, r6, r7, pc}
    3984:	000039fd 	.word	0x000039fd
    3988:	000037a9 	.word	0x000037a9
    398c:	0000abfd 	.word	0x0000abfd
    3990:	00009f75 	.word	0x00009f75
    3994:	5a31a4be 	.word	0x5a31a4be
    3998:	3fd55547 	.word	0x3fd55547
    399c:	000090ed 	.word	0x000090ed
    39a0:	0000aca1 	.word	0x0000aca1
    39a4:	00008cd5 	.word	0x00008cd5
    39a8:	0000900d 	.word	0x0000900d
    39ac:	0000904d 	.word	0x0000904d
    39b0:	0000806d 	.word	0x0000806d
    39b4:	3fe00000 	.word	0x3fe00000
    39b8:	0000ab09 	.word	0x0000ab09
    39bc:	9999999a 	.word	0x9999999a
    39c0:	3fc99999 	.word	0x3fc99999
    39c4:	00007ff9 	.word	0x00007ff9

000039c8 <get_input_potentiometer_portion>:
    39c8:	b510      	push	{r4, lr}
    39ca:	4b06      	ldr	r3, [pc, #24]	; (39e4 <get_input_potentiometer_portion+0x1c>)
    39cc:	8818      	ldrh	r0, [r3, #0]
    39ce:	4b06      	ldr	r3, [pc, #24]	; (39e8 <get_input_potentiometer_portion+0x20>)
    39d0:	b280      	uxth	r0, r0
    39d2:	4798      	blx	r3
    39d4:	2200      	movs	r2, #0
    39d6:	4b05      	ldr	r3, [pc, #20]	; (39ec <get_input_potentiometer_portion+0x24>)
    39d8:	4c05      	ldr	r4, [pc, #20]	; (39f0 <get_input_potentiometer_portion+0x28>)
    39da:	47a0      	blx	r4
    39dc:	4b05      	ldr	r3, [pc, #20]	; (39f4 <get_input_potentiometer_portion+0x2c>)
    39de:	4798      	blx	r3
    39e0:	bd10      	pop	{r4, pc}
    39e2:	46c0      	nop			; (mov r8, r8)
    39e4:	20003664 	.word	0x20003664
    39e8:	0000ab09 	.word	0x0000ab09
    39ec:	40affe00 	.word	0x40affe00
    39f0:	0000970d 	.word	0x0000970d
    39f4:	0000aca1 	.word	0x0000aca1

000039f8 <get_motor_temp_celsius>:
    39f8:	2000      	movs	r0, #0
    39fa:	4770      	bx	lr

000039fc <set_alarm>:
    39fc:	281f      	cmp	r0, #31
    39fe:	d807      	bhi.n	3a10 <set_alarm+0x14>
    3a00:	4a06      	ldr	r2, [pc, #24]	; (3a1c <set_alarm+0x20>)
    3a02:	2301      	movs	r3, #1
    3a04:	2900      	cmp	r1, #0
    3a06:	d004      	beq.n	3a12 <set_alarm+0x16>
    3a08:	4083      	lsls	r3, r0
    3a0a:	6811      	ldr	r1, [r2, #0]
    3a0c:	430b      	orrs	r3, r1
    3a0e:	6013      	str	r3, [r2, #0]
    3a10:	4770      	bx	lr
    3a12:	4083      	lsls	r3, r0
    3a14:	6811      	ldr	r1, [r2, #0]
    3a16:	4399      	bics	r1, r3
    3a18:	6011      	str	r1, [r2, #0]
    3a1a:	e7f9      	b.n	3a10 <set_alarm+0x14>
    3a1c:	20003678 	.word	0x20003678

00003a20 <check_alarm>:
    3a20:	2300      	movs	r3, #0
    3a22:	281f      	cmp	r0, #31
    3a24:	d807      	bhi.n	3a36 <check_alarm+0x16>
    3a26:	2201      	movs	r2, #1
    3a28:	4082      	lsls	r2, r0
    3a2a:	4b04      	ldr	r3, [pc, #16]	; (3a3c <check_alarm+0x1c>)
    3a2c:	681b      	ldr	r3, [r3, #0]
    3a2e:	4013      	ands	r3, r2
    3a30:	1e58      	subs	r0, r3, #1
    3a32:	4183      	sbcs	r3, r0
    3a34:	b2db      	uxtb	r3, r3
    3a36:	0018      	movs	r0, r3
    3a38:	4770      	bx	lr
    3a3a:	46c0      	nop			; (mov r8, r8)
    3a3c:	20003678 	.word	0x20003678

00003a40 <any_alarms_set>:
    3a40:	4b02      	ldr	r3, [pc, #8]	; (3a4c <any_alarms_set+0xc>)
    3a42:	6818      	ldr	r0, [r3, #0]
    3a44:	1e43      	subs	r3, r0, #1
    3a46:	4198      	sbcs	r0, r3
    3a48:	b2c0      	uxtb	r0, r0
    3a4a:	4770      	bx	lr
    3a4c:	20003678 	.word	0x20003678

00003a50 <calculate_lcv_control_params>:
    3a50:	b5f0      	push	{r4, r5, r6, r7, lr}
    3a52:	0007      	movs	r7, r0
    3a54:	b085      	sub	sp, #20
    3a56:	4e3c      	ldr	r6, [pc, #240]	; (3b48 <calculate_lcv_control_params+0xf8>)
    3a58:	6900      	ldr	r0, [r0, #16]
    3a5a:	000c      	movs	r4, r1
    3a5c:	47b0      	blx	r6
    3a5e:	4d3b      	ldr	r5, [pc, #236]	; (3b4c <calculate_lcv_control_params+0xfc>)
    3a60:	0002      	movs	r2, r0
    3a62:	000b      	movs	r3, r1
    3a64:	2000      	movs	r0, #0
    3a66:	493a      	ldr	r1, [pc, #232]	; (3b50 <calculate_lcv_control_params+0x100>)
    3a68:	47a8      	blx	r5
    3a6a:	4b3a      	ldr	r3, [pc, #232]	; (3b54 <calculate_lcv_control_params+0x104>)
    3a6c:	4798      	blx	r3
    3a6e:	6822      	ldr	r2, [r4, #0]
    3a70:	68a3      	ldr	r3, [r4, #8]
    3a72:	1c05      	adds	r5, r0, #0
    3a74:	1898      	adds	r0, r3, r2
    3a76:	4b38      	ldr	r3, [pc, #224]	; (3b58 <calculate_lcv_control_params+0x108>)
    3a78:	4798      	blx	r3
    3a7a:	4b38      	ldr	r3, [pc, #224]	; (3b5c <calculate_lcv_control_params+0x10c>)
    3a7c:	1c01      	adds	r1, r0, #0
    3a7e:	1c28      	adds	r0, r5, #0
    3a80:	4798      	blx	r3
    3a82:	2100      	movs	r1, #0
    3a84:	4b36      	ldr	r3, [pc, #216]	; (3b60 <calculate_lcv_control_params+0x110>)
    3a86:	1c05      	adds	r5, r0, #0
    3a88:	4798      	blx	r3
    3a8a:	4b36      	ldr	r3, [pc, #216]	; (3b64 <calculate_lcv_control_params+0x114>)
    3a8c:	1e01      	subs	r1, r0, #0
    3a8e:	d000      	beq.n	3a92 <calculate_lcv_control_params+0x42>
    3a90:	2101      	movs	r1, #1
    3a92:	2006      	movs	r0, #6
    3a94:	4798      	blx	r3
    3a96:	7878      	ldrb	r0, [r7, #1]
    3a98:	280a      	cmp	r0, #10
    3a9a:	d927      	bls.n	3aec <calculate_lcv_control_params+0x9c>
    3a9c:	47b0      	blx	r6
    3a9e:	4a32      	ldr	r2, [pc, #200]	; (3b68 <calculate_lcv_control_params+0x118>)
    3aa0:	4b32      	ldr	r3, [pc, #200]	; (3b6c <calculate_lcv_control_params+0x11c>)
    3aa2:	4e33      	ldr	r6, [pc, #204]	; (3b70 <calculate_lcv_control_params+0x120>)
    3aa4:	47b0      	blx	r6
    3aa6:	4f33      	ldr	r7, [pc, #204]	; (3b74 <calculate_lcv_control_params+0x124>)
    3aa8:	9000      	str	r0, [sp, #0]
    3aaa:	9101      	str	r1, [sp, #4]
    3aac:	1c28      	adds	r0, r5, #0
    3aae:	47b8      	blx	r7
    3ab0:	2200      	movs	r2, #0
    3ab2:	9002      	str	r0, [sp, #8]
    3ab4:	9103      	str	r1, [sp, #12]
    3ab6:	9800      	ldr	r0, [sp, #0]
    3ab8:	9901      	ldr	r1, [sp, #4]
    3aba:	4b2f      	ldr	r3, [pc, #188]	; (3b78 <calculate_lcv_control_params+0x128>)
    3abc:	4d2f      	ldr	r5, [pc, #188]	; (3b7c <calculate_lcv_control_params+0x12c>)
    3abe:	47a8      	blx	r5
    3ac0:	4d22      	ldr	r5, [pc, #136]	; (3b4c <calculate_lcv_control_params+0xfc>)
    3ac2:	0002      	movs	r2, r0
    3ac4:	000b      	movs	r3, r1
    3ac6:	9802      	ldr	r0, [sp, #8]
    3ac8:	9903      	ldr	r1, [sp, #12]
    3aca:	47a8      	blx	r5
    3acc:	4b21      	ldr	r3, [pc, #132]	; (3b54 <calculate_lcv_control_params+0x104>)
    3ace:	4798      	blx	r3
    3ad0:	1c05      	adds	r5, r0, #0
    3ad2:	47b8      	blx	r7
    3ad4:	9a00      	ldr	r2, [sp, #0]
    3ad6:	9b01      	ldr	r3, [sp, #4]
    3ad8:	47b0      	blx	r6
    3ada:	4b29      	ldr	r3, [pc, #164]	; (3b80 <calculate_lcv_control_params+0x130>)
    3adc:	4798      	blx	r3
    3ade:	4b29      	ldr	r3, [pc, #164]	; (3b84 <calculate_lcv_control_params+0x134>)
    3ae0:	60e0      	str	r0, [r4, #12]
    3ae2:	1c28      	adds	r0, r5, #0
    3ae4:	4798      	blx	r3
    3ae6:	6060      	str	r0, [r4, #4]
    3ae8:	b005      	add	sp, #20
    3aea:	bdf0      	pop	{r4, r5, r6, r7, pc}
    3aec:	47b0      	blx	r6
    3aee:	4a1e      	ldr	r2, [pc, #120]	; (3b68 <calculate_lcv_control_params+0x118>)
    3af0:	4b1e      	ldr	r3, [pc, #120]	; (3b6c <calculate_lcv_control_params+0x11c>)
    3af2:	4e1f      	ldr	r6, [pc, #124]	; (3b70 <calculate_lcv_control_params+0x120>)
    3af4:	47b0      	blx	r6
    3af6:	4e15      	ldr	r6, [pc, #84]	; (3b4c <calculate_lcv_control_params+0xfc>)
    3af8:	0002      	movs	r2, r0
    3afa:	000b      	movs	r3, r1
    3afc:	2000      	movs	r0, #0
    3afe:	491e      	ldr	r1, [pc, #120]	; (3b78 <calculate_lcv_control_params+0x128>)
    3b00:	47b0      	blx	r6
    3b02:	4b14      	ldr	r3, [pc, #80]	; (3b54 <calculate_lcv_control_params+0x104>)
    3b04:	4798      	blx	r3
    3b06:	4f1b      	ldr	r7, [pc, #108]	; (3b74 <calculate_lcv_control_params+0x124>)
    3b08:	1c06      	adds	r6, r0, #0
    3b0a:	1c28      	adds	r0, r5, #0
    3b0c:	47b8      	blx	r7
    3b0e:	9000      	str	r0, [sp, #0]
    3b10:	9101      	str	r1, [sp, #4]
    3b12:	1c30      	adds	r0, r6, #0
    3b14:	47b8      	blx	r7
    3b16:	2200      	movs	r2, #0
    3b18:	4b17      	ldr	r3, [pc, #92]	; (3b78 <calculate_lcv_control_params+0x128>)
    3b1a:	4d18      	ldr	r5, [pc, #96]	; (3b7c <calculate_lcv_control_params+0x12c>)
    3b1c:	47a8      	blx	r5
    3b1e:	4d0b      	ldr	r5, [pc, #44]	; (3b4c <calculate_lcv_control_params+0xfc>)
    3b20:	0002      	movs	r2, r0
    3b22:	000b      	movs	r3, r1
    3b24:	9800      	ldr	r0, [sp, #0]
    3b26:	9901      	ldr	r1, [sp, #4]
    3b28:	47a8      	blx	r5
    3b2a:	4b0a      	ldr	r3, [pc, #40]	; (3b54 <calculate_lcv_control_params+0x104>)
    3b2c:	4798      	blx	r3
    3b2e:	4b16      	ldr	r3, [pc, #88]	; (3b88 <calculate_lcv_control_params+0x138>)
    3b30:	1c01      	adds	r1, r0, #0
    3b32:	1c07      	adds	r7, r0, #0
    3b34:	1c30      	adds	r0, r6, #0
    3b36:	4798      	blx	r3
    3b38:	4d12      	ldr	r5, [pc, #72]	; (3b84 <calculate_lcv_control_params+0x134>)
    3b3a:	47a8      	blx	r5
    3b3c:	6060      	str	r0, [r4, #4]
    3b3e:	1c38      	adds	r0, r7, #0
    3b40:	47a8      	blx	r5
    3b42:	60e0      	str	r0, [r4, #12]
    3b44:	e7d0      	b.n	3ae8 <calculate_lcv_control_params+0x98>
    3b46:	46c0      	nop			; (mov r8, r8)
    3b48:	0000ab09 	.word	0x0000ab09
    3b4c:	0000970d 	.word	0x0000970d
    3b50:	40ed4c00 	.word	0x40ed4c00
    3b54:	0000aca1 	.word	0x0000aca1
    3b58:	0000904d 	.word	0x0000904d
    3b5c:	00008cd5 	.word	0x00008cd5
    3b60:	00008045 	.word	0x00008045
    3b64:	000039fd 	.word	0x000039fd
    3b68:	9999999a 	.word	0x9999999a
    3b6c:	3fb99999 	.word	0x3fb99999
    3b70:	00009f75 	.word	0x00009f75
    3b74:	0000abfd 	.word	0x0000abfd
    3b78:	3ff00000 	.word	0x3ff00000
    3b7c:	000090ed 	.word	0x000090ed
    3b80:	0000aaa1 	.word	0x0000aaa1
    3b84:	0000900d 	.word	0x0000900d
    3b88:	00008a95 	.word	0x00008a95

00003b8c <run_controller>:
    3b8c:	b5f0      	push	{r4, r5, r6, r7, lr}
    3b8e:	4b85      	ldr	r3, [pc, #532]	; (3da4 <run_controller+0x218>)
    3b90:	b089      	sub	sp, #36	; 0x24
    3b92:	9201      	str	r2, [sp, #4]
    3b94:	0007      	movs	r7, r0
    3b96:	000c      	movs	r4, r1
    3b98:	4798      	blx	r3
    3b9a:	4b83      	ldr	r3, [pc, #524]	; (3da8 <run_controller+0x21c>)
    3b9c:	781a      	ldrb	r2, [r3, #0]
    3b9e:	4b83      	ldr	r3, [pc, #524]	; (3dac <run_controller+0x220>)
    3ba0:	2a00      	cmp	r2, #0
    3ba2:	d103      	bne.n	3bac <run_controller+0x20>
    3ba4:	7d3a      	ldrb	r2, [r7, #20]
    3ba6:	07d2      	lsls	r2, r2, #31
    3ba8:	d500      	bpl.n	3bac <run_controller+0x20>
    3baa:	6018      	str	r0, [r3, #0]
    3bac:	681b      	ldr	r3, [r3, #0]
    3bae:	6826      	ldr	r6, [r4, #0]
    3bb0:	9302      	str	r3, [sp, #8]
    3bb2:	1ac5      	subs	r5, r0, r3
    3bb4:	42b5      	cmp	r5, r6
    3bb6:	da1d      	bge.n	3bf4 <run_controller+0x68>
    3bb8:	68bb      	ldr	r3, [r7, #8]
    3bba:	6123      	str	r3, [r4, #16]
    3bbc:	68ba      	ldr	r2, [r7, #8]
    3bbe:	9303      	str	r3, [sp, #12]
    3bc0:	68fb      	ldr	r3, [r7, #12]
    3bc2:	1a98      	subs	r0, r3, r2
    3bc4:	4b7a      	ldr	r3, [pc, #488]	; (3db0 <run_controller+0x224>)
    3bc6:	4798      	blx	r3
    3bc8:	4b79      	ldr	r3, [pc, #484]	; (3db0 <run_controller+0x224>)
    3bca:	9004      	str	r0, [sp, #16]
    3bcc:	0028      	movs	r0, r5
    3bce:	4798      	blx	r3
    3bd0:	4b77      	ldr	r3, [pc, #476]	; (3db0 <run_controller+0x224>)
    3bd2:	1c05      	adds	r5, r0, #0
    3bd4:	0030      	movs	r0, r6
    3bd6:	4798      	blx	r3
    3bd8:	4b76      	ldr	r3, [pc, #472]	; (3db4 <run_controller+0x228>)
    3bda:	1c01      	adds	r1, r0, #0
    3bdc:	1c28      	adds	r0, r5, #0
    3bde:	4798      	blx	r3
    3be0:	4b75      	ldr	r3, [pc, #468]	; (3db8 <run_controller+0x22c>)
    3be2:	1c01      	adds	r1, r0, #0
    3be4:	9804      	ldr	r0, [sp, #16]
    3be6:	4798      	blx	r3
    3be8:	4b74      	ldr	r3, [pc, #464]	; (3dbc <run_controller+0x230>)
    3bea:	4798      	blx	r3
    3bec:	9b03      	ldr	r3, [sp, #12]
    3bee:	18c0      	adds	r0, r0, r3
    3bf0:	6120      	str	r0, [r4, #16]
    3bf2:	e006      	b.n	3c02 <run_controller+0x76>
    3bf4:	6863      	ldr	r3, [r4, #4]
    3bf6:	18f0      	adds	r0, r6, r3
    3bf8:	4285      	cmp	r5, r0
    3bfa:	db00      	blt.n	3bfe <run_controller+0x72>
    3bfc:	e0a0      	b.n	3d40 <run_controller+0x1b4>
    3bfe:	68fb      	ldr	r3, [r7, #12]
    3c00:	6123      	str	r3, [r4, #16]
    3c02:	9a02      	ldr	r2, [sp, #8]
    3c04:	4b69      	ldr	r3, [pc, #420]	; (3dac <run_controller+0x220>)
    3c06:	6960      	ldr	r0, [r4, #20]
    3c08:	601a      	str	r2, [r3, #0]
    3c0a:	6923      	ldr	r3, [r4, #16]
    3c0c:	9303      	str	r3, [sp, #12]
    3c0e:	1a18      	subs	r0, r3, r0
    3c10:	4b67      	ldr	r3, [pc, #412]	; (3db0 <run_controller+0x224>)
    3c12:	4798      	blx	r3
    3c14:	4b6a      	ldr	r3, [pc, #424]	; (3dc0 <run_controller+0x234>)
    3c16:	9002      	str	r0, [sp, #8]
    3c18:	6819      	ldr	r1, [r3, #0]
    3c1a:	4b6a      	ldr	r3, [pc, #424]	; (3dc4 <run_controller+0x238>)
    3c1c:	4798      	blx	r3
    3c1e:	4b66      	ldr	r3, [pc, #408]	; (3db8 <run_controller+0x22c>)
    3c20:	4969      	ldr	r1, [pc, #420]	; (3dc8 <run_controller+0x23c>)
    3c22:	4798      	blx	r3
    3c24:	4d69      	ldr	r5, [pc, #420]	; (3dcc <run_controller+0x240>)
    3c26:	47a8      	blx	r5
    3c28:	4c69      	ldr	r4, [pc, #420]	; (3dd0 <run_controller+0x244>)
    3c2a:	9004      	str	r0, [sp, #16]
    3c2c:	9105      	str	r1, [sp, #20]
    3c2e:	6820      	ldr	r0, [r4, #0]
    3c30:	47a8      	blx	r5
    3c32:	2280      	movs	r2, #128	; 0x80
    3c34:	4d67      	ldr	r5, [pc, #412]	; (3dd4 <run_controller+0x248>)
    3c36:	05d2      	lsls	r2, r2, #23
    3c38:	4b67      	ldr	r3, [pc, #412]	; (3dd8 <run_controller+0x24c>)
    3c3a:	47a8      	blx	r5
    3c3c:	4d67      	ldr	r5, [pc, #412]	; (3ddc <run_controller+0x250>)
    3c3e:	0002      	movs	r2, r0
    3c40:	000b      	movs	r3, r1
    3c42:	9804      	ldr	r0, [sp, #16]
    3c44:	9905      	ldr	r1, [sp, #20]
    3c46:	47a8      	blx	r5
    3c48:	4b65      	ldr	r3, [pc, #404]	; (3de0 <run_controller+0x254>)
    3c4a:	4798      	blx	r3
    3c4c:	4d5b      	ldr	r5, [pc, #364]	; (3dbc <run_controller+0x230>)
    3c4e:	9004      	str	r0, [sp, #16]
    3c50:	6020      	str	r0, [r4, #0]
    3c52:	9802      	ldr	r0, [sp, #8]
    3c54:	47a8      	blx	r5
    3c56:	17c3      	asrs	r3, r0, #31
    3c58:	18c0      	adds	r0, r0, r3
    3c5a:	4058      	eors	r0, r3
    3c5c:	4b54      	ldr	r3, [pc, #336]	; (3db0 <run_controller+0x224>)
    3c5e:	4798      	blx	r3
    3c60:	9b01      	ldr	r3, [sp, #4]
    3c62:	6959      	ldr	r1, [r3, #20]
    3c64:	4b5f      	ldr	r3, [pc, #380]	; (3de4 <run_controller+0x258>)
    3c66:	4798      	blx	r3
    3c68:	4e5f      	ldr	r6, [pc, #380]	; (3de8 <run_controller+0x25c>)
    3c6a:	2800      	cmp	r0, #0
    3c6c:	d100      	bne.n	3c70 <run_controller+0xe4>
    3c6e:	e096      	b.n	3d9e <run_controller+0x212>
    3c70:	6831      	ldr	r1, [r6, #0]
    3c72:	4b5e      	ldr	r3, [pc, #376]	; (3dec <run_controller+0x260>)
    3c74:	9802      	ldr	r0, [sp, #8]
    3c76:	4798      	blx	r3
    3c78:	9b01      	ldr	r3, [sp, #4]
    3c7a:	6030      	str	r0, [r6, #0]
    3c7c:	689b      	ldr	r3, [r3, #8]
    3c7e:	1c04      	adds	r4, r0, #0
    3c80:	9306      	str	r3, [sp, #24]
    3c82:	9b01      	ldr	r3, [sp, #4]
    3c84:	9906      	ldr	r1, [sp, #24]
    3c86:	691b      	ldr	r3, [r3, #16]
    3c88:	9307      	str	r3, [sp, #28]
    3c8a:	4b4b      	ldr	r3, [pc, #300]	; (3db8 <run_controller+0x22c>)
    3c8c:	4798      	blx	r3
    3c8e:	47a8      	blx	r5
    3c90:	17c3      	asrs	r3, r0, #31
    3c92:	18c0      	adds	r0, r0, r3
    3c94:	4058      	eors	r0, r3
    3c96:	4b46      	ldr	r3, [pc, #280]	; (3db0 <run_controller+0x224>)
    3c98:	4798      	blx	r3
    3c9a:	9907      	ldr	r1, [sp, #28]
    3c9c:	4b54      	ldr	r3, [pc, #336]	; (3df0 <run_controller+0x264>)
    3c9e:	4798      	blx	r3
    3ca0:	2800      	cmp	r0, #0
    3ca2:	d010      	beq.n	3cc6 <run_controller+0x13a>
    3ca4:	1c20      	adds	r0, r4, #0
    3ca6:	47a8      	blx	r5
    3ca8:	17c3      	asrs	r3, r0, #31
    3caa:	18c0      	adds	r0, r0, r3
    3cac:	4058      	eors	r0, r3
    3cae:	4b40      	ldr	r3, [pc, #256]	; (3db0 <run_controller+0x224>)
    3cb0:	4798      	blx	r3
    3cb2:	4d40      	ldr	r5, [pc, #256]	; (3db4 <run_controller+0x228>)
    3cb4:	1c01      	adds	r1, r0, #0
    3cb6:	1c20      	adds	r0, r4, #0
    3cb8:	47a8      	blx	r5
    3cba:	9907      	ldr	r1, [sp, #28]
    3cbc:	4b3e      	ldr	r3, [pc, #248]	; (3db8 <run_controller+0x22c>)
    3cbe:	4798      	blx	r3
    3cc0:	9906      	ldr	r1, [sp, #24]
    3cc2:	47a8      	blx	r5
    3cc4:	6030      	str	r0, [r6, #0]
    3cc6:	4b3a      	ldr	r3, [pc, #232]	; (3db0 <run_controller+0x224>)
    3cc8:	9803      	ldr	r0, [sp, #12]
    3cca:	4798      	blx	r3
    3ccc:	9b01      	ldr	r3, [sp, #4]
    3cce:	4c3a      	ldr	r4, [pc, #232]	; (3db8 <run_controller+0x22c>)
    3cd0:	6819      	ldr	r1, [r3, #0]
    3cd2:	47a0      	blx	r4
    3cd4:	9b01      	ldr	r3, [sp, #4]
    3cd6:	1c06      	adds	r6, r0, #0
    3cd8:	6859      	ldr	r1, [r3, #4]
    3cda:	9802      	ldr	r0, [sp, #8]
    3cdc:	47a0      	blx	r4
    3cde:	4d43      	ldr	r5, [pc, #268]	; (3dec <run_controller+0x260>)
    3ce0:	1c01      	adds	r1, r0, #0
    3ce2:	1c30      	adds	r0, r6, #0
    3ce4:	47a8      	blx	r5
    3ce6:	4b40      	ldr	r3, [pc, #256]	; (3de8 <run_controller+0x25c>)
    3ce8:	1c06      	adds	r6, r0, #0
    3cea:	6819      	ldr	r1, [r3, #0]
    3cec:	9b01      	ldr	r3, [sp, #4]
    3cee:	6898      	ldr	r0, [r3, #8]
    3cf0:	47a0      	blx	r4
    3cf2:	1c01      	adds	r1, r0, #0
    3cf4:	1c30      	adds	r0, r6, #0
    3cf6:	47a8      	blx	r5
    3cf8:	9b01      	ldr	r3, [sp, #4]
    3cfa:	1c06      	adds	r6, r0, #0
    3cfc:	68d9      	ldr	r1, [r3, #12]
    3cfe:	9804      	ldr	r0, [sp, #16]
    3d00:	47a0      	blx	r4
    3d02:	1c01      	adds	r1, r0, #0
    3d04:	1c30      	adds	r0, r6, #0
    3d06:	47a8      	blx	r5
    3d08:	9b01      	ldr	r3, [sp, #4]
    3d0a:	4d39      	ldr	r5, [pc, #228]	; (3df0 <run_controller+0x264>)
    3d0c:	699e      	ldr	r6, [r3, #24]
    3d0e:	1c04      	adds	r4, r0, #0
    3d10:	1c31      	adds	r1, r6, #0
    3d12:	47a8      	blx	r5
    3d14:	2800      	cmp	r0, #0
    3d16:	d000      	beq.n	3d1a <run_controller+0x18e>
    3d18:	1c34      	adds	r4, r6, #0
    3d1a:	9b01      	ldr	r3, [sp, #4]
    3d1c:	1c21      	adds	r1, r4, #0
    3d1e:	69de      	ldr	r6, [r3, #28]
    3d20:	1c30      	adds	r0, r6, #0
    3d22:	47a8      	blx	r5
    3d24:	2800      	cmp	r0, #0
    3d26:	d000      	beq.n	3d2a <run_controller+0x19e>
    3d28:	1c34      	adds	r4, r6, #0
    3d2a:	4b25      	ldr	r3, [pc, #148]	; (3dc0 <run_controller+0x234>)
    3d2c:	9a02      	ldr	r2, [sp, #8]
    3d2e:	1c20      	adds	r0, r4, #0
    3d30:	601a      	str	r2, [r3, #0]
    3d32:	2201      	movs	r2, #1
    3d34:	7d3b      	ldrb	r3, [r7, #20]
    3d36:	4013      	ands	r3, r2
    3d38:	4a1b      	ldr	r2, [pc, #108]	; (3da8 <run_controller+0x21c>)
    3d3a:	7013      	strb	r3, [r2, #0]
    3d3c:	b009      	add	sp, #36	; 0x24
    3d3e:	bdf0      	pop	{r4, r5, r6, r7, pc}
    3d40:	68a6      	ldr	r6, [r4, #8]
    3d42:	1983      	adds	r3, r0, r6
    3d44:	429d      	cmp	r5, r3
    3d46:	da1f      	bge.n	3d88 <run_controller+0x1fc>
    3d48:	68fb      	ldr	r3, [r7, #12]
    3d4a:	1a28      	subs	r0, r5, r0
    3d4c:	9303      	str	r3, [sp, #12]
    3d4e:	4d18      	ldr	r5, [pc, #96]	; (3db0 <run_controller+0x224>)
    3d50:	6123      	str	r3, [r4, #16]
    3d52:	47a8      	blx	r5
    3d54:	9004      	str	r0, [sp, #16]
    3d56:	0030      	movs	r0, r6
    3d58:	47a8      	blx	r5
    3d5a:	4b16      	ldr	r3, [pc, #88]	; (3db4 <run_controller+0x228>)
    3d5c:	1c01      	adds	r1, r0, #0
    3d5e:	9804      	ldr	r0, [sp, #16]
    3d60:	4798      	blx	r3
    3d62:	68fa      	ldr	r2, [r7, #12]
    3d64:	68bb      	ldr	r3, [r7, #8]
    3d66:	1c06      	adds	r6, r0, #0
    3d68:	1a98      	subs	r0, r3, r2
    3d6a:	47a8      	blx	r5
    3d6c:	4b12      	ldr	r3, [pc, #72]	; (3db8 <run_controller+0x22c>)
    3d6e:	1c01      	adds	r1, r0, #0
    3d70:	1c30      	adds	r0, r6, #0
    3d72:	4798      	blx	r3
    3d74:	1c06      	adds	r6, r0, #0
    3d76:	9803      	ldr	r0, [sp, #12]
    3d78:	47a8      	blx	r5
    3d7a:	4b1c      	ldr	r3, [pc, #112]	; (3dec <run_controller+0x260>)
    3d7c:	1c01      	adds	r1, r0, #0
    3d7e:	1c30      	adds	r0, r6, #0
    3d80:	4798      	blx	r3
    3d82:	4b0e      	ldr	r3, [pc, #56]	; (3dbc <run_controller+0x230>)
    3d84:	4798      	blx	r3
    3d86:	e733      	b.n	3bf0 <run_controller+0x64>
    3d88:	68e2      	ldr	r2, [r4, #12]
    3d8a:	189b      	adds	r3, r3, r2
    3d8c:	68ba      	ldr	r2, [r7, #8]
    3d8e:	6122      	str	r2, [r4, #16]
    3d90:	429d      	cmp	r5, r3
    3d92:	da00      	bge.n	3d96 <run_controller+0x20a>
    3d94:	e735      	b.n	3c02 <run_controller+0x76>
    3d96:	9a02      	ldr	r2, [sp, #8]
    3d98:	18d3      	adds	r3, r2, r3
    3d9a:	9302      	str	r3, [sp, #8]
    3d9c:	e731      	b.n	3c02 <run_controller+0x76>
    3d9e:	2300      	movs	r3, #0
    3da0:	6033      	str	r3, [r6, #0]
    3da2:	e790      	b.n	3cc6 <run_controller+0x13a>
    3da4:	00005d61 	.word	0x00005d61
    3da8:	2000368c 	.word	0x2000368c
    3dac:	20003688 	.word	0x20003688
    3db0:	0000904d 	.word	0x0000904d
    3db4:	000086b5 	.word	0x000086b5
    3db8:	00008a95 	.word	0x00008a95
    3dbc:	0000900d 	.word	0x0000900d
    3dc0:	20003684 	.word	0x20003684
    3dc4:	00008cd5 	.word	0x00008cd5
    3dc8:	3f333333 	.word	0x3f333333
    3dcc:	0000abfd 	.word	0x0000abfd
    3dd0:	2000367c 	.word	0x2000367c
    3dd4:	00009f75 	.word	0x00009f75
    3dd8:	3fd33333 	.word	0x3fd33333
    3ddc:	000090ed 	.word	0x000090ed
    3de0:	0000aca1 	.word	0x0000aca1
    3de4:	00008045 	.word	0x00008045
    3de8:	20003680 	.word	0x20003680
    3dec:	00008391 	.word	0x00008391
    3df0:	0000806d 	.word	0x0000806d

00003df4 <crc_8>:
    3df4:	b510      	push	{r4, lr}
    3df6:	1e03      	subs	r3, r0, #0
    3df8:	d004      	beq.n	3e04 <crc_8+0x10>
    3dfa:	1841      	adds	r1, r0, r1
    3dfc:	2000      	movs	r0, #0
    3dfe:	4a04      	ldr	r2, [pc, #16]	; (3e10 <crc_8+0x1c>)
    3e00:	428b      	cmp	r3, r1
    3e02:	d100      	bne.n	3e06 <crc_8+0x12>
    3e04:	bd10      	pop	{r4, pc}
    3e06:	781c      	ldrb	r4, [r3, #0]
    3e08:	3301      	adds	r3, #1
    3e0a:	4060      	eors	r0, r4
    3e0c:	5c10      	ldrb	r0, [r2, r0]
    3e0e:	e7f7      	b.n	3e00 <crc_8+0xc>
    3e10:	0000b73e 	.word	0x0000b73e

00003e14 <flow_sensor_slm_callback>:
    3e14:	b510      	push	{r4, lr}
    3e16:	490c      	ldr	r1, [pc, #48]	; (3e48 <flow_sensor_slm_callback+0x34>)
    3e18:	780b      	ldrb	r3, [r1, #0]
    3e1a:	784c      	ldrb	r4, [r1, #1]
    3e1c:	021b      	lsls	r3, r3, #8
    3e1e:	7888      	ldrb	r0, [r1, #2]
    3e20:	191b      	adds	r3, r3, r4
    3e22:	021b      	lsls	r3, r3, #8
    3e24:	78ca      	ldrb	r2, [r1, #3]
    3e26:	181b      	adds	r3, r3, r0
    3e28:	021b      	lsls	r3, r3, #8
    3e2a:	189b      	adds	r3, r3, r2
    3e2c:	4a07      	ldr	r2, [pc, #28]	; (3e4c <flow_sensor_slm_callback+0x38>)
    3e2e:	6013      	str	r3, [r2, #0]
    3e30:	790b      	ldrb	r3, [r1, #4]
    3e32:	794c      	ldrb	r4, [r1, #5]
    3e34:	021b      	lsls	r3, r3, #8
    3e36:	7988      	ldrb	r0, [r1, #6]
    3e38:	191b      	adds	r3, r3, r4
    3e3a:	021b      	lsls	r3, r3, #8
    3e3c:	79c9      	ldrb	r1, [r1, #7]
    3e3e:	181b      	adds	r3, r3, r0
    3e40:	021b      	lsls	r3, r3, #8
    3e42:	185b      	adds	r3, r3, r1
    3e44:	6053      	str	r3, [r2, #4]
    3e46:	bd10      	pop	{r4, pc}
    3e48:	200036c0 	.word	0x200036c0
    3e4c:	20003690 	.word	0x20003690

00003e50 <fs6122_init>:
    3e50:	2280      	movs	r2, #128	; 0x80
    3e52:	b570      	push	{r4, r5, r6, lr}
    3e54:	b08e      	sub	sp, #56	; 0x38
    3e56:	ac01      	add	r4, sp, #4
    3e58:	0392      	lsls	r2, r2, #14
    3e5a:	6122      	str	r2, [r4, #16]
    3e5c:	2201      	movs	r2, #1
    3e5e:	4b2c      	ldr	r3, [pc, #176]	; (3f10 <fs6122_init+0xc0>)
    3e60:	4252      	negs	r2, r2
    3e62:	6063      	str	r3, [r4, #4]
    3e64:	2300      	movs	r3, #0
    3e66:	82e2      	strh	r2, [r4, #22]
    3e68:	82a2      	strh	r2, [r4, #20]
    3e6a:	320a      	adds	r2, #10
    3e6c:	446a      	add	r2, sp
    3e6e:	77d3      	strb	r3, [r2, #31]
    3e70:	aa0c      	add	r2, sp, #48	; 0x30
    3e72:	7013      	strb	r3, [r2, #0]
    3e74:	2231      	movs	r2, #49	; 0x31
    3e76:	446a      	add	r2, sp
    3e78:	7013      	strb	r3, [r2, #0]
    3e7a:	2232      	movs	r2, #50	; 0x32
    3e7c:	446a      	add	r2, sp
    3e7e:	60a3      	str	r3, [r4, #8]
    3e80:	7623      	strb	r3, [r4, #24]
    3e82:	62a3      	str	r3, [r4, #40]	; 0x28
    3e84:	7013      	strb	r3, [r2, #0]
    3e86:	33d7      	adds	r3, #215	; 0xd7
    3e88:	8623      	strh	r3, [r4, #48]	; 0x30
    3e8a:	3bd6      	subs	r3, #214	; 0xd6
    3e8c:	7323      	strb	r3, [r4, #12]
    3e8e:	334f      	adds	r3, #79	; 0x4f
    3e90:	9301      	str	r3, [sp, #4]
    3e92:	3b3a      	subs	r3, #58	; 0x3a
    3e94:	61e3      	str	r3, [r4, #28]
    3e96:	3301      	adds	r3, #1
    3e98:	6223      	str	r3, [r4, #32]
    3e9a:	4d1e      	ldr	r5, [pc, #120]	; (3f14 <fs6122_init+0xc4>)
    3e9c:	0022      	movs	r2, r4
    3e9e:	491e      	ldr	r1, [pc, #120]	; (3f18 <fs6122_init+0xc8>)
    3ea0:	0028      	movs	r0, r5
    3ea2:	4b1e      	ldr	r3, [pc, #120]	; (3f1c <fs6122_init+0xcc>)
    3ea4:	4798      	blx	r3
    3ea6:	2800      	cmp	r0, #0
    3ea8:	d1f7      	bne.n	3e9a <fs6122_init+0x4a>
    3eaa:	2207      	movs	r2, #7
    3eac:	682e      	ldr	r6, [r5, #0]
    3eae:	69f4      	ldr	r4, [r6, #28]
    3eb0:	4014      	ands	r4, r2
    3eb2:	d1fc      	bne.n	3eae <fs6122_init+0x5e>
    3eb4:	2302      	movs	r3, #2
    3eb6:	6832      	ldr	r2, [r6, #0]
    3eb8:	4313      	orrs	r3, r2
    3eba:	6033      	str	r3, [r6, #0]
    3ebc:	6828      	ldr	r0, [r5, #0]
    3ebe:	4b18      	ldr	r3, [pc, #96]	; (3f20 <fs6122_init+0xd0>)
    3ec0:	4798      	blx	r3
    3ec2:	231f      	movs	r3, #31
    3ec4:	4018      	ands	r0, r3
    3ec6:	3b1e      	subs	r3, #30
    3ec8:	4083      	lsls	r3, r0
    3eca:	4a16      	ldr	r2, [pc, #88]	; (3f24 <fs6122_init+0xd4>)
    3ecc:	6013      	str	r3, [r2, #0]
    3ece:	2210      	movs	r2, #16
    3ed0:	88e8      	ldrh	r0, [r5, #6]
    3ed2:	8b71      	ldrh	r1, [r6, #26]
    3ed4:	4211      	tst	r1, r2
    3ed6:	d103      	bne.n	3ee0 <fs6122_init+0x90>
    3ed8:	3401      	adds	r4, #1
    3eda:	4284      	cmp	r4, r0
    3edc:	d3f9      	bcc.n	3ed2 <fs6122_init+0x82>
    3ede:	8372      	strh	r2, [r6, #26]
    3ee0:	0028      	movs	r0, r5
    3ee2:	2201      	movs	r2, #1
    3ee4:	4910      	ldr	r1, [pc, #64]	; (3f28 <fs6122_init+0xd8>)
    3ee6:	4b11      	ldr	r3, [pc, #68]	; (3f2c <fs6122_init+0xdc>)
    3ee8:	4798      	blx	r3
    3eea:	2302      	movs	r3, #2
    3eec:	7e6a      	ldrb	r2, [r5, #25]
    3eee:	4910      	ldr	r1, [pc, #64]	; (3f30 <fs6122_init+0xe0>)
    3ef0:	4313      	orrs	r3, r2
    3ef2:	766b      	strb	r3, [r5, #25]
    3ef4:	2301      	movs	r3, #1
    3ef6:	800b      	strh	r3, [r1, #0]
    3ef8:	804b      	strh	r3, [r1, #2]
    3efa:	2300      	movs	r3, #0
    3efc:	4a0d      	ldr	r2, [pc, #52]	; (3f34 <fs6122_init+0xe4>)
    3efe:	724b      	strb	r3, [r1, #9]
    3f00:	720b      	strb	r3, [r1, #8]
    3f02:	0028      	movs	r0, r5
    3f04:	4b0c      	ldr	r3, [pc, #48]	; (3f38 <fs6122_init+0xe8>)
    3f06:	604a      	str	r2, [r1, #4]
    3f08:	4798      	blx	r3
    3f0a:	b00e      	add	sp, #56	; 0x38
    3f0c:	bd70      	pop	{r4, r5, r6, pc}
    3f0e:	46c0      	nop			; (mov r8, r8)
    3f10:	00000d48 	.word	0x00000d48
    3f14:	20003698 	.word	0x20003698
    3f18:	42001400 	.word	0x42001400
    3f1c:	00001345 	.word	0x00001345
    3f20:	0000700d 	.word	0x0000700d
    3f24:	e000e100 	.word	0xe000e100
    3f28:	00003e15 	.word	0x00003e15
    3f2c:	0000185d 	.word	0x0000185d
    3f30:	200036d4 	.word	0x200036d4
    3f34:	200000bc 	.word	0x200000bc
    3f38:	00001895 	.word	0x00001895

00003f3c <reset_fs6122_read_pointer>:
    3f3c:	2301      	movs	r3, #1
    3f3e:	4906      	ldr	r1, [pc, #24]	; (3f58 <reset_fs6122_read_pointer+0x1c>)
    3f40:	b510      	push	{r4, lr}
    3f42:	800b      	strh	r3, [r1, #0]
    3f44:	804b      	strh	r3, [r1, #2]
    3f46:	2300      	movs	r3, #0
    3f48:	4a04      	ldr	r2, [pc, #16]	; (3f5c <reset_fs6122_read_pointer+0x20>)
    3f4a:	724b      	strb	r3, [r1, #9]
    3f4c:	720b      	strb	r3, [r1, #8]
    3f4e:	4804      	ldr	r0, [pc, #16]	; (3f60 <reset_fs6122_read_pointer+0x24>)
    3f50:	4b04      	ldr	r3, [pc, #16]	; (3f64 <reset_fs6122_read_pointer+0x28>)
    3f52:	604a      	str	r2, [r1, #4]
    3f54:	4798      	blx	r3
    3f56:	bd10      	pop	{r4, pc}
    3f58:	200036d4 	.word	0x200036d4
    3f5c:	200000bd 	.word	0x200000bd
    3f60:	20003698 	.word	0x20003698
    3f64:	00001895 	.word	0x00001895

00003f68 <request_fs6122_data>:
    3f68:	2301      	movs	r3, #1
    3f6a:	4907      	ldr	r1, [pc, #28]	; (3f88 <request_fs6122_data+0x20>)
    3f6c:	b510      	push	{r4, lr}
    3f6e:	800b      	strh	r3, [r1, #0]
    3f70:	4b06      	ldr	r3, [pc, #24]	; (3f8c <request_fs6122_data+0x24>)
    3f72:	4807      	ldr	r0, [pc, #28]	; (3f90 <request_fs6122_data+0x28>)
    3f74:	604b      	str	r3, [r1, #4]
    3f76:	2308      	movs	r3, #8
    3f78:	804b      	strh	r3, [r1, #2]
    3f7a:	2300      	movs	r3, #0
    3f7c:	724b      	strb	r3, [r1, #9]
    3f7e:	720b      	strb	r3, [r1, #8]
    3f80:	4b04      	ldr	r3, [pc, #16]	; (3f94 <request_fs6122_data+0x2c>)
    3f82:	4798      	blx	r3
    3f84:	bd10      	pop	{r4, pc}
    3f86:	46c0      	nop			; (mov r8, r8)
    3f88:	200036c8 	.word	0x200036c8
    3f8c:	200036c0 	.word	0x200036c0
    3f90:	20003698 	.word	0x20003698
    3f94:	00001875 	.word	0x00001875

00003f98 <read_fs6122_data>:
    3f98:	4b01      	ldr	r3, [pc, #4]	; (3fa0 <read_fs6122_data+0x8>)
    3f9a:	cb06      	ldmia	r3!, {r1, r2}
    3f9c:	c006      	stmia	r0!, {r1, r2}
    3f9e:	4770      	bx	lr
    3fa0:	20003690 	.word	0x20003690

00003fa4 <dummy_spi_cb>:
    3fa4:	4770      	bx	lr
	...

00003fa8 <parameter_load_cb>:
    3fa8:	b570      	push	{r4, r5, r6, lr}
    3faa:	0004      	movs	r4, r0
    3fac:	b086      	sub	sp, #24
    3fae:	2916      	cmp	r1, #22
    3fb0:	d127      	bne.n	4002 <parameter_load_cb+0x5a>
    3fb2:	7d45      	ldrb	r5, [r0, #21]
    3fb4:	3904      	subs	r1, #4
    3fb6:	3003      	adds	r0, #3
    3fb8:	4b13      	ldr	r3, [pc, #76]	; (4008 <parameter_load_cb+0x60>)
    3fba:	4798      	blx	r3
    3fbc:	4285      	cmp	r5, r0
    3fbe:	d120      	bne.n	4002 <parameter_load_cb+0x5a>
    3fc0:	2101      	movs	r1, #1
    3fc2:	ad01      	add	r5, sp, #4
    3fc4:	782b      	ldrb	r3, [r5, #0]
    3fc6:	78e2      	ldrb	r2, [r4, #3]
    3fc8:	438b      	bics	r3, r1
    3fca:	400a      	ands	r2, r1
    3fcc:	4313      	orrs	r3, r2
    3fce:	702b      	strb	r3, [r5, #0]
    3fd0:	7923      	ldrb	r3, [r4, #4]
    3fd2:	4e0e      	ldr	r6, [pc, #56]	; (400c <parameter_load_cb+0x64>)
    3fd4:	1d61      	adds	r1, r4, #5
    3fd6:	2204      	movs	r2, #4
    3fd8:	a802      	add	r0, sp, #8
    3fda:	706b      	strb	r3, [r5, #1]
    3fdc:	47b0      	blx	r6
    3fde:	0021      	movs	r1, r4
    3fe0:	2204      	movs	r2, #4
    3fe2:	3109      	adds	r1, #9
    3fe4:	a803      	add	r0, sp, #12
    3fe6:	47b0      	blx	r6
    3fe8:	0021      	movs	r1, r4
    3fea:	2204      	movs	r2, #4
    3fec:	310d      	adds	r1, #13
    3fee:	a804      	add	r0, sp, #16
    3ff0:	47b0      	blx	r6
    3ff2:	0021      	movs	r1, r4
    3ff4:	2204      	movs	r2, #4
    3ff6:	3111      	adds	r1, #17
    3ff8:	a805      	add	r0, sp, #20
    3ffa:	47b0      	blx	r6
    3ffc:	0028      	movs	r0, r5
    3ffe:	4b04      	ldr	r3, [pc, #16]	; (4010 <parameter_load_cb+0x68>)
    4000:	4798      	blx	r3
    4002:	b006      	add	sp, #24
    4004:	bd70      	pop	{r4, r5, r6, pc}
    4006:	46c0      	nop			; (mov r8, r8)
    4008:	00003df5 	.word	0x00003df5
    400c:	0000ae15 	.word	0x0000ae15
    4010:	00004af5 	.word	0x00004af5

00004014 <fram_init>:
    4014:	b573      	push	{r0, r1, r4, r5, r6, lr}
    4016:	4b0f      	ldr	r3, [pc, #60]	; (4054 <fram_init+0x40>)
    4018:	4798      	blx	r3
    401a:	2400      	movs	r4, #0
    401c:	200b      	movs	r0, #11
    401e:	2501      	movs	r5, #1
    4020:	4e0d      	ldr	r6, [pc, #52]	; (4058 <fram_init+0x44>)
    4022:	a901      	add	r1, sp, #4
    4024:	4b0d      	ldr	r3, [pc, #52]	; (405c <fram_init+0x48>)
    4026:	704d      	strb	r5, [r1, #1]
    4028:	708c      	strb	r4, [r1, #2]
    402a:	700d      	strb	r5, [r1, #0]
    402c:	7030      	strb	r0, [r6, #0]
    402e:	7074      	strb	r4, [r6, #1]
    4030:	70b4      	strb	r4, [r6, #2]
    4032:	4798      	blx	r3
    4034:	7832      	ldrb	r2, [r6, #0]
    4036:	0953      	lsrs	r3, r2, #5
    4038:	09d1      	lsrs	r1, r2, #7
    403a:	42a1      	cmp	r1, r4
    403c:	d107      	bne.n	404e <fram_init+0x3a>
    403e:	211f      	movs	r1, #31
    4040:	400a      	ands	r2, r1
    4042:	4095      	lsls	r5, r2
    4044:	4a06      	ldr	r2, [pc, #24]	; (4060 <fram_init+0x4c>)
    4046:	01db      	lsls	r3, r3, #7
    4048:	189b      	adds	r3, r3, r2
    404a:	619d      	str	r5, [r3, #24]
    404c:	bd73      	pop	{r0, r1, r4, r5, r6, pc}
    404e:	61a4      	str	r4, [r4, #24]
    4050:	deff      	udf	#255	; 0xff
    4052:	46c0      	nop			; (mov r8, r8)
    4054:	00004741 	.word	0x00004741
    4058:	200036e0 	.word	0x200036e0
    405c:	0000709d 	.word	0x0000709d
    4060:	41004400 	.word	0x41004400

00004064 <fram_load_parameters_asynch>:
    4064:	2203      	movs	r2, #3
    4066:	2100      	movs	r1, #0
    4068:	b510      	push	{r4, lr}
    406a:	b08a      	sub	sp, #40	; 0x28
    406c:	ab04      	add	r3, sp, #16
    406e:	701a      	strb	r2, [r3, #0]
    4070:	7059      	strb	r1, [r3, #1]
    4072:	7099      	strb	r1, [r3, #2]
    4074:	9301      	str	r3, [sp, #4]
    4076:	2316      	movs	r3, #22
    4078:	9302      	str	r3, [sp, #8]
    407a:	4b07      	ldr	r3, [pc, #28]	; (4098 <fram_load_parameters_asynch+0x34>)
    407c:	4907      	ldr	r1, [pc, #28]	; (409c <fram_load_parameters_asynch+0x38>)
    407e:	9303      	str	r3, [sp, #12]
    4080:	4668      	mov	r0, sp
    4082:	4b07      	ldr	r3, [pc, #28]	; (40a0 <fram_load_parameters_asynch+0x3c>)
    4084:	4798      	blx	r3
    4086:	9800      	ldr	r0, [sp, #0]
    4088:	9901      	ldr	r1, [sp, #4]
    408a:	9a02      	ldr	r2, [sp, #8]
    408c:	9b03      	ldr	r3, [sp, #12]
    408e:	4c05      	ldr	r4, [pc, #20]	; (40a4 <fram_load_parameters_asynch+0x40>)
    4090:	47a0      	blx	r4
    4092:	b00a      	add	sp, #40	; 0x28
    4094:	bd10      	pop	{r4, pc}
    4096:	46c0      	nop			; (mov r8, r8)
    4098:	00003fa9 	.word	0x00003fa9
    409c:	200036e0 	.word	0x200036e0
    40a0:	0000ae15 	.word	0x0000ae15
    40a4:	000047f1 	.word	0x000047f1

000040a8 <fram_save_parameters_asynch>:
    40a8:	b5f0      	push	{r4, r5, r6, r7, lr}
    40aa:	b08b      	sub	sp, #44	; 0x2c
    40ac:	466a      	mov	r2, sp
    40ae:	2306      	movs	r3, #6
    40b0:	7013      	strb	r3, [r2, #0]
    40b2:	2301      	movs	r3, #1
    40b4:	ac04      	add	r4, sp, #16
    40b6:	9306      	str	r3, [sp, #24]
    40b8:	4b2d      	ldr	r3, [pc, #180]	; (4170 <fram_save_parameters_asynch+0xc8>)
    40ba:	0006      	movs	r6, r0
    40bc:	4f2d      	ldr	r7, [pc, #180]	; (4174 <fram_save_parameters_asynch+0xcc>)
    40be:	9205      	str	r2, [sp, #20]
    40c0:	492d      	ldr	r1, [pc, #180]	; (4178 <fram_save_parameters_asynch+0xd0>)
    40c2:	2203      	movs	r2, #3
    40c4:	0020      	movs	r0, r4
    40c6:	9307      	str	r3, [sp, #28]
    40c8:	47b8      	blx	r7
    40ca:	6861      	ldr	r1, [r4, #4]
    40cc:	68a2      	ldr	r2, [r4, #8]
    40ce:	68e3      	ldr	r3, [r4, #12]
    40d0:	9804      	ldr	r0, [sp, #16]
    40d2:	4d2a      	ldr	r5, [pc, #168]	; (417c <fram_save_parameters_asynch+0xd4>)
    40d4:	47a8      	blx	r5
    40d6:	4b2a      	ldr	r3, [pc, #168]	; (4180 <fram_save_parameters_asynch+0xd8>)
    40d8:	2000      	movs	r0, #0
    40da:	4798      	blx	r3
    40dc:	4d29      	ldr	r5, [pc, #164]	; (4184 <fram_save_parameters_asynch+0xdc>)
    40de:	2232      	movs	r2, #50	; 0x32
    40e0:	2300      	movs	r3, #0
    40e2:	2100      	movs	r1, #0
    40e4:	47a8      	blx	r5
    40e6:	2300      	movs	r3, #0
    40e8:	4a27      	ldr	r2, [pc, #156]	; (4188 <fram_save_parameters_asynch+0xe0>)
    40ea:	4d28      	ldr	r5, [pc, #160]	; (418c <fram_save_parameters_asynch+0xe4>)
    40ec:	1880      	adds	r0, r0, r2
    40ee:	4159      	adcs	r1, r3
    40f0:	4a27      	ldr	r2, [pc, #156]	; (4190 <fram_save_parameters_asynch+0xe8>)
    40f2:	2300      	movs	r3, #0
    40f4:	47a8      	blx	r5
    40f6:	4b27      	ldr	r3, [pc, #156]	; (4194 <fram_save_parameters_asynch+0xec>)
    40f8:	4798      	blx	r3
    40fa:	2302      	movs	r3, #2
    40fc:	7023      	strb	r3, [r4, #0]
    40fe:	2300      	movs	r3, #0
    4100:	7063      	strb	r3, [r4, #1]
    4102:	2300      	movs	r3, #0
    4104:	2504      	movs	r5, #4
    4106:	2015      	movs	r0, #21
    4108:	70a3      	strb	r3, [r4, #2]
    410a:	7833      	ldrb	r3, [r6, #0]
    410c:	1d31      	adds	r1, r6, #4
    410e:	07db      	lsls	r3, r3, #31
    4110:	0fdb      	lsrs	r3, r3, #31
    4112:	70e3      	strb	r3, [r4, #3]
    4114:	7873      	ldrb	r3, [r6, #1]
    4116:	002a      	movs	r2, r5
    4118:	4468      	add	r0, sp
    411a:	7123      	strb	r3, [r4, #4]
    411c:	47b8      	blx	r7
    411e:	0031      	movs	r1, r6
    4120:	2019      	movs	r0, #25
    4122:	002a      	movs	r2, r5
    4124:	3108      	adds	r1, #8
    4126:	4468      	add	r0, sp
    4128:	47b8      	blx	r7
    412a:	0031      	movs	r1, r6
    412c:	201d      	movs	r0, #29
    412e:	002a      	movs	r2, r5
    4130:	310c      	adds	r1, #12
    4132:	4468      	add	r0, sp
    4134:	47b8      	blx	r7
    4136:	0031      	movs	r1, r6
    4138:	2021      	movs	r0, #33	; 0x21
    413a:	002a      	movs	r2, r5
    413c:	3110      	adds	r1, #16
    413e:	4468      	add	r0, sp
    4140:	47b8      	blx	r7
    4142:	2013      	movs	r0, #19
    4144:	2112      	movs	r1, #18
    4146:	4468      	add	r0, sp
    4148:	4b13      	ldr	r3, [pc, #76]	; (4198 <fram_save_parameters_asynch+0xf0>)
    414a:	4798      	blx	r3
    414c:	2316      	movs	r3, #22
    414e:	9302      	str	r3, [sp, #8]
    4150:	4b07      	ldr	r3, [pc, #28]	; (4170 <fram_save_parameters_asynch+0xc8>)
    4152:	7560      	strb	r0, [r4, #21]
    4154:	2203      	movs	r2, #3
    4156:	4908      	ldr	r1, [pc, #32]	; (4178 <fram_save_parameters_asynch+0xd0>)
    4158:	4668      	mov	r0, sp
    415a:	9401      	str	r4, [sp, #4]
    415c:	9303      	str	r3, [sp, #12]
    415e:	47b8      	blx	r7
    4160:	9800      	ldr	r0, [sp, #0]
    4162:	9901      	ldr	r1, [sp, #4]
    4164:	9a02      	ldr	r2, [sp, #8]
    4166:	9b03      	ldr	r3, [sp, #12]
    4168:	4c04      	ldr	r4, [pc, #16]	; (417c <fram_save_parameters_asynch+0xd4>)
    416a:	47a0      	blx	r4
    416c:	b00b      	add	sp, #44	; 0x2c
    416e:	bdf0      	pop	{r4, r5, r6, r7, pc}
    4170:	00003fa5 	.word	0x00003fa5
    4174:	0000ae15 	.word	0x0000ae15
    4178:	200036e0 	.word	0x200036e0
    417c:	000047f1 	.word	0x000047f1
    4180:	00007859 	.word	0x00007859
    4184:	00008151 	.word	0x00008151
    4188:	006acfbf 	.word	0x006acfbf
    418c:	00008111 	.word	0x00008111
    4190:	006acfc0 	.word	0x006acfc0
    4194:	20000001 	.word	0x20000001
    4198:	00003df5 	.word	0x00003df5

0000419c <send_buffer>:
    419c:	b5f0      	push	{r4, r5, r6, r7, lr}
    419e:	b085      	sub	sp, #20
    41a0:	2800      	cmp	r0, #0
    41a2:	d160      	bne.n	4266 <send_buffer+0xca>
    41a4:	4e33      	ldr	r6, [pc, #204]	; (4274 <send_buffer+0xd8>)
    41a6:	4c34      	ldr	r4, [pc, #208]	; (4278 <send_buffer+0xdc>)
    41a8:	4d34      	ldr	r5, [pc, #208]	; (427c <send_buffer+0xe0>)
    41aa:	0021      	movs	r1, r4
    41ac:	2214      	movs	r2, #20
    41ae:	0030      	movs	r0, r6
    41b0:	47a8      	blx	r5
    41b2:	0030      	movs	r0, r6
    41b4:	0021      	movs	r1, r4
    41b6:	2214      	movs	r2, #20
    41b8:	3128      	adds	r1, #40	; 0x28
    41ba:	3014      	adds	r0, #20
    41bc:	47a8      	blx	r5
    41be:	0021      	movs	r1, r4
    41c0:	4e2f      	ldr	r6, [pc, #188]	; (4280 <send_buffer+0xe4>)
    41c2:	3114      	adds	r1, #20
    41c4:	2214      	movs	r2, #20
    41c6:	0030      	movs	r0, r6
    41c8:	47a8      	blx	r5
    41ca:	0021      	movs	r1, r4
    41cc:	0030      	movs	r0, r6
    41ce:	313c      	adds	r1, #60	; 0x3c
    41d0:	3014      	adds	r0, #20
    41d2:	2214      	movs	r2, #20
    41d4:	47a8      	blx	r5
    41d6:	2400      	movs	r4, #0
    41d8:	2320      	movs	r3, #32
    41da:	4a26      	ldr	r2, [pc, #152]	; (4274 <send_buffer+0xd8>)
    41dc:	5ca2      	ldrb	r2, [r4, r2]
    41de:	2a06      	cmp	r2, #6
    41e0:	d801      	bhi.n	41e6 <send_buffer+0x4a>
    41e2:	4a24      	ldr	r2, [pc, #144]	; (4274 <send_buffer+0xd8>)
    41e4:	54a3      	strb	r3, [r4, r2]
    41e6:	4a26      	ldr	r2, [pc, #152]	; (4280 <send_buffer+0xe4>)
    41e8:	5d12      	ldrb	r2, [r2, r4]
    41ea:	2a06      	cmp	r2, #6
    41ec:	d801      	bhi.n	41f2 <send_buffer+0x56>
    41ee:	4a24      	ldr	r2, [pc, #144]	; (4280 <send_buffer+0xe4>)
    41f0:	5513      	strb	r3, [r2, r4]
    41f2:	3401      	adds	r4, #1
    41f4:	2c28      	cmp	r4, #40	; 0x28
    41f6:	d1f0      	bne.n	41da <send_buffer+0x3e>
    41f8:	4b22      	ldr	r3, [pc, #136]	; (4284 <send_buffer+0xe8>)
    41fa:	4a23      	ldr	r2, [pc, #140]	; (4288 <send_buffer+0xec>)
    41fc:	2500      	movs	r5, #0
    41fe:	4694      	mov	ip, r2
    4200:	605a      	str	r2, [r3, #4]
    4202:	2203      	movs	r2, #3
    4204:	0018      	movs	r0, r3
    4206:	725d      	strb	r5, [r3, #9]
    4208:	721d      	strb	r5, [r3, #8]
    420a:	801c      	strh	r4, [r3, #0]
    420c:	805a      	strh	r2, [r3, #2]
    420e:	aa01      	add	r2, sp, #4
    4210:	c8c2      	ldmia	r0!, {r1, r6, r7}
    4212:	c2c2      	stmia	r2!, {r1, r6, r7}
    4214:	4661      	mov	r1, ip
    4216:	9801      	ldr	r0, [sp, #4]
    4218:	689a      	ldr	r2, [r3, #8]
    421a:	4b1c      	ldr	r3, [pc, #112]	; (428c <send_buffer+0xf0>)
    421c:	4798      	blx	r3
    421e:	4b1c      	ldr	r3, [pc, #112]	; (4290 <send_buffer+0xf4>)
    4220:	4a14      	ldr	r2, [pc, #80]	; (4274 <send_buffer+0xd8>)
    4222:	0019      	movs	r1, r3
    4224:	725d      	strb	r5, [r3, #9]
    4226:	721d      	strb	r5, [r3, #8]
    4228:	801c      	strh	r4, [r3, #0]
    422a:	605a      	str	r2, [r3, #4]
    422c:	805c      	strh	r4, [r3, #2]
    422e:	aa01      	add	r2, sp, #4
    4230:	c9c1      	ldmia	r1!, {r0, r6, r7}
    4232:	c2c1      	stmia	r2!, {r0, r6, r7}
    4234:	490f      	ldr	r1, [pc, #60]	; (4274 <send_buffer+0xd8>)
    4236:	9801      	ldr	r0, [sp, #4]
    4238:	689a      	ldr	r2, [r3, #8]
    423a:	4b14      	ldr	r3, [pc, #80]	; (428c <send_buffer+0xf0>)
    423c:	4798      	blx	r3
    423e:	4b15      	ldr	r3, [pc, #84]	; (4294 <send_buffer+0xf8>)
    4240:	4a0f      	ldr	r2, [pc, #60]	; (4280 <send_buffer+0xe4>)
    4242:	0019      	movs	r1, r3
    4244:	605a      	str	r2, [r3, #4]
    4246:	725d      	strb	r5, [r3, #9]
    4248:	721d      	strb	r5, [r3, #8]
    424a:	801c      	strh	r4, [r3, #0]
    424c:	805c      	strh	r4, [r3, #2]
    424e:	aa01      	add	r2, sp, #4
    4250:	c931      	ldmia	r1!, {r0, r4, r5}
    4252:	c231      	stmia	r2!, {r0, r4, r5}
    4254:	490a      	ldr	r1, [pc, #40]	; (4280 <send_buffer+0xe4>)
    4256:	689a      	ldr	r2, [r3, #8]
    4258:	9801      	ldr	r0, [sp, #4]
    425a:	4b0c      	ldr	r3, [pc, #48]	; (428c <send_buffer+0xf0>)
    425c:	4798      	blx	r3
    425e:	2301      	movs	r3, #1
    4260:	0018      	movs	r0, r3
    4262:	b005      	add	sp, #20
    4264:	bdf0      	pop	{r4, r5, r6, r7, pc}
    4266:	2300      	movs	r3, #0
    4268:	2801      	cmp	r0, #1
    426a:	d1f9      	bne.n	4260 <send_buffer+0xc4>
    426c:	4e01      	ldr	r6, [pc, #4]	; (4274 <send_buffer+0xd8>)
    426e:	4c0a      	ldr	r4, [pc, #40]	; (4298 <send_buffer+0xfc>)
    4270:	e79a      	b.n	41a8 <send_buffer+0xc>
    4272:	46c0      	nop			; (mov r8, r8)
    4274:	2000375e 	.word	0x2000375e
    4278:	200037ae 	.word	0x200037ae
    427c:	0000ae15 	.word	0x0000ae15
    4280:	20003786 	.word	0x20003786
    4284:	2000374c 	.word	0x2000374c
    4288:	200000be 	.word	0x200000be
    428c:	00004f1d 	.word	0x00004f1d
    4290:	2000380c 	.word	0x2000380c
    4294:	20003818 	.word	0x20003818
    4298:	200036e3 	.word	0x200036e3

0000429c <set_contrast>:
    429c:	b57f      	push	{r0, r1, r2, r3, r4, r5, r6, lr}
    429e:	1e43      	subs	r3, r0, #1
    42a0:	2200      	movs	r2, #0
    42a2:	2b31      	cmp	r3, #49	; 0x31
    42a4:	d816      	bhi.n	42d4 <set_contrast+0x38>
    42a6:	23fe      	movs	r3, #254	; 0xfe
    42a8:	490c      	ldr	r1, [pc, #48]	; (42dc <set_contrast+0x40>)
    42aa:	7088      	strb	r0, [r1, #2]
    42ac:	2028      	movs	r0, #40	; 0x28
    42ae:	700b      	strb	r3, [r1, #0]
    42b0:	3bac      	subs	r3, #172	; 0xac
    42b2:	704b      	strb	r3, [r1, #1]
    42b4:	4b0a      	ldr	r3, [pc, #40]	; (42e0 <set_contrast+0x44>)
    42b6:	8018      	strh	r0, [r3, #0]
    42b8:	3825      	subs	r0, #37	; 0x25
    42ba:	8058      	strh	r0, [r3, #2]
    42bc:	0018      	movs	r0, r3
    42be:	725a      	strb	r2, [r3, #9]
    42c0:	721a      	strb	r2, [r3, #8]
    42c2:	6059      	str	r1, [r3, #4]
    42c4:	aa01      	add	r2, sp, #4
    42c6:	c870      	ldmia	r0!, {r4, r5, r6}
    42c8:	c270      	stmia	r2!, {r4, r5, r6}
    42ca:	689a      	ldr	r2, [r3, #8]
    42cc:	9801      	ldr	r0, [sp, #4]
    42ce:	4b05      	ldr	r3, [pc, #20]	; (42e4 <set_contrast+0x48>)
    42d0:	4798      	blx	r3
    42d2:	2201      	movs	r2, #1
    42d4:	0010      	movs	r0, r2
    42d6:	b004      	add	sp, #16
    42d8:	bd70      	pop	{r4, r5, r6, pc}
    42da:	46c0      	nop			; (mov r8, r8)
    42dc:	20003758 	.word	0x20003758
    42e0:	20003740 	.word	0x20003740
    42e4:	00004f1d 	.word	0x00004f1d

000042e8 <set_backlight>:
    42e8:	b57f      	push	{r0, r1, r2, r3, r4, r5, r6, lr}
    42ea:	1e43      	subs	r3, r0, #1
    42ec:	2200      	movs	r2, #0
    42ee:	2b07      	cmp	r3, #7
    42f0:	d816      	bhi.n	4320 <set_backlight+0x38>
    42f2:	23fe      	movs	r3, #254	; 0xfe
    42f4:	490c      	ldr	r1, [pc, #48]	; (4328 <set_backlight+0x40>)
    42f6:	7088      	strb	r0, [r1, #2]
    42f8:	2028      	movs	r0, #40	; 0x28
    42fa:	700b      	strb	r3, [r1, #0]
    42fc:	3bab      	subs	r3, #171	; 0xab
    42fe:	704b      	strb	r3, [r1, #1]
    4300:	4b0a      	ldr	r3, [pc, #40]	; (432c <set_backlight+0x44>)
    4302:	8018      	strh	r0, [r3, #0]
    4304:	3825      	subs	r0, #37	; 0x25
    4306:	8058      	strh	r0, [r3, #2]
    4308:	0018      	movs	r0, r3
    430a:	725a      	strb	r2, [r3, #9]
    430c:	721a      	strb	r2, [r3, #8]
    430e:	6059      	str	r1, [r3, #4]
    4310:	aa01      	add	r2, sp, #4
    4312:	c870      	ldmia	r0!, {r4, r5, r6}
    4314:	c270      	stmia	r2!, {r4, r5, r6}
    4316:	689a      	ldr	r2, [r3, #8]
    4318:	9801      	ldr	r0, [sp, #4]
    431a:	4b05      	ldr	r3, [pc, #20]	; (4330 <set_backlight+0x48>)
    431c:	4798      	blx	r3
    431e:	2201      	movs	r2, #1
    4320:	0010      	movs	r0, r2
    4322:	b004      	add	sp, #16
    4324:	bd70      	pop	{r4, r5, r6, pc}
    4326:	46c0      	nop			; (mov r8, r8)
    4328:	2000375b 	.word	0x2000375b
    432c:	20003734 	.word	0x20003734
    4330:	00004f1d 	.word	0x00004f1d

00004334 <lcd_init>:
    4334:	4b13      	ldr	r3, [pc, #76]	; (4384 <lcd_init+0x50>)
    4336:	4a14      	ldr	r2, [pc, #80]	; (4388 <lcd_init+0x54>)
    4338:	b5f0      	push	{r4, r5, r6, r7, lr}
    433a:	4694      	mov	ip, r2
    433c:	605a      	str	r2, [r3, #4]
    433e:	2400      	movs	r4, #0
    4340:	2528      	movs	r5, #40	; 0x28
    4342:	2202      	movs	r2, #2
    4344:	0018      	movs	r0, r3
    4346:	b085      	sub	sp, #20
    4348:	725c      	strb	r4, [r3, #9]
    434a:	721c      	strb	r4, [r3, #8]
    434c:	801d      	strh	r5, [r3, #0]
    434e:	805a      	strh	r2, [r3, #2]
    4350:	aa01      	add	r2, sp, #4
    4352:	c8c2      	ldmia	r0!, {r1, r6, r7}
    4354:	c2c2      	stmia	r2!, {r1, r6, r7}
    4356:	4661      	mov	r1, ip
    4358:	689a      	ldr	r2, [r3, #8]
    435a:	9801      	ldr	r0, [sp, #4]
    435c:	4b0b      	ldr	r3, [pc, #44]	; (438c <lcd_init+0x58>)
    435e:	4798      	blx	r3
    4360:	4b0b      	ldr	r3, [pc, #44]	; (4390 <lcd_init+0x5c>)
    4362:	2008      	movs	r0, #8
    4364:	4798      	blx	r3
    4366:	0028      	movs	r0, r5
    4368:	4b0a      	ldr	r3, [pc, #40]	; (4394 <lcd_init+0x60>)
    436a:	4798      	blx	r3
    436c:	2213      	movs	r2, #19
    436e:	490a      	ldr	r1, [pc, #40]	; (4398 <lcd_init+0x64>)
    4370:	4b0a      	ldr	r3, [pc, #40]	; (439c <lcd_init+0x68>)
    4372:	480b      	ldr	r0, [pc, #44]	; (43a0 <lcd_init+0x6c>)
    4374:	4798      	blx	r3
    4376:	0020      	movs	r0, r4
    4378:	4b0a      	ldr	r3, [pc, #40]	; (43a4 <lcd_init+0x70>)
    437a:	4798      	blx	r3
    437c:	2001      	movs	r0, #1
    437e:	b005      	add	sp, #20
    4380:	bdf0      	pop	{r4, r5, r6, r7, pc}
    4382:	46c0      	nop			; (mov r8, r8)
    4384:	20003800 	.word	0x20003800
    4388:	200000c1 	.word	0x200000c1
    438c:	00004f1d 	.word	0x00004f1d
    4390:	000042e9 	.word	0x000042e9
    4394:	0000429d 	.word	0x0000429d
    4398:	0000b83e 	.word	0x0000b83e
    439c:	0000ae15 	.word	0x0000ae15
    43a0:	200037ae 	.word	0x200037ae
    43a4:	0000419d 	.word	0x0000419d

000043a8 <update_main_buffer>:
    43a8:	b5f0      	push	{r4, r5, r6, r7, lr}
    43aa:	b08b      	sub	sp, #44	; 0x2c
    43ac:	ad05      	add	r5, sp, #20
    43ae:	4b35      	ldr	r3, [pc, #212]	; (4484 <update_main_buffer+0xdc>)
    43b0:	0007      	movs	r7, r0
    43b2:	0028      	movs	r0, r5
    43b4:	9103      	str	r1, [sp, #12]
    43b6:	4798      	blx	r3
    43b8:	786b      	ldrb	r3, [r5, #1]
    43ba:	2220      	movs	r2, #32
    43bc:	9302      	str	r3, [sp, #8]
    43be:	2300      	movs	r3, #0
    43c0:	4c31      	ldr	r4, [pc, #196]	; (4488 <update_main_buffer+0xe0>)
    43c2:	551a      	strb	r2, [r3, r4]
    43c4:	3301      	adds	r3, #1
    43c6:	2b50      	cmp	r3, #80	; 0x50
    43c8:	d1fb      	bne.n	43c2 <update_main_buffer+0x1a>
    43ca:	782a      	ldrb	r2, [r5, #0]
    43cc:	4b2f      	ldr	r3, [pc, #188]	; (448c <update_main_buffer+0xe4>)
    43ce:	4930      	ldr	r1, [pc, #192]	; (4490 <update_main_buffer+0xe8>)
    43d0:	07d2      	lsls	r2, r2, #31
    43d2:	d400      	bmi.n	43d6 <update_main_buffer+0x2e>
    43d4:	492f      	ldr	r1, [pc, #188]	; (4494 <update_main_buffer+0xec>)
    43d6:	0020      	movs	r0, r4
    43d8:	4798      	blx	r3
    43da:	0020      	movs	r0, r4
    43dc:	4e2e      	ldr	r6, [pc, #184]	; (4498 <update_main_buffer+0xf0>)
    43de:	686b      	ldr	r3, [r5, #4]
    43e0:	4a2e      	ldr	r2, [pc, #184]	; (449c <update_main_buffer+0xf4>)
    43e2:	210a      	movs	r1, #10
    43e4:	300a      	adds	r0, #10
    43e6:	47b0      	blx	r6
    43e8:	0020      	movs	r0, r4
    43ea:	4a2d      	ldr	r2, [pc, #180]	; (44a0 <update_main_buffer+0xf8>)
    43ec:	68ab      	ldr	r3, [r5, #8]
    43ee:	210d      	movs	r1, #13
    43f0:	3014      	adds	r0, #20
    43f2:	47b0      	blx	r6
    43f4:	4b2b      	ldr	r3, [pc, #172]	; (44a4 <update_main_buffer+0xfc>)
    43f6:	210a      	movs	r1, #10
    43f8:	9802      	ldr	r0, [sp, #8]
    43fa:	4798      	blx	r3
    43fc:	220a      	movs	r2, #10
    43fe:	b2c3      	uxtb	r3, r0
    4400:	0020      	movs	r0, r4
    4402:	4252      	negs	r2, r2
    4404:	435a      	muls	r2, r3
    4406:	9902      	ldr	r1, [sp, #8]
    4408:	3020      	adds	r0, #32
    440a:	188a      	adds	r2, r1, r2
    440c:	b2d2      	uxtb	r2, r2
    440e:	9200      	str	r2, [sp, #0]
    4410:	2109      	movs	r1, #9
    4412:	4a25      	ldr	r2, [pc, #148]	; (44a8 <update_main_buffer+0x100>)
    4414:	47b0      	blx	r6
    4416:	0020      	movs	r0, r4
    4418:	68eb      	ldr	r3, [r5, #12]
    441a:	4a24      	ldr	r2, [pc, #144]	; (44ac <update_main_buffer+0x104>)
    441c:	210d      	movs	r1, #13
    441e:	3028      	adds	r0, #40	; 0x28
    4420:	47b0      	blx	r6
    4422:	0020      	movs	r0, r4
    4424:	692b      	ldr	r3, [r5, #16]
    4426:	3034      	adds	r0, #52	; 0x34
    4428:	4a21      	ldr	r2, [pc, #132]	; (44b0 <update_main_buffer+0x108>)
    442a:	2107      	movs	r1, #7
    442c:	47b0      	blx	r6
    442e:	9803      	ldr	r0, [sp, #12]
    4430:	3801      	subs	r0, #1
    4432:	2803      	cmp	r0, #3
    4434:	d80a      	bhi.n	444c <update_main_buffer+0xa4>
    4436:	4c14      	ldr	r4, [pc, #80]	; (4488 <update_main_buffer+0xe0>)
    4438:	4d1e      	ldr	r5, [pc, #120]	; (44b4 <update_main_buffer+0x10c>)
    443a:	f003 fc29 	bl	7c90 <__gnu_thumb1_case_uqi>
    443e:	0902      	.short	0x0902
    4440:	130e      	.short	0x130e
    4442:	0020      	movs	r0, r4
    4444:	693a      	ldr	r2, [r7, #16]
    4446:	491c      	ldr	r1, [pc, #112]	; (44b8 <update_main_buffer+0x110>)
    4448:	303c      	adds	r0, #60	; 0x3c
    444a:	47a8      	blx	r5
    444c:	b00b      	add	sp, #44	; 0x2c
    444e:	bdf0      	pop	{r4, r5, r6, r7, pc}
    4450:	0020      	movs	r0, r4
    4452:	68ba      	ldr	r2, [r7, #8]
    4454:	303c      	adds	r0, #60	; 0x3c
    4456:	4919      	ldr	r1, [pc, #100]	; (44bc <update_main_buffer+0x114>)
    4458:	e7f7      	b.n	444a <update_main_buffer+0xa2>
    445a:	0020      	movs	r0, r4
    445c:	68fa      	ldr	r2, [r7, #12]
    445e:	303c      	adds	r0, #60	; 0x3c
    4460:	4917      	ldr	r1, [pc, #92]	; (44c0 <update_main_buffer+0x118>)
    4462:	e7f2      	b.n	444a <update_main_buffer+0xa2>
    4464:	787e      	ldrb	r6, [r7, #1]
    4466:	210a      	movs	r1, #10
    4468:	0030      	movs	r0, r6
    446a:	4b0e      	ldr	r3, [pc, #56]	; (44a4 <update_main_buffer+0xfc>)
    446c:	4798      	blx	r3
    446e:	230a      	movs	r3, #10
    4470:	b2c2      	uxtb	r2, r0
    4472:	0020      	movs	r0, r4
    4474:	425b      	negs	r3, r3
    4476:	4353      	muls	r3, r2
    4478:	18f3      	adds	r3, r6, r3
    447a:	b2db      	uxtb	r3, r3
    447c:	4911      	ldr	r1, [pc, #68]	; (44c4 <update_main_buffer+0x11c>)
    447e:	303c      	adds	r0, #60	; 0x3c
    4480:	47a8      	blx	r5
    4482:	e7e3      	b.n	444c <update_main_buffer+0xa4>
    4484:	00004ae1 	.word	0x00004ae1
    4488:	200037ae 	.word	0x200037ae
    448c:	0000aee1 	.word	0x0000aee1
    4490:	0000b88b 	.word	0x0000b88b
    4494:	0000b893 	.word	0x0000b893
    4498:	0000ae39 	.word	0x0000ae39
    449c:	0000b89c 	.word	0x0000b89c
    44a0:	0000b8bd 	.word	0x0000b8bd
    44a4:	00007cb9 	.word	0x00007cb9
    44a8:	0000b8a3 	.word	0x0000b8a3
    44ac:	0000b8ce 	.word	0x0000b8ce
    44b0:	0000b8b2 	.word	0x0000b8b2
    44b4:	0000ae9d 	.word	0x0000ae9d
    44b8:	0000b8ae 	.word	0x0000b8ae
    44bc:	0000b8b9 	.word	0x0000b8b9
    44c0:	0000b8ca 	.word	0x0000b8ca
    44c4:	0000b8da 	.word	0x0000b8da

000044c8 <update_alarm_buffer>:
    44c8:	2300      	movs	r3, #0
    44ca:	2220      	movs	r2, #32
    44cc:	b570      	push	{r4, r5, r6, lr}
    44ce:	4c1d      	ldr	r4, [pc, #116]	; (4544 <update_alarm_buffer+0x7c>)
    44d0:	551a      	strb	r2, [r3, r4]
    44d2:	3301      	adds	r3, #1
    44d4:	2b50      	cmp	r3, #80	; 0x50
    44d6:	d1fb      	bne.n	44d0 <update_alarm_buffer+0x8>
    44d8:	491b      	ldr	r1, [pc, #108]	; (4548 <update_alarm_buffer+0x80>)
    44da:	0020      	movs	r0, r4
    44dc:	4d1b      	ldr	r5, [pc, #108]	; (454c <update_alarm_buffer+0x84>)
    44de:	47a8      	blx	r5
    44e0:	2000      	movs	r0, #0
    44e2:	4e1b      	ldr	r6, [pc, #108]	; (4550 <update_alarm_buffer+0x88>)
    44e4:	47b0      	blx	r6
    44e6:	2800      	cmp	r0, #0
    44e8:	d003      	beq.n	44f2 <update_alarm_buffer+0x2a>
    44ea:	0020      	movs	r0, r4
    44ec:	4919      	ldr	r1, [pc, #100]	; (4554 <update_alarm_buffer+0x8c>)
    44ee:	300a      	adds	r0, #10
    44f0:	47a8      	blx	r5
    44f2:	2002      	movs	r0, #2
    44f4:	47b0      	blx	r6
    44f6:	2800      	cmp	r0, #0
    44f8:	d003      	beq.n	4502 <update_alarm_buffer+0x3a>
    44fa:	0020      	movs	r0, r4
    44fc:	4916      	ldr	r1, [pc, #88]	; (4558 <update_alarm_buffer+0x90>)
    44fe:	3014      	adds	r0, #20
    4500:	47a8      	blx	r5
    4502:	2003      	movs	r0, #3
    4504:	47b0      	blx	r6
    4506:	2800      	cmp	r0, #0
    4508:	d003      	beq.n	4512 <update_alarm_buffer+0x4a>
    450a:	0020      	movs	r0, r4
    450c:	4913      	ldr	r1, [pc, #76]	; (455c <update_alarm_buffer+0x94>)
    450e:	301e      	adds	r0, #30
    4510:	47a8      	blx	r5
    4512:	2004      	movs	r0, #4
    4514:	47b0      	blx	r6
    4516:	2800      	cmp	r0, #0
    4518:	d003      	beq.n	4522 <update_alarm_buffer+0x5a>
    451a:	0020      	movs	r0, r4
    451c:	4910      	ldr	r1, [pc, #64]	; (4560 <update_alarm_buffer+0x98>)
    451e:	3028      	adds	r0, #40	; 0x28
    4520:	47a8      	blx	r5
    4522:	2005      	movs	r0, #5
    4524:	47b0      	blx	r6
    4526:	2800      	cmp	r0, #0
    4528:	d003      	beq.n	4532 <update_alarm_buffer+0x6a>
    452a:	0020      	movs	r0, r4
    452c:	490d      	ldr	r1, [pc, #52]	; (4564 <update_alarm_buffer+0x9c>)
    452e:	3032      	adds	r0, #50	; 0x32
    4530:	47a8      	blx	r5
    4532:	2006      	movs	r0, #6
    4534:	47b0      	blx	r6
    4536:	2800      	cmp	r0, #0
    4538:	d003      	beq.n	4542 <update_alarm_buffer+0x7a>
    453a:	0020      	movs	r0, r4
    453c:	490a      	ldr	r1, [pc, #40]	; (4568 <update_alarm_buffer+0xa0>)
    453e:	303c      	adds	r0, #60	; 0x3c
    4540:	47a8      	blx	r5
    4542:	bd70      	pop	{r4, r5, r6, pc}
    4544:	200036e3 	.word	0x200036e3
    4548:	0000b852 	.word	0x0000b852
    454c:	0000aee1 	.word	0x0000aee1
    4550:	00003a21 	.word	0x00003a21
    4554:	0000b85a 	.word	0x0000b85a
    4558:	0000b85f 	.word	0x0000b85f
    455c:	0000b868 	.word	0x0000b868
    4560:	0000b871 	.word	0x0000b871
    4564:	0000b87a 	.word	0x0000b87a
    4568:	0000b884 	.word	0x0000b884

0000456c <motor_status_monitor>:
    456c:	b510      	push	{r4, lr}
    456e:	2100      	movs	r1, #0
    4570:	2003      	movs	r0, #3
    4572:	4c06      	ldr	r4, [pc, #24]	; (458c <motor_status_monitor+0x20>)
    4574:	47a0      	blx	r4
    4576:	4b06      	ldr	r3, [pc, #24]	; (4590 <motor_status_monitor+0x24>)
    4578:	4798      	blx	r3
    457a:	4906      	ldr	r1, [pc, #24]	; (4594 <motor_status_monitor+0x28>)
    457c:	4b06      	ldr	r3, [pc, #24]	; (4598 <motor_status_monitor+0x2c>)
    457e:	4798      	blx	r3
    4580:	1e01      	subs	r1, r0, #0
    4582:	d000      	beq.n	4586 <motor_status_monitor+0x1a>
    4584:	2101      	movs	r1, #1
    4586:	2004      	movs	r0, #4
    4588:	47a0      	blx	r4
    458a:	bd10      	pop	{r4, pc}
    458c:	000039fd 	.word	0x000039fd
    4590:	000039f9 	.word	0x000039f9
    4594:	42c80000 	.word	0x42c80000
    4598:	0000806d 	.word	0x0000806d

0000459c <enable_motor>:
    459c:	2201      	movs	r2, #1
    459e:	4b01      	ldr	r3, [pc, #4]	; (45a4 <enable_motor+0x8>)
    45a0:	619a      	str	r2, [r3, #24]
    45a2:	4770      	bx	lr
    45a4:	41004400 	.word	0x41004400

000045a8 <disable_motor>:
    45a8:	2201      	movs	r2, #1
    45aa:	4b01      	ldr	r3, [pc, #4]	; (45b0 <disable_motor+0x8>)
    45ac:	615a      	str	r2, [r3, #20]
    45ae:	4770      	bx	lr
    45b0:	41004400 	.word	0x41004400

000045b4 <drive_motor>:
    45b4:	b5f7      	push	{r0, r1, r2, r4, r5, r6, r7, lr}
    45b6:	4b27      	ldr	r3, [pc, #156]	; (4654 <drive_motor+0xa0>)
    45b8:	2100      	movs	r1, #0
    45ba:	1c04      	adds	r4, r0, #0
    45bc:	4798      	blx	r3
    45be:	2800      	cmp	r0, #0
    45c0:	d13a      	bne.n	4638 <drive_motor+0x84>
    45c2:	21fe      	movs	r1, #254	; 0xfe
    45c4:	1c20      	adds	r0, r4, #0
    45c6:	0589      	lsls	r1, r1, #22
    45c8:	4b23      	ldr	r3, [pc, #140]	; (4658 <drive_motor+0xa4>)
    45ca:	4798      	blx	r3
    45cc:	2800      	cmp	r0, #0
    45ce:	d000      	beq.n	45d2 <drive_motor+0x1e>
    45d0:	4c22      	ldr	r4, [pc, #136]	; (465c <drive_motor+0xa8>)
    45d2:	4e23      	ldr	r6, [pc, #140]	; (4660 <drive_motor+0xac>)
    45d4:	4b23      	ldr	r3, [pc, #140]	; (4664 <drive_motor+0xb0>)
    45d6:	6831      	ldr	r1, [r6, #0]
    45d8:	1c20      	adds	r0, r4, #0
    45da:	4798      	blx	r3
    45dc:	4d22      	ldr	r5, [pc, #136]	; (4668 <drive_motor+0xb4>)
    45de:	4b23      	ldr	r3, [pc, #140]	; (466c <drive_motor+0xb8>)
    45e0:	2800      	cmp	r0, #0
    45e2:	d02b      	beq.n	463c <drive_motor+0x88>
    45e4:	4922      	ldr	r1, [pc, #136]	; (4670 <drive_motor+0xbc>)
    45e6:	6828      	ldr	r0, [r5, #0]
    45e8:	4798      	blx	r3
    45ea:	4f22      	ldr	r7, [pc, #136]	; (4674 <drive_motor+0xc0>)
    45ec:	47b8      	blx	r7
    45ee:	9000      	str	r0, [sp, #0]
    45f0:	9101      	str	r1, [sp, #4]
    45f2:	1c20      	adds	r0, r4, #0
    45f4:	47b8      	blx	r7
    45f6:	2280      	movs	r2, #128	; 0x80
    45f8:	4b1f      	ldr	r3, [pc, #124]	; (4678 <drive_motor+0xc4>)
    45fa:	0612      	lsls	r2, r2, #24
    45fc:	4c1f      	ldr	r4, [pc, #124]	; (467c <drive_motor+0xc8>)
    45fe:	47a0      	blx	r4
    4600:	4c1f      	ldr	r4, [pc, #124]	; (4680 <drive_motor+0xcc>)
    4602:	0002      	movs	r2, r0
    4604:	000b      	movs	r3, r1
    4606:	9800      	ldr	r0, [sp, #0]
    4608:	9901      	ldr	r1, [sp, #4]
    460a:	47a0      	blx	r4
    460c:	4b1d      	ldr	r3, [pc, #116]	; (4684 <drive_motor+0xd0>)
    460e:	4798      	blx	r3
    4610:	6028      	str	r0, [r5, #0]
    4612:	682b      	ldr	r3, [r5, #0]
    4614:	6033      	str	r3, [r6, #0]
    4616:	1c18      	adds	r0, r3, #0
    4618:	4b16      	ldr	r3, [pc, #88]	; (4674 <drive_motor+0xc0>)
    461a:	4798      	blx	r3
    461c:	2200      	movs	r2, #0
    461e:	4c17      	ldr	r4, [pc, #92]	; (467c <drive_motor+0xc8>)
    4620:	4b19      	ldr	r3, [pc, #100]	; (4688 <drive_motor+0xd4>)
    4622:	47a0      	blx	r4
    4624:	4b19      	ldr	r3, [pc, #100]	; (468c <drive_motor+0xd8>)
    4626:	4798      	blx	r3
    4628:	0582      	lsls	r2, r0, #22
    462a:	0d92      	lsrs	r2, r2, #22
    462c:	2100      	movs	r1, #0
    462e:	4b18      	ldr	r3, [pc, #96]	; (4690 <drive_motor+0xdc>)
    4630:	4818      	ldr	r0, [pc, #96]	; (4694 <drive_motor+0xe0>)
    4632:	4798      	blx	r3
    4634:	6828      	ldr	r0, [r5, #0]
    4636:	bdfe      	pop	{r1, r2, r3, r4, r5, r6, r7, pc}
    4638:	4c17      	ldr	r4, [pc, #92]	; (4698 <drive_motor+0xe4>)
    463a:	e7ca      	b.n	45d2 <drive_motor+0x1e>
    463c:	4917      	ldr	r1, [pc, #92]	; (469c <drive_motor+0xe8>)
    463e:	6828      	ldr	r0, [r5, #0]
    4640:	4798      	blx	r3
    4642:	4f0c      	ldr	r7, [pc, #48]	; (4674 <drive_motor+0xc0>)
    4644:	47b8      	blx	r7
    4646:	9000      	str	r0, [sp, #0]
    4648:	9101      	str	r1, [sp, #4]
    464a:	1c20      	adds	r0, r4, #0
    464c:	47b8      	blx	r7
    464e:	2200      	movs	r2, #0
    4650:	4b13      	ldr	r3, [pc, #76]	; (46a0 <drive_motor+0xec>)
    4652:	e7d3      	b.n	45fc <drive_motor+0x48>
    4654:	00008045 	.word	0x00008045
    4658:	0000806d 	.word	0x0000806d
    465c:	3f7ff972 	.word	0x3f7ff972
    4660:	20003828 	.word	0x20003828
    4664:	00008081 	.word	0x00008081
    4668:	20003824 	.word	0x20003824
    466c:	00008a95 	.word	0x00008a95
    4670:	3f4ccccd 	.word	0x3f4ccccd
    4674:	0000abfd 	.word	0x0000abfd
    4678:	3fc99999 	.word	0x3fc99999
    467c:	00009f75 	.word	0x00009f75
    4680:	000090ed 	.word	0x000090ed
    4684:	0000aca1 	.word	0x0000aca1
    4688:	408ff800 	.word	0x408ff800
    468c:	000081d5 	.word	0x000081d5
    4690:	000011c5 	.word	0x000011c5
    4694:	2000382c 	.word	0x2000382c
    4698:	3727c5ac 	.word	0x3727c5ac
    469c:	3f733333 	.word	0x3f733333
    46a0:	3fa9999a 	.word	0x3fa9999a

000046a4 <init_motor_interface>:
    46a4:	b57f      	push	{r0, r1, r2, r3, r4, r5, r6, lr}
    46a6:	2501      	movs	r5, #1
    46a8:	4b12      	ldr	r3, [pc, #72]	; (46f4 <init_motor_interface+0x50>)
    46aa:	ac02      	add	r4, sp, #8
    46ac:	615d      	str	r5, [r3, #20]
    46ae:	a801      	add	r0, sp, #4
    46b0:	4b11      	ldr	r3, [pc, #68]	; (46f8 <init_motor_interface+0x54>)
    46b2:	4798      	blx	r3
    46b4:	0020      	movs	r0, r4
    46b6:	4b11      	ldr	r3, [pc, #68]	; (46fc <init_motor_interface+0x58>)
    46b8:	4798      	blx	r3
    46ba:	2340      	movs	r3, #64	; 0x40
    46bc:	2600      	movs	r6, #0
    46be:	70e5      	strb	r5, [r4, #3]
    46c0:	4d0f      	ldr	r5, [pc, #60]	; (4700 <init_motor_interface+0x5c>)
    46c2:	7023      	strb	r3, [r4, #0]
    46c4:	0022      	movs	r2, r4
    46c6:	0028      	movs	r0, r5
    46c8:	490e      	ldr	r1, [pc, #56]	; (4704 <init_motor_interface+0x60>)
    46ca:	4b0f      	ldr	r3, [pc, #60]	; (4708 <init_motor_interface+0x64>)
    46cc:	70a6      	strb	r6, [r4, #2]
    46ce:	7166      	strb	r6, [r4, #5]
    46d0:	4798      	blx	r3
    46d2:	aa01      	add	r2, sp, #4
    46d4:	0031      	movs	r1, r6
    46d6:	0028      	movs	r0, r5
    46d8:	4b0c      	ldr	r3, [pc, #48]	; (470c <init_motor_interface+0x68>)
    46da:	4798      	blx	r3
    46dc:	0031      	movs	r1, r6
    46de:	0028      	movs	r0, r5
    46e0:	4b0b      	ldr	r3, [pc, #44]	; (4710 <init_motor_interface+0x6c>)
    46e2:	4798      	blx	r3
    46e4:	0028      	movs	r0, r5
    46e6:	4b0b      	ldr	r3, [pc, #44]	; (4714 <init_motor_interface+0x70>)
    46e8:	4798      	blx	r3
    46ea:	4b0b      	ldr	r3, [pc, #44]	; (4718 <init_motor_interface+0x74>)
    46ec:	2000      	movs	r0, #0
    46ee:	4798      	blx	r3
    46f0:	bd7f      	pop	{r0, r1, r2, r3, r4, r5, r6, pc}
    46f2:	46c0      	nop			; (mov r8, r8)
    46f4:	41004400 	.word	0x41004400
    46f8:	000011bd 	.word	0x000011bd
    46fc:	000010b3 	.word	0x000010b3
    4700:	2000382c 	.word	0x2000382c
    4704:	42004800 	.word	0x42004800
    4708:	000010c9 	.word	0x000010c9
    470c:	000011bf 	.word	0x000011bf
    4710:	000011c1 	.word	0x000011c1
    4714:	00001181 	.word	0x00001181
    4718:	000045b5 	.word	0x000045b5

0000471c <callback_spi_master>:
    471c:	b510      	push	{r4, lr}
    471e:	4c05      	ldr	r4, [pc, #20]	; (4734 <callback_spi_master+0x18>)
    4720:	2200      	movs	r2, #0
    4722:	0021      	movs	r1, r4
    4724:	4b04      	ldr	r3, [pc, #16]	; (4738 <callback_spi_master+0x1c>)
    4726:	4798      	blx	r3
    4728:	68e3      	ldr	r3, [r4, #12]
    472a:	4804      	ldr	r0, [pc, #16]	; (473c <callback_spi_master+0x20>)
    472c:	68a1      	ldr	r1, [r4, #8]
    472e:	4798      	blx	r3
    4730:	bd10      	pop	{r4, pc}
    4732:	46c0      	nop			; (mov r8, r8)
    4734:	20003850 	.word	0x20003850
    4738:	00006aed 	.word	0x00006aed
    473c:	20003860 	.word	0x20003860

00004740 <spi_interface_init>:
    4740:	b570      	push	{r4, r5, r6, lr}
    4742:	b08e      	sub	sp, #56	; 0x38
    4744:	2100      	movs	r1, #0
    4746:	466b      	mov	r3, sp
    4748:	2501      	movs	r5, #1
    474a:	7419      	strb	r1, [r3, #16]
    474c:	7459      	strb	r1, [r3, #17]
    474e:	749d      	strb	r5, [r3, #18]
    4750:	74dd      	strb	r5, [r3, #19]
    4752:	7519      	strb	r1, [r3, #20]
    4754:	701d      	strb	r5, [r3, #0]
    4756:	3305      	adds	r3, #5
    4758:	77d9      	strb	r1, [r3, #31]
    475a:	220c      	movs	r2, #12
    475c:	4b1b      	ldr	r3, [pc, #108]	; (47cc <spi_interface_init+0x8c>)
    475e:	a806      	add	r0, sp, #24
    4760:	9101      	str	r1, [sp, #4]
    4762:	9102      	str	r1, [sp, #8]
    4764:	4798      	blx	r3
    4766:	2380      	movs	r3, #128	; 0x80
    4768:	039b      	lsls	r3, r3, #14
    476a:	9303      	str	r3, [sp, #12]
    476c:	2380      	movs	r3, #128	; 0x80
    476e:	005b      	lsls	r3, r3, #1
    4770:	930a      	str	r3, [sp, #40]	; 0x28
    4772:	18db      	adds	r3, r3, r3
    4774:	930b      	str	r3, [sp, #44]	; 0x2c
    4776:	2380      	movs	r3, #128	; 0x80
    4778:	00db      	lsls	r3, r3, #3
    477a:	930c      	str	r3, [sp, #48]	; 0x30
    477c:	2301      	movs	r3, #1
    477e:	425b      	negs	r3, r3
    4780:	4c13      	ldr	r4, [pc, #76]	; (47d0 <spi_interface_init+0x90>)
    4782:	930d      	str	r3, [sp, #52]	; 0x34
    4784:	4b13      	ldr	r3, [pc, #76]	; (47d4 <spi_interface_init+0x94>)
    4786:	466a      	mov	r2, sp
    4788:	9306      	str	r3, [sp, #24]
    478a:	4913      	ldr	r1, [pc, #76]	; (47d8 <spi_interface_init+0x98>)
    478c:	4b13      	ldr	r3, [pc, #76]	; (47dc <spi_interface_init+0x9c>)
    478e:	0020      	movs	r0, r4
    4790:	4798      	blx	r3
    4792:	6826      	ldr	r6, [r4, #0]
    4794:	4b12      	ldr	r3, [pc, #72]	; (47e0 <spi_interface_init+0xa0>)
    4796:	0030      	movs	r0, r6
    4798:	4798      	blx	r3
    479a:	231f      	movs	r3, #31
    479c:	4018      	ands	r0, r3
    479e:	4085      	lsls	r5, r0
    47a0:	4b10      	ldr	r3, [pc, #64]	; (47e4 <spi_interface_init+0xa4>)
    47a2:	601d      	str	r5, [r3, #0]
    47a4:	6822      	ldr	r2, [r4, #0]
    47a6:	69d3      	ldr	r3, [r2, #28]
    47a8:	2b00      	cmp	r3, #0
    47aa:	d1fc      	bne.n	47a6 <spi_interface_init+0x66>
    47ac:	2202      	movs	r2, #2
    47ae:	6833      	ldr	r3, [r6, #0]
    47b0:	0020      	movs	r0, r4
    47b2:	4313      	orrs	r3, r2
    47b4:	6033      	str	r3, [r6, #0]
    47b6:	490c      	ldr	r1, [pc, #48]	; (47e8 <spi_interface_init+0xa8>)
    47b8:	4b0c      	ldr	r3, [pc, #48]	; (47ec <spi_interface_init+0xac>)
    47ba:	4798      	blx	r3
    47bc:	2304      	movs	r3, #4
    47be:	3437      	adds	r4, #55	; 0x37
    47c0:	7822      	ldrb	r2, [r4, #0]
    47c2:	4313      	orrs	r3, r2
    47c4:	7023      	strb	r3, [r4, #0]
    47c6:	b00e      	add	sp, #56	; 0x38
    47c8:	bd70      	pop	{r4, r5, r6, pc}
    47ca:	46c0      	nop			; (mov r8, r8)
    47cc:	0000ae27 	.word	0x0000ae27
    47d0:	200038a0 	.word	0x200038a0
    47d4:	001e8480 	.word	0x001e8480
    47d8:	42000800 	.word	0x42000800
    47dc:	000068e5 	.word	0x000068e5
    47e0:	0000700d 	.word	0x0000700d
    47e4:	e000e100 	.word	0xe000e100
    47e8:	0000471d 	.word	0x0000471d
    47ec:	00006b85 	.word	0x00006b85

000047f0 <spi_transact>:
    47f0:	b57f      	push	{r0, r1, r2, r3, r4, r5, r6, lr}
    47f2:	4c12      	ldr	r4, [pc, #72]	; (483c <spi_transact+0x4c>)
    47f4:	9303      	str	r3, [sp, #12]
    47f6:	68a3      	ldr	r3, [r4, #8]
    47f8:	9000      	str	r0, [sp, #0]
    47fa:	466d      	mov	r5, sp
    47fc:	9101      	str	r1, [sp, #4]
    47fe:	9202      	str	r2, [sp, #8]
    4800:	2000      	movs	r0, #0
    4802:	2b40      	cmp	r3, #64	; 0x40
    4804:	d818      	bhi.n	4838 <spi_transact+0x48>
    4806:	0023      	movs	r3, r4
    4808:	cd07      	ldmia	r5!, {r0, r1, r2}
    480a:	c307      	stmia	r3!, {r0, r1, r2}
    480c:	682a      	ldr	r2, [r5, #0]
    480e:	4e0c      	ldr	r6, [pc, #48]	; (4840 <spi_transact+0x50>)
    4810:	601a      	str	r2, [r3, #0]
    4812:	6861      	ldr	r1, [r4, #4]
    4814:	4b0b      	ldr	r3, [pc, #44]	; (4844 <spi_transact+0x54>)
    4816:	68a2      	ldr	r2, [r4, #8]
    4818:	0030      	movs	r0, r6
    481a:	4798      	blx	r3
    481c:	4d0a      	ldr	r5, [pc, #40]	; (4848 <spi_transact+0x58>)
    481e:	0021      	movs	r1, r4
    4820:	2201      	movs	r2, #1
    4822:	4b0a      	ldr	r3, [pc, #40]	; (484c <spi_transact+0x5c>)
    4824:	0028      	movs	r0, r5
    4826:	4798      	blx	r3
    4828:	68a3      	ldr	r3, [r4, #8]
    482a:	4a09      	ldr	r2, [pc, #36]	; (4850 <spi_transact+0x60>)
    482c:	b29b      	uxth	r3, r3
    482e:	0031      	movs	r1, r6
    4830:	0028      	movs	r0, r5
    4832:	4c08      	ldr	r4, [pc, #32]	; (4854 <spi_transact+0x64>)
    4834:	47a0      	blx	r4
    4836:	2001      	movs	r0, #1
    4838:	b004      	add	sp, #16
    483a:	bd70      	pop	{r4, r5, r6, pc}
    483c:	20003850 	.word	0x20003850
    4840:	200038dc 	.word	0x200038dc
    4844:	0000ae15 	.word	0x0000ae15
    4848:	200038a0 	.word	0x200038a0
    484c:	00006aed 	.word	0x00006aed
    4850:	20003860 	.word	0x20003860
    4854:	00006b9d 	.word	0x00006b9d

00004858 <usb_interface_init>:
    4858:	b510      	push	{r4, lr}
    485a:	4b01      	ldr	r3, [pc, #4]	; (4860 <usb_interface_init+0x8>)
    485c:	4798      	blx	r3
    485e:	bd10      	pop	{r4, pc}
    4860:	000007f9 	.word	0x000007f9

00004864 <usb_transmit_control>:
    4864:	b570      	push	{r4, r5, r6, lr}
    4866:	4b1a      	ldr	r3, [pc, #104]	; (48d0 <usb_transmit_control+0x6c>)
    4868:	b086      	sub	sp, #24
    486a:	781b      	ldrb	r3, [r3, #0]
    486c:	0005      	movs	r5, r0
    486e:	9101      	str	r1, [sp, #4]
    4870:	2b00      	cmp	r3, #0
    4872:	d02a      	beq.n	48ca <usb_transmit_control+0x66>
    4874:	0001      	movs	r1, r0
    4876:	2009      	movs	r0, #9
    4878:	235e      	movs	r3, #94	; 0x5e
    487a:	4e16      	ldr	r6, [pc, #88]	; (48d4 <usb_transmit_control+0x70>)
    487c:	ac02      	add	r4, sp, #8
    487e:	3114      	adds	r1, #20
    4880:	2204      	movs	r2, #4
    4882:	4468      	add	r0, sp
    4884:	7023      	strb	r3, [r4, #0]
    4886:	47b0      	blx	r6
    4888:	0029      	movs	r1, r5
    488a:	200d      	movs	r0, #13
    488c:	3110      	adds	r1, #16
    488e:	2204      	movs	r2, #4
    4890:	4468      	add	r0, sp
    4892:	47b0      	blx	r6
    4894:	2011      	movs	r0, #17
    4896:	2204      	movs	r2, #4
    4898:	a901      	add	r1, sp, #4
    489a:	4468      	add	r0, sp
    489c:	47b0      	blx	r6
    489e:	2300      	movs	r3, #0
    48a0:	7363      	strb	r3, [r4, #13]
    48a2:	3301      	adds	r3, #1
    48a4:	5ce1      	ldrb	r1, [r4, r3]
    48a6:	7b62      	ldrb	r2, [r4, #13]
    48a8:	3301      	adds	r3, #1
    48aa:	1852      	adds	r2, r2, r1
    48ac:	7362      	strb	r2, [r4, #13]
    48ae:	2b0d      	cmp	r3, #13
    48b0:	d1f8      	bne.n	48a4 <usb_transmit_control+0x40>
    48b2:	4b09      	ldr	r3, [pc, #36]	; (48d8 <usb_transmit_control+0x74>)
    48b4:	4798      	blx	r3
    48b6:	2800      	cmp	r0, #0
    48b8:	d007      	beq.n	48ca <usb_transmit_control+0x66>
    48ba:	4b08      	ldr	r3, [pc, #32]	; (48dc <usb_transmit_control+0x78>)
    48bc:	4798      	blx	r3
    48be:	280d      	cmp	r0, #13
    48c0:	d903      	bls.n	48ca <usb_transmit_control+0x66>
    48c2:	210e      	movs	r1, #14
    48c4:	0020      	movs	r0, r4
    48c6:	4b06      	ldr	r3, [pc, #24]	; (48e0 <usb_transmit_control+0x7c>)
    48c8:	4798      	blx	r3
    48ca:	b006      	add	sp, #24
    48cc:	bd70      	pop	{r4, r5, r6, pc}
    48ce:	46c0      	nop			; (mov r8, r8)
    48d0:	2000391c 	.word	0x2000391c
    48d4:	0000ae15 	.word	0x0000ae15
    48d8:	000005d9 	.word	0x000005d9
    48dc:	000005b5 	.word	0x000005b5
    48e0:	00000685 	.word	0x00000685

000048e4 <my_callback_cdc_enable>:
    48e4:	2001      	movs	r0, #1
    48e6:	4b01      	ldr	r3, [pc, #4]	; (48ec <my_callback_cdc_enable+0x8>)
    48e8:	7018      	strb	r0, [r3, #0]
    48ea:	4770      	bx	lr
    48ec:	2000391c 	.word	0x2000391c

000048f0 <my_callback_cdc_disable>:
    48f0:	2200      	movs	r2, #0
    48f2:	4b01      	ldr	r3, [pc, #4]	; (48f8 <my_callback_cdc_disable+0x8>)
    48f4:	701a      	strb	r2, [r3, #0]
    48f6:	4770      	bx	lr
    48f8:	2000391c 	.word	0x2000391c

000048fc <vADCRequestTriggerCallback>:
    48fc:	b510      	push	{r4, lr}
    48fe:	4b01      	ldr	r3, [pc, #4]	; (4904 <vADCRequestTriggerCallback+0x8>)
    4900:	4798      	blx	r3
    4902:	bd10      	pop	{r4, pc}
    4904:	000036cd 	.word	0x000036cd

00004908 <control_task>:
    4908:	b5f0      	push	{r4, r5, r6, r7, lr}
    490a:	2601      	movs	r6, #1
    490c:	b08f      	sub	sp, #60	; 0x3c
    490e:	4b49      	ldr	r3, [pc, #292]	; (4a34 <control_task+0x12c>)
    4910:	4798      	blx	r3
    4912:	4c49      	ldr	r4, [pc, #292]	; (4a38 <control_task+0x130>)
    4914:	220e      	movs	r2, #14
    4916:	7823      	ldrb	r3, [r4, #0]
    4918:	60a2      	str	r2, [r4, #8]
    491a:	43b3      	bics	r3, r6
    491c:	7023      	strb	r3, [r4, #0]
    491e:	231e      	movs	r3, #30
    4920:	7063      	strb	r3, [r4, #1]
    4922:	60e3      	str	r3, [r4, #12]
    4924:	3b0a      	subs	r3, #10
    4926:	6123      	str	r3, [r4, #16]
    4928:	4b44      	ldr	r3, [pc, #272]	; (4a3c <control_task+0x134>)
    492a:	4798      	blx	r3
    492c:	2005      	movs	r0, #5
    492e:	4b44      	ldr	r3, [pc, #272]	; (4a40 <control_task+0x138>)
    4930:	4798      	blx	r3
    4932:	0023      	movs	r3, r4
    4934:	0022      	movs	r2, r4
    4936:	3314      	adds	r3, #20
    4938:	ca23      	ldmia	r2!, {r0, r1, r5}
    493a:	c323      	stmia	r3!, {r0, r1, r5}
    493c:	ca03      	ldmia	r2!, {r0, r1}
    493e:	c303      	stmia	r3!, {r0, r1}
    4940:	23c8      	movs	r3, #200	; 0xc8
    4942:	4d40      	ldr	r5, [pc, #256]	; (4a44 <control_task+0x13c>)
    4944:	0020      	movs	r0, r4
    4946:	602b      	str	r3, [r5, #0]
    4948:	60ab      	str	r3, [r5, #8]
    494a:	0029      	movs	r1, r5
    494c:	4b3e      	ldr	r3, [pc, #248]	; (4a48 <control_task+0x140>)
    494e:	4798      	blx	r3
    4950:	4b3e      	ldr	r3, [pc, #248]	; (4a4c <control_task+0x144>)
    4952:	4f3f      	ldr	r7, [pc, #252]	; (4a50 <control_task+0x148>)
    4954:	9300      	str	r3, [sp, #0]
    4956:	0032      	movs	r2, r6
    4958:	2300      	movs	r3, #0
    495a:	2102      	movs	r1, #2
    495c:	483d      	ldr	r0, [pc, #244]	; (4a54 <control_task+0x14c>)
    495e:	47b8      	blx	r7
    4960:	1e07      	subs	r7, r0, #0
    4962:	d008      	beq.n	4976 <control_task+0x6e>
    4964:	4b3c      	ldr	r3, [pc, #240]	; (4a58 <control_task+0x150>)
    4966:	4798      	blx	r3
    4968:	2300      	movs	r3, #0
    496a:	0002      	movs	r2, r0
    496c:	0031      	movs	r1, r6
    496e:	9300      	str	r3, [sp, #0]
    4970:	0038      	movs	r0, r7
    4972:	4e3a      	ldr	r6, [pc, #232]	; (4a5c <control_task+0x154>)
    4974:	47b0      	blx	r6
    4976:	4b38      	ldr	r3, [pc, #224]	; (4a58 <control_task+0x150>)
    4978:	4798      	blx	r3
    497a:	4b39      	ldr	r3, [pc, #228]	; (4a60 <control_task+0x158>)
    497c:	4a39      	ldr	r2, [pc, #228]	; (4a64 <control_task+0x15c>)
    497e:	9306      	str	r3, [sp, #24]
    4980:	920b      	str	r2, [sp, #44]	; 0x2c
    4982:	4b39      	ldr	r3, [pc, #228]	; (4a68 <control_task+0x160>)
    4984:	4a39      	ldr	r2, [pc, #228]	; (4a6c <control_task+0x164>)
    4986:	9307      	str	r3, [sp, #28]
    4988:	920a      	str	r2, [sp, #40]	; 0x28
    498a:	2300      	movs	r3, #0
    498c:	22fe      	movs	r2, #254	; 0xfe
    498e:	9309      	str	r3, [sp, #36]	; 0x24
    4990:	9308      	str	r3, [sp, #32]
    4992:	0592      	lsls	r2, r2, #22
    4994:	930d      	str	r3, [sp, #52]	; 0x34
    4996:	4b36      	ldr	r3, [pc, #216]	; (4a70 <control_task+0x168>)
    4998:	9005      	str	r0, [sp, #20]
    499a:	920c      	str	r2, [sp, #48]	; 0x30
    499c:	2601      	movs	r6, #1
    499e:	4798      	blx	r3
    49a0:	210a      	movs	r1, #10
    49a2:	a805      	add	r0, sp, #20
    49a4:	4b33      	ldr	r3, [pc, #204]	; (4a74 <control_task+0x16c>)
    49a6:	4798      	blx	r3
    49a8:	4b33      	ldr	r3, [pc, #204]	; (4a78 <control_task+0x170>)
    49aa:	4798      	blx	r3
    49ac:	2280      	movs	r2, #128	; 0x80
    49ae:	4b33      	ldr	r3, [pc, #204]	; (4a7c <control_task+0x174>)
    49b0:	0392      	lsls	r2, r2, #14
    49b2:	6a19      	ldr	r1, [r3, #32]
    49b4:	4211      	tst	r1, r2
    49b6:	d136      	bne.n	4a26 <control_task+0x11e>
    49b8:	619a      	str	r2, [r3, #24]
    49ba:	4b31      	ldr	r3, [pc, #196]	; (4a80 <control_task+0x178>)
    49bc:	4798      	blx	r3
    49be:	7d23      	ldrb	r3, [r4, #20]
    49c0:	4030      	ands	r0, r6
    49c2:	43b3      	bics	r3, r6
    49c4:	4303      	orrs	r3, r0
    49c6:	7523      	strb	r3, [r4, #20]
    49c8:	7823      	ldrb	r3, [r4, #0]
    49ca:	43b3      	bics	r3, r6
    49cc:	4318      	orrs	r0, r3
    49ce:	4b2d      	ldr	r3, [pc, #180]	; (4a84 <control_task+0x17c>)
    49d0:	7020      	strb	r0, [r4, #0]
    49d2:	4798      	blx	r3
    49d4:	492c      	ldr	r1, [pc, #176]	; (4a88 <control_task+0x180>)
    49d6:	4b2d      	ldr	r3, [pc, #180]	; (4a8c <control_task+0x184>)
    49d8:	4798      	blx	r3
    49da:	4f2d      	ldr	r7, [pc, #180]	; (4a90 <control_task+0x188>)
    49dc:	47b8      	blx	r7
    49de:	4b2d      	ldr	r3, [pc, #180]	; (4a94 <control_task+0x18c>)
    49e0:	61a0      	str	r0, [r4, #24]
    49e2:	6060      	str	r0, [r4, #4]
    49e4:	4798      	blx	r3
    49e6:	47b8      	blx	r7
    49e8:	4b2b      	ldr	r3, [pc, #172]	; (4a98 <control_task+0x190>)
    49ea:	6168      	str	r0, [r5, #20]
    49ec:	4798      	blx	r3
    49ee:	4f2b      	ldr	r7, [pc, #172]	; (4a9c <control_task+0x194>)
    49f0:	783b      	ldrb	r3, [r7, #0]
    49f2:	2b00      	cmp	r3, #0
    49f4:	d004      	beq.n	4a00 <control_task+0xf8>
    49f6:	4b2a      	ldr	r3, [pc, #168]	; (4aa0 <control_task+0x198>)
    49f8:	0020      	movs	r0, r4
    49fa:	4798      	blx	r3
    49fc:	2300      	movs	r3, #0
    49fe:	703b      	strb	r3, [r7, #0]
    4a00:	4b28      	ldr	r3, [pc, #160]	; (4aa4 <control_task+0x19c>)
    4a02:	aa06      	add	r2, sp, #24
    4a04:	0029      	movs	r1, r5
    4a06:	0020      	movs	r0, r4
    4a08:	4798      	blx	r3
    4a0a:	7d23      	ldrb	r3, [r4, #20]
    4a0c:	9003      	str	r0, [sp, #12]
    4a0e:	4f26      	ldr	r7, [pc, #152]	; (4aa8 <control_task+0x1a0>)
    4a10:	4233      	tst	r3, r6
    4a12:	d00a      	beq.n	4a2a <control_task+0x122>
    4a14:	4b25      	ldr	r3, [pc, #148]	; (4aac <control_task+0x1a4>)
    4a16:	4798      	blx	r3
    4a18:	9803      	ldr	r0, [sp, #12]
    4a1a:	47b8      	blx	r7
    4a1c:	4b24      	ldr	r3, [pc, #144]	; (4ab0 <control_task+0x1a8>)
    4a1e:	1c01      	adds	r1, r0, #0
    4a20:	0028      	movs	r0, r5
    4a22:	4798      	blx	r3
    4a24:	e7bc      	b.n	49a0 <control_task+0x98>
    4a26:	615a      	str	r2, [r3, #20]
    4a28:	e7c7      	b.n	49ba <control_task+0xb2>
    4a2a:	4b22      	ldr	r3, [pc, #136]	; (4ab4 <control_task+0x1ac>)
    4a2c:	4798      	blx	r3
    4a2e:	2000      	movs	r0, #0
    4a30:	47b8      	blx	r7
    4a32:	e7b5      	b.n	49a0 <control_task+0x98>
    4a34:	00004015 	.word	0x00004015
    4a38:	2000393c 	.word	0x2000393c
    4a3c:	00004065 	.word	0x00004065
    4a40:	00005fed 	.word	0x00005fed
    4a44:	20003924 	.word	0x20003924
    4a48:	00003a51 	.word	0x00003a51
    4a4c:	000048fd 	.word	0x000048fd
    4a50:	00006485 	.word	0x00006485
    4a54:	0000b8eb 	.word	0x0000b8eb
    4a58:	00005d61 	.word	0x00005d61
    4a5c:	000064c9 	.word	0x000064c9
    4a60:	3d4ccccd 	.word	0x3d4ccccd
    4a64:	420c0000 	.word	0x420c0000
    4a68:	3c23d70a 	.word	0x3c23d70a
    4a6c:	3e99999a 	.word	0x3e99999a
    4a70:	000046a5 	.word	0x000046a5
    4a74:	00005f75 	.word	0x00005f75
    4a78:	00006819 	.word	0x00006819
    4a7c:	41004400 	.word	0x41004400
    4a80:	00004c79 	.word	0x00004c79
    4a84:	00005219 	.word	0x00005219
    4a88:	447a0000 	.word	0x447a0000
    4a8c:	00008a95 	.word	0x00008a95
    4a90:	0000900d 	.word	0x0000900d
    4a94:	0000383d 	.word	0x0000383d
    4a98:	0000456d 	.word	0x0000456d
    4a9c:	200000c3 	.word	0x200000c3
    4aa0:	000040a9 	.word	0x000040a9
    4aa4:	00003b8d 	.word	0x00003b8d
    4aa8:	000045b5 	.word	0x000045b5
    4aac:	0000459d 	.word	0x0000459d
    4ab0:	00004865 	.word	0x00004865
    4ab4:	000045a9 	.word	0x000045a9

00004ab8 <create_control_task>:
    4ab8:	b513      	push	{r0, r1, r4, lr}
    4aba:	4b05      	ldr	r3, [pc, #20]	; (4ad0 <create_control_task+0x18>)
    4abc:	0002      	movs	r2, r0
    4abe:	9301      	str	r3, [sp, #4]
    4ac0:	9100      	str	r1, [sp, #0]
    4ac2:	2300      	movs	r3, #0
    4ac4:	4903      	ldr	r1, [pc, #12]	; (4ad4 <create_control_task+0x1c>)
    4ac6:	4c04      	ldr	r4, [pc, #16]	; (4ad8 <create_control_task+0x20>)
    4ac8:	4804      	ldr	r0, [pc, #16]	; (4adc <create_control_task+0x24>)
    4aca:	47a0      	blx	r4
    4acc:	bd13      	pop	{r0, r1, r4, pc}
    4ace:	46c0      	nop			; (mov r8, r8)
    4ad0:	20003920 	.word	0x20003920
    4ad4:	0000b8f1 	.word	0x0000b8f1
    4ad8:	00005a25 	.word	0x00005a25
    4adc:	00004909 	.word	0x00004909

00004ae0 <get_current_settings>:
    4ae0:	0002      	movs	r2, r0
    4ae2:	b530      	push	{r4, r5, lr}
    4ae4:	4b02      	ldr	r3, [pc, #8]	; (4af0 <get_current_settings+0x10>)
    4ae6:	cb32      	ldmia	r3!, {r1, r4, r5}
    4ae8:	c232      	stmia	r2!, {r1, r4, r5}
    4aea:	cb12      	ldmia	r3!, {r1, r4}
    4aec:	c212      	stmia	r2!, {r1, r4}
    4aee:	bd30      	pop	{r4, r5, pc}
    4af0:	2000393c 	.word	0x2000393c

00004af4 <update_settings>:
    4af4:	0003      	movs	r3, r0
    4af6:	4807      	ldr	r0, [pc, #28]	; (4b14 <update_settings+0x20>)
    4af8:	b570      	push	{r4, r5, r6, lr}
    4afa:	0002      	movs	r2, r0
    4afc:	cb32      	ldmia	r3!, {r1, r4, r5}
    4afe:	c232      	stmia	r2!, {r1, r4, r5}
    4b00:	cb12      	ldmia	r3!, {r1, r4}
    4b02:	c212      	stmia	r2!, {r1, r4}
    4b04:	2201      	movs	r2, #1
    4b06:	4b04      	ldr	r3, [pc, #16]	; (4b18 <update_settings+0x24>)
    4b08:	4904      	ldr	r1, [pc, #16]	; (4b1c <update_settings+0x28>)
    4b0a:	701a      	strb	r2, [r3, #0]
    4b0c:	4b04      	ldr	r3, [pc, #16]	; (4b20 <update_settings+0x2c>)
    4b0e:	4798      	blx	r3
    4b10:	bd70      	pop	{r4, r5, r6, pc}
    4b12:	46c0      	nop			; (mov r8, r8)
    4b14:	2000393c 	.word	0x2000393c
    4b18:	200000c3 	.word	0x200000c3
    4b1c:	20003924 	.word	0x20003924
    4b20:	00003a51 	.word	0x00003a51

00004b24 <vScreenChangeTimerCallback>:
    4b24:	2301      	movs	r3, #1
    4b26:	4a02      	ldr	r2, [pc, #8]	; (4b30 <vScreenChangeTimerCallback+0xc>)
    4b28:	7811      	ldrb	r1, [r2, #0]
    4b2a:	404b      	eors	r3, r1
    4b2c:	7013      	strb	r3, [r2, #0]
    4b2e:	4770      	bx	lr
    4b30:	200000c4 	.word	0x200000c4

00004b34 <lcd_i2c_task>:
    4b34:	b570      	push	{r4, r5, r6, lr}
    4b36:	4b14      	ldr	r3, [pc, #80]	; (4b88 <lcd_i2c_task+0x54>)
    4b38:	b086      	sub	sp, #24
    4b3a:	9300      	str	r3, [sp, #0]
    4b3c:	2300      	movs	r3, #0
    4b3e:	4c13      	ldr	r4, [pc, #76]	; (4b8c <lcd_i2c_task+0x58>)
    4b40:	001a      	movs	r2, r3
    4b42:	211e      	movs	r1, #30
    4b44:	4812      	ldr	r0, [pc, #72]	; (4b90 <lcd_i2c_task+0x5c>)
    4b46:	47a0      	blx	r4
    4b48:	2501      	movs	r5, #1
    4b4a:	4c12      	ldr	r4, [pc, #72]	; (4b94 <lcd_i2c_task+0x60>)
    4b4c:	426d      	negs	r5, r5
    4b4e:	6020      	str	r0, [r4, #0]
    4b50:	4b11      	ldr	r3, [pc, #68]	; (4b98 <lcd_i2c_task+0x64>)
    4b52:	002a      	movs	r2, r5
    4b54:	6818      	ldr	r0, [r3, #0]
    4b56:	a903      	add	r1, sp, #12
    4b58:	4b10      	ldr	r3, [pc, #64]	; (4b9c <lcd_i2c_task+0x68>)
    4b5a:	4798      	blx	r3
    4b5c:	2801      	cmp	r0, #1
    4b5e:	d1f7      	bne.n	4b50 <lcd_i2c_task+0x1c>
    4b60:	a903      	add	r1, sp, #12
    4b62:	4b0f      	ldr	r3, [pc, #60]	; (4ba0 <lcd_i2c_task+0x6c>)
    4b64:	480f      	ldr	r0, [pc, #60]	; (4ba4 <lcd_i2c_task+0x70>)
    4b66:	4798      	blx	r3
    4b68:	4b0f      	ldr	r3, [pc, #60]	; (4ba8 <lcd_i2c_task+0x74>)
    4b6a:	6826      	ldr	r6, [r4, #0]
    4b6c:	4798      	blx	r3
    4b6e:	2300      	movs	r3, #0
    4b70:	0002      	movs	r2, r0
    4b72:	9300      	str	r3, [sp, #0]
    4b74:	2102      	movs	r1, #2
    4b76:	0030      	movs	r0, r6
    4b78:	4e0c      	ldr	r6, [pc, #48]	; (4bac <lcd_i2c_task+0x78>)
    4b7a:	47b0      	blx	r6
    4b7c:	4b0c      	ldr	r3, [pc, #48]	; (4bb0 <lcd_i2c_task+0x7c>)
    4b7e:	6818      	ldr	r0, [r3, #0]
    4b80:	4b0c      	ldr	r3, [pc, #48]	; (4bb4 <lcd_i2c_task+0x80>)
    4b82:	4798      	blx	r3
    4b84:	e7e4      	b.n	4b50 <lcd_i2c_task+0x1c>
    4b86:	46c0      	nop			; (mov r8, r8)
    4b88:	00004bb9 	.word	0x00004bb9
    4b8c:	00006485 	.word	0x00006485
    4b90:	0000b917 	.word	0x0000b917
    4b94:	20003990 	.word	0x20003990
    4b98:	20003998 	.word	0x20003998
    4b9c:	00005739 	.word	0x00005739
    4ba0:	00001895 	.word	0x00001895
    4ba4:	20003968 	.word	0x20003968
    4ba8:	00005d61 	.word	0x00005d61
    4bac:	000064c9 	.word	0x000064c9
    4bb0:	2000399c 	.word	0x2000399c
    4bb4:	000060cd 	.word	0x000060cd

00004bb8 <vI2CTimeoutTimerCallback>:
    4bb8:	b510      	push	{r4, lr}
    4bba:	4b02      	ldr	r3, [pc, #8]	; (4bc4 <vI2CTimeoutTimerCallback+0xc>)
    4bbc:	6818      	ldr	r0, [r3, #0]
    4bbe:	4b02      	ldr	r3, [pc, #8]	; (4bc8 <vI2CTimeoutTimerCallback+0x10>)
    4bc0:	4798      	blx	r3
    4bc2:	bd10      	pop	{r4, pc}
    4bc4:	2000399c 	.word	0x2000399c
    4bc8:	00005be1 	.word	0x00005be1

00004bcc <vScreenRefreshTimerCallback>:
    4bcc:	b570      	push	{r4, r5, r6, lr}
    4bce:	4c09      	ldr	r4, [pc, #36]	; (4bf4 <vScreenRefreshTimerCallback+0x28>)
    4bd0:	4d09      	ldr	r5, [pc, #36]	; (4bf8 <vScreenRefreshTimerCallback+0x2c>)
    4bd2:	7823      	ldrb	r3, [r4, #0]
    4bd4:	2b00      	cmp	r3, #0
    4bd6:	d109      	bne.n	4bec <vScreenRefreshTimerCallback+0x20>
    4bd8:	4b08      	ldr	r3, [pc, #32]	; (4bfc <vScreenRefreshTimerCallback+0x30>)
    4bda:	4798      	blx	r3
    4bdc:	2800      	cmp	r0, #0
    4bde:	d101      	bne.n	4be4 <vScreenRefreshTimerCallback+0x18>
    4be0:	2301      	movs	r3, #1
    4be2:	7023      	strb	r3, [r4, #0]
    4be4:	7823      	ldrb	r3, [r4, #0]
    4be6:	2001      	movs	r0, #1
    4be8:	2b00      	cmp	r3, #0
    4bea:	d000      	beq.n	4bee <vScreenRefreshTimerCallback+0x22>
    4bec:	2000      	movs	r0, #0
    4bee:	47a8      	blx	r5
    4bf0:	bd70      	pop	{r4, r5, r6, pc}
    4bf2:	46c0      	nop			; (mov r8, r8)
    4bf4:	200000c4 	.word	0x200000c4
    4bf8:	0000419d 	.word	0x0000419d
    4bfc:	00003a41 	.word	0x00003a41

00004c00 <handle_i2c_write_complete>:
    4c00:	b510      	push	{r4, lr}
    4c02:	3006      	adds	r0, #6
    4c04:	7fc3      	ldrb	r3, [r0, #31]
    4c06:	4b02      	ldr	r3, [pc, #8]	; (4c10 <handle_i2c_write_complete+0x10>)
    4c08:	6818      	ldr	r0, [r3, #0]
    4c0a:	4b02      	ldr	r3, [pc, #8]	; (4c14 <handle_i2c_write_complete+0x14>)
    4c0c:	4798      	blx	r3
    4c0e:	bd10      	pop	{r4, pc}
    4c10:	2000399c 	.word	0x2000399c
    4c14:	00005c5d 	.word	0x00005c5d

00004c18 <create_hmi_task>:
    4c18:	b537      	push	{r0, r1, r2, r4, r5, lr}
    4c1a:	4b0e      	ldr	r3, [pc, #56]	; (4c54 <create_hmi_task+0x3c>)
    4c1c:	000d      	movs	r5, r1
    4c1e:	0004      	movs	r4, r0
    4c20:	2200      	movs	r2, #0
    4c22:	210c      	movs	r1, #12
    4c24:	200a      	movs	r0, #10
    4c26:	4798      	blx	r3
    4c28:	4b0b      	ldr	r3, [pc, #44]	; (4c58 <create_hmi_task+0x40>)
    4c2a:	0022      	movs	r2, r4
    4c2c:	6018      	str	r0, [r3, #0]
    4c2e:	4b0b      	ldr	r3, [pc, #44]	; (4c5c <create_hmi_task+0x44>)
    4c30:	9500      	str	r5, [sp, #0]
    4c32:	9301      	str	r3, [sp, #4]
    4c34:	4c0a      	ldr	r4, [pc, #40]	; (4c60 <create_hmi_task+0x48>)
    4c36:	2300      	movs	r3, #0
    4c38:	490a      	ldr	r1, [pc, #40]	; (4c64 <create_hmi_task+0x4c>)
    4c3a:	480b      	ldr	r0, [pc, #44]	; (4c68 <create_hmi_task+0x50>)
    4c3c:	47a0      	blx	r4
    4c3e:	2280      	movs	r2, #128	; 0x80
    4c40:	4b0a      	ldr	r3, [pc, #40]	; (4c6c <create_hmi_task+0x54>)
    4c42:	9500      	str	r5, [sp, #0]
    4c44:	9301      	str	r3, [sp, #4]
    4c46:	0052      	lsls	r2, r2, #1
    4c48:	2300      	movs	r3, #0
    4c4a:	4909      	ldr	r1, [pc, #36]	; (4c70 <create_hmi_task+0x58>)
    4c4c:	4809      	ldr	r0, [pc, #36]	; (4c74 <create_hmi_task+0x5c>)
    4c4e:	47a0      	blx	r4
    4c50:	bd37      	pop	{r0, r1, r2, r4, r5, pc}
    4c52:	46c0      	nop			; (mov r8, r8)
    4c54:	000054d5 	.word	0x000054d5
    4c58:	20003998 	.word	0x20003998
    4c5c:	20003964 	.word	0x20003964
    4c60:	00005a25 	.word	0x00005a25
    4c64:	0000b8f9 	.word	0x0000b8f9
    4c68:	00004c99 	.word	0x00004c99
    4c6c:	2000399c 	.word	0x2000399c
    4c70:	0000b8fd 	.word	0x0000b8fd
    4c74:	00004b35 	.word	0x00004b35

00004c78 <system_is_enabled>:
    4c78:	4b02      	ldr	r3, [pc, #8]	; (4c84 <system_is_enabled+0xc>)
    4c7a:	6a18      	ldr	r0, [r3, #32]
    4c7c:	0500      	lsls	r0, r0, #20
    4c7e:	0fc0      	lsrs	r0, r0, #31
    4c80:	4770      	bx	lr
    4c82:	46c0      	nop			; (mov r8, r8)
    4c84:	41004480 	.word	0x41004480

00004c88 <get_pushbutton_level>:
    4c88:	4b02      	ldr	r3, [pc, #8]	; (4c94 <get_pushbutton_level+0xc>)
    4c8a:	6a18      	ldr	r0, [r3, #32]
    4c8c:	04c0      	lsls	r0, r0, #19
    4c8e:	0fc0      	lsrs	r0, r0, #31
    4c90:	4770      	bx	lr
    4c92:	46c0      	nop			; (mov r8, r8)
    4c94:	41004400 	.word	0x41004400

00004c98 <hmi_task>:
    4c98:	2280      	movs	r2, #128	; 0x80
    4c9a:	b5f0      	push	{r4, r5, r6, r7, lr}
    4c9c:	b093      	sub	sp, #76	; 0x4c
    4c9e:	ac05      	add	r4, sp, #20
    4ca0:	0392      	lsls	r2, r2, #14
    4ca2:	6122      	str	r2, [r4, #16]
    4ca4:	2201      	movs	r2, #1
    4ca6:	4b77      	ldr	r3, [pc, #476]	; (4e84 <hmi_task+0x1ec>)
    4ca8:	4252      	negs	r2, r2
    4caa:	6063      	str	r3, [r4, #4]
    4cac:	2300      	movs	r3, #0
    4cae:	a902      	add	r1, sp, #8
    4cb0:	82e2      	strh	r2, [r4, #22]
    4cb2:	82a2      	strh	r2, [r4, #20]
    4cb4:	3212      	adds	r2, #18
    4cb6:	1852      	adds	r2, r2, r1
    4cb8:	77d3      	strb	r3, [r2, #31]
    4cba:	aa10      	add	r2, sp, #64	; 0x40
    4cbc:	7013      	strb	r3, [r2, #0]
    4cbe:	2239      	movs	r2, #57	; 0x39
    4cc0:	1852      	adds	r2, r2, r1
    4cc2:	7013      	strb	r3, [r2, #0]
    4cc4:	223a      	movs	r2, #58	; 0x3a
    4cc6:	1852      	adds	r2, r2, r1
    4cc8:	60a3      	str	r3, [r4, #8]
    4cca:	7623      	strb	r3, [r4, #24]
    4ccc:	62a3      	str	r3, [r4, #40]	; 0x28
    4cce:	7013      	strb	r3, [r2, #0]
    4cd0:	33d7      	adds	r3, #215	; 0xd7
    4cd2:	8623      	strh	r3, [r4, #48]	; 0x30
    4cd4:	3bd6      	subs	r3, #214	; 0xd6
    4cd6:	7323      	strb	r3, [r4, #12]
    4cd8:	332c      	adds	r3, #44	; 0x2c
    4cda:	9305      	str	r3, [sp, #20]
    4cdc:	3b1d      	subs	r3, #29
    4cde:	61e3      	str	r3, [r4, #28]
    4ce0:	3301      	adds	r3, #1
    4ce2:	6223      	str	r3, [r4, #32]
    4ce4:	4d68      	ldr	r5, [pc, #416]	; (4e88 <hmi_task+0x1f0>)
    4ce6:	0022      	movs	r2, r4
    4ce8:	4968      	ldr	r1, [pc, #416]	; (4e8c <hmi_task+0x1f4>)
    4cea:	0028      	movs	r0, r5
    4cec:	4b68      	ldr	r3, [pc, #416]	; (4e90 <hmi_task+0x1f8>)
    4cee:	4798      	blx	r3
    4cf0:	1e02      	subs	r2, r0, #0
    4cf2:	d1f7      	bne.n	4ce4 <hmi_task+0x4c>
    4cf4:	2180      	movs	r1, #128	; 0x80
    4cf6:	23c0      	movs	r3, #192	; 0xc0
    4cf8:	20c2      	movs	r0, #194	; 0xc2
    4cfa:	4e66      	ldr	r6, [pc, #408]	; (4e94 <hmi_task+0x1fc>)
    4cfc:	00c9      	lsls	r1, r1, #3
    4cfe:	005b      	lsls	r3, r3, #1
    4d00:	50f1      	str	r1, [r6, r3]
    4d02:	0080      	lsls	r0, r0, #2
    4d04:	5833      	ldr	r3, [r6, r0]
    4d06:	4f64      	ldr	r7, [pc, #400]	; (4e98 <hmi_task+0x200>)
    4d08:	403b      	ands	r3, r7
    4d0a:	5033      	str	r3, [r6, r0]
    4d0c:	4f63      	ldr	r7, [pc, #396]	; (4e9c <hmi_task+0x204>)
    4d0e:	6031      	str	r1, [r6, #0]
    4d10:	0028      	movs	r0, r5
    4d12:	4963      	ldr	r1, [pc, #396]	; (4ea0 <hmi_task+0x208>)
    4d14:	47b8      	blx	r7
    4d16:	2202      	movs	r2, #2
    4d18:	4961      	ldr	r1, [pc, #388]	; (4ea0 <hmi_task+0x208>)
    4d1a:	0028      	movs	r0, r5
    4d1c:	47b8      	blx	r7
    4d1e:	2301      	movs	r3, #1
    4d20:	7e6a      	ldrb	r2, [r5, #25]
    4d22:	682f      	ldr	r7, [r5, #0]
    4d24:	4313      	orrs	r3, r2
    4d26:	766b      	strb	r3, [r5, #25]
    4d28:	2304      	movs	r3, #4
    4d2a:	7e6a      	ldrb	r2, [r5, #25]
    4d2c:	4313      	orrs	r3, r2
    4d2e:	766b      	strb	r3, [r5, #25]
    4d30:	2307      	movs	r3, #7
    4d32:	69fa      	ldr	r2, [r7, #28]
    4d34:	401a      	ands	r2, r3
    4d36:	9203      	str	r2, [sp, #12]
    4d38:	d1fb      	bne.n	4d32 <hmi_task+0x9a>
    4d3a:	2302      	movs	r3, #2
    4d3c:	683a      	ldr	r2, [r7, #0]
    4d3e:	4313      	orrs	r3, r2
    4d40:	603b      	str	r3, [r7, #0]
    4d42:	6828      	ldr	r0, [r5, #0]
    4d44:	4b57      	ldr	r3, [pc, #348]	; (4ea4 <hmi_task+0x20c>)
    4d46:	4798      	blx	r3
    4d48:	231f      	movs	r3, #31
    4d4a:	4018      	ands	r0, r3
    4d4c:	3b1e      	subs	r3, #30
    4d4e:	4083      	lsls	r3, r0
    4d50:	2210      	movs	r2, #16
    4d52:	6033      	str	r3, [r6, #0]
    4d54:	88e8      	ldrh	r0, [r5, #6]
    4d56:	9b03      	ldr	r3, [sp, #12]
    4d58:	8b79      	ldrh	r1, [r7, #26]
    4d5a:	4211      	tst	r1, r2
    4d5c:	d103      	bne.n	4d66 <hmi_task+0xce>
    4d5e:	3301      	adds	r3, #1
    4d60:	4283      	cmp	r3, r0
    4d62:	d3f9      	bcc.n	4d58 <hmi_task+0xc0>
    4d64:	837a      	strh	r2, [r7, #26]
    4d66:	4b50      	ldr	r3, [pc, #320]	; (4ea8 <hmi_task+0x210>)
    4d68:	4798      	blx	r3
    4d6a:	4b50      	ldr	r3, [pc, #320]	; (4eac <hmi_task+0x214>)
    4d6c:	2201      	movs	r2, #1
    4d6e:	9300      	str	r3, [sp, #0]
    4d70:	211e      	movs	r1, #30
    4d72:	2300      	movs	r3, #0
    4d74:	484e      	ldr	r0, [pc, #312]	; (4eb0 <hmi_task+0x218>)
    4d76:	4e4f      	ldr	r6, [pc, #316]	; (4eb4 <hmi_task+0x21c>)
    4d78:	47b0      	blx	r6
    4d7a:	4d4f      	ldr	r5, [pc, #316]	; (4eb8 <hmi_task+0x220>)
    4d7c:	1e07      	subs	r7, r0, #0
    4d7e:	d007      	beq.n	4d90 <hmi_task+0xf8>
    4d80:	47a8      	blx	r5
    4d82:	2300      	movs	r3, #0
    4d84:	0002      	movs	r2, r0
    4d86:	9300      	str	r3, [sp, #0]
    4d88:	0038      	movs	r0, r7
    4d8a:	2101      	movs	r1, #1
    4d8c:	4f4b      	ldr	r7, [pc, #300]	; (4ebc <hmi_task+0x224>)
    4d8e:	47b8      	blx	r7
    4d90:	21fa      	movs	r1, #250	; 0xfa
    4d92:	4b4b      	ldr	r3, [pc, #300]	; (4ec0 <hmi_task+0x228>)
    4d94:	2201      	movs	r2, #1
    4d96:	9300      	str	r3, [sp, #0]
    4d98:	00c9      	lsls	r1, r1, #3
    4d9a:	2300      	movs	r3, #0
    4d9c:	4849      	ldr	r0, [pc, #292]	; (4ec4 <hmi_task+0x22c>)
    4d9e:	47b0      	blx	r6
    4da0:	1e06      	subs	r6, r0, #0
    4da2:	d007      	beq.n	4db4 <hmi_task+0x11c>
    4da4:	47a8      	blx	r5
    4da6:	2300      	movs	r3, #0
    4da8:	0002      	movs	r2, r0
    4daa:	9300      	str	r3, [sp, #0]
    4dac:	0030      	movs	r0, r6
    4dae:	2101      	movs	r1, #1
    4db0:	4e42      	ldr	r6, [pc, #264]	; (4ebc <hmi_task+0x224>)
    4db2:	47b0      	blx	r6
    4db4:	47a8      	blx	r5
    4db6:	9005      	str	r0, [sp, #20]
    4db8:	2114      	movs	r1, #20
    4dba:	0020      	movs	r0, r4
    4dbc:	4b42      	ldr	r3, [pc, #264]	; (4ec8 <hmi_task+0x230>)
    4dbe:	4798      	blx	r3
    4dc0:	4b42      	ldr	r3, [pc, #264]	; (4ecc <hmi_task+0x234>)
    4dc2:	4798      	blx	r3
    4dc4:	4b42      	ldr	r3, [pc, #264]	; (4ed0 <hmi_task+0x238>)
    4dc6:	0007      	movs	r7, r0
    4dc8:	781b      	ldrb	r3, [r3, #0]
    4dca:	4d42      	ldr	r5, [pc, #264]	; (4ed4 <hmi_task+0x23c>)
    4dcc:	4e42      	ldr	r6, [pc, #264]	; (4ed8 <hmi_task+0x240>)
    4dce:	2b00      	cmp	r3, #0
    4dd0:	d10b      	bne.n	4dea <hmi_task+0x152>
    4dd2:	2800      	cmp	r0, #0
    4dd4:	d009      	beq.n	4dea <hmi_task+0x152>
    4dd6:	7828      	ldrb	r0, [r5, #0]
    4dd8:	2804      	cmp	r0, #4
    4dda:	d805      	bhi.n	4de8 <hmi_task+0x150>
    4ddc:	f002 ff58 	bl	7c90 <__gnu_thumb1_case_uqi>
    4de0:	14121003 	.word	0x14121003
    4de4:	16          	.byte	0x16
    4de5:	00          	.byte	0x00
    4de6:	2301      	movs	r3, #1
    4de8:	702b      	strb	r3, [r5, #0]
    4dea:	4b3c      	ldr	r3, [pc, #240]	; (4edc <hmi_task+0x244>)
    4dec:	4798      	blx	r3
    4dee:	1c03      	adds	r3, r0, #0
    4df0:	7828      	ldrb	r0, [r5, #0]
    4df2:	2804      	cmp	r0, #4
    4df4:	d843      	bhi.n	4e7e <hmi_task+0x1e6>
    4df6:	f002 ff4b 	bl	7c90 <__gnu_thumb1_case_uqi>
    4dfa:	0e18      	.short	0x0e18
    4dfc:	2c21      	.short	0x2c21
    4dfe:	37          	.byte	0x37
    4dff:	00          	.byte	0x00
    4e00:	2302      	movs	r3, #2
    4e02:	e7f1      	b.n	4de8 <hmi_task+0x150>
    4e04:	2303      	movs	r3, #3
    4e06:	e7ef      	b.n	4de8 <hmi_task+0x150>
    4e08:	2304      	movs	r3, #4
    4e0a:	e7ed      	b.n	4de8 <hmi_task+0x150>
    4e0c:	4b34      	ldr	r3, [pc, #208]	; (4ee0 <hmi_task+0x248>)
    4e0e:	0030      	movs	r0, r6
    4e10:	4798      	blx	r3
    4e12:	2300      	movs	r3, #0
    4e14:	e7e8      	b.n	4de8 <hmi_task+0x150>
    4e16:	4933      	ldr	r1, [pc, #204]	; (4ee4 <hmi_task+0x24c>)
    4e18:	1c18      	adds	r0, r3, #0
    4e1a:	4b33      	ldr	r3, [pc, #204]	; (4ee8 <hmi_task+0x250>)
    4e1c:	4798      	blx	r3
    4e1e:	4933      	ldr	r1, [pc, #204]	; (4eec <hmi_task+0x254>)
    4e20:	4b33      	ldr	r3, [pc, #204]	; (4ef0 <hmi_task+0x258>)
    4e22:	4798      	blx	r3
    4e24:	4b33      	ldr	r3, [pc, #204]	; (4ef4 <hmi_task+0x25c>)
    4e26:	4798      	blx	r3
    4e28:	6130      	str	r0, [r6, #16]
    4e2a:	4b29      	ldr	r3, [pc, #164]	; (4ed0 <hmi_task+0x238>)
    4e2c:	7829      	ldrb	r1, [r5, #0]
    4e2e:	701f      	strb	r7, [r3, #0]
    4e30:	0030      	movs	r0, r6
    4e32:	4b31      	ldr	r3, [pc, #196]	; (4ef8 <hmi_task+0x260>)
    4e34:	4798      	blx	r3
    4e36:	4b31      	ldr	r3, [pc, #196]	; (4efc <hmi_task+0x264>)
    4e38:	4798      	blx	r3
    4e3a:	e7bd      	b.n	4db8 <hmi_task+0x120>
    4e3c:	4930      	ldr	r1, [pc, #192]	; (4f00 <hmi_task+0x268>)
    4e3e:	1c18      	adds	r0, r3, #0
    4e40:	4b29      	ldr	r3, [pc, #164]	; (4ee8 <hmi_task+0x250>)
    4e42:	4798      	blx	r3
    4e44:	492f      	ldr	r1, [pc, #188]	; (4f04 <hmi_task+0x26c>)
    4e46:	4b2a      	ldr	r3, [pc, #168]	; (4ef0 <hmi_task+0x258>)
    4e48:	4798      	blx	r3
    4e4a:	4b2a      	ldr	r3, [pc, #168]	; (4ef4 <hmi_task+0x25c>)
    4e4c:	4798      	blx	r3
    4e4e:	60b0      	str	r0, [r6, #8]
    4e50:	e7eb      	b.n	4e2a <hmi_task+0x192>
    4e52:	492d      	ldr	r1, [pc, #180]	; (4f08 <hmi_task+0x270>)
    4e54:	1c18      	adds	r0, r3, #0
    4e56:	4b24      	ldr	r3, [pc, #144]	; (4ee8 <hmi_task+0x250>)
    4e58:	4798      	blx	r3
    4e5a:	492c      	ldr	r1, [pc, #176]	; (4f0c <hmi_task+0x274>)
    4e5c:	4b24      	ldr	r3, [pc, #144]	; (4ef0 <hmi_task+0x258>)
    4e5e:	4798      	blx	r3
    4e60:	4b24      	ldr	r3, [pc, #144]	; (4ef4 <hmi_task+0x25c>)
    4e62:	4798      	blx	r3
    4e64:	60f0      	str	r0, [r6, #12]
    4e66:	e7e0      	b.n	4e2a <hmi_task+0x192>
    4e68:	4929      	ldr	r1, [pc, #164]	; (4f10 <hmi_task+0x278>)
    4e6a:	1c18      	adds	r0, r3, #0
    4e6c:	4b1e      	ldr	r3, [pc, #120]	; (4ee8 <hmi_task+0x250>)
    4e6e:	4798      	blx	r3
    4e70:	4928      	ldr	r1, [pc, #160]	; (4f14 <hmi_task+0x27c>)
    4e72:	4b1f      	ldr	r3, [pc, #124]	; (4ef0 <hmi_task+0x258>)
    4e74:	4798      	blx	r3
    4e76:	4b28      	ldr	r3, [pc, #160]	; (4f18 <hmi_task+0x280>)
    4e78:	4798      	blx	r3
    4e7a:	7070      	strb	r0, [r6, #1]
    4e7c:	e7d5      	b.n	4e2a <hmi_task+0x192>
    4e7e:	2300      	movs	r3, #0
    4e80:	702b      	strb	r3, [r5, #0]
    4e82:	e7d2      	b.n	4e2a <hmi_task+0x192>
    4e84:	00000d48 	.word	0x00000d48
    4e88:	20003968 	.word	0x20003968
    4e8c:	42000c00 	.word	0x42000c00
    4e90:	00001345 	.word	0x00001345
    4e94:	e000e100 	.word	0xe000e100
    4e98:	ff00ffff 	.word	0xff00ffff
    4e9c:	0000185d 	.word	0x0000185d
    4ea0:	00004c01 	.word	0x00004c01
    4ea4:	0000700d 	.word	0x0000700d
    4ea8:	00004335 	.word	0x00004335
    4eac:	00004bcd 	.word	0x00004bcd
    4eb0:	0000b901 	.word	0x0000b901
    4eb4:	00006485 	.word	0x00006485
    4eb8:	00005d61 	.word	0x00005d61
    4ebc:	000064c9 	.word	0x000064c9
    4ec0:	00004b25 	.word	0x00004b25
    4ec4:	0000b90c 	.word	0x0000b90c
    4ec8:	00005f75 	.word	0x00005f75
    4ecc:	00004c89 	.word	0x00004c89
    4ed0:	20003994 	.word	0x20003994
    4ed4:	200039b4 	.word	0x200039b4
    4ed8:	200039a0 	.word	0x200039a0
    4edc:	000039c9 	.word	0x000039c9
    4ee0:	00004af5 	.word	0x00004af5
    4ee4:	42580000 	.word	0x42580000
    4ee8:	00008a95 	.word	0x00008a95
    4eec:	40c00000 	.word	0x40c00000
    4ef0:	00008391 	.word	0x00008391
    4ef4:	0000900d 	.word	0x0000900d
    4ef8:	000043a9 	.word	0x000043a9
    4efc:	000044c9 	.word	0x000044c9
    4f00:	41880000 	.word	0x41880000
    4f04:	40400000 	.word	0x40400000
    4f08:	41c80000 	.word	0x41c80000
    4f0c:	41200000 	.word	0x41200000
    4f10:	420c0000 	.word	0x420c0000
    4f14:	40a00000 	.word	0x40a00000
    4f18:	000081a5 	.word	0x000081a5

00004f1c <add_lcd_i2c_transaction_to_queue>:
    4f1c:	b51f      	push	{r0, r1, r2, r3, r4, lr}
    4f1e:	4b06      	ldr	r3, [pc, #24]	; (4f38 <add_lcd_i2c_transaction_to_queue+0x1c>)
    4f20:	9001      	str	r0, [sp, #4]
    4f22:	6818      	ldr	r0, [r3, #0]
    4f24:	9102      	str	r1, [sp, #8]
    4f26:	9203      	str	r2, [sp, #12]
    4f28:	2800      	cmp	r0, #0
    4f2a:	d004      	beq.n	4f36 <add_lcd_i2c_transaction_to_queue+0x1a>
    4f2c:	2300      	movs	r3, #0
    4f2e:	a901      	add	r1, sp, #4
    4f30:	001a      	movs	r2, r3
    4f32:	4c02      	ldr	r4, [pc, #8]	; (4f3c <add_lcd_i2c_transaction_to_queue+0x20>)
    4f34:	47a0      	blx	r4
    4f36:	bd1f      	pop	{r0, r1, r2, r3, r4, pc}
    4f38:	20003998 	.word	0x20003998
    4f3c:	00005525 	.word	0x00005525

00004f40 <monitor_task>:
    4f40:	b510      	push	{r4, lr}
    4f42:	2480      	movs	r4, #128	; 0x80
    4f44:	03e4      	lsls	r4, r4, #15
    4f46:	2064      	movs	r0, #100	; 0x64
    4f48:	4b03      	ldr	r3, [pc, #12]	; (4f58 <monitor_task+0x18>)
    4f4a:	4798      	blx	r3
    4f4c:	4b03      	ldr	r3, [pc, #12]	; (4f5c <monitor_task+0x1c>)
    4f4e:	4798      	blx	r3
    4f50:	4b03      	ldr	r3, [pc, #12]	; (4f60 <monitor_task+0x20>)
    4f52:	615c      	str	r4, [r3, #20]
    4f54:	e7f7      	b.n	4f46 <monitor_task+0x6>
    4f56:	46c0      	nop			; (mov r8, r8)
    4f58:	00005fed 	.word	0x00005fed
    4f5c:	00003a41 	.word	0x00003a41
    4f60:	41004480 	.word	0x41004480

00004f64 <create_monitor_task>:
    4f64:	b513      	push	{r0, r1, r4, lr}
    4f66:	4b05      	ldr	r3, [pc, #20]	; (4f7c <create_monitor_task+0x18>)
    4f68:	0002      	movs	r2, r0
    4f6a:	9301      	str	r3, [sp, #4]
    4f6c:	9100      	str	r1, [sp, #0]
    4f6e:	2300      	movs	r3, #0
    4f70:	4903      	ldr	r1, [pc, #12]	; (4f80 <create_monitor_task+0x1c>)
    4f72:	4c04      	ldr	r4, [pc, #16]	; (4f84 <create_monitor_task+0x20>)
    4f74:	4804      	ldr	r0, [pc, #16]	; (4f88 <create_monitor_task+0x24>)
    4f76:	47a0      	blx	r4
    4f78:	bd13      	pop	{r0, r1, r4, pc}
    4f7a:	46c0      	nop			; (mov r8, r8)
    4f7c:	200039b8 	.word	0x200039b8
    4f80:	0000b923 	.word	0x0000b923
    4f84:	00005a25 	.word	0x00005a25
    4f88:	00004f41 	.word	0x00004f41

00004f8c <vFS6122ReadTimerCallback>:
    4f8c:	b510      	push	{r4, lr}
    4f8e:	4b01      	ldr	r3, [pc, #4]	; (4f94 <vFS6122ReadTimerCallback+0x8>)
    4f90:	4798      	blx	r3
    4f92:	bd10      	pop	{r4, pc}
    4f94:	00003f3d 	.word	0x00003f3d

00004f98 <vTidalVolumeTimerCallback>:
    4f98:	b5f0      	push	{r4, r5, r6, r7, lr}
    4f9a:	4b57      	ldr	r3, [pc, #348]	; (50f8 <vTidalVolumeTimerCallback+0x160>)
    4f9c:	b08b      	sub	sp, #44	; 0x2c
    4f9e:	4798      	blx	r3
    4fa0:	4b56      	ldr	r3, [pc, #344]	; (50fc <vTidalVolumeTimerCallback+0x164>)
    4fa2:	9006      	str	r0, [sp, #24]
    4fa4:	a808      	add	r0, sp, #32
    4fa6:	4798      	blx	r3
    4fa8:	4b55      	ldr	r3, [pc, #340]	; (5100 <vTidalVolumeTimerCallback+0x168>)
    4faa:	9808      	ldr	r0, [sp, #32]
    4fac:	4798      	blx	r3
    4fae:	4e55      	ldr	r6, [pc, #340]	; (5104 <vTidalVolumeTimerCallback+0x16c>)
    4fb0:	4a55      	ldr	r2, [pc, #340]	; (5108 <vTidalVolumeTimerCallback+0x170>)
    4fb2:	4b56      	ldr	r3, [pc, #344]	; (510c <vTidalVolumeTimerCallback+0x174>)
    4fb4:	47b0      	blx	r6
    4fb6:	4b56      	ldr	r3, [pc, #344]	; (5110 <vTidalVolumeTimerCallback+0x178>)
    4fb8:	4798      	blx	r3
    4fba:	4b56      	ldr	r3, [pc, #344]	; (5114 <vTidalVolumeTimerCallback+0x17c>)
    4fbc:	9007      	str	r0, [sp, #28]
    4fbe:	4798      	blx	r3
    4fc0:	4f55      	ldr	r7, [pc, #340]	; (5118 <vTidalVolumeTimerCallback+0x180>)
    4fc2:	9004      	str	r0, [sp, #16]
    4fc4:	9105      	str	r1, [sp, #20]
    4fc6:	4b55      	ldr	r3, [pc, #340]	; (511c <vTidalVolumeTimerCallback+0x184>)
    4fc8:	6838      	ldr	r0, [r7, #0]
    4fca:	4955      	ldr	r1, [pc, #340]	; (5120 <vTidalVolumeTimerCallback+0x188>)
    4fcc:	4798      	blx	r3
    4fce:	4b51      	ldr	r3, [pc, #324]	; (5114 <vTidalVolumeTimerCallback+0x17c>)
    4fd0:	4798      	blx	r3
    4fd2:	2280      	movs	r2, #128	; 0x80
    4fd4:	0004      	movs	r4, r0
    4fd6:	000d      	movs	r5, r1
    4fd8:	9804      	ldr	r0, [sp, #16]
    4fda:	9905      	ldr	r1, [sp, #20]
    4fdc:	05d2      	lsls	r2, r2, #23
    4fde:	4b51      	ldr	r3, [pc, #324]	; (5124 <vTidalVolumeTimerCallback+0x18c>)
    4fe0:	47b0      	blx	r6
    4fe2:	0002      	movs	r2, r0
    4fe4:	000b      	movs	r3, r1
    4fe6:	0020      	movs	r0, r4
    4fe8:	0029      	movs	r1, r5
    4fea:	4c4f      	ldr	r4, [pc, #316]	; (5128 <vTidalVolumeTimerCallback+0x190>)
    4fec:	47a0      	blx	r4
    4fee:	4b48      	ldr	r3, [pc, #288]	; (5110 <vTidalVolumeTimerCallback+0x178>)
    4ff0:	4798      	blx	r3
    4ff2:	4a4e      	ldr	r2, [pc, #312]	; (512c <vTidalVolumeTimerCallback+0x194>)
    4ff4:	9b06      	ldr	r3, [sp, #24]
    4ff6:	6812      	ldr	r2, [r2, #0]
    4ff8:	6038      	str	r0, [r7, #0]
    4ffa:	9003      	str	r0, [sp, #12]
    4ffc:	1a98      	subs	r0, r3, r2
    4ffe:	4b4c      	ldr	r3, [pc, #304]	; (5130 <vTidalVolumeTimerCallback+0x198>)
    5000:	4798      	blx	r3
    5002:	4a41      	ldr	r2, [pc, #260]	; (5108 <vTidalVolumeTimerCallback+0x170>)
    5004:	4b41      	ldr	r3, [pc, #260]	; (510c <vTidalVolumeTimerCallback+0x174>)
    5006:	47b0      	blx	r6
    5008:	4b41      	ldr	r3, [pc, #260]	; (5110 <vTidalVolumeTimerCallback+0x178>)
    500a:	4798      	blx	r3
    500c:	4b41      	ldr	r3, [pc, #260]	; (5114 <vTidalVolumeTimerCallback+0x17c>)
    500e:	4798      	blx	r3
    5010:	0004      	movs	r4, r0
    5012:	000d      	movs	r5, r1
    5014:	9804      	ldr	r0, [sp, #16]
    5016:	9905      	ldr	r1, [sp, #20]
    5018:	4a46      	ldr	r2, [pc, #280]	; (5134 <vTidalVolumeTimerCallback+0x19c>)
    501a:	4b47      	ldr	r3, [pc, #284]	; (5138 <vTidalVolumeTimerCallback+0x1a0>)
    501c:	47b0      	blx	r6
    501e:	0022      	movs	r2, r4
    5020:	002b      	movs	r3, r5
    5022:	47b0      	blx	r6
    5024:	4b45      	ldr	r3, [pc, #276]	; (513c <vTidalVolumeTimerCallback+0x1a4>)
    5026:	9004      	str	r0, [sp, #16]
    5028:	9105      	str	r1, [sp, #20]
    502a:	6818      	ldr	r0, [r3, #0]
    502c:	4b39      	ldr	r3, [pc, #228]	; (5114 <vTidalVolumeTimerCallback+0x17c>)
    502e:	4798      	blx	r3
    5030:	4f3d      	ldr	r7, [pc, #244]	; (5128 <vTidalVolumeTimerCallback+0x190>)
    5032:	0002      	movs	r2, r0
    5034:	000b      	movs	r3, r1
    5036:	9804      	ldr	r0, [sp, #16]
    5038:	9905      	ldr	r1, [sp, #20]
    503a:	47b8      	blx	r7
    503c:	4b34      	ldr	r3, [pc, #208]	; (5110 <vTidalVolumeTimerCallback+0x178>)
    503e:	4798      	blx	r3
    5040:	4b3e      	ldr	r3, [pc, #248]	; (513c <vTidalVolumeTimerCallback+0x1a4>)
    5042:	6018      	str	r0, [r3, #0]
    5044:	4b3e      	ldr	r3, [pc, #248]	; (5140 <vTidalVolumeTimerCallback+0x1a8>)
    5046:	9807      	ldr	r0, [sp, #28]
    5048:	4798      	blx	r3
    504a:	17c3      	asrs	r3, r0, #31
    504c:	18c0      	adds	r0, r0, r3
    504e:	4058      	eors	r0, r3
    5050:	4b2b      	ldr	r3, [pc, #172]	; (5100 <vTidalVolumeTimerCallback+0x168>)
    5052:	4798      	blx	r3
    5054:	4a37      	ldr	r2, [pc, #220]	; (5134 <vTidalVolumeTimerCallback+0x19c>)
    5056:	4b38      	ldr	r3, [pc, #224]	; (5138 <vTidalVolumeTimerCallback+0x1a0>)
    5058:	47b0      	blx	r6
    505a:	0022      	movs	r2, r4
    505c:	002b      	movs	r3, r5
    505e:	47b0      	blx	r6
    5060:	2200      	movs	r2, #0
    5062:	4b38      	ldr	r3, [pc, #224]	; (5144 <vTidalVolumeTimerCallback+0x1ac>)
    5064:	47b0      	blx	r6
    5066:	4e38      	ldr	r6, [pc, #224]	; (5148 <vTidalVolumeTimerCallback+0x1b0>)
    5068:	0004      	movs	r4, r0
    506a:	4b2a      	ldr	r3, [pc, #168]	; (5114 <vTidalVolumeTimerCallback+0x17c>)
    506c:	6830      	ldr	r0, [r6, #0]
    506e:	000d      	movs	r5, r1
    5070:	4798      	blx	r3
    5072:	0002      	movs	r2, r0
    5074:	000b      	movs	r3, r1
    5076:	0020      	movs	r0, r4
    5078:	0029      	movs	r1, r5
    507a:	47b8      	blx	r7
    507c:	4b24      	ldr	r3, [pc, #144]	; (5110 <vTidalVolumeTimerCallback+0x178>)
    507e:	4798      	blx	r3
    5080:	2400      	movs	r4, #0
    5082:	4b32      	ldr	r3, [pc, #200]	; (514c <vTidalVolumeTimerCallback+0x1b4>)
    5084:	1c07      	adds	r7, r0, #0
    5086:	781b      	ldrb	r3, [r3, #0]
    5088:	6030      	str	r0, [r6, #0]
    508a:	4d31      	ldr	r5, [pc, #196]	; (5150 <vTidalVolumeTimerCallback+0x1b8>)
    508c:	1c21      	adds	r1, r4, #0
    508e:	9803      	ldr	r0, [sp, #12]
    5090:	2b00      	cmp	r3, #0
    5092:	d020      	beq.n	50d6 <vTidalVolumeTimerCallback+0x13e>
    5094:	4b2f      	ldr	r3, [pc, #188]	; (5154 <vTidalVolumeTimerCallback+0x1bc>)
    5096:	4798      	blx	r3
    5098:	2800      	cmp	r0, #0
    509a:	d008      	beq.n	50ae <vTidalVolumeTimerCallback+0x116>
    509c:	1c21      	adds	r1, r4, #0
    509e:	6828      	ldr	r0, [r5, #0]
    50a0:	4b2d      	ldr	r3, [pc, #180]	; (5158 <vTidalVolumeTimerCallback+0x1c0>)
    50a2:	4798      	blx	r3
    50a4:	2800      	cmp	r0, #0
    50a6:	d002      	beq.n	50ae <vTidalVolumeTimerCallback+0x116>
    50a8:	2300      	movs	r3, #0
    50aa:	4a28      	ldr	r2, [pc, #160]	; (514c <vTidalVolumeTimerCallback+0x1b4>)
    50ac:	7013      	strb	r3, [r2, #0]
    50ae:	9b03      	ldr	r3, [sp, #12]
    50b0:	4a1e      	ldr	r2, [pc, #120]	; (512c <vTidalVolumeTimerCallback+0x194>)
    50b2:	602b      	str	r3, [r5, #0]
    50b4:	9b06      	ldr	r3, [sp, #24]
    50b6:	6013      	str	r3, [r2, #0]
    50b8:	4b28      	ldr	r3, [pc, #160]	; (515c <vTidalVolumeTimerCallback+0x1c4>)
    50ba:	4798      	blx	r3
    50bc:	4b28      	ldr	r3, [pc, #160]	; (5160 <vTidalVolumeTimerCallback+0x1c8>)
    50be:	681c      	ldr	r4, [r3, #0]
    50c0:	4b0d      	ldr	r3, [pc, #52]	; (50f8 <vTidalVolumeTimerCallback+0x160>)
    50c2:	4798      	blx	r3
    50c4:	2300      	movs	r3, #0
    50c6:	0002      	movs	r2, r0
    50c8:	9300      	str	r3, [sp, #0]
    50ca:	2102      	movs	r1, #2
    50cc:	0020      	movs	r0, r4
    50ce:	4c25      	ldr	r4, [pc, #148]	; (5164 <vTidalVolumeTimerCallback+0x1cc>)
    50d0:	47a0      	blx	r4
    50d2:	b00b      	add	sp, #44	; 0x2c
    50d4:	bdf0      	pop	{r4, r5, r6, r7, pc}
    50d6:	4b24      	ldr	r3, [pc, #144]	; (5168 <vTidalVolumeTimerCallback+0x1d0>)
    50d8:	4798      	blx	r3
    50da:	2800      	cmp	r0, #0
    50dc:	d0e7      	beq.n	50ae <vTidalVolumeTimerCallback+0x116>
    50de:	1c21      	adds	r1, r4, #0
    50e0:	6828      	ldr	r0, [r5, #0]
    50e2:	4b22      	ldr	r3, [pc, #136]	; (516c <vTidalVolumeTimerCallback+0x1d4>)
    50e4:	4798      	blx	r3
    50e6:	2800      	cmp	r0, #0
    50e8:	d0e1      	beq.n	50ae <vTidalVolumeTimerCallback+0x116>
    50ea:	4b21      	ldr	r3, [pc, #132]	; (5170 <vTidalVolumeTimerCallback+0x1d8>)
    50ec:	6034      	str	r4, [r6, #0]
    50ee:	601f      	str	r7, [r3, #0]
    50f0:	4b12      	ldr	r3, [pc, #72]	; (513c <vTidalVolumeTimerCallback+0x1a4>)
    50f2:	601c      	str	r4, [r3, #0]
    50f4:	e7db      	b.n	50ae <vTidalVolumeTimerCallback+0x116>
    50f6:	46c0      	nop			; (mov r8, r8)
    50f8:	00005d61 	.word	0x00005d61
    50fc:	00003f99 	.word	0x00003f99
    5100:	0000ab09 	.word	0x0000ab09
    5104:	00009f75 	.word	0x00009f75
    5108:	d2f1a9fc 	.word	0xd2f1a9fc
    510c:	3f50624d 	.word	0x3f50624d
    5110:	0000aca1 	.word	0x0000aca1
    5114:	0000abfd 	.word	0x0000abfd
    5118:	200039bc 	.word	0x200039bc
    511c:	00008a95 	.word	0x00008a95
    5120:	3f333333 	.word	0x3f333333
    5124:	3fd33333 	.word	0x3fd33333
    5128:	000090ed 	.word	0x000090ed
    512c:	200039cc 	.word	0x200039cc
    5130:	0000ab8d 	.word	0x0000ab8d
    5134:	11111111 	.word	0x11111111
    5138:	3f911111 	.word	0x3f911111
    513c:	200039c0 	.word	0x200039c0
    5140:	0000900d 	.word	0x0000900d
    5144:	3fe00000 	.word	0x3fe00000
    5148:	200039d8 	.word	0x200039d8
    514c:	200000c5 	.word	0x200000c5
    5150:	200039c8 	.word	0x200039c8
    5154:	0000806d 	.word	0x0000806d
    5158:	00008059 	.word	0x00008059
    515c:	00003f69 	.word	0x00003f69
    5160:	200039c4 	.word	0x200039c4
    5164:	000064c9 	.word	0x000064c9
    5168:	00008045 	.word	0x00008045
    516c:	00008081 	.word	0x00008081
    5170:	200039d0 	.word	0x200039d0

00005174 <sensor_task>:
    5174:	b537      	push	{r0, r1, r2, r4, r5, lr}
    5176:	4b13      	ldr	r3, [pc, #76]	; (51c4 <sensor_task+0x50>)
    5178:	4798      	blx	r3
    517a:	4b13      	ldr	r3, [pc, #76]	; (51c8 <sensor_task+0x54>)
    517c:	4798      	blx	r3
    517e:	4b13      	ldr	r3, [pc, #76]	; (51cc <sensor_task+0x58>)
    5180:	2201      	movs	r2, #1
    5182:	9300      	str	r3, [sp, #0]
    5184:	210a      	movs	r1, #10
    5186:	2300      	movs	r3, #0
    5188:	4811      	ldr	r0, [pc, #68]	; (51d0 <sensor_task+0x5c>)
    518a:	4c12      	ldr	r4, [pc, #72]	; (51d4 <sensor_task+0x60>)
    518c:	47a0      	blx	r4
    518e:	1e05      	subs	r5, r0, #0
    5190:	d008      	beq.n	51a4 <sensor_task+0x30>
    5192:	4b11      	ldr	r3, [pc, #68]	; (51d8 <sensor_task+0x64>)
    5194:	4798      	blx	r3
    5196:	2300      	movs	r3, #0
    5198:	0002      	movs	r2, r0
    519a:	9300      	str	r3, [sp, #0]
    519c:	0028      	movs	r0, r5
    519e:	2101      	movs	r1, #1
    51a0:	4d0e      	ldr	r5, [pc, #56]	; (51dc <sensor_task+0x68>)
    51a2:	47a8      	blx	r5
    51a4:	4b0e      	ldr	r3, [pc, #56]	; (51e0 <sensor_task+0x6c>)
    51a6:	2105      	movs	r1, #5
    51a8:	9300      	str	r3, [sp, #0]
    51aa:	2300      	movs	r3, #0
    51ac:	480d      	ldr	r0, [pc, #52]	; (51e4 <sensor_task+0x70>)
    51ae:	001a      	movs	r2, r3
    51b0:	47a0      	blx	r4
    51b2:	24fa      	movs	r4, #250	; 0xfa
    51b4:	4b0c      	ldr	r3, [pc, #48]	; (51e8 <sensor_task+0x74>)
    51b6:	00a4      	lsls	r4, r4, #2
    51b8:	6018      	str	r0, [r3, #0]
    51ba:	0020      	movs	r0, r4
    51bc:	4b0b      	ldr	r3, [pc, #44]	; (51ec <sensor_task+0x78>)
    51be:	4798      	blx	r3
    51c0:	e7fb      	b.n	51ba <sensor_task+0x46>
    51c2:	46c0      	nop			; (mov r8, r8)
    51c4:	00003e51 	.word	0x00003e51
    51c8:	000036f5 	.word	0x000036f5
    51cc:	00004f99 	.word	0x00004f99
    51d0:	0000b932 	.word	0x0000b932
    51d4:	00006485 	.word	0x00006485
    51d8:	00005d61 	.word	0x00005d61
    51dc:	000064c9 	.word	0x000064c9
    51e0:	00004f8d 	.word	0x00004f8d
    51e4:	0000b939 	.word	0x0000b939
    51e8:	200039c4 	.word	0x200039c4
    51ec:	00005fed 	.word	0x00005fed

000051f0 <create_sensor_task>:
    51f0:	b513      	push	{r0, r1, r4, lr}
    51f2:	4b05      	ldr	r3, [pc, #20]	; (5208 <create_sensor_task+0x18>)
    51f4:	0002      	movs	r2, r0
    51f6:	9301      	str	r3, [sp, #4]
    51f8:	9100      	str	r1, [sp, #0]
    51fa:	2300      	movs	r3, #0
    51fc:	4903      	ldr	r1, [pc, #12]	; (520c <create_sensor_task+0x1c>)
    51fe:	4c04      	ldr	r4, [pc, #16]	; (5210 <create_sensor_task+0x20>)
    5200:	4804      	ldr	r0, [pc, #16]	; (5214 <create_sensor_task+0x24>)
    5202:	47a0      	blx	r4
    5204:	bd13      	pop	{r0, r1, r4, pc}
    5206:	46c0      	nop			; (mov r8, r8)
    5208:	200039d4 	.word	0x200039d4
    520c:	0000b92b 	.word	0x0000b92b
    5210:	00005a25 	.word	0x00005a25
    5214:	00005175 	.word	0x00005175

00005218 <get_tidal_volume_liter>:
    5218:	4b01      	ldr	r3, [pc, #4]	; (5220 <get_tidal_volume_liter+0x8>)
    521a:	6818      	ldr	r0, [r3, #0]
    521c:	4770      	bx	lr
    521e:	46c0      	nop			; (mov r8, r8)
    5220:	200039d0 	.word	0x200039d0

00005224 <vListInitialise>:
    5224:	0003      	movs	r3, r0
    5226:	2201      	movs	r2, #1
    5228:	3308      	adds	r3, #8
    522a:	6043      	str	r3, [r0, #4]
    522c:	60c3      	str	r3, [r0, #12]
    522e:	6103      	str	r3, [r0, #16]
    5230:	2300      	movs	r3, #0
    5232:	4252      	negs	r2, r2
    5234:	6082      	str	r2, [r0, #8]
    5236:	6003      	str	r3, [r0, #0]
    5238:	4770      	bx	lr

0000523a <vListInitialiseItem>:
    523a:	2300      	movs	r3, #0
    523c:	6103      	str	r3, [r0, #16]
    523e:	4770      	bx	lr

00005240 <vListInsertEnd>:
    5240:	6843      	ldr	r3, [r0, #4]
    5242:	604b      	str	r3, [r1, #4]
    5244:	689a      	ldr	r2, [r3, #8]
    5246:	608a      	str	r2, [r1, #8]
    5248:	689a      	ldr	r2, [r3, #8]
    524a:	6051      	str	r1, [r2, #4]
    524c:	6099      	str	r1, [r3, #8]
    524e:	6108      	str	r0, [r1, #16]
    5250:	6803      	ldr	r3, [r0, #0]
    5252:	3301      	adds	r3, #1
    5254:	6003      	str	r3, [r0, #0]
    5256:	4770      	bx	lr

00005258 <vListInsert>:
    5258:	0003      	movs	r3, r0
    525a:	680a      	ldr	r2, [r1, #0]
    525c:	b530      	push	{r4, r5, lr}
    525e:	3308      	adds	r3, #8
    5260:	1c54      	adds	r4, r2, #1
    5262:	d10b      	bne.n	527c <vListInsert+0x24>
    5264:	6903      	ldr	r3, [r0, #16]
    5266:	685a      	ldr	r2, [r3, #4]
    5268:	604a      	str	r2, [r1, #4]
    526a:	6091      	str	r1, [r2, #8]
    526c:	608b      	str	r3, [r1, #8]
    526e:	6059      	str	r1, [r3, #4]
    5270:	6108      	str	r0, [r1, #16]
    5272:	6803      	ldr	r3, [r0, #0]
    5274:	3301      	adds	r3, #1
    5276:	6003      	str	r3, [r0, #0]
    5278:	bd30      	pop	{r4, r5, pc}
    527a:	0023      	movs	r3, r4
    527c:	685c      	ldr	r4, [r3, #4]
    527e:	6825      	ldr	r5, [r4, #0]
    5280:	42aa      	cmp	r2, r5
    5282:	d2fa      	bcs.n	527a <vListInsert+0x22>
    5284:	e7ef      	b.n	5266 <vListInsert+0xe>

00005286 <uxListRemove>:
    5286:	6842      	ldr	r2, [r0, #4]
    5288:	6881      	ldr	r1, [r0, #8]
    528a:	6903      	ldr	r3, [r0, #16]
    528c:	6091      	str	r1, [r2, #8]
    528e:	6882      	ldr	r2, [r0, #8]
    5290:	6841      	ldr	r1, [r0, #4]
    5292:	6051      	str	r1, [r2, #4]
    5294:	685a      	ldr	r2, [r3, #4]
    5296:	4290      	cmp	r0, r2
    5298:	d101      	bne.n	529e <uxListRemove+0x18>
    529a:	6882      	ldr	r2, [r0, #8]
    529c:	605a      	str	r2, [r3, #4]
    529e:	2200      	movs	r2, #0
    52a0:	6102      	str	r2, [r0, #16]
    52a2:	681a      	ldr	r2, [r3, #0]
    52a4:	3a01      	subs	r2, #1
    52a6:	601a      	str	r2, [r3, #0]
    52a8:	6818      	ldr	r0, [r3, #0]
    52aa:	4770      	bx	lr

000052ac <prvIsQueueEmpty>:
    52ac:	b510      	push	{r4, lr}
    52ae:	0004      	movs	r4, r0
    52b0:	4b03      	ldr	r3, [pc, #12]	; (52c0 <prvIsQueueEmpty+0x14>)
    52b2:	4798      	blx	r3
    52b4:	6ba4      	ldr	r4, [r4, #56]	; 0x38
    52b6:	4b03      	ldr	r3, [pc, #12]	; (52c4 <prvIsQueueEmpty+0x18>)
    52b8:	4798      	blx	r3
    52ba:	4260      	negs	r0, r4
    52bc:	4160      	adcs	r0, r4
    52be:	bd10      	pop	{r4, pc}
    52c0:	00003345 	.word	0x00003345
    52c4:	0000335d 	.word	0x0000335d

000052c8 <prvCopyDataToQueue>:
    52c8:	b570      	push	{r4, r5, r6, lr}
    52ca:	0016      	movs	r6, r2
    52cc:	6c02      	ldr	r2, [r0, #64]	; 0x40
    52ce:	0004      	movs	r4, r0
    52d0:	6b85      	ldr	r5, [r0, #56]	; 0x38
    52d2:	2a00      	cmp	r2, #0
    52d4:	d10a      	bne.n	52ec <prvCopyDataToQueue+0x24>
    52d6:	6806      	ldr	r6, [r0, #0]
    52d8:	0010      	movs	r0, r2
    52da:	2e00      	cmp	r6, #0
    52dc:	d103      	bne.n	52e6 <prvCopyDataToQueue+0x1e>
    52de:	6860      	ldr	r0, [r4, #4]
    52e0:	4b15      	ldr	r3, [pc, #84]	; (5338 <prvCopyDataToQueue+0x70>)
    52e2:	4798      	blx	r3
    52e4:	6066      	str	r6, [r4, #4]
    52e6:	3501      	adds	r5, #1
    52e8:	63a5      	str	r5, [r4, #56]	; 0x38
    52ea:	bd70      	pop	{r4, r5, r6, pc}
    52ec:	4b13      	ldr	r3, [pc, #76]	; (533c <prvCopyDataToQueue+0x74>)
    52ee:	2e00      	cmp	r6, #0
    52f0:	d10c      	bne.n	530c <prvCopyDataToQueue+0x44>
    52f2:	6880      	ldr	r0, [r0, #8]
    52f4:	4798      	blx	r3
    52f6:	68a3      	ldr	r3, [r4, #8]
    52f8:	6c22      	ldr	r2, [r4, #64]	; 0x40
    52fa:	0030      	movs	r0, r6
    52fc:	189b      	adds	r3, r3, r2
    52fe:	6862      	ldr	r2, [r4, #4]
    5300:	60a3      	str	r3, [r4, #8]
    5302:	4293      	cmp	r3, r2
    5304:	d3ef      	bcc.n	52e6 <prvCopyDataToQueue+0x1e>
    5306:	6823      	ldr	r3, [r4, #0]
    5308:	60a3      	str	r3, [r4, #8]
    530a:	e7ec      	b.n	52e6 <prvCopyDataToQueue+0x1e>
    530c:	68c0      	ldr	r0, [r0, #12]
    530e:	4798      	blx	r3
    5310:	6c23      	ldr	r3, [r4, #64]	; 0x40
    5312:	68e2      	ldr	r2, [r4, #12]
    5314:	425b      	negs	r3, r3
    5316:	6821      	ldr	r1, [r4, #0]
    5318:	18d2      	adds	r2, r2, r3
    531a:	60e2      	str	r2, [r4, #12]
    531c:	428a      	cmp	r2, r1
    531e:	d202      	bcs.n	5326 <prvCopyDataToQueue+0x5e>
    5320:	6862      	ldr	r2, [r4, #4]
    5322:	18d3      	adds	r3, r2, r3
    5324:	60e3      	str	r3, [r4, #12]
    5326:	2000      	movs	r0, #0
    5328:	2e02      	cmp	r6, #2
    532a:	d1dc      	bne.n	52e6 <prvCopyDataToQueue+0x1e>
    532c:	002b      	movs	r3, r5
    532e:	1e5a      	subs	r2, r3, #1
    5330:	4193      	sbcs	r3, r2
    5332:	1aed      	subs	r5, r5, r3
    5334:	e7d7      	b.n	52e6 <prvCopyDataToQueue+0x1e>
    5336:	46c0      	nop			; (mov r8, r8)
    5338:	00006319 	.word	0x00006319
    533c:	0000ae15 	.word	0x0000ae15

00005340 <prvNotifyQueueSetContainer>:
    5340:	b5f7      	push	{r0, r1, r2, r4, r5, r6, r7, lr}
    5342:	6c84      	ldr	r4, [r0, #72]	; 0x48
    5344:	9001      	str	r0, [sp, #4]
    5346:	000a      	movs	r2, r1
    5348:	2c00      	cmp	r4, #0
    534a:	d101      	bne.n	5350 <prvNotifyQueueSetContainer+0x10>
    534c:	b672      	cpsid	i
    534e:	e7fe      	b.n	534e <prvNotifyQueueSetContainer+0xe>
    5350:	6ba1      	ldr	r1, [r4, #56]	; 0x38
    5352:	6be3      	ldr	r3, [r4, #60]	; 0x3c
    5354:	4299      	cmp	r1, r3
    5356:	d301      	bcc.n	535c <prvNotifyQueueSetContainer+0x1c>
    5358:	b672      	cpsid	i
    535a:	e7fe      	b.n	535a <prvNotifyQueueSetContainer+0x1a>
    535c:	6ba1      	ldr	r1, [r4, #56]	; 0x38
    535e:	2600      	movs	r6, #0
    5360:	428b      	cmp	r3, r1
    5362:	d914      	bls.n	538e <prvNotifyQueueSetContainer+0x4e>
    5364:	0027      	movs	r7, r4
    5366:	a901      	add	r1, sp, #4
    5368:	3745      	adds	r7, #69	; 0x45
    536a:	0020      	movs	r0, r4
    536c:	4b0b      	ldr	r3, [pc, #44]	; (539c <prvNotifyQueueSetContainer+0x5c>)
    536e:	783d      	ldrb	r5, [r7, #0]
    5370:	4798      	blx	r3
    5372:	b26d      	sxtb	r5, r5
    5374:	0006      	movs	r6, r0
    5376:	1c6b      	adds	r3, r5, #1
    5378:	d10b      	bne.n	5392 <prvNotifyQueueSetContainer+0x52>
    537a:	6a63      	ldr	r3, [r4, #36]	; 0x24
    537c:	2b00      	cmp	r3, #0
    537e:	d006      	beq.n	538e <prvNotifyQueueSetContainer+0x4e>
    5380:	0020      	movs	r0, r4
    5382:	4b07      	ldr	r3, [pc, #28]	; (53a0 <prvNotifyQueueSetContainer+0x60>)
    5384:	3024      	adds	r0, #36	; 0x24
    5386:	4798      	blx	r3
    5388:	2800      	cmp	r0, #0
    538a:	d000      	beq.n	538e <prvNotifyQueueSetContainer+0x4e>
    538c:	2601      	movs	r6, #1
    538e:	0030      	movs	r0, r6
    5390:	bdfe      	pop	{r1, r2, r3, r4, r5, r6, r7, pc}
    5392:	3501      	adds	r5, #1
    5394:	b26d      	sxtb	r5, r5
    5396:	703d      	strb	r5, [r7, #0]
    5398:	e7f9      	b.n	538e <prvNotifyQueueSetContainer+0x4e>
    539a:	46c0      	nop			; (mov r8, r8)
    539c:	000052c9 	.word	0x000052c9
    53a0:	000061e9 	.word	0x000061e9

000053a4 <prvCopyDataFromQueue>:
    53a4:	0003      	movs	r3, r0
    53a6:	b510      	push	{r4, lr}
    53a8:	6c1a      	ldr	r2, [r3, #64]	; 0x40
    53aa:	0008      	movs	r0, r1
    53ac:	2a00      	cmp	r2, #0
    53ae:	d00a      	beq.n	53c6 <prvCopyDataFromQueue+0x22>
    53b0:	68d9      	ldr	r1, [r3, #12]
    53b2:	685c      	ldr	r4, [r3, #4]
    53b4:	1889      	adds	r1, r1, r2
    53b6:	60d9      	str	r1, [r3, #12]
    53b8:	42a1      	cmp	r1, r4
    53ba:	d301      	bcc.n	53c0 <prvCopyDataFromQueue+0x1c>
    53bc:	6819      	ldr	r1, [r3, #0]
    53be:	60d9      	str	r1, [r3, #12]
    53c0:	68d9      	ldr	r1, [r3, #12]
    53c2:	4b01      	ldr	r3, [pc, #4]	; (53c8 <prvCopyDataFromQueue+0x24>)
    53c4:	4798      	blx	r3
    53c6:	bd10      	pop	{r4, pc}
    53c8:	0000ae15 	.word	0x0000ae15

000053cc <prvUnlockQueue>:
    53cc:	b5f8      	push	{r3, r4, r5, r6, r7, lr}
    53ce:	0004      	movs	r4, r0
    53d0:	0026      	movs	r6, r4
    53d2:	4f1c      	ldr	r7, [pc, #112]	; (5444 <prvUnlockQueue+0x78>)
    53d4:	3645      	adds	r6, #69	; 0x45
    53d6:	47b8      	blx	r7
    53d8:	7835      	ldrb	r5, [r6, #0]
    53da:	b26d      	sxtb	r5, r5
    53dc:	2d00      	cmp	r5, #0
    53de:	dc0e      	bgt.n	53fe <prvUnlockQueue+0x32>
    53e0:	23ff      	movs	r3, #255	; 0xff
    53e2:	7033      	strb	r3, [r6, #0]
    53e4:	4e18      	ldr	r6, [pc, #96]	; (5448 <prvUnlockQueue+0x7c>)
    53e6:	47b0      	blx	r6
    53e8:	47b8      	blx	r7
    53ea:	0027      	movs	r7, r4
    53ec:	3744      	adds	r7, #68	; 0x44
    53ee:	783d      	ldrb	r5, [r7, #0]
    53f0:	b26d      	sxtb	r5, r5
    53f2:	2d00      	cmp	r5, #0
    53f4:	dc18      	bgt.n	5428 <prvUnlockQueue+0x5c>
    53f6:	23ff      	movs	r3, #255	; 0xff
    53f8:	703b      	strb	r3, [r7, #0]
    53fa:	47b0      	blx	r6
    53fc:	bdf8      	pop	{r3, r4, r5, r6, r7, pc}
    53fe:	6ca3      	ldr	r3, [r4, #72]	; 0x48
    5400:	2b00      	cmp	r3, #0
    5402:	d009      	beq.n	5418 <prvUnlockQueue+0x4c>
    5404:	2100      	movs	r1, #0
    5406:	0020      	movs	r0, r4
    5408:	4b10      	ldr	r3, [pc, #64]	; (544c <prvUnlockQueue+0x80>)
    540a:	4798      	blx	r3
    540c:	2800      	cmp	r0, #0
    540e:	d001      	beq.n	5414 <prvUnlockQueue+0x48>
    5410:	4b0f      	ldr	r3, [pc, #60]	; (5450 <prvUnlockQueue+0x84>)
    5412:	4798      	blx	r3
    5414:	3d01      	subs	r5, #1
    5416:	e7e0      	b.n	53da <prvUnlockQueue+0xe>
    5418:	6a63      	ldr	r3, [r4, #36]	; 0x24
    541a:	2b00      	cmp	r3, #0
    541c:	d0e0      	beq.n	53e0 <prvUnlockQueue+0x14>
    541e:	0020      	movs	r0, r4
    5420:	4b0c      	ldr	r3, [pc, #48]	; (5454 <prvUnlockQueue+0x88>)
    5422:	3024      	adds	r0, #36	; 0x24
    5424:	4798      	blx	r3
    5426:	e7f1      	b.n	540c <prvUnlockQueue+0x40>
    5428:	6923      	ldr	r3, [r4, #16]
    542a:	2b00      	cmp	r3, #0
    542c:	d0e3      	beq.n	53f6 <prvUnlockQueue+0x2a>
    542e:	0020      	movs	r0, r4
    5430:	4b08      	ldr	r3, [pc, #32]	; (5454 <prvUnlockQueue+0x88>)
    5432:	3010      	adds	r0, #16
    5434:	4798      	blx	r3
    5436:	2800      	cmp	r0, #0
    5438:	d001      	beq.n	543e <prvUnlockQueue+0x72>
    543a:	4b05      	ldr	r3, [pc, #20]	; (5450 <prvUnlockQueue+0x84>)
    543c:	4798      	blx	r3
    543e:	3d01      	subs	r5, #1
    5440:	e7d6      	b.n	53f0 <prvUnlockQueue+0x24>
    5442:	46c0      	nop			; (mov r8, r8)
    5444:	00003345 	.word	0x00003345
    5448:	0000335d 	.word	0x0000335d
    544c:	00005341 	.word	0x00005341
    5450:	000062ed 	.word	0x000062ed
    5454:	000061e9 	.word	0x000061e9

00005458 <xQueueGenericReset>:
    5458:	b570      	push	{r4, r5, r6, lr}
    545a:	0004      	movs	r4, r0
    545c:	000d      	movs	r5, r1
    545e:	2800      	cmp	r0, #0
    5460:	d101      	bne.n	5466 <xQueueGenericReset+0xe>
    5462:	b672      	cpsid	i
    5464:	e7fe      	b.n	5464 <xQueueGenericReset+0xc>
    5466:	4b16      	ldr	r3, [pc, #88]	; (54c0 <xQueueGenericReset+0x68>)
    5468:	4798      	blx	r3
    546a:	6c21      	ldr	r1, [r4, #64]	; 0x40
    546c:	6be3      	ldr	r3, [r4, #60]	; 0x3c
    546e:	6822      	ldr	r2, [r4, #0]
    5470:	434b      	muls	r3, r1
    5472:	18d0      	adds	r0, r2, r3
    5474:	1a5b      	subs	r3, r3, r1
    5476:	18d3      	adds	r3, r2, r3
    5478:	60e3      	str	r3, [r4, #12]
    547a:	0023      	movs	r3, r4
    547c:	6060      	str	r0, [r4, #4]
    547e:	60a2      	str	r2, [r4, #8]
    5480:	2000      	movs	r0, #0
    5482:	22ff      	movs	r2, #255	; 0xff
    5484:	3344      	adds	r3, #68	; 0x44
    5486:	63a0      	str	r0, [r4, #56]	; 0x38
    5488:	701a      	strb	r2, [r3, #0]
    548a:	705a      	strb	r2, [r3, #1]
    548c:	4285      	cmp	r5, r0
    548e:	d10e      	bne.n	54ae <xQueueGenericReset+0x56>
    5490:	6923      	ldr	r3, [r4, #16]
    5492:	4283      	cmp	r3, r0
    5494:	d007      	beq.n	54a6 <xQueueGenericReset+0x4e>
    5496:	0020      	movs	r0, r4
    5498:	4b0a      	ldr	r3, [pc, #40]	; (54c4 <xQueueGenericReset+0x6c>)
    549a:	3010      	adds	r0, #16
    549c:	4798      	blx	r3
    549e:	2800      	cmp	r0, #0
    54a0:	d001      	beq.n	54a6 <xQueueGenericReset+0x4e>
    54a2:	4b09      	ldr	r3, [pc, #36]	; (54c8 <xQueueGenericReset+0x70>)
    54a4:	4798      	blx	r3
    54a6:	4b09      	ldr	r3, [pc, #36]	; (54cc <xQueueGenericReset+0x74>)
    54a8:	4798      	blx	r3
    54aa:	2001      	movs	r0, #1
    54ac:	bd70      	pop	{r4, r5, r6, pc}
    54ae:	0020      	movs	r0, r4
    54b0:	4d07      	ldr	r5, [pc, #28]	; (54d0 <xQueueGenericReset+0x78>)
    54b2:	3010      	adds	r0, #16
    54b4:	47a8      	blx	r5
    54b6:	0020      	movs	r0, r4
    54b8:	3024      	adds	r0, #36	; 0x24
    54ba:	47a8      	blx	r5
    54bc:	e7f3      	b.n	54a6 <xQueueGenericReset+0x4e>
    54be:	46c0      	nop			; (mov r8, r8)
    54c0:	00003345 	.word	0x00003345
    54c4:	000061e9 	.word	0x000061e9
    54c8:	0000332d 	.word	0x0000332d
    54cc:	0000335d 	.word	0x0000335d
    54d0:	00005225 	.word	0x00005225

000054d4 <xQueueGenericCreate>:
    54d4:	b5f8      	push	{r3, r4, r5, r6, r7, lr}
    54d6:	0006      	movs	r6, r0
    54d8:	000d      	movs	r5, r1
    54da:	0017      	movs	r7, r2
    54dc:	2800      	cmp	r0, #0
    54de:	d101      	bne.n	54e4 <xQueueGenericCreate+0x10>
    54e0:	b672      	cpsid	i
    54e2:	e7fe      	b.n	54e2 <xQueueGenericCreate+0xe>
    54e4:	0008      	movs	r0, r1
    54e6:	4370      	muls	r0, r6
    54e8:	4b0c      	ldr	r3, [pc, #48]	; (551c <xQueueGenericCreate+0x48>)
    54ea:	3054      	adds	r0, #84	; 0x54
    54ec:	4798      	blx	r3
    54ee:	1e04      	subs	r4, r0, #0
    54f0:	d00d      	beq.n	550e <xQueueGenericCreate+0x3a>
    54f2:	2d00      	cmp	r5, #0
    54f4:	d10d      	bne.n	5512 <xQueueGenericCreate+0x3e>
    54f6:	6020      	str	r0, [r4, #0]
    54f8:	4b09      	ldr	r3, [pc, #36]	; (5520 <xQueueGenericCreate+0x4c>)
    54fa:	63e6      	str	r6, [r4, #60]	; 0x3c
    54fc:	6425      	str	r5, [r4, #64]	; 0x40
    54fe:	2101      	movs	r1, #1
    5500:	0020      	movs	r0, r4
    5502:	4798      	blx	r3
    5504:	0023      	movs	r3, r4
    5506:	3350      	adds	r3, #80	; 0x50
    5508:	701f      	strb	r7, [r3, #0]
    550a:	2300      	movs	r3, #0
    550c:	64a3      	str	r3, [r4, #72]	; 0x48
    550e:	0020      	movs	r0, r4
    5510:	bdf8      	pop	{r3, r4, r5, r6, r7, pc}
    5512:	0003      	movs	r3, r0
    5514:	3354      	adds	r3, #84	; 0x54
    5516:	6003      	str	r3, [r0, #0]
    5518:	e7ee      	b.n	54f8 <xQueueGenericCreate+0x24>
    551a:	46c0      	nop			; (mov r8, r8)
    551c:	00003451 	.word	0x00003451
    5520:	00005459 	.word	0x00005459

00005524 <xQueueGenericSend>:
    5524:	b5f0      	push	{r4, r5, r6, r7, lr}
    5526:	b089      	sub	sp, #36	; 0x24
    5528:	1e04      	subs	r4, r0, #0
    552a:	9102      	str	r1, [sp, #8]
    552c:	9205      	str	r2, [sp, #20]
    552e:	9301      	str	r3, [sp, #4]
    5530:	d101      	bne.n	5536 <xQueueGenericSend+0x12>
    5532:	b672      	cpsid	i
    5534:	e7fe      	b.n	5534 <xQueueGenericSend+0x10>
    5536:	9b02      	ldr	r3, [sp, #8]
    5538:	2b00      	cmp	r3, #0
    553a:	d000      	beq.n	553e <xQueueGenericSend+0x1a>
    553c:	e074      	b.n	5628 <xQueueGenericSend+0x104>
    553e:	6c03      	ldr	r3, [r0, #64]	; 0x40
    5540:	2b00      	cmp	r3, #0
    5542:	d100      	bne.n	5546 <xQueueGenericSend+0x22>
    5544:	e070      	b.n	5628 <xQueueGenericSend+0x104>
    5546:	b672      	cpsid	i
    5548:	e7fe      	b.n	5548 <xQueueGenericSend+0x24>
    554a:	6a63      	ldr	r3, [r4, #36]	; 0x24
    554c:	2b00      	cmp	r3, #0
    554e:	d05b      	beq.n	5608 <xQueueGenericSend+0xe4>
    5550:	0020      	movs	r0, r4
    5552:	4b3e      	ldr	r3, [pc, #248]	; (564c <xQueueGenericSend+0x128>)
    5554:	3024      	adds	r0, #36	; 0x24
    5556:	4798      	blx	r3
    5558:	e056      	b.n	5608 <xQueueGenericSend+0xe4>
    555a:	9d05      	ldr	r5, [sp, #20]
    555c:	2d00      	cmp	r5, #0
    555e:	d102      	bne.n	5566 <xQueueGenericSend+0x42>
    5560:	47b8      	blx	r7
    5562:	2000      	movs	r0, #0
    5564:	e056      	b.n	5614 <xQueueGenericSend+0xf0>
    5566:	2e00      	cmp	r6, #0
    5568:	d102      	bne.n	5570 <xQueueGenericSend+0x4c>
    556a:	a806      	add	r0, sp, #24
    556c:	4b38      	ldr	r3, [pc, #224]	; (5650 <xQueueGenericSend+0x12c>)
    556e:	4798      	blx	r3
    5570:	47b8      	blx	r7
    5572:	4b38      	ldr	r3, [pc, #224]	; (5654 <xQueueGenericSend+0x130>)
    5574:	4798      	blx	r3
    5576:	4b38      	ldr	r3, [pc, #224]	; (5658 <xQueueGenericSend+0x134>)
    5578:	4798      	blx	r3
    557a:	0022      	movs	r2, r4
    557c:	3244      	adds	r2, #68	; 0x44
    557e:	7813      	ldrb	r3, [r2, #0]
    5580:	b25b      	sxtb	r3, r3
    5582:	3301      	adds	r3, #1
    5584:	d101      	bne.n	558a <xQueueGenericSend+0x66>
    5586:	2300      	movs	r3, #0
    5588:	7013      	strb	r3, [r2, #0]
    558a:	0022      	movs	r2, r4
    558c:	3245      	adds	r2, #69	; 0x45
    558e:	7813      	ldrb	r3, [r2, #0]
    5590:	b25b      	sxtb	r3, r3
    5592:	3301      	adds	r3, #1
    5594:	d101      	bne.n	559a <xQueueGenericSend+0x76>
    5596:	2300      	movs	r3, #0
    5598:	7013      	strb	r3, [r2, #0]
    559a:	47b8      	blx	r7
    559c:	a905      	add	r1, sp, #20
    559e:	a806      	add	r0, sp, #24
    55a0:	4b2e      	ldr	r3, [pc, #184]	; (565c <xQueueGenericSend+0x138>)
    55a2:	4798      	blx	r3
    55a4:	4e2e      	ldr	r6, [pc, #184]	; (5660 <xQueueGenericSend+0x13c>)
    55a6:	4d2f      	ldr	r5, [pc, #188]	; (5664 <xQueueGenericSend+0x140>)
    55a8:	2800      	cmp	r0, #0
    55aa:	d139      	bne.n	5620 <xQueueGenericSend+0xfc>
    55ac:	4b2a      	ldr	r3, [pc, #168]	; (5658 <xQueueGenericSend+0x134>)
    55ae:	4798      	blx	r3
    55b0:	6ba3      	ldr	r3, [r4, #56]	; 0x38
    55b2:	9303      	str	r3, [sp, #12]
    55b4:	6be3      	ldr	r3, [r4, #60]	; 0x3c
    55b6:	9304      	str	r3, [sp, #16]
    55b8:	47b8      	blx	r7
    55ba:	9b03      	ldr	r3, [sp, #12]
    55bc:	9a04      	ldr	r2, [sp, #16]
    55be:	4293      	cmp	r3, r2
    55c0:	d12a      	bne.n	5618 <xQueueGenericSend+0xf4>
    55c2:	0020      	movs	r0, r4
    55c4:	9905      	ldr	r1, [sp, #20]
    55c6:	3010      	adds	r0, #16
    55c8:	4b27      	ldr	r3, [pc, #156]	; (5668 <xQueueGenericSend+0x144>)
    55ca:	4798      	blx	r3
    55cc:	0020      	movs	r0, r4
    55ce:	47b0      	blx	r6
    55d0:	47a8      	blx	r5
    55d2:	2800      	cmp	r0, #0
    55d4:	d101      	bne.n	55da <xQueueGenericSend+0xb6>
    55d6:	4b25      	ldr	r3, [pc, #148]	; (566c <xQueueGenericSend+0x148>)
    55d8:	4798      	blx	r3
    55da:	2601      	movs	r6, #1
    55dc:	4b1e      	ldr	r3, [pc, #120]	; (5658 <xQueueGenericSend+0x134>)
    55de:	4798      	blx	r3
    55e0:	6ba3      	ldr	r3, [r4, #56]	; 0x38
    55e2:	6be2      	ldr	r2, [r4, #60]	; 0x3c
    55e4:	4f22      	ldr	r7, [pc, #136]	; (5670 <xQueueGenericSend+0x14c>)
    55e6:	4293      	cmp	r3, r2
    55e8:	d302      	bcc.n	55f0 <xQueueGenericSend+0xcc>
    55ea:	9b01      	ldr	r3, [sp, #4]
    55ec:	2b02      	cmp	r3, #2
    55ee:	d1b4      	bne.n	555a <xQueueGenericSend+0x36>
    55f0:	4b20      	ldr	r3, [pc, #128]	; (5674 <xQueueGenericSend+0x150>)
    55f2:	9a01      	ldr	r2, [sp, #4]
    55f4:	9902      	ldr	r1, [sp, #8]
    55f6:	0020      	movs	r0, r4
    55f8:	4798      	blx	r3
    55fa:	6ca3      	ldr	r3, [r4, #72]	; 0x48
    55fc:	2b00      	cmp	r3, #0
    55fe:	d0a4      	beq.n	554a <xQueueGenericSend+0x26>
    5600:	9901      	ldr	r1, [sp, #4]
    5602:	0020      	movs	r0, r4
    5604:	4b1c      	ldr	r3, [pc, #112]	; (5678 <xQueueGenericSend+0x154>)
    5606:	4798      	blx	r3
    5608:	2800      	cmp	r0, #0
    560a:	d001      	beq.n	5610 <xQueueGenericSend+0xec>
    560c:	4b17      	ldr	r3, [pc, #92]	; (566c <xQueueGenericSend+0x148>)
    560e:	4798      	blx	r3
    5610:	47b8      	blx	r7
    5612:	2001      	movs	r0, #1
    5614:	b009      	add	sp, #36	; 0x24
    5616:	bdf0      	pop	{r4, r5, r6, r7, pc}
    5618:	0020      	movs	r0, r4
    561a:	47b0      	blx	r6
    561c:	47a8      	blx	r5
    561e:	e7dc      	b.n	55da <xQueueGenericSend+0xb6>
    5620:	0020      	movs	r0, r4
    5622:	47b0      	blx	r6
    5624:	47a8      	blx	r5
    5626:	e79c      	b.n	5562 <xQueueGenericSend+0x3e>
    5628:	9b01      	ldr	r3, [sp, #4]
    562a:	2b02      	cmp	r3, #2
    562c:	d102      	bne.n	5634 <xQueueGenericSend+0x110>
    562e:	6be3      	ldr	r3, [r4, #60]	; 0x3c
    5630:	2b01      	cmp	r3, #1
    5632:	d109      	bne.n	5648 <xQueueGenericSend+0x124>
    5634:	4b11      	ldr	r3, [pc, #68]	; (567c <xQueueGenericSend+0x158>)
    5636:	4798      	blx	r3
    5638:	2600      	movs	r6, #0
    563a:	2800      	cmp	r0, #0
    563c:	d1ce      	bne.n	55dc <xQueueGenericSend+0xb8>
    563e:	9e05      	ldr	r6, [sp, #20]
    5640:	2e00      	cmp	r6, #0
    5642:	d0cb      	beq.n	55dc <xQueueGenericSend+0xb8>
    5644:	b672      	cpsid	i
    5646:	e7fe      	b.n	5646 <xQueueGenericSend+0x122>
    5648:	b672      	cpsid	i
    564a:	e7fe      	b.n	564a <xQueueGenericSend+0x126>
    564c:	000061e9 	.word	0x000061e9
    5650:	00006265 	.word	0x00006265
    5654:	00005d51 	.word	0x00005d51
    5658:	00003345 	.word	0x00003345
    565c:	0000627d 	.word	0x0000627d
    5660:	000053cd 	.word	0x000053cd
    5664:	00005e89 	.word	0x00005e89
    5668:	00006185 	.word	0x00006185
    566c:	0000332d 	.word	0x0000332d
    5670:	0000335d 	.word	0x0000335d
    5674:	000052c9 	.word	0x000052c9
    5678:	00005341 	.word	0x00005341
    567c:	000062f9 	.word	0x000062f9

00005680 <xQueueGenericSendFromISR>:
    5680:	b5f0      	push	{r4, r5, r6, r7, lr}
    5682:	b085      	sub	sp, #20
    5684:	0004      	movs	r4, r0
    5686:	9101      	str	r1, [sp, #4]
    5688:	0017      	movs	r7, r2
    568a:	001e      	movs	r6, r3
    568c:	2800      	cmp	r0, #0
    568e:	d101      	bne.n	5694 <xQueueGenericSendFromISR+0x14>
    5690:	b672      	cpsid	i
    5692:	e7fe      	b.n	5692 <xQueueGenericSendFromISR+0x12>
    5694:	9b01      	ldr	r3, [sp, #4]
    5696:	2b00      	cmp	r3, #0
    5698:	d11b      	bne.n	56d2 <xQueueGenericSendFromISR+0x52>
    569a:	6c03      	ldr	r3, [r0, #64]	; 0x40
    569c:	2b00      	cmp	r3, #0
    569e:	d018      	beq.n	56d2 <xQueueGenericSendFromISR+0x52>
    56a0:	b672      	cpsid	i
    56a2:	e7fe      	b.n	56a2 <xQueueGenericSendFromISR+0x22>
    56a4:	2f00      	cmp	r7, #0
    56a6:	d038      	beq.n	571a <xQueueGenericSendFromISR+0x9a>
    56a8:	2501      	movs	r5, #1
    56aa:	603d      	str	r5, [r7, #0]
    56ac:	9803      	ldr	r0, [sp, #12]
    56ae:	4b1d      	ldr	r3, [pc, #116]	; (5724 <xQueueGenericSendFromISR+0xa4>)
    56b0:	4798      	blx	r3
    56b2:	0028      	movs	r0, r5
    56b4:	b005      	add	sp, #20
    56b6:	bdf0      	pop	{r4, r5, r6, r7, pc}
    56b8:	6a63      	ldr	r3, [r4, #36]	; 0x24
    56ba:	2b00      	cmp	r3, #0
    56bc:	d02d      	beq.n	571a <xQueueGenericSendFromISR+0x9a>
    56be:	0020      	movs	r0, r4
    56c0:	4b19      	ldr	r3, [pc, #100]	; (5728 <xQueueGenericSendFromISR+0xa8>)
    56c2:	3024      	adds	r0, #36	; 0x24
    56c4:	4798      	blx	r3
    56c6:	e026      	b.n	5716 <xQueueGenericSendFromISR+0x96>
    56c8:	3501      	adds	r5, #1
    56ca:	9b02      	ldr	r3, [sp, #8]
    56cc:	b26d      	sxtb	r5, r5
    56ce:	701d      	strb	r5, [r3, #0]
    56d0:	e023      	b.n	571a <xQueueGenericSendFromISR+0x9a>
    56d2:	2e02      	cmp	r6, #2
    56d4:	d102      	bne.n	56dc <xQueueGenericSendFromISR+0x5c>
    56d6:	6be3      	ldr	r3, [r4, #60]	; 0x3c
    56d8:	2b01      	cmp	r3, #1
    56da:	d120      	bne.n	571e <xQueueGenericSendFromISR+0x9e>
    56dc:	4b13      	ldr	r3, [pc, #76]	; (572c <xQueueGenericSendFromISR+0xac>)
    56de:	4798      	blx	r3
    56e0:	6ba3      	ldr	r3, [r4, #56]	; 0x38
    56e2:	6be2      	ldr	r2, [r4, #60]	; 0x3c
    56e4:	9003      	str	r0, [sp, #12]
    56e6:	4293      	cmp	r3, r2
    56e8:	d302      	bcc.n	56f0 <xQueueGenericSendFromISR+0x70>
    56ea:	2500      	movs	r5, #0
    56ec:	2e02      	cmp	r6, #2
    56ee:	d1dd      	bne.n	56ac <xQueueGenericSendFromISR+0x2c>
    56f0:	0023      	movs	r3, r4
    56f2:	3345      	adds	r3, #69	; 0x45
    56f4:	9302      	str	r3, [sp, #8]
    56f6:	781d      	ldrb	r5, [r3, #0]
    56f8:	0032      	movs	r2, r6
    56fa:	b26d      	sxtb	r5, r5
    56fc:	4b0c      	ldr	r3, [pc, #48]	; (5730 <xQueueGenericSendFromISR+0xb0>)
    56fe:	9901      	ldr	r1, [sp, #4]
    5700:	0020      	movs	r0, r4
    5702:	4798      	blx	r3
    5704:	1c6b      	adds	r3, r5, #1
    5706:	d1df      	bne.n	56c8 <xQueueGenericSendFromISR+0x48>
    5708:	6ca3      	ldr	r3, [r4, #72]	; 0x48
    570a:	2b00      	cmp	r3, #0
    570c:	d0d4      	beq.n	56b8 <xQueueGenericSendFromISR+0x38>
    570e:	0031      	movs	r1, r6
    5710:	0020      	movs	r0, r4
    5712:	4b08      	ldr	r3, [pc, #32]	; (5734 <xQueueGenericSendFromISR+0xb4>)
    5714:	4798      	blx	r3
    5716:	2800      	cmp	r0, #0
    5718:	d1c4      	bne.n	56a4 <xQueueGenericSendFromISR+0x24>
    571a:	2501      	movs	r5, #1
    571c:	e7c6      	b.n	56ac <xQueueGenericSendFromISR+0x2c>
    571e:	b672      	cpsid	i
    5720:	e7fe      	b.n	5720 <xQueueGenericSendFromISR+0xa0>
    5722:	46c0      	nop			; (mov r8, r8)
    5724:	00003381 	.word	0x00003381
    5728:	000061e9 	.word	0x000061e9
    572c:	00003379 	.word	0x00003379
    5730:	000052c9 	.word	0x000052c9
    5734:	00005341 	.word	0x00005341

00005738 <xQueueReceive>:
    5738:	b5f0      	push	{r4, r5, r6, r7, lr}
    573a:	b085      	sub	sp, #20
    573c:	1e04      	subs	r4, r0, #0
    573e:	9100      	str	r1, [sp, #0]
    5740:	9201      	str	r2, [sp, #4]
    5742:	d101      	bne.n	5748 <xQueueReceive+0x10>
    5744:	b672      	cpsid	i
    5746:	e7fe      	b.n	5746 <xQueueReceive+0xe>
    5748:	9b00      	ldr	r3, [sp, #0]
    574a:	2b00      	cmp	r3, #0
    574c:	d166      	bne.n	581c <xQueueReceive+0xe4>
    574e:	6c03      	ldr	r3, [r0, #64]	; 0x40
    5750:	2b00      	cmp	r3, #0
    5752:	d063      	beq.n	581c <xQueueReceive+0xe4>
    5754:	b672      	cpsid	i
    5756:	e7fe      	b.n	5756 <xQueueReceive+0x1e>
    5758:	9d01      	ldr	r5, [sp, #4]
    575a:	2d00      	cmp	r5, #0
    575c:	d102      	bne.n	5764 <xQueueReceive+0x2c>
    575e:	47b8      	blx	r7
    5760:	2000      	movs	r0, #0
    5762:	e04d      	b.n	5800 <xQueueReceive+0xc8>
    5764:	2e00      	cmp	r6, #0
    5766:	d102      	bne.n	576e <xQueueReceive+0x36>
    5768:	a802      	add	r0, sp, #8
    576a:	4b31      	ldr	r3, [pc, #196]	; (5830 <xQueueReceive+0xf8>)
    576c:	4798      	blx	r3
    576e:	47b8      	blx	r7
    5770:	4b30      	ldr	r3, [pc, #192]	; (5834 <xQueueReceive+0xfc>)
    5772:	4798      	blx	r3
    5774:	4b30      	ldr	r3, [pc, #192]	; (5838 <xQueueReceive+0x100>)
    5776:	4798      	blx	r3
    5778:	0022      	movs	r2, r4
    577a:	3244      	adds	r2, #68	; 0x44
    577c:	7813      	ldrb	r3, [r2, #0]
    577e:	b25b      	sxtb	r3, r3
    5780:	3301      	adds	r3, #1
    5782:	d101      	bne.n	5788 <xQueueReceive+0x50>
    5784:	2300      	movs	r3, #0
    5786:	7013      	strb	r3, [r2, #0]
    5788:	0022      	movs	r2, r4
    578a:	3245      	adds	r2, #69	; 0x45
    578c:	7813      	ldrb	r3, [r2, #0]
    578e:	b25b      	sxtb	r3, r3
    5790:	3301      	adds	r3, #1
    5792:	d101      	bne.n	5798 <xQueueReceive+0x60>
    5794:	2300      	movs	r3, #0
    5796:	7013      	strb	r3, [r2, #0]
    5798:	47b8      	blx	r7
    579a:	a901      	add	r1, sp, #4
    579c:	a802      	add	r0, sp, #8
    579e:	4b27      	ldr	r3, [pc, #156]	; (583c <xQueueReceive+0x104>)
    57a0:	4798      	blx	r3
    57a2:	4f27      	ldr	r7, [pc, #156]	; (5840 <xQueueReceive+0x108>)
    57a4:	4d27      	ldr	r5, [pc, #156]	; (5844 <xQueueReceive+0x10c>)
    57a6:	4e28      	ldr	r6, [pc, #160]	; (5848 <xQueueReceive+0x110>)
    57a8:	2800      	cmp	r0, #0
    57aa:	d12f      	bne.n	580c <xQueueReceive+0xd4>
    57ac:	0020      	movs	r0, r4
    57ae:	47b8      	blx	r7
    57b0:	2800      	cmp	r0, #0
    57b2:	d027      	beq.n	5804 <xQueueReceive+0xcc>
    57b4:	0020      	movs	r0, r4
    57b6:	9901      	ldr	r1, [sp, #4]
    57b8:	3024      	adds	r0, #36	; 0x24
    57ba:	4b24      	ldr	r3, [pc, #144]	; (584c <xQueueReceive+0x114>)
    57bc:	4798      	blx	r3
    57be:	0020      	movs	r0, r4
    57c0:	47a8      	blx	r5
    57c2:	47b0      	blx	r6
    57c4:	2800      	cmp	r0, #0
    57c6:	d101      	bne.n	57cc <xQueueReceive+0x94>
    57c8:	4b21      	ldr	r3, [pc, #132]	; (5850 <xQueueReceive+0x118>)
    57ca:	4798      	blx	r3
    57cc:	2601      	movs	r6, #1
    57ce:	4b1a      	ldr	r3, [pc, #104]	; (5838 <xQueueReceive+0x100>)
    57d0:	4798      	blx	r3
    57d2:	6ba5      	ldr	r5, [r4, #56]	; 0x38
    57d4:	4f1f      	ldr	r7, [pc, #124]	; (5854 <xQueueReceive+0x11c>)
    57d6:	2d00      	cmp	r5, #0
    57d8:	d0be      	beq.n	5758 <xQueueReceive+0x20>
    57da:	4b1f      	ldr	r3, [pc, #124]	; (5858 <xQueueReceive+0x120>)
    57dc:	9900      	ldr	r1, [sp, #0]
    57de:	0020      	movs	r0, r4
    57e0:	3d01      	subs	r5, #1
    57e2:	4798      	blx	r3
    57e4:	63a5      	str	r5, [r4, #56]	; 0x38
    57e6:	6923      	ldr	r3, [r4, #16]
    57e8:	2b00      	cmp	r3, #0
    57ea:	d007      	beq.n	57fc <xQueueReceive+0xc4>
    57ec:	0020      	movs	r0, r4
    57ee:	4b1b      	ldr	r3, [pc, #108]	; (585c <xQueueReceive+0x124>)
    57f0:	3010      	adds	r0, #16
    57f2:	4798      	blx	r3
    57f4:	2800      	cmp	r0, #0
    57f6:	d001      	beq.n	57fc <xQueueReceive+0xc4>
    57f8:	4b15      	ldr	r3, [pc, #84]	; (5850 <xQueueReceive+0x118>)
    57fa:	4798      	blx	r3
    57fc:	47b8      	blx	r7
    57fe:	2001      	movs	r0, #1
    5800:	b005      	add	sp, #20
    5802:	bdf0      	pop	{r4, r5, r6, r7, pc}
    5804:	0020      	movs	r0, r4
    5806:	47a8      	blx	r5
    5808:	47b0      	blx	r6
    580a:	e7df      	b.n	57cc <xQueueReceive+0x94>
    580c:	0020      	movs	r0, r4
    580e:	47a8      	blx	r5
    5810:	47b0      	blx	r6
    5812:	0020      	movs	r0, r4
    5814:	47b8      	blx	r7
    5816:	2800      	cmp	r0, #0
    5818:	d0d8      	beq.n	57cc <xQueueReceive+0x94>
    581a:	e7a1      	b.n	5760 <xQueueReceive+0x28>
    581c:	4b10      	ldr	r3, [pc, #64]	; (5860 <xQueueReceive+0x128>)
    581e:	4798      	blx	r3
    5820:	2600      	movs	r6, #0
    5822:	2800      	cmp	r0, #0
    5824:	d1d3      	bne.n	57ce <xQueueReceive+0x96>
    5826:	9e01      	ldr	r6, [sp, #4]
    5828:	2e00      	cmp	r6, #0
    582a:	d0d0      	beq.n	57ce <xQueueReceive+0x96>
    582c:	b672      	cpsid	i
    582e:	e7fe      	b.n	582e <xQueueReceive+0xf6>
    5830:	00006265 	.word	0x00006265
    5834:	00005d51 	.word	0x00005d51
    5838:	00003345 	.word	0x00003345
    583c:	0000627d 	.word	0x0000627d
    5840:	000052ad 	.word	0x000052ad
    5844:	000053cd 	.word	0x000053cd
    5848:	00005e89 	.word	0x00005e89
    584c:	00006185 	.word	0x00006185
    5850:	0000332d 	.word	0x0000332d
    5854:	0000335d 	.word	0x0000335d
    5858:	000053a5 	.word	0x000053a5
    585c:	000061e9 	.word	0x000061e9
    5860:	000062f9 	.word	0x000062f9

00005864 <vQueueAddToRegistry>:
    5864:	2300      	movs	r3, #0
    5866:	b570      	push	{r4, r5, r6, lr}
    5868:	4a06      	ldr	r2, [pc, #24]	; (5884 <vQueueAddToRegistry+0x20>)
    586a:	00dd      	lsls	r5, r3, #3
    586c:	18ac      	adds	r4, r5, r2
    586e:	6826      	ldr	r6, [r4, #0]
    5870:	2e00      	cmp	r6, #0
    5872:	d102      	bne.n	587a <vQueueAddToRegistry+0x16>
    5874:	50a9      	str	r1, [r5, r2]
    5876:	6060      	str	r0, [r4, #4]
    5878:	bd70      	pop	{r4, r5, r6, pc}
    587a:	3301      	adds	r3, #1
    587c:	2b08      	cmp	r3, #8
    587e:	d1f4      	bne.n	586a <vQueueAddToRegistry+0x6>
    5880:	e7fa      	b.n	5878 <vQueueAddToRegistry+0x14>
    5882:	46c0      	nop			; (mov r8, r8)
    5884:	20003f38 	.word	0x20003f38

00005888 <vQueueWaitForMessageRestricted>:
    5888:	b570      	push	{r4, r5, r6, lr}
    588a:	0004      	movs	r4, r0
    588c:	4b11      	ldr	r3, [pc, #68]	; (58d4 <vQueueWaitForMessageRestricted+0x4c>)
    588e:	0016      	movs	r6, r2
    5890:	000d      	movs	r5, r1
    5892:	4798      	blx	r3
    5894:	0022      	movs	r2, r4
    5896:	3244      	adds	r2, #68	; 0x44
    5898:	7813      	ldrb	r3, [r2, #0]
    589a:	b25b      	sxtb	r3, r3
    589c:	3301      	adds	r3, #1
    589e:	d101      	bne.n	58a4 <vQueueWaitForMessageRestricted+0x1c>
    58a0:	2300      	movs	r3, #0
    58a2:	7013      	strb	r3, [r2, #0]
    58a4:	0022      	movs	r2, r4
    58a6:	3245      	adds	r2, #69	; 0x45
    58a8:	7813      	ldrb	r3, [r2, #0]
    58aa:	b25b      	sxtb	r3, r3
    58ac:	3301      	adds	r3, #1
    58ae:	d101      	bne.n	58b4 <vQueueWaitForMessageRestricted+0x2c>
    58b0:	2300      	movs	r3, #0
    58b2:	7013      	strb	r3, [r2, #0]
    58b4:	4b08      	ldr	r3, [pc, #32]	; (58d8 <vQueueWaitForMessageRestricted+0x50>)
    58b6:	4798      	blx	r3
    58b8:	6ba3      	ldr	r3, [r4, #56]	; 0x38
    58ba:	2b00      	cmp	r3, #0
    58bc:	d105      	bne.n	58ca <vQueueWaitForMessageRestricted+0x42>
    58be:	0020      	movs	r0, r4
    58c0:	0032      	movs	r2, r6
    58c2:	0029      	movs	r1, r5
    58c4:	3024      	adds	r0, #36	; 0x24
    58c6:	4b05      	ldr	r3, [pc, #20]	; (58dc <vQueueWaitForMessageRestricted+0x54>)
    58c8:	4798      	blx	r3
    58ca:	0020      	movs	r0, r4
    58cc:	4b04      	ldr	r3, [pc, #16]	; (58e0 <vQueueWaitForMessageRestricted+0x58>)
    58ce:	4798      	blx	r3
    58d0:	bd70      	pop	{r4, r5, r6, pc}
    58d2:	46c0      	nop			; (mov r8, r8)
    58d4:	00003345 	.word	0x00003345
    58d8:	0000335d 	.word	0x0000335d
    58dc:	000061b1 	.word	0x000061b1
    58e0:	000053cd 	.word	0x000053cd

000058e4 <prvTaskIsTaskSuspended>:
    58e4:	2800      	cmp	r0, #0
    58e6:	d101      	bne.n	58ec <prvTaskIsTaskSuspended+0x8>
    58e8:	b672      	cpsid	i
    58ea:	e7fe      	b.n	58ea <prvTaskIsTaskSuspended+0x6>
    58ec:	4b06      	ldr	r3, [pc, #24]	; (5908 <prvTaskIsTaskSuspended+0x24>)
    58ee:	6942      	ldr	r2, [r0, #20]
    58f0:	429a      	cmp	r2, r3
    58f2:	d001      	beq.n	58f8 <prvTaskIsTaskSuspended+0x14>
    58f4:	2200      	movs	r2, #0
    58f6:	e005      	b.n	5904 <prvTaskIsTaskSuspended+0x20>
    58f8:	6a80      	ldr	r0, [r0, #40]	; 0x28
    58fa:	4b04      	ldr	r3, [pc, #16]	; (590c <prvTaskIsTaskSuspended+0x28>)
    58fc:	4298      	cmp	r0, r3
    58fe:	d0f9      	beq.n	58f4 <prvTaskIsTaskSuspended+0x10>
    5900:	4242      	negs	r2, r0
    5902:	4142      	adcs	r2, r0
    5904:	0010      	movs	r0, r2
    5906:	4770      	bx	lr
    5908:	20003ab0 	.word	0x20003ab0
    590c:	20003a98 	.word	0x20003a98

00005910 <prvResetNextTaskUnblockTime>:
    5910:	4a07      	ldr	r2, [pc, #28]	; (5930 <prvResetNextTaskUnblockTime+0x20>)
    5912:	6813      	ldr	r3, [r2, #0]
    5914:	6819      	ldr	r1, [r3, #0]
    5916:	4b07      	ldr	r3, [pc, #28]	; (5934 <prvResetNextTaskUnblockTime+0x24>)
    5918:	2900      	cmp	r1, #0
    591a:	d103      	bne.n	5924 <prvResetNextTaskUnblockTime+0x14>
    591c:	2201      	movs	r2, #1
    591e:	4252      	negs	r2, r2
    5920:	601a      	str	r2, [r3, #0]
    5922:	4770      	bx	lr
    5924:	6812      	ldr	r2, [r2, #0]
    5926:	68d2      	ldr	r2, [r2, #12]
    5928:	68d2      	ldr	r2, [r2, #12]
    592a:	6852      	ldr	r2, [r2, #4]
    592c:	e7f8      	b.n	5920 <prvResetNextTaskUnblockTime+0x10>
    592e:	46c0      	nop			; (mov r8, r8)
    5930:	200039e0 	.word	0x200039e0
    5934:	20003a90 	.word	0x20003a90

00005938 <prvAddCurrentTaskToDelayedList>:
    5938:	b5f8      	push	{r3, r4, r5, r6, r7, lr}
    593a:	0004      	movs	r4, r0
    593c:	4b13      	ldr	r3, [pc, #76]	; (598c <prvAddCurrentTaskToDelayedList+0x54>)
    593e:	4d14      	ldr	r5, [pc, #80]	; (5990 <prvAddCurrentTaskToDelayedList+0x58>)
    5940:	681e      	ldr	r6, [r3, #0]
    5942:	6828      	ldr	r0, [r5, #0]
    5944:	4b13      	ldr	r3, [pc, #76]	; (5994 <prvAddCurrentTaskToDelayedList+0x5c>)
    5946:	3004      	adds	r0, #4
    5948:	000f      	movs	r7, r1
    594a:	4798      	blx	r3
    594c:	1c63      	adds	r3, r4, #1
    594e:	d107      	bne.n	5960 <prvAddCurrentTaskToDelayedList+0x28>
    5950:	2f00      	cmp	r7, #0
    5952:	d005      	beq.n	5960 <prvAddCurrentTaskToDelayedList+0x28>
    5954:	6829      	ldr	r1, [r5, #0]
    5956:	4810      	ldr	r0, [pc, #64]	; (5998 <prvAddCurrentTaskToDelayedList+0x60>)
    5958:	4b10      	ldr	r3, [pc, #64]	; (599c <prvAddCurrentTaskToDelayedList+0x64>)
    595a:	3104      	adds	r1, #4
    595c:	4798      	blx	r3
    595e:	bdf8      	pop	{r3, r4, r5, r6, r7, pc}
    5960:	682b      	ldr	r3, [r5, #0]
    5962:	1934      	adds	r4, r6, r4
    5964:	605c      	str	r4, [r3, #4]
    5966:	4b0e      	ldr	r3, [pc, #56]	; (59a0 <prvAddCurrentTaskToDelayedList+0x68>)
    5968:	42a6      	cmp	r6, r4
    596a:	d904      	bls.n	5976 <prvAddCurrentTaskToDelayedList+0x3e>
    596c:	4a0d      	ldr	r2, [pc, #52]	; (59a4 <prvAddCurrentTaskToDelayedList+0x6c>)
    596e:	6810      	ldr	r0, [r2, #0]
    5970:	6829      	ldr	r1, [r5, #0]
    5972:	3104      	adds	r1, #4
    5974:	e7f2      	b.n	595c <prvAddCurrentTaskToDelayedList+0x24>
    5976:	4a0c      	ldr	r2, [pc, #48]	; (59a8 <prvAddCurrentTaskToDelayedList+0x70>)
    5978:	6810      	ldr	r0, [r2, #0]
    597a:	6829      	ldr	r1, [r5, #0]
    597c:	3104      	adds	r1, #4
    597e:	4798      	blx	r3
    5980:	4b0a      	ldr	r3, [pc, #40]	; (59ac <prvAddCurrentTaskToDelayedList+0x74>)
    5982:	681a      	ldr	r2, [r3, #0]
    5984:	4294      	cmp	r4, r2
    5986:	d2ea      	bcs.n	595e <prvAddCurrentTaskToDelayedList+0x26>
    5988:	601c      	str	r4, [r3, #0]
    598a:	e7e8      	b.n	595e <prvAddCurrentTaskToDelayedList+0x26>
    598c:	20003ad8 	.word	0x20003ad8
    5990:	200039dc 	.word	0x200039dc
    5994:	00005287 	.word	0x00005287
    5998:	20003ab0 	.word	0x20003ab0
    599c:	00005241 	.word	0x00005241
    59a0:	00005259 	.word	0x00005259
    59a4:	200039e4 	.word	0x200039e4
    59a8:	200039e0 	.word	0x200039e0
    59ac:	20003a90 	.word	0x20003a90

000059b0 <prvIdleTask>:
    59b0:	b570      	push	{r4, r5, r6, lr}
    59b2:	4c12      	ldr	r4, [pc, #72]	; (59fc <prvIdleTask+0x4c>)
    59b4:	6823      	ldr	r3, [r4, #0]
    59b6:	2b00      	cmp	r3, #0
    59b8:	d108      	bne.n	59cc <prvIdleTask+0x1c>
    59ba:	4b11      	ldr	r3, [pc, #68]	; (5a00 <prvIdleTask+0x50>)
    59bc:	681b      	ldr	r3, [r3, #0]
    59be:	2b01      	cmp	r3, #1
    59c0:	d901      	bls.n	59c6 <prvIdleTask+0x16>
    59c2:	4b10      	ldr	r3, [pc, #64]	; (5a04 <prvIdleTask+0x54>)
    59c4:	4798      	blx	r3
    59c6:	4b10      	ldr	r3, [pc, #64]	; (5a08 <prvIdleTask+0x58>)
    59c8:	4798      	blx	r3
    59ca:	e7f2      	b.n	59b2 <prvIdleTask+0x2>
    59cc:	4b0f      	ldr	r3, [pc, #60]	; (5a0c <prvIdleTask+0x5c>)
    59ce:	4798      	blx	r3
    59d0:	4b0f      	ldr	r3, [pc, #60]	; (5a10 <prvIdleTask+0x60>)
    59d2:	68db      	ldr	r3, [r3, #12]
    59d4:	68dd      	ldr	r5, [r3, #12]
    59d6:	4b0f      	ldr	r3, [pc, #60]	; (5a14 <prvIdleTask+0x64>)
    59d8:	1d28      	adds	r0, r5, #4
    59da:	4798      	blx	r3
    59dc:	4a0e      	ldr	r2, [pc, #56]	; (5a18 <prvIdleTask+0x68>)
    59de:	6813      	ldr	r3, [r2, #0]
    59e0:	3b01      	subs	r3, #1
    59e2:	6013      	str	r3, [r2, #0]
    59e4:	6823      	ldr	r3, [r4, #0]
    59e6:	3b01      	subs	r3, #1
    59e8:	6023      	str	r3, [r4, #0]
    59ea:	4b0c      	ldr	r3, [pc, #48]	; (5a1c <prvIdleTask+0x6c>)
    59ec:	4798      	blx	r3
    59ee:	6b28      	ldr	r0, [r5, #48]	; 0x30
    59f0:	4c0b      	ldr	r4, [pc, #44]	; (5a20 <prvIdleTask+0x70>)
    59f2:	47a0      	blx	r4
    59f4:	0028      	movs	r0, r5
    59f6:	47a0      	blx	r4
    59f8:	e7db      	b.n	59b2 <prvIdleTask+0x2>
    59fa:	46c0      	nop			; (mov r8, r8)
    59fc:	20003a50 	.word	0x20003a50
    5a00:	200039e8 	.word	0x200039e8
    5a04:	0000332d 	.word	0x0000332d
    5a08:	00007c85 	.word	0x00007c85
    5a0c:	00003345 	.word	0x00003345
    5a10:	20003ac4 	.word	0x20003ac4
    5a14:	00005287 	.word	0x00005287
    5a18:	20003a4c 	.word	0x20003a4c
    5a1c:	0000335d 	.word	0x0000335d
    5a20:	00003569 	.word	0x00003569

00005a24 <xTaskCreate>:
    5a24:	b5f0      	push	{r4, r5, r6, r7, lr}
    5a26:	0095      	lsls	r5, r2, #2
    5a28:	b085      	sub	sp, #20
    5a2a:	9001      	str	r0, [sp, #4]
    5a2c:	4c55      	ldr	r4, [pc, #340]	; (5b84 <xTaskCreate+0x160>)
    5a2e:	0028      	movs	r0, r5
    5a30:	000f      	movs	r7, r1
    5a32:	9302      	str	r3, [sp, #8]
    5a34:	47a0      	blx	r4
    5a36:	1e06      	subs	r6, r0, #0
    5a38:	d100      	bne.n	5a3c <xTaskCreate+0x18>
    5a3a:	e094      	b.n	5b66 <xTaskCreate+0x142>
    5a3c:	2058      	movs	r0, #88	; 0x58
    5a3e:	47a0      	blx	r4
    5a40:	1e04      	subs	r4, r0, #0
    5a42:	d100      	bne.n	5a46 <xTaskCreate+0x22>
    5a44:	e08c      	b.n	5b60 <xTaskCreate+0x13c>
    5a46:	6306      	str	r6, [r0, #48]	; 0x30
    5a48:	002a      	movs	r2, r5
    5a4a:	4b4f      	ldr	r3, [pc, #316]	; (5b88 <xTaskCreate+0x164>)
    5a4c:	21a5      	movs	r1, #165	; 0xa5
    5a4e:	0030      	movs	r0, r6
    5a50:	4798      	blx	r3
    5a52:	6b23      	ldr	r3, [r4, #48]	; 0x30
    5a54:	3d04      	subs	r5, #4
    5a56:	195d      	adds	r5, r3, r5
    5a58:	2307      	movs	r3, #7
    5a5a:	439d      	bics	r5, r3
    5a5c:	2300      	movs	r3, #0
    5a5e:	9500      	str	r5, [sp, #0]
    5a60:	001a      	movs	r2, r3
    5a62:	5cf9      	ldrb	r1, [r7, r3]
    5a64:	3234      	adds	r2, #52	; 0x34
    5a66:	54a1      	strb	r1, [r4, r2]
    5a68:	5cfa      	ldrb	r2, [r7, r3]
    5a6a:	2a00      	cmp	r2, #0
    5a6c:	d002      	beq.n	5a74 <xTaskCreate+0x50>
    5a6e:	3301      	adds	r3, #1
    5a70:	2b0a      	cmp	r3, #10
    5a72:	d1f5      	bne.n	5a60 <xTaskCreate+0x3c>
    5a74:	0023      	movs	r3, r4
    5a76:	2700      	movs	r7, #0
    5a78:	9d0a      	ldr	r5, [sp, #40]	; 0x28
    5a7a:	333d      	adds	r3, #61	; 0x3d
    5a7c:	701f      	strb	r7, [r3, #0]
    5a7e:	2d04      	cmp	r5, #4
    5a80:	d900      	bls.n	5a84 <xTaskCreate+0x60>
    5a82:	2504      	movs	r5, #4
    5a84:	1d23      	adds	r3, r4, #4
    5a86:	0018      	movs	r0, r3
    5a88:	62e5      	str	r5, [r4, #44]	; 0x2c
    5a8a:	64a5      	str	r5, [r4, #72]	; 0x48
    5a8c:	4e3f      	ldr	r6, [pc, #252]	; (5b8c <xTaskCreate+0x168>)
    5a8e:	64e7      	str	r7, [r4, #76]	; 0x4c
    5a90:	9303      	str	r3, [sp, #12]
    5a92:	47b0      	blx	r6
    5a94:	0020      	movs	r0, r4
    5a96:	3018      	adds	r0, #24
    5a98:	47b0      	blx	r6
    5a9a:	2305      	movs	r3, #5
    5a9c:	1b5d      	subs	r5, r3, r5
    5a9e:	0023      	movs	r3, r4
    5aa0:	3354      	adds	r3, #84	; 0x54
    5aa2:	6124      	str	r4, [r4, #16]
    5aa4:	61a5      	str	r5, [r4, #24]
    5aa6:	6264      	str	r4, [r4, #36]	; 0x24
    5aa8:	6527      	str	r7, [r4, #80]	; 0x50
    5aaa:	9a02      	ldr	r2, [sp, #8]
    5aac:	701f      	strb	r7, [r3, #0]
    5aae:	9901      	ldr	r1, [sp, #4]
    5ab0:	4b37      	ldr	r3, [pc, #220]	; (5b90 <xTaskCreate+0x16c>)
    5ab2:	9800      	ldr	r0, [sp, #0]
    5ab4:	4798      	blx	r3
    5ab6:	9b0b      	ldr	r3, [sp, #44]	; 0x2c
    5ab8:	6020      	str	r0, [r4, #0]
    5aba:	2b00      	cmp	r3, #0
    5abc:	d000      	beq.n	5ac0 <xTaskCreate+0x9c>
    5abe:	601c      	str	r4, [r3, #0]
    5ac0:	4b34      	ldr	r3, [pc, #208]	; (5b94 <xTaskCreate+0x170>)
    5ac2:	4798      	blx	r3
    5ac4:	4b34      	ldr	r3, [pc, #208]	; (5b98 <xTaskCreate+0x174>)
    5ac6:	4f35      	ldr	r7, [pc, #212]	; (5b9c <xTaskCreate+0x178>)
    5ac8:	681a      	ldr	r2, [r3, #0]
    5aca:	4e35      	ldr	r6, [pc, #212]	; (5ba0 <xTaskCreate+0x17c>)
    5acc:	3201      	adds	r2, #1
    5ace:	601a      	str	r2, [r3, #0]
    5ad0:	683a      	ldr	r2, [r7, #0]
    5ad2:	2a00      	cmp	r2, #0
    5ad4:	d14a      	bne.n	5b6c <xTaskCreate+0x148>
    5ad6:	603c      	str	r4, [r7, #0]
    5ad8:	681b      	ldr	r3, [r3, #0]
    5ada:	2b01      	cmp	r3, #1
    5adc:	d11e      	bne.n	5b1c <xTaskCreate+0xf8>
    5ade:	4d31      	ldr	r5, [pc, #196]	; (5ba4 <xTaskCreate+0x180>)
    5ae0:	0030      	movs	r0, r6
    5ae2:	47a8      	blx	r5
    5ae4:	0030      	movs	r0, r6
    5ae6:	3014      	adds	r0, #20
    5ae8:	47a8      	blx	r5
    5aea:	0030      	movs	r0, r6
    5aec:	3028      	adds	r0, #40	; 0x28
    5aee:	47a8      	blx	r5
    5af0:	0030      	movs	r0, r6
    5af2:	303c      	adds	r0, #60	; 0x3c
    5af4:	47a8      	blx	r5
    5af6:	0030      	movs	r0, r6
    5af8:	3050      	adds	r0, #80	; 0x50
    5afa:	47a8      	blx	r5
    5afc:	482a      	ldr	r0, [pc, #168]	; (5ba8 <xTaskCreate+0x184>)
    5afe:	47a8      	blx	r5
    5b00:	482a      	ldr	r0, [pc, #168]	; (5bac <xTaskCreate+0x188>)
    5b02:	47a8      	blx	r5
    5b04:	482a      	ldr	r0, [pc, #168]	; (5bb0 <xTaskCreate+0x18c>)
    5b06:	47a8      	blx	r5
    5b08:	482a      	ldr	r0, [pc, #168]	; (5bb4 <xTaskCreate+0x190>)
    5b0a:	47a8      	blx	r5
    5b0c:	482a      	ldr	r0, [pc, #168]	; (5bb8 <xTaskCreate+0x194>)
    5b0e:	47a8      	blx	r5
    5b10:	4b2a      	ldr	r3, [pc, #168]	; (5bbc <xTaskCreate+0x198>)
    5b12:	4a25      	ldr	r2, [pc, #148]	; (5ba8 <xTaskCreate+0x184>)
    5b14:	601a      	str	r2, [r3, #0]
    5b16:	4b2a      	ldr	r3, [pc, #168]	; (5bc0 <xTaskCreate+0x19c>)
    5b18:	4a24      	ldr	r2, [pc, #144]	; (5bac <xTaskCreate+0x188>)
    5b1a:	601a      	str	r2, [r3, #0]
    5b1c:	4a29      	ldr	r2, [pc, #164]	; (5bc4 <xTaskCreate+0x1a0>)
    5b1e:	6813      	ldr	r3, [r2, #0]
    5b20:	3301      	adds	r3, #1
    5b22:	6013      	str	r3, [r2, #0]
    5b24:	4a28      	ldr	r2, [pc, #160]	; (5bc8 <xTaskCreate+0x1a4>)
    5b26:	6423      	str	r3, [r4, #64]	; 0x40
    5b28:	6811      	ldr	r1, [r2, #0]
    5b2a:	6ae3      	ldr	r3, [r4, #44]	; 0x2c
    5b2c:	428b      	cmp	r3, r1
    5b2e:	d900      	bls.n	5b32 <xTaskCreate+0x10e>
    5b30:	6013      	str	r3, [r2, #0]
    5b32:	2014      	movs	r0, #20
    5b34:	4358      	muls	r0, r3
    5b36:	1d21      	adds	r1, r4, #4
    5b38:	1830      	adds	r0, r6, r0
    5b3a:	4b24      	ldr	r3, [pc, #144]	; (5bcc <xTaskCreate+0x1a8>)
    5b3c:	4798      	blx	r3
    5b3e:	4b24      	ldr	r3, [pc, #144]	; (5bd0 <xTaskCreate+0x1ac>)
    5b40:	4798      	blx	r3
    5b42:	4b24      	ldr	r3, [pc, #144]	; (5bd4 <xTaskCreate+0x1b0>)
    5b44:	2501      	movs	r5, #1
    5b46:	681b      	ldr	r3, [r3, #0]
    5b48:	2b00      	cmp	r3, #0
    5b4a:	d006      	beq.n	5b5a <xTaskCreate+0x136>
    5b4c:	683b      	ldr	r3, [r7, #0]
    5b4e:	6ada      	ldr	r2, [r3, #44]	; 0x2c
    5b50:	6ae3      	ldr	r3, [r4, #44]	; 0x2c
    5b52:	429a      	cmp	r2, r3
    5b54:	d201      	bcs.n	5b5a <xTaskCreate+0x136>
    5b56:	4b20      	ldr	r3, [pc, #128]	; (5bd8 <xTaskCreate+0x1b4>)
    5b58:	4798      	blx	r3
    5b5a:	0028      	movs	r0, r5
    5b5c:	b005      	add	sp, #20
    5b5e:	bdf0      	pop	{r4, r5, r6, r7, pc}
    5b60:	0030      	movs	r0, r6
    5b62:	4b1e      	ldr	r3, [pc, #120]	; (5bdc <xTaskCreate+0x1b8>)
    5b64:	4798      	blx	r3
    5b66:	2501      	movs	r5, #1
    5b68:	426d      	negs	r5, r5
    5b6a:	e7f6      	b.n	5b5a <xTaskCreate+0x136>
    5b6c:	4b19      	ldr	r3, [pc, #100]	; (5bd4 <xTaskCreate+0x1b0>)
    5b6e:	681b      	ldr	r3, [r3, #0]
    5b70:	2b00      	cmp	r3, #0
    5b72:	d1d3      	bne.n	5b1c <xTaskCreate+0xf8>
    5b74:	683b      	ldr	r3, [r7, #0]
    5b76:	6ae2      	ldr	r2, [r4, #44]	; 0x2c
    5b78:	6adb      	ldr	r3, [r3, #44]	; 0x2c
    5b7a:	4293      	cmp	r3, r2
    5b7c:	d8ce      	bhi.n	5b1c <xTaskCreate+0xf8>
    5b7e:	603c      	str	r4, [r7, #0]
    5b80:	e7cc      	b.n	5b1c <xTaskCreate+0xf8>
    5b82:	46c0      	nop			; (mov r8, r8)
    5b84:	00003451 	.word	0x00003451
    5b88:	0000ae27 	.word	0x0000ae27
    5b8c:	0000523b 	.word	0x0000523b
    5b90:	000032a5 	.word	0x000032a5
    5b94:	00003345 	.word	0x00003345
    5b98:	20003a4c 	.word	0x20003a4c
    5b9c:	200039dc 	.word	0x200039dc
    5ba0:	200039e8 	.word	0x200039e8
    5ba4:	00005225 	.word	0x00005225
    5ba8:	20003a64 	.word	0x20003a64
    5bac:	20003a78 	.word	0x20003a78
    5bb0:	20003a98 	.word	0x20003a98
    5bb4:	20003ac4 	.word	0x20003ac4
    5bb8:	20003ab0 	.word	0x20003ab0
    5bbc:	200039e0 	.word	0x200039e0
    5bc0:	200039e4 	.word	0x200039e4
    5bc4:	20003a5c 	.word	0x20003a5c
    5bc8:	20003a60 	.word	0x20003a60
    5bcc:	00005241 	.word	0x00005241
    5bd0:	0000335d 	.word	0x0000335d
    5bd4:	20003aac 	.word	0x20003aac
    5bd8:	0000332d 	.word	0x0000332d
    5bdc:	00003569 	.word	0x00003569

00005be0 <vTaskResume>:
    5be0:	b570      	push	{r4, r5, r6, lr}
    5be2:	1e04      	subs	r4, r0, #0
    5be4:	d101      	bne.n	5bea <vTaskResume+0xa>
    5be6:	b672      	cpsid	i
    5be8:	e7fe      	b.n	5be8 <vTaskResume+0x8>
    5bea:	4d13      	ldr	r5, [pc, #76]	; (5c38 <vTaskResume+0x58>)
    5bec:	682b      	ldr	r3, [r5, #0]
    5bee:	4298      	cmp	r0, r3
    5bf0:	d020      	beq.n	5c34 <vTaskResume+0x54>
    5bf2:	4b12      	ldr	r3, [pc, #72]	; (5c3c <vTaskResume+0x5c>)
    5bf4:	4798      	blx	r3
    5bf6:	0020      	movs	r0, r4
    5bf8:	4b11      	ldr	r3, [pc, #68]	; (5c40 <vTaskResume+0x60>)
    5bfa:	4798      	blx	r3
    5bfc:	2800      	cmp	r0, #0
    5bfe:	d017      	beq.n	5c30 <vTaskResume+0x50>
    5c00:	1d26      	adds	r6, r4, #4
    5c02:	4b10      	ldr	r3, [pc, #64]	; (5c44 <vTaskResume+0x64>)
    5c04:	0030      	movs	r0, r6
    5c06:	4798      	blx	r3
    5c08:	4a0f      	ldr	r2, [pc, #60]	; (5c48 <vTaskResume+0x68>)
    5c0a:	6ae3      	ldr	r3, [r4, #44]	; 0x2c
    5c0c:	6811      	ldr	r1, [r2, #0]
    5c0e:	428b      	cmp	r3, r1
    5c10:	d900      	bls.n	5c14 <vTaskResume+0x34>
    5c12:	6013      	str	r3, [r2, #0]
    5c14:	2014      	movs	r0, #20
    5c16:	4343      	muls	r3, r0
    5c18:	480c      	ldr	r0, [pc, #48]	; (5c4c <vTaskResume+0x6c>)
    5c1a:	0031      	movs	r1, r6
    5c1c:	18c0      	adds	r0, r0, r3
    5c1e:	4b0c      	ldr	r3, [pc, #48]	; (5c50 <vTaskResume+0x70>)
    5c20:	4798      	blx	r3
    5c22:	682b      	ldr	r3, [r5, #0]
    5c24:	6ae2      	ldr	r2, [r4, #44]	; 0x2c
    5c26:	6adb      	ldr	r3, [r3, #44]	; 0x2c
    5c28:	429a      	cmp	r2, r3
    5c2a:	d301      	bcc.n	5c30 <vTaskResume+0x50>
    5c2c:	4b09      	ldr	r3, [pc, #36]	; (5c54 <vTaskResume+0x74>)
    5c2e:	4798      	blx	r3
    5c30:	4b09      	ldr	r3, [pc, #36]	; (5c58 <vTaskResume+0x78>)
    5c32:	4798      	blx	r3
    5c34:	bd70      	pop	{r4, r5, r6, pc}
    5c36:	46c0      	nop			; (mov r8, r8)
    5c38:	200039dc 	.word	0x200039dc
    5c3c:	00003345 	.word	0x00003345
    5c40:	000058e5 	.word	0x000058e5
    5c44:	00005287 	.word	0x00005287
    5c48:	20003a60 	.word	0x20003a60
    5c4c:	200039e8 	.word	0x200039e8
    5c50:	00005241 	.word	0x00005241
    5c54:	0000332d 	.word	0x0000332d
    5c58:	0000335d 	.word	0x0000335d

00005c5c <xTaskResumeFromISR>:
    5c5c:	b5f7      	push	{r0, r1, r2, r4, r5, r6, r7, lr}
    5c5e:	1e04      	subs	r4, r0, #0
    5c60:	d101      	bne.n	5c66 <xTaskResumeFromISR+0xa>
    5c62:	b672      	cpsid	i
    5c64:	e7fe      	b.n	5c64 <xTaskResumeFromISR+0x8>
    5c66:	4b16      	ldr	r3, [pc, #88]	; (5cc0 <xTaskResumeFromISR+0x64>)
    5c68:	4798      	blx	r3
    5c6a:	4b16      	ldr	r3, [pc, #88]	; (5cc4 <xTaskResumeFromISR+0x68>)
    5c6c:	9001      	str	r0, [sp, #4]
    5c6e:	0020      	movs	r0, r4
    5c70:	4798      	blx	r3
    5c72:	2500      	movs	r5, #0
    5c74:	42a8      	cmp	r0, r5
    5c76:	d01a      	beq.n	5cae <xTaskResumeFromISR+0x52>
    5c78:	4b13      	ldr	r3, [pc, #76]	; (5cc8 <xTaskResumeFromISR+0x6c>)
    5c7a:	4f14      	ldr	r7, [pc, #80]	; (5ccc <xTaskResumeFromISR+0x70>)
    5c7c:	681b      	ldr	r3, [r3, #0]
    5c7e:	42ab      	cmp	r3, r5
    5c80:	d11a      	bne.n	5cb8 <xTaskResumeFromISR+0x5c>
    5c82:	4b13      	ldr	r3, [pc, #76]	; (5cd0 <xTaskResumeFromISR+0x74>)
    5c84:	6ae2      	ldr	r2, [r4, #44]	; 0x2c
    5c86:	681b      	ldr	r3, [r3, #0]
    5c88:	1d26      	adds	r6, r4, #4
    5c8a:	6adb      	ldr	r3, [r3, #44]	; 0x2c
    5c8c:	0030      	movs	r0, r6
    5c8e:	429a      	cmp	r2, r3
    5c90:	416d      	adcs	r5, r5
    5c92:	4b10      	ldr	r3, [pc, #64]	; (5cd4 <xTaskResumeFromISR+0x78>)
    5c94:	4798      	blx	r3
    5c96:	4a10      	ldr	r2, [pc, #64]	; (5cd8 <xTaskResumeFromISR+0x7c>)
    5c98:	6ae3      	ldr	r3, [r4, #44]	; 0x2c
    5c9a:	6811      	ldr	r1, [r2, #0]
    5c9c:	428b      	cmp	r3, r1
    5c9e:	d900      	bls.n	5ca2 <xTaskResumeFromISR+0x46>
    5ca0:	6013      	str	r3, [r2, #0]
    5ca2:	2014      	movs	r0, #20
    5ca4:	0031      	movs	r1, r6
    5ca6:	4343      	muls	r3, r0
    5ca8:	480c      	ldr	r0, [pc, #48]	; (5cdc <xTaskResumeFromISR+0x80>)
    5caa:	18c0      	adds	r0, r0, r3
    5cac:	47b8      	blx	r7
    5cae:	9801      	ldr	r0, [sp, #4]
    5cb0:	4b0b      	ldr	r3, [pc, #44]	; (5ce0 <xTaskResumeFromISR+0x84>)
    5cb2:	4798      	blx	r3
    5cb4:	0028      	movs	r0, r5
    5cb6:	bdfe      	pop	{r1, r2, r3, r4, r5, r6, r7, pc}
    5cb8:	0021      	movs	r1, r4
    5cba:	480a      	ldr	r0, [pc, #40]	; (5ce4 <xTaskResumeFromISR+0x88>)
    5cbc:	3118      	adds	r1, #24
    5cbe:	e7f5      	b.n	5cac <xTaskResumeFromISR+0x50>
    5cc0:	00003379 	.word	0x00003379
    5cc4:	000058e5 	.word	0x000058e5
    5cc8:	20003a58 	.word	0x20003a58
    5ccc:	00005241 	.word	0x00005241
    5cd0:	200039dc 	.word	0x200039dc
    5cd4:	00005287 	.word	0x00005287
    5cd8:	20003a60 	.word	0x20003a60
    5cdc:	200039e8 	.word	0x200039e8
    5ce0:	00003381 	.word	0x00003381
    5ce4:	20003a98 	.word	0x20003a98

00005ce8 <vTaskStartScheduler>:
    5ce8:	b537      	push	{r0, r1, r2, r4, r5, lr}
    5cea:	2400      	movs	r4, #0
    5cec:	4b0f      	ldr	r3, [pc, #60]	; (5d2c <vTaskStartScheduler+0x44>)
    5cee:	9400      	str	r4, [sp, #0]
    5cf0:	9301      	str	r3, [sp, #4]
    5cf2:	2282      	movs	r2, #130	; 0x82
    5cf4:	0023      	movs	r3, r4
    5cf6:	490e      	ldr	r1, [pc, #56]	; (5d30 <vTaskStartScheduler+0x48>)
    5cf8:	480e      	ldr	r0, [pc, #56]	; (5d34 <vTaskStartScheduler+0x4c>)
    5cfa:	4d0f      	ldr	r5, [pc, #60]	; (5d38 <vTaskStartScheduler+0x50>)
    5cfc:	47a8      	blx	r5
    5cfe:	2801      	cmp	r0, #1
    5d00:	d10f      	bne.n	5d22 <vTaskStartScheduler+0x3a>
    5d02:	4b0e      	ldr	r3, [pc, #56]	; (5d3c <vTaskStartScheduler+0x54>)
    5d04:	4798      	blx	r3
    5d06:	2801      	cmp	r0, #1
    5d08:	d10b      	bne.n	5d22 <vTaskStartScheduler+0x3a>
    5d0a:	b672      	cpsid	i
    5d0c:	2201      	movs	r2, #1
    5d0e:	4b0c      	ldr	r3, [pc, #48]	; (5d40 <vTaskStartScheduler+0x58>)
    5d10:	4252      	negs	r2, r2
    5d12:	601a      	str	r2, [r3, #0]
    5d14:	4b0b      	ldr	r3, [pc, #44]	; (5d44 <vTaskStartScheduler+0x5c>)
    5d16:	6018      	str	r0, [r3, #0]
    5d18:	4b0b      	ldr	r3, [pc, #44]	; (5d48 <vTaskStartScheduler+0x60>)
    5d1a:	601c      	str	r4, [r3, #0]
    5d1c:	4b0b      	ldr	r3, [pc, #44]	; (5d4c <vTaskStartScheduler+0x64>)
    5d1e:	4798      	blx	r3
    5d20:	bd37      	pop	{r0, r1, r2, r4, r5, pc}
    5d22:	1c43      	adds	r3, r0, #1
    5d24:	d1fc      	bne.n	5d20 <vTaskStartScheduler+0x38>
    5d26:	b672      	cpsid	i
    5d28:	e7fe      	b.n	5d28 <vTaskStartScheduler+0x40>
    5d2a:	46c0      	nop			; (mov r8, r8)
    5d2c:	20003a8c 	.word	0x20003a8c
    5d30:	0000b93f 	.word	0x0000b93f
    5d34:	000059b1 	.word	0x000059b1
    5d38:	00005a25 	.word	0x00005a25
    5d3c:	0000643d 	.word	0x0000643d
    5d40:	20003a90 	.word	0x20003a90
    5d44:	20003aac 	.word	0x20003aac
    5d48:	20003ad8 	.word	0x20003ad8
    5d4c:	000032c9 	.word	0x000032c9

00005d50 <vTaskSuspendAll>:
    5d50:	4a02      	ldr	r2, [pc, #8]	; (5d5c <vTaskSuspendAll+0xc>)
    5d52:	6813      	ldr	r3, [r2, #0]
    5d54:	3301      	adds	r3, #1
    5d56:	6013      	str	r3, [r2, #0]
    5d58:	4770      	bx	lr
    5d5a:	46c0      	nop			; (mov r8, r8)
    5d5c:	20003a58 	.word	0x20003a58

00005d60 <xTaskGetTickCount>:
    5d60:	4b01      	ldr	r3, [pc, #4]	; (5d68 <xTaskGetTickCount+0x8>)
    5d62:	6818      	ldr	r0, [r3, #0]
    5d64:	4770      	bx	lr
    5d66:	46c0      	nop			; (mov r8, r8)
    5d68:	20003ad8 	.word	0x20003ad8

00005d6c <xTaskIncrementTick>:
    5d6c:	b5f7      	push	{r0, r1, r2, r4, r5, r6, r7, lr}
    5d6e:	4b37      	ldr	r3, [pc, #220]	; (5e4c <xTaskIncrementTick+0xe0>)
    5d70:	681b      	ldr	r3, [r3, #0]
    5d72:	2b00      	cmp	r3, #0
    5d74:	d13b      	bne.n	5dee <xTaskIncrementTick+0x82>
    5d76:	4b36      	ldr	r3, [pc, #216]	; (5e50 <xTaskIncrementTick+0xe4>)
    5d78:	681f      	ldr	r7, [r3, #0]
    5d7a:	3701      	adds	r7, #1
    5d7c:	601f      	str	r7, [r3, #0]
    5d7e:	2f00      	cmp	r7, #0
    5d80:	d111      	bne.n	5da6 <xTaskIncrementTick+0x3a>
    5d82:	4b34      	ldr	r3, [pc, #208]	; (5e54 <xTaskIncrementTick+0xe8>)
    5d84:	681a      	ldr	r2, [r3, #0]
    5d86:	6812      	ldr	r2, [r2, #0]
    5d88:	2a00      	cmp	r2, #0
    5d8a:	d001      	beq.n	5d90 <xTaskIncrementTick+0x24>
    5d8c:	b672      	cpsid	i
    5d8e:	e7fe      	b.n	5d8e <xTaskIncrementTick+0x22>
    5d90:	4a31      	ldr	r2, [pc, #196]	; (5e58 <xTaskIncrementTick+0xec>)
    5d92:	6819      	ldr	r1, [r3, #0]
    5d94:	6810      	ldr	r0, [r2, #0]
    5d96:	6018      	str	r0, [r3, #0]
    5d98:	6011      	str	r1, [r2, #0]
    5d9a:	4a30      	ldr	r2, [pc, #192]	; (5e5c <xTaskIncrementTick+0xf0>)
    5d9c:	6813      	ldr	r3, [r2, #0]
    5d9e:	3301      	adds	r3, #1
    5da0:	6013      	str	r3, [r2, #0]
    5da2:	4b2f      	ldr	r3, [pc, #188]	; (5e60 <xTaskIncrementTick+0xf4>)
    5da4:	4798      	blx	r3
    5da6:	4e2f      	ldr	r6, [pc, #188]	; (5e64 <xTaskIncrementTick+0xf8>)
    5da8:	2500      	movs	r5, #0
    5daa:	6833      	ldr	r3, [r6, #0]
    5dac:	429f      	cmp	r7, r3
    5dae:	d307      	bcc.n	5dc0 <xTaskIncrementTick+0x54>
    5db0:	4b28      	ldr	r3, [pc, #160]	; (5e54 <xTaskIncrementTick+0xe8>)
    5db2:	681a      	ldr	r2, [r3, #0]
    5db4:	6812      	ldr	r2, [r2, #0]
    5db6:	2a00      	cmp	r2, #0
    5db8:	d121      	bne.n	5dfe <xTaskIncrementTick+0x92>
    5dba:	2301      	movs	r3, #1
    5dbc:	425b      	negs	r3, r3
    5dbe:	6033      	str	r3, [r6, #0]
    5dc0:	4b29      	ldr	r3, [pc, #164]	; (5e68 <xTaskIncrementTick+0xfc>)
    5dc2:	681b      	ldr	r3, [r3, #0]
    5dc4:	6ada      	ldr	r2, [r3, #44]	; 0x2c
    5dc6:	2314      	movs	r3, #20
    5dc8:	4353      	muls	r3, r2
    5dca:	4a28      	ldr	r2, [pc, #160]	; (5e6c <xTaskIncrementTick+0x100>)
    5dcc:	58d3      	ldr	r3, [r2, r3]
    5dce:	2b01      	cmp	r3, #1
    5dd0:	d900      	bls.n	5dd4 <xTaskIncrementTick+0x68>
    5dd2:	2501      	movs	r5, #1
    5dd4:	4b26      	ldr	r3, [pc, #152]	; (5e70 <xTaskIncrementTick+0x104>)
    5dd6:	681b      	ldr	r3, [r3, #0]
    5dd8:	2b00      	cmp	r3, #0
    5dda:	d101      	bne.n	5de0 <xTaskIncrementTick+0x74>
    5ddc:	4b25      	ldr	r3, [pc, #148]	; (5e74 <xTaskIncrementTick+0x108>)
    5dde:	4798      	blx	r3
    5de0:	4b25      	ldr	r3, [pc, #148]	; (5e78 <xTaskIncrementTick+0x10c>)
    5de2:	681b      	ldr	r3, [r3, #0]
    5de4:	2b00      	cmp	r3, #0
    5de6:	d000      	beq.n	5dea <xTaskIncrementTick+0x7e>
    5de8:	2501      	movs	r5, #1
    5dea:	0028      	movs	r0, r5
    5dec:	bdfe      	pop	{r1, r2, r3, r4, r5, r6, r7, pc}
    5dee:	4a20      	ldr	r2, [pc, #128]	; (5e70 <xTaskIncrementTick+0x104>)
    5df0:	2500      	movs	r5, #0
    5df2:	6813      	ldr	r3, [r2, #0]
    5df4:	3301      	adds	r3, #1
    5df6:	6013      	str	r3, [r2, #0]
    5df8:	4b1e      	ldr	r3, [pc, #120]	; (5e74 <xTaskIncrementTick+0x108>)
    5dfa:	4798      	blx	r3
    5dfc:	e7f0      	b.n	5de0 <xTaskIncrementTick+0x74>
    5dfe:	681b      	ldr	r3, [r3, #0]
    5e00:	68db      	ldr	r3, [r3, #12]
    5e02:	68dc      	ldr	r4, [r3, #12]
    5e04:	6863      	ldr	r3, [r4, #4]
    5e06:	429f      	cmp	r7, r3
    5e08:	d3d9      	bcc.n	5dbe <xTaskIncrementTick+0x52>
    5e0a:	1d23      	adds	r3, r4, #4
    5e0c:	9301      	str	r3, [sp, #4]
    5e0e:	0018      	movs	r0, r3
    5e10:	4b1a      	ldr	r3, [pc, #104]	; (5e7c <xTaskIncrementTick+0x110>)
    5e12:	4798      	blx	r3
    5e14:	6aa3      	ldr	r3, [r4, #40]	; 0x28
    5e16:	2b00      	cmp	r3, #0
    5e18:	d003      	beq.n	5e22 <xTaskIncrementTick+0xb6>
    5e1a:	0020      	movs	r0, r4
    5e1c:	4b17      	ldr	r3, [pc, #92]	; (5e7c <xTaskIncrementTick+0x110>)
    5e1e:	3018      	adds	r0, #24
    5e20:	4798      	blx	r3
    5e22:	4b17      	ldr	r3, [pc, #92]	; (5e80 <xTaskIncrementTick+0x114>)
    5e24:	6ae0      	ldr	r0, [r4, #44]	; 0x2c
    5e26:	681a      	ldr	r2, [r3, #0]
    5e28:	4290      	cmp	r0, r2
    5e2a:	d900      	bls.n	5e2e <xTaskIncrementTick+0xc2>
    5e2c:	6018      	str	r0, [r3, #0]
    5e2e:	2314      	movs	r3, #20
    5e30:	4358      	muls	r0, r3
    5e32:	4b0e      	ldr	r3, [pc, #56]	; (5e6c <xTaskIncrementTick+0x100>)
    5e34:	1d21      	adds	r1, r4, #4
    5e36:	1818      	adds	r0, r3, r0
    5e38:	4b12      	ldr	r3, [pc, #72]	; (5e84 <xTaskIncrementTick+0x118>)
    5e3a:	4798      	blx	r3
    5e3c:	4b0a      	ldr	r3, [pc, #40]	; (5e68 <xTaskIncrementTick+0xfc>)
    5e3e:	6ae2      	ldr	r2, [r4, #44]	; 0x2c
    5e40:	681b      	ldr	r3, [r3, #0]
    5e42:	6adb      	ldr	r3, [r3, #44]	; 0x2c
    5e44:	429a      	cmp	r2, r3
    5e46:	d3b3      	bcc.n	5db0 <xTaskIncrementTick+0x44>
    5e48:	2501      	movs	r5, #1
    5e4a:	e7b1      	b.n	5db0 <xTaskIncrementTick+0x44>
    5e4c:	20003a58 	.word	0x20003a58
    5e50:	20003ad8 	.word	0x20003ad8
    5e54:	200039e0 	.word	0x200039e0
    5e58:	200039e4 	.word	0x200039e4
    5e5c:	20003a94 	.word	0x20003a94
    5e60:	00005911 	.word	0x00005911
    5e64:	20003a90 	.word	0x20003a90
    5e68:	200039dc 	.word	0x200039dc
    5e6c:	200039e8 	.word	0x200039e8
    5e70:	20003a54 	.word	0x20003a54
    5e74:	00007c87 	.word	0x00007c87
    5e78:	20003adc 	.word	0x20003adc
    5e7c:	00005287 	.word	0x00005287
    5e80:	20003a60 	.word	0x20003a60
    5e84:	00005241 	.word	0x00005241

00005e88 <xTaskResumeAll>:
    5e88:	b5f8      	push	{r3, r4, r5, r6, r7, lr}
    5e8a:	4c2b      	ldr	r4, [pc, #172]	; (5f38 <xTaskResumeAll+0xb0>)
    5e8c:	6823      	ldr	r3, [r4, #0]
    5e8e:	2b00      	cmp	r3, #0
    5e90:	d101      	bne.n	5e96 <xTaskResumeAll+0xe>
    5e92:	b672      	cpsid	i
    5e94:	e7fe      	b.n	5e94 <xTaskResumeAll+0xc>
    5e96:	4b29      	ldr	r3, [pc, #164]	; (5f3c <xTaskResumeAll+0xb4>)
    5e98:	4798      	blx	r3
    5e9a:	6823      	ldr	r3, [r4, #0]
    5e9c:	3b01      	subs	r3, #1
    5e9e:	6023      	str	r3, [r4, #0]
    5ea0:	6824      	ldr	r4, [r4, #0]
    5ea2:	2c00      	cmp	r4, #0
    5ea4:	d004      	beq.n	5eb0 <xTaskResumeAll+0x28>
    5ea6:	2400      	movs	r4, #0
    5ea8:	4b25      	ldr	r3, [pc, #148]	; (5f40 <xTaskResumeAll+0xb8>)
    5eaa:	4798      	blx	r3
    5eac:	0020      	movs	r0, r4
    5eae:	bdf8      	pop	{r3, r4, r5, r6, r7, pc}
    5eb0:	4b24      	ldr	r3, [pc, #144]	; (5f44 <xTaskResumeAll+0xbc>)
    5eb2:	2701      	movs	r7, #1
    5eb4:	681b      	ldr	r3, [r3, #0]
    5eb6:	2b00      	cmp	r3, #0
    5eb8:	d0f5      	beq.n	5ea6 <xTaskResumeAll+0x1e>
    5eba:	4b23      	ldr	r3, [pc, #140]	; (5f48 <xTaskResumeAll+0xc0>)
    5ebc:	681a      	ldr	r2, [r3, #0]
    5ebe:	2a00      	cmp	r2, #0
    5ec0:	d11a      	bne.n	5ef8 <xTaskResumeAll+0x70>
    5ec2:	2c00      	cmp	r4, #0
    5ec4:	d001      	beq.n	5eca <xTaskResumeAll+0x42>
    5ec6:	4b21      	ldr	r3, [pc, #132]	; (5f4c <xTaskResumeAll+0xc4>)
    5ec8:	4798      	blx	r3
    5eca:	4d21      	ldr	r5, [pc, #132]	; (5f50 <xTaskResumeAll+0xc8>)
    5ecc:	682c      	ldr	r4, [r5, #0]
    5ece:	2c00      	cmp	r4, #0
    5ed0:	d00a      	beq.n	5ee8 <xTaskResumeAll+0x60>
    5ed2:	2601      	movs	r6, #1
    5ed4:	4b1f      	ldr	r3, [pc, #124]	; (5f54 <xTaskResumeAll+0xcc>)
    5ed6:	4798      	blx	r3
    5ed8:	2800      	cmp	r0, #0
    5eda:	d001      	beq.n	5ee0 <xTaskResumeAll+0x58>
    5edc:	4b1e      	ldr	r3, [pc, #120]	; (5f58 <xTaskResumeAll+0xd0>)
    5ede:	601e      	str	r6, [r3, #0]
    5ee0:	3c01      	subs	r4, #1
    5ee2:	2c00      	cmp	r4, #0
    5ee4:	d1f6      	bne.n	5ed4 <xTaskResumeAll+0x4c>
    5ee6:	602c      	str	r4, [r5, #0]
    5ee8:	4b1b      	ldr	r3, [pc, #108]	; (5f58 <xTaskResumeAll+0xd0>)
    5eea:	681b      	ldr	r3, [r3, #0]
    5eec:	2b00      	cmp	r3, #0
    5eee:	d0da      	beq.n	5ea6 <xTaskResumeAll+0x1e>
    5ef0:	4b1a      	ldr	r3, [pc, #104]	; (5f5c <xTaskResumeAll+0xd4>)
    5ef2:	4798      	blx	r3
    5ef4:	2401      	movs	r4, #1
    5ef6:	e7d7      	b.n	5ea8 <xTaskResumeAll+0x20>
    5ef8:	68db      	ldr	r3, [r3, #12]
    5efa:	4e19      	ldr	r6, [pc, #100]	; (5f60 <xTaskResumeAll+0xd8>)
    5efc:	68dc      	ldr	r4, [r3, #12]
    5efe:	0020      	movs	r0, r4
    5f00:	1d25      	adds	r5, r4, #4
    5f02:	3018      	adds	r0, #24
    5f04:	47b0      	blx	r6
    5f06:	0028      	movs	r0, r5
    5f08:	47b0      	blx	r6
    5f0a:	4b16      	ldr	r3, [pc, #88]	; (5f64 <xTaskResumeAll+0xdc>)
    5f0c:	6ae0      	ldr	r0, [r4, #44]	; 0x2c
    5f0e:	681a      	ldr	r2, [r3, #0]
    5f10:	4290      	cmp	r0, r2
    5f12:	d900      	bls.n	5f16 <xTaskResumeAll+0x8e>
    5f14:	6018      	str	r0, [r3, #0]
    5f16:	2314      	movs	r3, #20
    5f18:	4358      	muls	r0, r3
    5f1a:	4b13      	ldr	r3, [pc, #76]	; (5f68 <xTaskResumeAll+0xe0>)
    5f1c:	0029      	movs	r1, r5
    5f1e:	1818      	adds	r0, r3, r0
    5f20:	4b12      	ldr	r3, [pc, #72]	; (5f6c <xTaskResumeAll+0xe4>)
    5f22:	4798      	blx	r3
    5f24:	4b12      	ldr	r3, [pc, #72]	; (5f70 <xTaskResumeAll+0xe8>)
    5f26:	6ae2      	ldr	r2, [r4, #44]	; 0x2c
    5f28:	681b      	ldr	r3, [r3, #0]
    5f2a:	6adb      	ldr	r3, [r3, #44]	; 0x2c
    5f2c:	429a      	cmp	r2, r3
    5f2e:	d3c4      	bcc.n	5eba <xTaskResumeAll+0x32>
    5f30:	4b09      	ldr	r3, [pc, #36]	; (5f58 <xTaskResumeAll+0xd0>)
    5f32:	601f      	str	r7, [r3, #0]
    5f34:	e7c1      	b.n	5eba <xTaskResumeAll+0x32>
    5f36:	46c0      	nop			; (mov r8, r8)
    5f38:	20003a58 	.word	0x20003a58
    5f3c:	00003345 	.word	0x00003345
    5f40:	0000335d 	.word	0x0000335d
    5f44:	20003a4c 	.word	0x20003a4c
    5f48:	20003a98 	.word	0x20003a98
    5f4c:	00005911 	.word	0x00005911
    5f50:	20003a54 	.word	0x20003a54
    5f54:	00005d6d 	.word	0x00005d6d
    5f58:	20003adc 	.word	0x20003adc
    5f5c:	0000332d 	.word	0x0000332d
    5f60:	00005287 	.word	0x00005287
    5f64:	20003a60 	.word	0x20003a60
    5f68:	200039e8 	.word	0x200039e8
    5f6c:	00005241 	.word	0x00005241
    5f70:	200039dc 	.word	0x200039dc

00005f74 <vTaskDelayUntil>:
    5f74:	b570      	push	{r4, r5, r6, lr}
    5f76:	0005      	movs	r5, r0
    5f78:	000c      	movs	r4, r1
    5f7a:	2800      	cmp	r0, #0
    5f7c:	d101      	bne.n	5f82 <vTaskDelayUntil+0xe>
    5f7e:	b672      	cpsid	i
    5f80:	e7fe      	b.n	5f80 <vTaskDelayUntil+0xc>
    5f82:	2900      	cmp	r1, #0
    5f84:	d101      	bne.n	5f8a <vTaskDelayUntil+0x16>
    5f86:	b672      	cpsid	i
    5f88:	e7fe      	b.n	5f88 <vTaskDelayUntil+0x14>
    5f8a:	4b12      	ldr	r3, [pc, #72]	; (5fd4 <vTaskDelayUntil+0x60>)
    5f8c:	681e      	ldr	r6, [r3, #0]
    5f8e:	2e00      	cmp	r6, #0
    5f90:	d001      	beq.n	5f96 <vTaskDelayUntil+0x22>
    5f92:	b672      	cpsid	i
    5f94:	e7fe      	b.n	5f94 <vTaskDelayUntil+0x20>
    5f96:	4b10      	ldr	r3, [pc, #64]	; (5fd8 <vTaskDelayUntil+0x64>)
    5f98:	4798      	blx	r3
    5f9a:	4b10      	ldr	r3, [pc, #64]	; (5fdc <vTaskDelayUntil+0x68>)
    5f9c:	682a      	ldr	r2, [r5, #0]
    5f9e:	6818      	ldr	r0, [r3, #0]
    5fa0:	18a4      	adds	r4, r4, r2
    5fa2:	4290      	cmp	r0, r2
    5fa4:	d205      	bcs.n	5fb2 <vTaskDelayUntil+0x3e>
    5fa6:	42a2      	cmp	r2, r4
    5fa8:	d906      	bls.n	5fb8 <vTaskDelayUntil+0x44>
    5faa:	42a0      	cmp	r0, r4
    5fac:	41b6      	sbcs	r6, r6
    5fae:	4276      	negs	r6, r6
    5fb0:	e002      	b.n	5fb8 <vTaskDelayUntil+0x44>
    5fb2:	2601      	movs	r6, #1
    5fb4:	42a2      	cmp	r2, r4
    5fb6:	d9f8      	bls.n	5faa <vTaskDelayUntil+0x36>
    5fb8:	602c      	str	r4, [r5, #0]
    5fba:	2e00      	cmp	r6, #0
    5fbc:	d003      	beq.n	5fc6 <vTaskDelayUntil+0x52>
    5fbe:	1a20      	subs	r0, r4, r0
    5fc0:	2100      	movs	r1, #0
    5fc2:	4b07      	ldr	r3, [pc, #28]	; (5fe0 <vTaskDelayUntil+0x6c>)
    5fc4:	4798      	blx	r3
    5fc6:	4b07      	ldr	r3, [pc, #28]	; (5fe4 <vTaskDelayUntil+0x70>)
    5fc8:	4798      	blx	r3
    5fca:	2800      	cmp	r0, #0
    5fcc:	d101      	bne.n	5fd2 <vTaskDelayUntil+0x5e>
    5fce:	4b06      	ldr	r3, [pc, #24]	; (5fe8 <vTaskDelayUntil+0x74>)
    5fd0:	4798      	blx	r3
    5fd2:	bd70      	pop	{r4, r5, r6, pc}
    5fd4:	20003a58 	.word	0x20003a58
    5fd8:	00005d51 	.word	0x00005d51
    5fdc:	20003ad8 	.word	0x20003ad8
    5fe0:	00005939 	.word	0x00005939
    5fe4:	00005e89 	.word	0x00005e89
    5fe8:	0000332d 	.word	0x0000332d

00005fec <vTaskDelay>:
    5fec:	b570      	push	{r4, r5, r6, lr}
    5fee:	1e04      	subs	r4, r0, #0
    5ff0:	d102      	bne.n	5ff8 <vTaskDelay+0xc>
    5ff2:	4b0a      	ldr	r3, [pc, #40]	; (601c <vTaskDelay+0x30>)
    5ff4:	4798      	blx	r3
    5ff6:	bd70      	pop	{r4, r5, r6, pc}
    5ff8:	4b09      	ldr	r3, [pc, #36]	; (6020 <vTaskDelay+0x34>)
    5ffa:	681d      	ldr	r5, [r3, #0]
    5ffc:	2d00      	cmp	r5, #0
    5ffe:	d001      	beq.n	6004 <vTaskDelay+0x18>
    6000:	b672      	cpsid	i
    6002:	e7fe      	b.n	6002 <vTaskDelay+0x16>
    6004:	4b07      	ldr	r3, [pc, #28]	; (6024 <vTaskDelay+0x38>)
    6006:	4798      	blx	r3
    6008:	4b07      	ldr	r3, [pc, #28]	; (6028 <vTaskDelay+0x3c>)
    600a:	0029      	movs	r1, r5
    600c:	0020      	movs	r0, r4
    600e:	4798      	blx	r3
    6010:	4b06      	ldr	r3, [pc, #24]	; (602c <vTaskDelay+0x40>)
    6012:	4798      	blx	r3
    6014:	2800      	cmp	r0, #0
    6016:	d1ee      	bne.n	5ff6 <vTaskDelay+0xa>
    6018:	e7eb      	b.n	5ff2 <vTaskDelay+0x6>
    601a:	46c0      	nop			; (mov r8, r8)
    601c:	0000332d 	.word	0x0000332d
    6020:	20003a58 	.word	0x20003a58
    6024:	00005d51 	.word	0x00005d51
    6028:	00005939 	.word	0x00005939
    602c:	00005e89 	.word	0x00005e89

00006030 <vTaskSwitchContext>:
    6030:	b570      	push	{r4, r5, r6, lr}
    6032:	4b1f      	ldr	r3, [pc, #124]	; (60b0 <vTaskSwitchContext+0x80>)
    6034:	681a      	ldr	r2, [r3, #0]
    6036:	4b1f      	ldr	r3, [pc, #124]	; (60b4 <vTaskSwitchContext+0x84>)
    6038:	2a00      	cmp	r2, #0
    603a:	d002      	beq.n	6042 <vTaskSwitchContext+0x12>
    603c:	2201      	movs	r2, #1
    603e:	601a      	str	r2, [r3, #0]
    6040:	bd70      	pop	{r4, r5, r6, pc}
    6042:	4c1d      	ldr	r4, [pc, #116]	; (60b8 <vTaskSwitchContext+0x88>)
    6044:	601a      	str	r2, [r3, #0]
    6046:	6823      	ldr	r3, [r4, #0]
    6048:	491c      	ldr	r1, [pc, #112]	; (60bc <vTaskSwitchContext+0x8c>)
    604a:	6b1b      	ldr	r3, [r3, #48]	; 0x30
    604c:	681a      	ldr	r2, [r3, #0]
    604e:	428a      	cmp	r2, r1
    6050:	d108      	bne.n	6064 <vTaskSwitchContext+0x34>
    6052:	6859      	ldr	r1, [r3, #4]
    6054:	4291      	cmp	r1, r2
    6056:	d105      	bne.n	6064 <vTaskSwitchContext+0x34>
    6058:	689a      	ldr	r2, [r3, #8]
    605a:	428a      	cmp	r2, r1
    605c:	d102      	bne.n	6064 <vTaskSwitchContext+0x34>
    605e:	68db      	ldr	r3, [r3, #12]
    6060:	4293      	cmp	r3, r2
    6062:	d004      	beq.n	606e <vTaskSwitchContext+0x3e>
    6064:	6820      	ldr	r0, [r4, #0]
    6066:	6821      	ldr	r1, [r4, #0]
    6068:	4b15      	ldr	r3, [pc, #84]	; (60c0 <vTaskSwitchContext+0x90>)
    606a:	3134      	adds	r1, #52	; 0x34
    606c:	4798      	blx	r3
    606e:	2614      	movs	r6, #20
    6070:	4814      	ldr	r0, [pc, #80]	; (60c4 <vTaskSwitchContext+0x94>)
    6072:	4915      	ldr	r1, [pc, #84]	; (60c8 <vTaskSwitchContext+0x98>)
    6074:	6802      	ldr	r2, [r0, #0]
    6076:	0033      	movs	r3, r6
    6078:	4353      	muls	r3, r2
    607a:	585d      	ldr	r5, [r3, r1]
    607c:	2d00      	cmp	r5, #0
    607e:	d011      	beq.n	60a4 <vTaskSwitchContext+0x74>
    6080:	18cd      	adds	r5, r1, r3
    6082:	686e      	ldr	r6, [r5, #4]
    6084:	3308      	adds	r3, #8
    6086:	6876      	ldr	r6, [r6, #4]
    6088:	18cb      	adds	r3, r1, r3
    608a:	606e      	str	r6, [r5, #4]
    608c:	429e      	cmp	r6, r3
    608e:	d101      	bne.n	6094 <vTaskSwitchContext+0x64>
    6090:	6873      	ldr	r3, [r6, #4]
    6092:	606b      	str	r3, [r5, #4]
    6094:	2314      	movs	r3, #20
    6096:	4353      	muls	r3, r2
    6098:	18c9      	adds	r1, r1, r3
    609a:	684b      	ldr	r3, [r1, #4]
    609c:	68db      	ldr	r3, [r3, #12]
    609e:	6023      	str	r3, [r4, #0]
    60a0:	6002      	str	r2, [r0, #0]
    60a2:	e7cd      	b.n	6040 <vTaskSwitchContext+0x10>
    60a4:	2a00      	cmp	r2, #0
    60a6:	d101      	bne.n	60ac <vTaskSwitchContext+0x7c>
    60a8:	b672      	cpsid	i
    60aa:	e7fe      	b.n	60aa <vTaskSwitchContext+0x7a>
    60ac:	3a01      	subs	r2, #1
    60ae:	e7e2      	b.n	6076 <vTaskSwitchContext+0x46>
    60b0:	20003a58 	.word	0x20003a58
    60b4:	20003adc 	.word	0x20003adc
    60b8:	200039dc 	.word	0x200039dc
    60bc:	a5a5a5a5 	.word	0xa5a5a5a5
    60c0:	00007c89 	.word	0x00007c89
    60c4:	20003a60 	.word	0x20003a60
    60c8:	200039e8 	.word	0x200039e8

000060cc <vTaskSuspend>:
    60cc:	b5f8      	push	{r3, r4, r5, r6, r7, lr}
    60ce:	4b21      	ldr	r3, [pc, #132]	; (6154 <vTaskSuspend+0x88>)
    60d0:	0004      	movs	r4, r0
    60d2:	4798      	blx	r3
    60d4:	4d20      	ldr	r5, [pc, #128]	; (6158 <vTaskSuspend+0x8c>)
    60d6:	2c00      	cmp	r4, #0
    60d8:	d100      	bne.n	60dc <vTaskSuspend+0x10>
    60da:	682c      	ldr	r4, [r5, #0]
    60dc:	1d27      	adds	r7, r4, #4
    60de:	0038      	movs	r0, r7
    60e0:	4e1e      	ldr	r6, [pc, #120]	; (615c <vTaskSuspend+0x90>)
    60e2:	47b0      	blx	r6
    60e4:	6aa3      	ldr	r3, [r4, #40]	; 0x28
    60e6:	2b00      	cmp	r3, #0
    60e8:	d002      	beq.n	60f0 <vTaskSuspend+0x24>
    60ea:	0020      	movs	r0, r4
    60ec:	3018      	adds	r0, #24
    60ee:	47b0      	blx	r6
    60f0:	4e1b      	ldr	r6, [pc, #108]	; (6160 <vTaskSuspend+0x94>)
    60f2:	4b1c      	ldr	r3, [pc, #112]	; (6164 <vTaskSuspend+0x98>)
    60f4:	0039      	movs	r1, r7
    60f6:	0030      	movs	r0, r6
    60f8:	4798      	blx	r3
    60fa:	0023      	movs	r3, r4
    60fc:	3354      	adds	r3, #84	; 0x54
    60fe:	781a      	ldrb	r2, [r3, #0]
    6100:	2a01      	cmp	r2, #1
    6102:	d101      	bne.n	6108 <vTaskSuspend+0x3c>
    6104:	2200      	movs	r2, #0
    6106:	701a      	strb	r2, [r3, #0]
    6108:	4b17      	ldr	r3, [pc, #92]	; (6168 <vTaskSuspend+0x9c>)
    610a:	4798      	blx	r3
    610c:	4f17      	ldr	r7, [pc, #92]	; (616c <vTaskSuspend+0xa0>)
    610e:	683b      	ldr	r3, [r7, #0]
    6110:	2b00      	cmp	r3, #0
    6112:	d005      	beq.n	6120 <vTaskSuspend+0x54>
    6114:	4b0f      	ldr	r3, [pc, #60]	; (6154 <vTaskSuspend+0x88>)
    6116:	4798      	blx	r3
    6118:	4b15      	ldr	r3, [pc, #84]	; (6170 <vTaskSuspend+0xa4>)
    611a:	4798      	blx	r3
    611c:	4b12      	ldr	r3, [pc, #72]	; (6168 <vTaskSuspend+0x9c>)
    611e:	4798      	blx	r3
    6120:	682b      	ldr	r3, [r5, #0]
    6122:	429c      	cmp	r4, r3
    6124:	d10a      	bne.n	613c <vTaskSuspend+0x70>
    6126:	683b      	ldr	r3, [r7, #0]
    6128:	2b00      	cmp	r3, #0
    612a:	d008      	beq.n	613e <vTaskSuspend+0x72>
    612c:	4b11      	ldr	r3, [pc, #68]	; (6174 <vTaskSuspend+0xa8>)
    612e:	681b      	ldr	r3, [r3, #0]
    6130:	2b00      	cmp	r3, #0
    6132:	d001      	beq.n	6138 <vTaskSuspend+0x6c>
    6134:	b672      	cpsid	i
    6136:	e7fe      	b.n	6136 <vTaskSuspend+0x6a>
    6138:	4b0f      	ldr	r3, [pc, #60]	; (6178 <vTaskSuspend+0xac>)
    613a:	4798      	blx	r3
    613c:	bdf8      	pop	{r3, r4, r5, r6, r7, pc}
    613e:	4a0f      	ldr	r2, [pc, #60]	; (617c <vTaskSuspend+0xb0>)
    6140:	6831      	ldr	r1, [r6, #0]
    6142:	6812      	ldr	r2, [r2, #0]
    6144:	4291      	cmp	r1, r2
    6146:	d101      	bne.n	614c <vTaskSuspend+0x80>
    6148:	602b      	str	r3, [r5, #0]
    614a:	e7f7      	b.n	613c <vTaskSuspend+0x70>
    614c:	4b0c      	ldr	r3, [pc, #48]	; (6180 <vTaskSuspend+0xb4>)
    614e:	4798      	blx	r3
    6150:	e7f4      	b.n	613c <vTaskSuspend+0x70>
    6152:	46c0      	nop			; (mov r8, r8)
    6154:	00003345 	.word	0x00003345
    6158:	200039dc 	.word	0x200039dc
    615c:	00005287 	.word	0x00005287
    6160:	20003ab0 	.word	0x20003ab0
    6164:	00005241 	.word	0x00005241
    6168:	0000335d 	.word	0x0000335d
    616c:	20003aac 	.word	0x20003aac
    6170:	00005911 	.word	0x00005911
    6174:	20003a58 	.word	0x20003a58
    6178:	0000332d 	.word	0x0000332d
    617c:	20003a4c 	.word	0x20003a4c
    6180:	00006031 	.word	0x00006031

00006184 <vTaskPlaceOnEventList>:
    6184:	b510      	push	{r4, lr}
    6186:	000c      	movs	r4, r1
    6188:	2800      	cmp	r0, #0
    618a:	d101      	bne.n	6190 <vTaskPlaceOnEventList+0xc>
    618c:	b672      	cpsid	i
    618e:	e7fe      	b.n	618e <vTaskPlaceOnEventList+0xa>
    6190:	4b04      	ldr	r3, [pc, #16]	; (61a4 <vTaskPlaceOnEventList+0x20>)
    6192:	6819      	ldr	r1, [r3, #0]
    6194:	4b04      	ldr	r3, [pc, #16]	; (61a8 <vTaskPlaceOnEventList+0x24>)
    6196:	3118      	adds	r1, #24
    6198:	4798      	blx	r3
    619a:	2101      	movs	r1, #1
    619c:	0020      	movs	r0, r4
    619e:	4b03      	ldr	r3, [pc, #12]	; (61ac <vTaskPlaceOnEventList+0x28>)
    61a0:	4798      	blx	r3
    61a2:	bd10      	pop	{r4, pc}
    61a4:	200039dc 	.word	0x200039dc
    61a8:	00005259 	.word	0x00005259
    61ac:	00005939 	.word	0x00005939

000061b0 <vTaskPlaceOnEventListRestricted>:
    61b0:	b570      	push	{r4, r5, r6, lr}
    61b2:	000c      	movs	r4, r1
    61b4:	0015      	movs	r5, r2
    61b6:	2800      	cmp	r0, #0
    61b8:	d101      	bne.n	61be <vTaskPlaceOnEventListRestricted+0xe>
    61ba:	b672      	cpsid	i
    61bc:	e7fe      	b.n	61bc <vTaskPlaceOnEventListRestricted+0xc>
    61be:	4b07      	ldr	r3, [pc, #28]	; (61dc <vTaskPlaceOnEventListRestricted+0x2c>)
    61c0:	6819      	ldr	r1, [r3, #0]
    61c2:	4b07      	ldr	r3, [pc, #28]	; (61e0 <vTaskPlaceOnEventListRestricted+0x30>)
    61c4:	3118      	adds	r1, #24
    61c6:	4798      	blx	r3
    61c8:	2d00      	cmp	r5, #0
    61ca:	d001      	beq.n	61d0 <vTaskPlaceOnEventListRestricted+0x20>
    61cc:	2401      	movs	r4, #1
    61ce:	4264      	negs	r4, r4
    61d0:	0029      	movs	r1, r5
    61d2:	0020      	movs	r0, r4
    61d4:	4b03      	ldr	r3, [pc, #12]	; (61e4 <vTaskPlaceOnEventListRestricted+0x34>)
    61d6:	4798      	blx	r3
    61d8:	bd70      	pop	{r4, r5, r6, pc}
    61da:	46c0      	nop			; (mov r8, r8)
    61dc:	200039dc 	.word	0x200039dc
    61e0:	00005241 	.word	0x00005241
    61e4:	00005939 	.word	0x00005939

000061e8 <xTaskRemoveFromEventList>:
    61e8:	b5f8      	push	{r3, r4, r5, r6, r7, lr}
    61ea:	68c3      	ldr	r3, [r0, #12]
    61ec:	68dc      	ldr	r4, [r3, #12]
    61ee:	2c00      	cmp	r4, #0
    61f0:	d101      	bne.n	61f6 <xTaskRemoveFromEventList+0xe>
    61f2:	b672      	cpsid	i
    61f4:	e7fe      	b.n	61f4 <xTaskRemoveFromEventList+0xc>
    61f6:	0026      	movs	r6, r4
    61f8:	3618      	adds	r6, #24
    61fa:	0030      	movs	r0, r6
    61fc:	4f11      	ldr	r7, [pc, #68]	; (6244 <xTaskRemoveFromEventList+0x5c>)
    61fe:	47b8      	blx	r7
    6200:	4b11      	ldr	r3, [pc, #68]	; (6248 <xTaskRemoveFromEventList+0x60>)
    6202:	4d12      	ldr	r5, [pc, #72]	; (624c <xTaskRemoveFromEventList+0x64>)
    6204:	681b      	ldr	r3, [r3, #0]
    6206:	2b00      	cmp	r3, #0
    6208:	d119      	bne.n	623e <xTaskRemoveFromEventList+0x56>
    620a:	1d26      	adds	r6, r4, #4
    620c:	0030      	movs	r0, r6
    620e:	47b8      	blx	r7
    6210:	4a0f      	ldr	r2, [pc, #60]	; (6250 <xTaskRemoveFromEventList+0x68>)
    6212:	6ae3      	ldr	r3, [r4, #44]	; 0x2c
    6214:	6811      	ldr	r1, [r2, #0]
    6216:	428b      	cmp	r3, r1
    6218:	d900      	bls.n	621c <xTaskRemoveFromEventList+0x34>
    621a:	6013      	str	r3, [r2, #0]
    621c:	2014      	movs	r0, #20
    621e:	0031      	movs	r1, r6
    6220:	4343      	muls	r3, r0
    6222:	480c      	ldr	r0, [pc, #48]	; (6254 <xTaskRemoveFromEventList+0x6c>)
    6224:	18c0      	adds	r0, r0, r3
    6226:	47a8      	blx	r5
    6228:	4b0b      	ldr	r3, [pc, #44]	; (6258 <xTaskRemoveFromEventList+0x70>)
    622a:	6ae2      	ldr	r2, [r4, #44]	; 0x2c
    622c:	681b      	ldr	r3, [r3, #0]
    622e:	2000      	movs	r0, #0
    6230:	6adb      	ldr	r3, [r3, #44]	; 0x2c
    6232:	429a      	cmp	r2, r3
    6234:	d902      	bls.n	623c <xTaskRemoveFromEventList+0x54>
    6236:	4b09      	ldr	r3, [pc, #36]	; (625c <xTaskRemoveFromEventList+0x74>)
    6238:	3001      	adds	r0, #1
    623a:	6018      	str	r0, [r3, #0]
    623c:	bdf8      	pop	{r3, r4, r5, r6, r7, pc}
    623e:	0031      	movs	r1, r6
    6240:	4807      	ldr	r0, [pc, #28]	; (6260 <xTaskRemoveFromEventList+0x78>)
    6242:	e7f0      	b.n	6226 <xTaskRemoveFromEventList+0x3e>
    6244:	00005287 	.word	0x00005287
    6248:	20003a58 	.word	0x20003a58
    624c:	00005241 	.word	0x00005241
    6250:	20003a60 	.word	0x20003a60
    6254:	200039e8 	.word	0x200039e8
    6258:	200039dc 	.word	0x200039dc
    625c:	20003adc 	.word	0x20003adc
    6260:	20003a98 	.word	0x20003a98

00006264 <vTaskInternalSetTimeOutState>:
    6264:	4b03      	ldr	r3, [pc, #12]	; (6274 <vTaskInternalSetTimeOutState+0x10>)
    6266:	681b      	ldr	r3, [r3, #0]
    6268:	6003      	str	r3, [r0, #0]
    626a:	4b03      	ldr	r3, [pc, #12]	; (6278 <vTaskInternalSetTimeOutState+0x14>)
    626c:	681b      	ldr	r3, [r3, #0]
    626e:	6043      	str	r3, [r0, #4]
    6270:	4770      	bx	lr
    6272:	46c0      	nop			; (mov r8, r8)
    6274:	20003a94 	.word	0x20003a94
    6278:	20003ad8 	.word	0x20003ad8

0000627c <xTaskCheckForTimeOut>:
    627c:	b570      	push	{r4, r5, r6, lr}
    627e:	0005      	movs	r5, r0
    6280:	000c      	movs	r4, r1
    6282:	2800      	cmp	r0, #0
    6284:	d101      	bne.n	628a <xTaskCheckForTimeOut+0xe>
    6286:	b672      	cpsid	i
    6288:	e7fe      	b.n	6288 <xTaskCheckForTimeOut+0xc>
    628a:	2900      	cmp	r1, #0
    628c:	d101      	bne.n	6292 <xTaskCheckForTimeOut+0x16>
    628e:	b672      	cpsid	i
    6290:	e7fe      	b.n	6290 <xTaskCheckForTimeOut+0x14>
    6292:	4b11      	ldr	r3, [pc, #68]	; (62d8 <xTaskCheckForTimeOut+0x5c>)
    6294:	4798      	blx	r3
    6296:	4b11      	ldr	r3, [pc, #68]	; (62dc <xTaskCheckForTimeOut+0x60>)
    6298:	6869      	ldr	r1, [r5, #4]
    629a:	681a      	ldr	r2, [r3, #0]
    629c:	6823      	ldr	r3, [r4, #0]
    629e:	2600      	movs	r6, #0
    62a0:	1c58      	adds	r0, r3, #1
    62a2:	d010      	beq.n	62c6 <xTaskCheckForTimeOut+0x4a>
    62a4:	480e      	ldr	r0, [pc, #56]	; (62e0 <xTaskCheckForTimeOut+0x64>)
    62a6:	682e      	ldr	r6, [r5, #0]
    62a8:	6800      	ldr	r0, [r0, #0]
    62aa:	4286      	cmp	r6, r0
    62ac:	d002      	beq.n	62b4 <xTaskCheckForTimeOut+0x38>
    62ae:	2601      	movs	r6, #1
    62b0:	428a      	cmp	r2, r1
    62b2:	d208      	bcs.n	62c6 <xTaskCheckForTimeOut+0x4a>
    62b4:	1a52      	subs	r2, r2, r1
    62b6:	429a      	cmp	r2, r3
    62b8:	d209      	bcs.n	62ce <xTaskCheckForTimeOut+0x52>
    62ba:	1a9b      	subs	r3, r3, r2
    62bc:	6023      	str	r3, [r4, #0]
    62be:	0028      	movs	r0, r5
    62c0:	4b08      	ldr	r3, [pc, #32]	; (62e4 <xTaskCheckForTimeOut+0x68>)
    62c2:	4798      	blx	r3
    62c4:	2600      	movs	r6, #0
    62c6:	4b08      	ldr	r3, [pc, #32]	; (62e8 <xTaskCheckForTimeOut+0x6c>)
    62c8:	4798      	blx	r3
    62ca:	0030      	movs	r0, r6
    62cc:	bd70      	pop	{r4, r5, r6, pc}
    62ce:	2300      	movs	r3, #0
    62d0:	2601      	movs	r6, #1
    62d2:	6023      	str	r3, [r4, #0]
    62d4:	e7f7      	b.n	62c6 <xTaskCheckForTimeOut+0x4a>
    62d6:	46c0      	nop			; (mov r8, r8)
    62d8:	00003345 	.word	0x00003345
    62dc:	20003ad8 	.word	0x20003ad8
    62e0:	20003a94 	.word	0x20003a94
    62e4:	00006265 	.word	0x00006265
    62e8:	0000335d 	.word	0x0000335d

000062ec <vTaskMissedYield>:
    62ec:	2201      	movs	r2, #1
    62ee:	4b01      	ldr	r3, [pc, #4]	; (62f4 <vTaskMissedYield+0x8>)
    62f0:	601a      	str	r2, [r3, #0]
    62f2:	4770      	bx	lr
    62f4:	20003adc 	.word	0x20003adc

000062f8 <xTaskGetSchedulerState>:
    62f8:	4b05      	ldr	r3, [pc, #20]	; (6310 <xTaskGetSchedulerState+0x18>)
    62fa:	2001      	movs	r0, #1
    62fc:	681b      	ldr	r3, [r3, #0]
    62fe:	2b00      	cmp	r3, #0
    6300:	d004      	beq.n	630c <xTaskGetSchedulerState+0x14>
    6302:	4b04      	ldr	r3, [pc, #16]	; (6314 <xTaskGetSchedulerState+0x1c>)
    6304:	6818      	ldr	r0, [r3, #0]
    6306:	4243      	negs	r3, r0
    6308:	4158      	adcs	r0, r3
    630a:	0040      	lsls	r0, r0, #1
    630c:	4770      	bx	lr
    630e:	46c0      	nop			; (mov r8, r8)
    6310:	20003aac 	.word	0x20003aac
    6314:	20003a58 	.word	0x20003a58

00006318 <xTaskPriorityDisinherit>:
    6318:	b570      	push	{r4, r5, r6, lr}
    631a:	1e04      	subs	r4, r0, #0
    631c:	d101      	bne.n	6322 <xTaskPriorityDisinherit+0xa>
    631e:	2000      	movs	r0, #0
    6320:	bd70      	pop	{r4, r5, r6, pc}
    6322:	4b15      	ldr	r3, [pc, #84]	; (6378 <xTaskPriorityDisinherit+0x60>)
    6324:	681b      	ldr	r3, [r3, #0]
    6326:	4298      	cmp	r0, r3
    6328:	d001      	beq.n	632e <xTaskPriorityDisinherit+0x16>
    632a:	b672      	cpsid	i
    632c:	e7fe      	b.n	632c <xTaskPriorityDisinherit+0x14>
    632e:	6cc3      	ldr	r3, [r0, #76]	; 0x4c
    6330:	2b00      	cmp	r3, #0
    6332:	d101      	bne.n	6338 <xTaskPriorityDisinherit+0x20>
    6334:	b672      	cpsid	i
    6336:	e7fe      	b.n	6336 <xTaskPriorityDisinherit+0x1e>
    6338:	6ac2      	ldr	r2, [r0, #44]	; 0x2c
    633a:	6c81      	ldr	r1, [r0, #72]	; 0x48
    633c:	3b01      	subs	r3, #1
    633e:	64c3      	str	r3, [r0, #76]	; 0x4c
    6340:	428a      	cmp	r2, r1
    6342:	d0ec      	beq.n	631e <xTaskPriorityDisinherit+0x6>
    6344:	2b00      	cmp	r3, #0
    6346:	d1ea      	bne.n	631e <xTaskPriorityDisinherit+0x6>
    6348:	1d05      	adds	r5, r0, #4
    634a:	4b0c      	ldr	r3, [pc, #48]	; (637c <xTaskPriorityDisinherit+0x64>)
    634c:	0028      	movs	r0, r5
    634e:	4798      	blx	r3
    6350:	2305      	movs	r3, #5
    6352:	6ca0      	ldr	r0, [r4, #72]	; 0x48
    6354:	1a1b      	subs	r3, r3, r0
    6356:	61a3      	str	r3, [r4, #24]
    6358:	4b09      	ldr	r3, [pc, #36]	; (6380 <xTaskPriorityDisinherit+0x68>)
    635a:	62e0      	str	r0, [r4, #44]	; 0x2c
    635c:	681a      	ldr	r2, [r3, #0]
    635e:	4290      	cmp	r0, r2
    6360:	d900      	bls.n	6364 <xTaskPriorityDisinherit+0x4c>
    6362:	6018      	str	r0, [r3, #0]
    6364:	2314      	movs	r3, #20
    6366:	4343      	muls	r3, r0
    6368:	4806      	ldr	r0, [pc, #24]	; (6384 <xTaskPriorityDisinherit+0x6c>)
    636a:	0029      	movs	r1, r5
    636c:	18c0      	adds	r0, r0, r3
    636e:	4b06      	ldr	r3, [pc, #24]	; (6388 <xTaskPriorityDisinherit+0x70>)
    6370:	4798      	blx	r3
    6372:	2001      	movs	r0, #1
    6374:	e7d4      	b.n	6320 <xTaskPriorityDisinherit+0x8>
    6376:	46c0      	nop			; (mov r8, r8)
    6378:	200039dc 	.word	0x200039dc
    637c:	00005287 	.word	0x00005287
    6380:	20003a60 	.word	0x20003a60
    6384:	200039e8 	.word	0x200039e8
    6388:	00005241 	.word	0x00005241

0000638c <prvCheckForValidListAndQueue>:
    638c:	b5f7      	push	{r0, r1, r2, r4, r5, r6, r7, lr}
    638e:	4b10      	ldr	r3, [pc, #64]	; (63d0 <prvCheckForValidListAndQueue+0x44>)
    6390:	4798      	blx	r3
    6392:	4c10      	ldr	r4, [pc, #64]	; (63d4 <prvCheckForValidListAndQueue+0x48>)
    6394:	6823      	ldr	r3, [r4, #0]
    6396:	9301      	str	r3, [sp, #4]
    6398:	2b00      	cmp	r3, #0
    639a:	d115      	bne.n	63c8 <prvCheckForValidListAndQueue+0x3c>
    639c:	4e0e      	ldr	r6, [pc, #56]	; (63d8 <prvCheckForValidListAndQueue+0x4c>)
    639e:	4f0f      	ldr	r7, [pc, #60]	; (63dc <prvCheckForValidListAndQueue+0x50>)
    63a0:	0030      	movs	r0, r6
    63a2:	47b8      	blx	r7
    63a4:	4d0e      	ldr	r5, [pc, #56]	; (63e0 <prvCheckForValidListAndQueue+0x54>)
    63a6:	0028      	movs	r0, r5
    63a8:	47b8      	blx	r7
    63aa:	4b0e      	ldr	r3, [pc, #56]	; (63e4 <prvCheckForValidListAndQueue+0x58>)
    63ac:	9a01      	ldr	r2, [sp, #4]
    63ae:	601e      	str	r6, [r3, #0]
    63b0:	4b0d      	ldr	r3, [pc, #52]	; (63e8 <prvCheckForValidListAndQueue+0x5c>)
    63b2:	2110      	movs	r1, #16
    63b4:	601d      	str	r5, [r3, #0]
    63b6:	200a      	movs	r0, #10
    63b8:	4b0c      	ldr	r3, [pc, #48]	; (63ec <prvCheckForValidListAndQueue+0x60>)
    63ba:	4798      	blx	r3
    63bc:	6020      	str	r0, [r4, #0]
    63be:	2800      	cmp	r0, #0
    63c0:	d002      	beq.n	63c8 <prvCheckForValidListAndQueue+0x3c>
    63c2:	490b      	ldr	r1, [pc, #44]	; (63f0 <prvCheckForValidListAndQueue+0x64>)
    63c4:	4b0b      	ldr	r3, [pc, #44]	; (63f4 <prvCheckForValidListAndQueue+0x68>)
    63c6:	4798      	blx	r3
    63c8:	4b0b      	ldr	r3, [pc, #44]	; (63f8 <prvCheckForValidListAndQueue+0x6c>)
    63ca:	4798      	blx	r3
    63cc:	bdf7      	pop	{r0, r1, r2, r4, r5, r6, r7, pc}
    63ce:	46c0      	nop			; (mov r8, r8)
    63d0:	00003345 	.word	0x00003345
    63d4:	20003b14 	.word	0x20003b14
    63d8:	20003ae8 	.word	0x20003ae8
    63dc:	00005225 	.word	0x00005225
    63e0:	20003afc 	.word	0x20003afc
    63e4:	20003ae0 	.word	0x20003ae0
    63e8:	20003ae4 	.word	0x20003ae4
    63ec:	000054d5 	.word	0x000054d5
    63f0:	0000b944 	.word	0x0000b944
    63f4:	00005865 	.word	0x00005865
    63f8:	0000335d 	.word	0x0000335d

000063fc <prvInsertTimerInActiveList>:
    63fc:	b510      	push	{r4, lr}
    63fe:	6041      	str	r1, [r0, #4]
    6400:	6100      	str	r0, [r0, #16]
    6402:	4291      	cmp	r1, r2
    6404:	d80c      	bhi.n	6420 <prvInsertTimerInActiveList+0x24>
    6406:	1ad2      	subs	r2, r2, r3
    6408:	6983      	ldr	r3, [r0, #24]
    640a:	2401      	movs	r4, #1
    640c:	429a      	cmp	r2, r3
    640e:	d205      	bcs.n	641c <prvInsertTimerInActiveList+0x20>
    6410:	4b07      	ldr	r3, [pc, #28]	; (6430 <prvInsertTimerInActiveList+0x34>)
    6412:	1d01      	adds	r1, r0, #4
    6414:	6818      	ldr	r0, [r3, #0]
    6416:	4b07      	ldr	r3, [pc, #28]	; (6434 <prvInsertTimerInActiveList+0x38>)
    6418:	4798      	blx	r3
    641a:	2400      	movs	r4, #0
    641c:	0020      	movs	r0, r4
    641e:	bd10      	pop	{r4, pc}
    6420:	429a      	cmp	r2, r3
    6422:	d202      	bcs.n	642a <prvInsertTimerInActiveList+0x2e>
    6424:	2401      	movs	r4, #1
    6426:	4299      	cmp	r1, r3
    6428:	d2f8      	bcs.n	641c <prvInsertTimerInActiveList+0x20>
    642a:	1d01      	adds	r1, r0, #4
    642c:	4b02      	ldr	r3, [pc, #8]	; (6438 <prvInsertTimerInActiveList+0x3c>)
    642e:	e7f1      	b.n	6414 <prvInsertTimerInActiveList+0x18>
    6430:	20003ae4 	.word	0x20003ae4
    6434:	00005259 	.word	0x00005259
    6438:	20003ae0 	.word	0x20003ae0

0000643c <xTimerCreateTimerTask>:
    643c:	4b0a      	ldr	r3, [pc, #40]	; (6468 <xTimerCreateTimerTask+0x2c>)
    643e:	b513      	push	{r0, r1, r4, lr}
    6440:	4798      	blx	r3
    6442:	4b0a      	ldr	r3, [pc, #40]	; (646c <xTimerCreateTimerTask+0x30>)
    6444:	681b      	ldr	r3, [r3, #0]
    6446:	2b00      	cmp	r3, #0
    6448:	d101      	bne.n	644e <xTimerCreateTimerTask+0x12>
    644a:	b672      	cpsid	i
    644c:	e7fe      	b.n	644c <xTimerCreateTimerTask+0x10>
    644e:	4b08      	ldr	r3, [pc, #32]	; (6470 <xTimerCreateTimerTask+0x34>)
    6450:	4a08      	ldr	r2, [pc, #32]	; (6474 <xTimerCreateTimerTask+0x38>)
    6452:	9301      	str	r3, [sp, #4]
    6454:	2304      	movs	r3, #4
    6456:	4908      	ldr	r1, [pc, #32]	; (6478 <xTimerCreateTimerTask+0x3c>)
    6458:	9300      	str	r3, [sp, #0]
    645a:	4808      	ldr	r0, [pc, #32]	; (647c <xTimerCreateTimerTask+0x40>)
    645c:	2300      	movs	r3, #0
    645e:	4c08      	ldr	r4, [pc, #32]	; (6480 <xTimerCreateTimerTask+0x44>)
    6460:	47a0      	blx	r4
    6462:	2800      	cmp	r0, #0
    6464:	d0f1      	beq.n	644a <xTimerCreateTimerTask+0xe>
    6466:	bd16      	pop	{r1, r2, r4, pc}
    6468:	0000638d 	.word	0x0000638d
    646c:	20003b14 	.word	0x20003b14
    6470:	20003b18 	.word	0x20003b18
    6474:	0000028a 	.word	0x0000028a
    6478:	0000b949 	.word	0x0000b949
    647c:	00006591 	.word	0x00006591
    6480:	00005a25 	.word	0x00005a25

00006484 <xTimerCreate>:
    6484:	b5f7      	push	{r0, r1, r2, r4, r5, r6, r7, lr}
    6486:	0007      	movs	r7, r0
    6488:	9301      	str	r3, [sp, #4]
    648a:	202c      	movs	r0, #44	; 0x2c
    648c:	4b0b      	ldr	r3, [pc, #44]	; (64bc <xTimerCreate+0x38>)
    648e:	000d      	movs	r5, r1
    6490:	0016      	movs	r6, r2
    6492:	4798      	blx	r3
    6494:	1e04      	subs	r4, r0, #0
    6496:	d00f      	beq.n	64b8 <xTimerCreate+0x34>
    6498:	2d00      	cmp	r5, #0
    649a:	d101      	bne.n	64a0 <xTimerCreate+0x1c>
    649c:	b672      	cpsid	i
    649e:	e7fe      	b.n	649e <xTimerCreate+0x1a>
    64a0:	4b07      	ldr	r3, [pc, #28]	; (64c0 <xTimerCreate+0x3c>)
    64a2:	4798      	blx	r3
    64a4:	9b01      	ldr	r3, [sp, #4]
    64a6:	6027      	str	r7, [r4, #0]
    64a8:	6223      	str	r3, [r4, #32]
    64aa:	9b08      	ldr	r3, [sp, #32]
    64ac:	61a5      	str	r5, [r4, #24]
    64ae:	6263      	str	r3, [r4, #36]	; 0x24
    64b0:	61e6      	str	r6, [r4, #28]
    64b2:	1d20      	adds	r0, r4, #4
    64b4:	4b03      	ldr	r3, [pc, #12]	; (64c4 <xTimerCreate+0x40>)
    64b6:	4798      	blx	r3
    64b8:	0020      	movs	r0, r4
    64ba:	bdfe      	pop	{r1, r2, r3, r4, r5, r6, r7, pc}
    64bc:	00003451 	.word	0x00003451
    64c0:	0000638d 	.word	0x0000638d
    64c4:	0000523b 	.word	0x0000523b

000064c8 <xTimerGenericCommand>:
    64c8:	b5f0      	push	{r4, r5, r6, r7, lr}
    64ca:	0017      	movs	r7, r2
    64cc:	b085      	sub	sp, #20
    64ce:	0006      	movs	r6, r0
    64d0:	001a      	movs	r2, r3
    64d2:	2800      	cmp	r0, #0
    64d4:	d101      	bne.n	64da <xTimerGenericCommand+0x12>
    64d6:	b672      	cpsid	i
    64d8:	e7fe      	b.n	64d8 <xTimerGenericCommand+0x10>
    64da:	4d0d      	ldr	r5, [pc, #52]	; (6510 <xTimerGenericCommand+0x48>)
    64dc:	682c      	ldr	r4, [r5, #0]
    64de:	1e20      	subs	r0, r4, #0
    64e0:	d00f      	beq.n	6502 <xTimerGenericCommand+0x3a>
    64e2:	9100      	str	r1, [sp, #0]
    64e4:	9701      	str	r7, [sp, #4]
    64e6:	9602      	str	r6, [sp, #8]
    64e8:	2905      	cmp	r1, #5
    64ea:	dc0c      	bgt.n	6506 <xTimerGenericCommand+0x3e>
    64ec:	4b09      	ldr	r3, [pc, #36]	; (6514 <xTimerGenericCommand+0x4c>)
    64ee:	4798      	blx	r3
    64f0:	4c09      	ldr	r4, [pc, #36]	; (6518 <xTimerGenericCommand+0x50>)
    64f2:	2300      	movs	r3, #0
    64f4:	9a0a      	ldr	r2, [sp, #40]	; 0x28
    64f6:	2802      	cmp	r0, #2
    64f8:	d000      	beq.n	64fc <xTimerGenericCommand+0x34>
    64fa:	001a      	movs	r2, r3
    64fc:	4669      	mov	r1, sp
    64fe:	6828      	ldr	r0, [r5, #0]
    6500:	47a0      	blx	r4
    6502:	b005      	add	sp, #20
    6504:	bdf0      	pop	{r4, r5, r6, r7, pc}
    6506:	0020      	movs	r0, r4
    6508:	2300      	movs	r3, #0
    650a:	4669      	mov	r1, sp
    650c:	4c03      	ldr	r4, [pc, #12]	; (651c <xTimerGenericCommand+0x54>)
    650e:	e7f7      	b.n	6500 <xTimerGenericCommand+0x38>
    6510:	20003b14 	.word	0x20003b14
    6514:	000062f9 	.word	0x000062f9
    6518:	00005525 	.word	0x00005525
    651c:	00005681 	.word	0x00005681

00006520 <prvSwitchTimerLists>:
    6520:	b5f7      	push	{r0, r1, r2, r4, r5, r6, r7, lr}
    6522:	4d16      	ldr	r5, [pc, #88]	; (657c <prvSwitchTimerLists+0x5c>)
    6524:	682b      	ldr	r3, [r5, #0]
    6526:	681a      	ldr	r2, [r3, #0]
    6528:	2a00      	cmp	r2, #0
    652a:	d104      	bne.n	6536 <prvSwitchTimerLists+0x16>
    652c:	4a14      	ldr	r2, [pc, #80]	; (6580 <prvSwitchTimerLists+0x60>)
    652e:	6811      	ldr	r1, [r2, #0]
    6530:	6013      	str	r3, [r2, #0]
    6532:	6029      	str	r1, [r5, #0]
    6534:	bdf7      	pop	{r0, r1, r2, r4, r5, r6, r7, pc}
    6536:	68db      	ldr	r3, [r3, #12]
    6538:	68dc      	ldr	r4, [r3, #12]
    653a:	681e      	ldr	r6, [r3, #0]
    653c:	1d27      	adds	r7, r4, #4
    653e:	4b11      	ldr	r3, [pc, #68]	; (6584 <prvSwitchTimerLists+0x64>)
    6540:	0038      	movs	r0, r7
    6542:	4798      	blx	r3
    6544:	6a63      	ldr	r3, [r4, #36]	; 0x24
    6546:	0020      	movs	r0, r4
    6548:	4798      	blx	r3
    654a:	69e3      	ldr	r3, [r4, #28]
    654c:	2b01      	cmp	r3, #1
    654e:	d1e8      	bne.n	6522 <prvSwitchTimerLists+0x2>
    6550:	69a3      	ldr	r3, [r4, #24]
    6552:	18f3      	adds	r3, r6, r3
    6554:	429e      	cmp	r6, r3
    6556:	d206      	bcs.n	6566 <prvSwitchTimerLists+0x46>
    6558:	6063      	str	r3, [r4, #4]
    655a:	6124      	str	r4, [r4, #16]
    655c:	0039      	movs	r1, r7
    655e:	6828      	ldr	r0, [r5, #0]
    6560:	4b09      	ldr	r3, [pc, #36]	; (6588 <prvSwitchTimerLists+0x68>)
    6562:	4798      	blx	r3
    6564:	e7dd      	b.n	6522 <prvSwitchTimerLists+0x2>
    6566:	2100      	movs	r1, #0
    6568:	0020      	movs	r0, r4
    656a:	9100      	str	r1, [sp, #0]
    656c:	000b      	movs	r3, r1
    656e:	0032      	movs	r2, r6
    6570:	4c06      	ldr	r4, [pc, #24]	; (658c <prvSwitchTimerLists+0x6c>)
    6572:	47a0      	blx	r4
    6574:	2800      	cmp	r0, #0
    6576:	d1d4      	bne.n	6522 <prvSwitchTimerLists+0x2>
    6578:	b672      	cpsid	i
    657a:	e7fe      	b.n	657a <prvSwitchTimerLists+0x5a>
    657c:	20003ae0 	.word	0x20003ae0
    6580:	20003ae4 	.word	0x20003ae4
    6584:	00005287 	.word	0x00005287
    6588:	00005259 	.word	0x00005259
    658c:	000064c9 	.word	0x000064c9

00006590 <prvTimerTask>:
    6590:	b5f0      	push	{r4, r5, r6, r7, lr}
    6592:	b089      	sub	sp, #36	; 0x24
    6594:	2700      	movs	r7, #0
    6596:	4b5b      	ldr	r3, [pc, #364]	; (6704 <prvTimerTask+0x174>)
    6598:	681b      	ldr	r3, [r3, #0]
    659a:	681a      	ldr	r2, [r3, #0]
    659c:	9203      	str	r2, [sp, #12]
    659e:	42ba      	cmp	r2, r7
    65a0:	d001      	beq.n	65a6 <prvTimerTask+0x16>
    65a2:	68db      	ldr	r3, [r3, #12]
    65a4:	681f      	ldr	r7, [r3, #0]
    65a6:	4b58      	ldr	r3, [pc, #352]	; (6708 <prvTimerTask+0x178>)
    65a8:	4798      	blx	r3
    65aa:	4b58      	ldr	r3, [pc, #352]	; (670c <prvTimerTask+0x17c>)
    65ac:	4798      	blx	r3
    65ae:	4d58      	ldr	r5, [pc, #352]	; (6710 <prvTimerTask+0x180>)
    65b0:	0004      	movs	r4, r0
    65b2:	682b      	ldr	r3, [r5, #0]
    65b4:	2600      	movs	r6, #0
    65b6:	4298      	cmp	r0, r3
    65b8:	d202      	bcs.n	65c0 <prvTimerTask+0x30>
    65ba:	4b56      	ldr	r3, [pc, #344]	; (6714 <prvTimerTask+0x184>)
    65bc:	4798      	blx	r3
    65be:	3601      	adds	r6, #1
    65c0:	602c      	str	r4, [r5, #0]
    65c2:	4d55      	ldr	r5, [pc, #340]	; (6718 <prvTimerTask+0x188>)
    65c4:	2e00      	cmp	r6, #0
    65c6:	d171      	bne.n	66ac <prvTimerTask+0x11c>
    65c8:	9b03      	ldr	r3, [sp, #12]
    65ca:	2b00      	cmp	r3, #0
    65cc:	d05d      	beq.n	668a <prvTimerTask+0xfa>
    65ce:	0030      	movs	r0, r6
    65d0:	42a7      	cmp	r7, r4
    65d2:	d85f      	bhi.n	6694 <prvTimerTask+0x104>
    65d4:	47a8      	blx	r5
    65d6:	4b4b      	ldr	r3, [pc, #300]	; (6704 <prvTimerTask+0x174>)
    65d8:	681b      	ldr	r3, [r3, #0]
    65da:	68db      	ldr	r3, [r3, #12]
    65dc:	68dd      	ldr	r5, [r3, #12]
    65de:	4b4f      	ldr	r3, [pc, #316]	; (671c <prvTimerTask+0x18c>)
    65e0:	1d28      	adds	r0, r5, #4
    65e2:	4798      	blx	r3
    65e4:	69eb      	ldr	r3, [r5, #28]
    65e6:	2b01      	cmp	r3, #1
    65e8:	d113      	bne.n	6612 <prvTimerTask+0x82>
    65ea:	69ab      	ldr	r3, [r5, #24]
    65ec:	0022      	movs	r2, r4
    65ee:	18f9      	adds	r1, r7, r3
    65f0:	0028      	movs	r0, r5
    65f2:	003b      	movs	r3, r7
    65f4:	4c4a      	ldr	r4, [pc, #296]	; (6720 <prvTimerTask+0x190>)
    65f6:	47a0      	blx	r4
    65f8:	2800      	cmp	r0, #0
    65fa:	d00a      	beq.n	6612 <prvTimerTask+0x82>
    65fc:	9600      	str	r6, [sp, #0]
    65fe:	0033      	movs	r3, r6
    6600:	003a      	movs	r2, r7
    6602:	0031      	movs	r1, r6
    6604:	0028      	movs	r0, r5
    6606:	4c47      	ldr	r4, [pc, #284]	; (6724 <prvTimerTask+0x194>)
    6608:	47a0      	blx	r4
    660a:	2800      	cmp	r0, #0
    660c:	d101      	bne.n	6612 <prvTimerTask+0x82>
    660e:	b672      	cpsid	i
    6610:	e7fe      	b.n	6610 <prvTimerTask+0x80>
    6612:	6a6b      	ldr	r3, [r5, #36]	; 0x24
    6614:	0028      	movs	r0, r5
    6616:	4798      	blx	r3
    6618:	2784      	movs	r7, #132	; 0x84
    661a:	00bf      	lsls	r7, r7, #2
    661c:	4b42      	ldr	r3, [pc, #264]	; (6728 <prvTimerTask+0x198>)
    661e:	2200      	movs	r2, #0
    6620:	6818      	ldr	r0, [r3, #0]
    6622:	a904      	add	r1, sp, #16
    6624:	4b41      	ldr	r3, [pc, #260]	; (672c <prvTimerTask+0x19c>)
    6626:	4798      	blx	r3
    6628:	2800      	cmp	r0, #0
    662a:	d0b3      	beq.n	6594 <prvTimerTask+0x4>
    662c:	9b04      	ldr	r3, [sp, #16]
    662e:	2b00      	cmp	r3, #0
    6630:	da04      	bge.n	663c <prvTimerTask+0xac>
    6632:	9b05      	ldr	r3, [sp, #20]
    6634:	9907      	ldr	r1, [sp, #28]
    6636:	9806      	ldr	r0, [sp, #24]
    6638:	9303      	str	r3, [sp, #12]
    663a:	4798      	blx	r3
    663c:	9b04      	ldr	r3, [sp, #16]
    663e:	9303      	str	r3, [sp, #12]
    6640:	2b00      	cmp	r3, #0
    6642:	dbeb      	blt.n	661c <prvTimerTask+0x8c>
    6644:	9c06      	ldr	r4, [sp, #24]
    6646:	6963      	ldr	r3, [r4, #20]
    6648:	2b00      	cmp	r3, #0
    664a:	d002      	beq.n	6652 <prvTimerTask+0xc2>
    664c:	1d20      	adds	r0, r4, #4
    664e:	4b33      	ldr	r3, [pc, #204]	; (671c <prvTimerTask+0x18c>)
    6650:	4798      	blx	r3
    6652:	4b2e      	ldr	r3, [pc, #184]	; (670c <prvTimerTask+0x17c>)
    6654:	4798      	blx	r3
    6656:	4e2e      	ldr	r6, [pc, #184]	; (6710 <prvTimerTask+0x180>)
    6658:	0005      	movs	r5, r0
    665a:	6833      	ldr	r3, [r6, #0]
    665c:	4298      	cmp	r0, r3
    665e:	d201      	bcs.n	6664 <prvTimerTask+0xd4>
    6660:	4b2c      	ldr	r3, [pc, #176]	; (6714 <prvTimerTask+0x184>)
    6662:	4798      	blx	r3
    6664:	9b04      	ldr	r3, [sp, #16]
    6666:	6035      	str	r5, [r6, #0]
    6668:	2b09      	cmp	r3, #9
    666a:	d8d7      	bhi.n	661c <prvTimerTask+0x8c>
    666c:	2201      	movs	r2, #1
    666e:	409a      	lsls	r2, r3
    6670:	0016      	movs	r6, r2
    6672:	0013      	movs	r3, r2
    6674:	403e      	ands	r6, r7
    6676:	d138      	bne.n	66ea <prvTimerTask+0x15a>
    6678:	22c7      	movs	r2, #199	; 0xc7
    667a:	4213      	tst	r3, r2
    667c:	d118      	bne.n	66b0 <prvTimerTask+0x120>
    667e:	069b      	lsls	r3, r3, #26
    6680:	d5cc      	bpl.n	661c <prvTimerTask+0x8c>
    6682:	0020      	movs	r0, r4
    6684:	4b2a      	ldr	r3, [pc, #168]	; (6730 <prvTimerTask+0x1a0>)
    6686:	4798      	blx	r3
    6688:	e7c8      	b.n	661c <prvTimerTask+0x8c>
    668a:	4b2a      	ldr	r3, [pc, #168]	; (6734 <prvTimerTask+0x1a4>)
    668c:	681b      	ldr	r3, [r3, #0]
    668e:	681a      	ldr	r2, [r3, #0]
    6690:	4250      	negs	r0, r2
    6692:	4150      	adcs	r0, r2
    6694:	4b24      	ldr	r3, [pc, #144]	; (6728 <prvTimerTask+0x198>)
    6696:	0002      	movs	r2, r0
    6698:	1b39      	subs	r1, r7, r4
    669a:	6818      	ldr	r0, [r3, #0]
    669c:	4b26      	ldr	r3, [pc, #152]	; (6738 <prvTimerTask+0x1a8>)
    669e:	4798      	blx	r3
    66a0:	47a8      	blx	r5
    66a2:	2800      	cmp	r0, #0
    66a4:	d1b8      	bne.n	6618 <prvTimerTask+0x88>
    66a6:	4b25      	ldr	r3, [pc, #148]	; (673c <prvTimerTask+0x1ac>)
    66a8:	4798      	blx	r3
    66aa:	e7b5      	b.n	6618 <prvTimerTask+0x88>
    66ac:	47a8      	blx	r5
    66ae:	e7b3      	b.n	6618 <prvTimerTask+0x88>
    66b0:	9b05      	ldr	r3, [sp, #20]
    66b2:	69a2      	ldr	r2, [r4, #24]
    66b4:	0020      	movs	r0, r4
    66b6:	1899      	adds	r1, r3, r2
    66b8:	002a      	movs	r2, r5
    66ba:	4d19      	ldr	r5, [pc, #100]	; (6720 <prvTimerTask+0x190>)
    66bc:	9303      	str	r3, [sp, #12]
    66be:	47a8      	blx	r5
    66c0:	2800      	cmp	r0, #0
    66c2:	d0ab      	beq.n	661c <prvTimerTask+0x8c>
    66c4:	6a63      	ldr	r3, [r4, #36]	; 0x24
    66c6:	0020      	movs	r0, r4
    66c8:	4798      	blx	r3
    66ca:	69e3      	ldr	r3, [r4, #28]
    66cc:	2b01      	cmp	r3, #1
    66ce:	d1a5      	bne.n	661c <prvTimerTask+0x8c>
    66d0:	69a3      	ldr	r3, [r4, #24]
    66d2:	9a05      	ldr	r2, [sp, #20]
    66d4:	0020      	movs	r0, r4
    66d6:	18d2      	adds	r2, r2, r3
    66d8:	9600      	str	r6, [sp, #0]
    66da:	0033      	movs	r3, r6
    66dc:	0031      	movs	r1, r6
    66de:	4c11      	ldr	r4, [pc, #68]	; (6724 <prvTimerTask+0x194>)
    66e0:	47a0      	blx	r4
    66e2:	2800      	cmp	r0, #0
    66e4:	d19a      	bne.n	661c <prvTimerTask+0x8c>
    66e6:	b672      	cpsid	i
    66e8:	e7fe      	b.n	66e8 <prvTimerTask+0x158>
    66ea:	9905      	ldr	r1, [sp, #20]
    66ec:	61a1      	str	r1, [r4, #24]
    66ee:	2900      	cmp	r1, #0
    66f0:	d101      	bne.n	66f6 <prvTimerTask+0x166>
    66f2:	b672      	cpsid	i
    66f4:	e7fe      	b.n	66f4 <prvTimerTask+0x164>
    66f6:	1949      	adds	r1, r1, r5
    66f8:	002b      	movs	r3, r5
    66fa:	002a      	movs	r2, r5
    66fc:	0020      	movs	r0, r4
    66fe:	4c08      	ldr	r4, [pc, #32]	; (6720 <prvTimerTask+0x190>)
    6700:	47a0      	blx	r4
    6702:	e78b      	b.n	661c <prvTimerTask+0x8c>
    6704:	20003ae0 	.word	0x20003ae0
    6708:	00005d51 	.word	0x00005d51
    670c:	00005d61 	.word	0x00005d61
    6710:	20003b10 	.word	0x20003b10
    6714:	00006521 	.word	0x00006521
    6718:	00005e89 	.word	0x00005e89
    671c:	00005287 	.word	0x00005287
    6720:	000063fd 	.word	0x000063fd
    6724:	000064c9 	.word	0x000064c9
    6728:	20003b14 	.word	0x20003b14
    672c:	00005739 	.word	0x00005739
    6730:	00003569 	.word	0x00003569
    6734:	20003ae4 	.word	0x20003ae4
    6738:	00005889 	.word	0x00005889
    673c:	0000332d 	.word	0x0000332d

00006740 <wdt_set_config>:
    6740:	b537      	push	{r0, r1, r2, r4, r5, lr}
    6742:	0005      	movs	r5, r0
    6744:	2010      	movs	r0, #16
    6746:	4a2f      	ldr	r2, [pc, #188]	; (6804 <wdt_set_config+0xc4>)
    6748:	4c2f      	ldr	r4, [pc, #188]	; (6808 <wdt_set_config+0xc8>)
    674a:	6993      	ldr	r3, [r2, #24]
    674c:	4303      	orrs	r3, r0
    674e:	6193      	str	r3, [r2, #24]
    6750:	7823      	ldrb	r3, [r4, #0]
    6752:	b25b      	sxtb	r3, r3
    6754:	2b00      	cmp	r3, #0
    6756:	db45      	blt.n	67e4 <wdt_set_config+0xa4>
    6758:	78eb      	ldrb	r3, [r5, #3]
    675a:	3007      	adds	r0, #7
    675c:	2b00      	cmp	r3, #0
    675e:	d041      	beq.n	67e4 <wdt_set_config+0xa4>
    6760:	792a      	ldrb	r2, [r5, #4]
    6762:	429a      	cmp	r2, r3
    6764:	d83e      	bhi.n	67e4 <wdt_set_config+0xa4>
    6766:	796a      	ldrb	r2, [r5, #5]
    6768:	429a      	cmp	r2, r3
    676a:	d83b      	bhi.n	67e4 <wdt_set_config+0xa4>
    676c:	2202      	movs	r2, #2
    676e:	7823      	ldrb	r3, [r4, #0]
    6770:	4393      	bics	r3, r2
    6772:	7023      	strb	r3, [r4, #0]
    6774:	79e3      	ldrb	r3, [r4, #7]
    6776:	b25b      	sxtb	r3, r3
    6778:	2b00      	cmp	r3, #0
    677a:	dbfb      	blt.n	6774 <wdt_set_config+0x34>
    677c:	786b      	ldrb	r3, [r5, #1]
    677e:	2b00      	cmp	r3, #0
    6780:	d02f      	beq.n	67e2 <wdt_set_config+0xa2>
    6782:	78ab      	ldrb	r3, [r5, #2]
    6784:	a901      	add	r1, sp, #4
    6786:	700b      	strb	r3, [r1, #0]
    6788:	2003      	movs	r0, #3
    678a:	4b20      	ldr	r3, [pc, #128]	; (680c <wdt_set_config+0xcc>)
    678c:	4798      	blx	r3
    678e:	4b20      	ldr	r3, [pc, #128]	; (6810 <wdt_set_config+0xd0>)
    6790:	2003      	movs	r0, #3
    6792:	4798      	blx	r3
    6794:	782b      	ldrb	r3, [r5, #0]
    6796:	2b00      	cmp	r3, #0
    6798:	d002      	beq.n	67a0 <wdt_set_config+0x60>
    679a:	2003      	movs	r0, #3
    679c:	4b1d      	ldr	r3, [pc, #116]	; (6814 <wdt_set_config+0xd4>)
    679e:	4798      	blx	r3
    67a0:	78eb      	ldrb	r3, [r5, #3]
    67a2:	7929      	ldrb	r1, [r5, #4]
    67a4:	3b01      	subs	r3, #1
    67a6:	2204      	movs	r2, #4
    67a8:	2900      	cmp	r1, #0
    67aa:	d01c      	beq.n	67e6 <wdt_set_config+0xa6>
    67ac:	7821      	ldrb	r1, [r4, #0]
    67ae:	430a      	orrs	r2, r1
    67b0:	7022      	strb	r2, [r4, #0]
    67b2:	792a      	ldrb	r2, [r5, #4]
    67b4:	3a01      	subs	r2, #1
    67b6:	0112      	lsls	r2, r2, #4
    67b8:	4313      	orrs	r3, r2
    67ba:	79e2      	ldrb	r2, [r4, #7]
    67bc:	b252      	sxtb	r2, r2
    67be:	2a00      	cmp	r2, #0
    67c0:	dbfb      	blt.n	67ba <wdt_set_config+0x7a>
    67c2:	b2db      	uxtb	r3, r3
    67c4:	7063      	strb	r3, [r4, #1]
    67c6:	796b      	ldrb	r3, [r5, #5]
    67c8:	2b00      	cmp	r3, #0
    67ca:	d110      	bne.n	67ee <wdt_set_config+0xae>
    67cc:	782b      	ldrb	r3, [r5, #0]
    67ce:	2b00      	cmp	r3, #0
    67d0:	d015      	beq.n	67fe <wdt_set_config+0xbe>
    67d2:	2280      	movs	r2, #128	; 0x80
    67d4:	7823      	ldrb	r3, [r4, #0]
    67d6:	4313      	orrs	r3, r2
    67d8:	7023      	strb	r3, [r4, #0]
    67da:	79e3      	ldrb	r3, [r4, #7]
    67dc:	b25b      	sxtb	r3, r3
    67de:	2b00      	cmp	r3, #0
    67e0:	dbfb      	blt.n	67da <wdt_set_config+0x9a>
    67e2:	2000      	movs	r0, #0
    67e4:	bd3e      	pop	{r1, r2, r3, r4, r5, pc}
    67e6:	7821      	ldrb	r1, [r4, #0]
    67e8:	4391      	bics	r1, r2
    67ea:	7021      	strb	r1, [r4, #0]
    67ec:	e7e5      	b.n	67ba <wdt_set_config+0x7a>
    67ee:	79e2      	ldrb	r2, [r4, #7]
    67f0:	b252      	sxtb	r2, r2
    67f2:	2a00      	cmp	r2, #0
    67f4:	dbfb      	blt.n	67ee <wdt_set_config+0xae>
    67f6:	3b01      	subs	r3, #1
    67f8:	b2db      	uxtb	r3, r3
    67fa:	70a3      	strb	r3, [r4, #2]
    67fc:	e7e6      	b.n	67cc <wdt_set_config+0x8c>
    67fe:	7822      	ldrb	r2, [r4, #0]
    6800:	2302      	movs	r3, #2
    6802:	e7e8      	b.n	67d6 <wdt_set_config+0x96>
    6804:	40000400 	.word	0x40000400
    6808:	40001000 	.word	0x40001000
    680c:	00007969 	.word	0x00007969
    6810:	000078e1 	.word	0x000078e1
    6814:	00007985 	.word	0x00007985

00006818 <wdt_reset_count>:
    6818:	22a5      	movs	r2, #165	; 0xa5
    681a:	4b03      	ldr	r3, [pc, #12]	; (6828 <wdt_reset_count+0x10>)
    681c:	721a      	strb	r2, [r3, #8]
    681e:	79da      	ldrb	r2, [r3, #7]
    6820:	b252      	sxtb	r2, r2
    6822:	2a00      	cmp	r2, #0
    6824:	dbfb      	blt.n	681e <wdt_reset_count+0x6>
    6826:	4770      	bx	lr
    6828:	40001000 	.word	0x40001000

0000682c <WDT_Handler>:
    682c:	2201      	movs	r2, #1
    682e:	b510      	push	{r4, lr}
    6830:	4b03      	ldr	r3, [pc, #12]	; (6840 <WDT_Handler+0x14>)
    6832:	719a      	strb	r2, [r3, #6]
    6834:	4b03      	ldr	r3, [pc, #12]	; (6844 <WDT_Handler+0x18>)
    6836:	681b      	ldr	r3, [r3, #0]
    6838:	2b00      	cmp	r3, #0
    683a:	d000      	beq.n	683e <WDT_Handler+0x12>
    683c:	4798      	blx	r3
    683e:	bd10      	pop	{r4, pc}
    6840:	40001000 	.word	0x40001000
    6844:	20003f78 	.word	0x20003f78

00006848 <port_pin_set_output_level>:
    6848:	2200      	movs	r2, #0
    684a:	b510      	push	{r4, lr}
    684c:	0943      	lsrs	r3, r0, #5
    684e:	09c4      	lsrs	r4, r0, #7
    6850:	4294      	cmp	r4, r2
    6852:	d102      	bne.n	685a <port_pin_set_output_level+0x12>
    6854:	01da      	lsls	r2, r3, #7
    6856:	4b06      	ldr	r3, [pc, #24]	; (6870 <port_pin_set_output_level+0x28>)
    6858:	18d2      	adds	r2, r2, r3
    685a:	231f      	movs	r3, #31
    685c:	4018      	ands	r0, r3
    685e:	3b1e      	subs	r3, #30
    6860:	4083      	lsls	r3, r0
    6862:	2900      	cmp	r1, #0
    6864:	d001      	beq.n	686a <port_pin_set_output_level+0x22>
    6866:	6193      	str	r3, [r2, #24]
    6868:	bd10      	pop	{r4, pc}
    686a:	6153      	str	r3, [r2, #20]
    686c:	e7fc      	b.n	6868 <port_pin_set_output_level+0x20>
    686e:	46c0      	nop			; (mov r8, r8)
    6870:	41004400 	.word	0x41004400

00006874 <spi_is_ready_to_write>:
    6874:	6803      	ldr	r3, [r0, #0]
    6876:	7e18      	ldrb	r0, [r3, #24]
    6878:	2301      	movs	r3, #1
    687a:	4018      	ands	r0, r3
    687c:	4770      	bx	lr

0000687e <spi_is_ready_to_read>:
    687e:	6803      	ldr	r3, [r0, #0]
    6880:	7e18      	ldrb	r0, [r3, #24]
    6882:	0740      	lsls	r0, r0, #29
    6884:	0fc0      	lsrs	r0, r0, #31
    6886:	4770      	bx	lr

00006888 <spi_write>:
    6888:	b570      	push	{r4, r5, r6, lr}
    688a:	4b06      	ldr	r3, [pc, #24]	; (68a4 <spi_write+0x1c>)
    688c:	000c      	movs	r4, r1
    688e:	6805      	ldr	r5, [r0, #0]
    6890:	4798      	blx	r3
    6892:	2305      	movs	r3, #5
    6894:	2800      	cmp	r0, #0
    6896:	d003      	beq.n	68a0 <spi_write+0x18>
    6898:	2300      	movs	r3, #0
    689a:	05e4      	lsls	r4, r4, #23
    689c:	0de4      	lsrs	r4, r4, #23
    689e:	62ac      	str	r4, [r5, #40]	; 0x28
    68a0:	0018      	movs	r0, r3
    68a2:	bd70      	pop	{r4, r5, r6, pc}
    68a4:	00006875 	.word	0x00006875

000068a8 <spi_read>:
    68a8:	b570      	push	{r4, r5, r6, lr}
    68aa:	4b0d      	ldr	r3, [pc, #52]	; (68e0 <spi_read+0x38>)
    68ac:	0006      	movs	r6, r0
    68ae:	000c      	movs	r4, r1
    68b0:	6805      	ldr	r5, [r0, #0]
    68b2:	4798      	blx	r3
    68b4:	2210      	movs	r2, #16
    68b6:	2800      	cmp	r0, #0
    68b8:	d00d      	beq.n	68d6 <spi_read+0x2e>
    68ba:	2304      	movs	r3, #4
    68bc:	8b69      	ldrh	r1, [r5, #26]
    68be:	2200      	movs	r2, #0
    68c0:	4219      	tst	r1, r3
    68c2:	d001      	beq.n	68c8 <spi_read+0x20>
    68c4:	836b      	strh	r3, [r5, #26]
    68c6:	321e      	adds	r2, #30
    68c8:	79b3      	ldrb	r3, [r6, #6]
    68ca:	2b01      	cmp	r3, #1
    68cc:	d105      	bne.n	68da <spi_read+0x32>
    68ce:	6aab      	ldr	r3, [r5, #40]	; 0x28
    68d0:	05db      	lsls	r3, r3, #23
    68d2:	0ddb      	lsrs	r3, r3, #23
    68d4:	8023      	strh	r3, [r4, #0]
    68d6:	0010      	movs	r0, r2
    68d8:	bd70      	pop	{r4, r5, r6, pc}
    68da:	6aab      	ldr	r3, [r5, #40]	; 0x28
    68dc:	b2db      	uxtb	r3, r3
    68de:	e7f9      	b.n	68d4 <spi_read+0x2c>
    68e0:	0000687f 	.word	0x0000687f

000068e4 <spi_init>:
    68e4:	b5f0      	push	{r4, r5, r6, r7, lr}
    68e6:	0005      	movs	r5, r0
    68e8:	6029      	str	r1, [r5, #0]
    68ea:	0014      	movs	r4, r2
    68ec:	680a      	ldr	r2, [r1, #0]
    68ee:	b089      	sub	sp, #36	; 0x24
    68f0:	000e      	movs	r6, r1
    68f2:	231c      	movs	r3, #28
    68f4:	0792      	lsls	r2, r2, #30
    68f6:	d500      	bpl.n	68fa <spi_init+0x16>
    68f8:	e0d4      	b.n	6aa4 <spi_init+0x1c0>
    68fa:	2701      	movs	r7, #1
    68fc:	680b      	ldr	r3, [r1, #0]
    68fe:	403b      	ands	r3, r7
    6900:	9301      	str	r3, [sp, #4]
    6902:	9a01      	ldr	r2, [sp, #4]
    6904:	2305      	movs	r3, #5
    6906:	2a00      	cmp	r2, #0
    6908:	d000      	beq.n	690c <spi_init+0x28>
    690a:	e0cb      	b.n	6aa4 <spi_init+0x1c0>
    690c:	0008      	movs	r0, r1
    690e:	4b6a      	ldr	r3, [pc, #424]	; (6ab8 <spi_init+0x1d4>)
    6910:	4798      	blx	r3
    6912:	1c81      	adds	r1, r0, #2
    6914:	408f      	lsls	r7, r1
    6916:	4b69      	ldr	r3, [pc, #420]	; (6abc <spi_init+0x1d8>)
    6918:	3014      	adds	r0, #20
    691a:	6a1a      	ldr	r2, [r3, #32]
    691c:	4317      	orrs	r7, r2
    691e:	621f      	str	r7, [r3, #32]
    6920:	1d63      	adds	r3, r4, #5
    6922:	7fdb      	ldrb	r3, [r3, #31]
    6924:	aa02      	add	r2, sp, #8
    6926:	b2c7      	uxtb	r7, r0
    6928:	7013      	strb	r3, [r2, #0]
    692a:	0011      	movs	r1, r2
    692c:	0038      	movs	r0, r7
    692e:	4b64      	ldr	r3, [pc, #400]	; (6ac0 <spi_init+0x1dc>)
    6930:	4798      	blx	r3
    6932:	0038      	movs	r0, r7
    6934:	4b63      	ldr	r3, [pc, #396]	; (6ac4 <spi_init+0x1e0>)
    6936:	4798      	blx	r3
    6938:	1d63      	adds	r3, r4, #5
    693a:	7fd8      	ldrb	r0, [r3, #31]
    693c:	9901      	ldr	r1, [sp, #4]
    693e:	4b62      	ldr	r3, [pc, #392]	; (6ac8 <spi_init+0x1e4>)
    6940:	4798      	blx	r3
    6942:	7823      	ldrb	r3, [r4, #0]
    6944:	2b01      	cmp	r3, #1
    6946:	d103      	bne.n	6950 <spi_init+0x6c>
    6948:	6832      	ldr	r2, [r6, #0]
    694a:	330b      	adds	r3, #11
    694c:	4313      	orrs	r3, r2
    694e:	6033      	str	r3, [r6, #0]
    6950:	7823      	ldrb	r3, [r4, #0]
    6952:	2b00      	cmp	r3, #0
    6954:	d103      	bne.n	695e <spi_init+0x7a>
    6956:	6832      	ldr	r2, [r6, #0]
    6958:	3308      	adds	r3, #8
    695a:	4313      	orrs	r3, r2
    695c:	6033      	str	r3, [r6, #0]
    695e:	002b      	movs	r3, r5
    6960:	002a      	movs	r2, r5
    6962:	2600      	movs	r6, #0
    6964:	330c      	adds	r3, #12
    6966:	3228      	adds	r2, #40	; 0x28
    6968:	c340      	stmia	r3!, {r6}
    696a:	429a      	cmp	r2, r3
    696c:	d1fc      	bne.n	6968 <spi_init+0x84>
    696e:	002b      	movs	r3, r5
    6970:	3336      	adds	r3, #54	; 0x36
    6972:	86ae      	strh	r6, [r5, #52]	; 0x34
    6974:	62ee      	str	r6, [r5, #44]	; 0x2c
    6976:	862e      	strh	r6, [r5, #48]	; 0x30
    6978:	62ae      	str	r6, [r5, #40]	; 0x28
    697a:	701e      	strb	r6, [r3, #0]
    697c:	705e      	strb	r6, [r3, #1]
    697e:	709e      	strb	r6, [r3, #2]
    6980:	2303      	movs	r3, #3
    6982:	6828      	ldr	r0, [r5, #0]
    6984:	726b      	strb	r3, [r5, #9]
    6986:	4b4c      	ldr	r3, [pc, #304]	; (6ab8 <spi_init+0x1d4>)
    6988:	712e      	strb	r6, [r5, #4]
    698a:	4798      	blx	r3
    698c:	0007      	movs	r7, r0
    698e:	4b4f      	ldr	r3, [pc, #316]	; (6acc <spi_init+0x1e8>)
    6990:	494f      	ldr	r1, [pc, #316]	; (6ad0 <spi_init+0x1ec>)
    6992:	4798      	blx	r3
    6994:	4b4f      	ldr	r3, [pc, #316]	; (6ad4 <spi_init+0x1f0>)
    6996:	00bf      	lsls	r7, r7, #2
    6998:	50fd      	str	r5, [r7, r3]
    699a:	2380      	movs	r3, #128	; 0x80
    699c:	aa02      	add	r2, sp, #8
    699e:	7113      	strb	r3, [r2, #4]
    69a0:	2301      	movs	r3, #1
    69a2:	7193      	strb	r3, [r2, #6]
    69a4:	7823      	ldrb	r3, [r4, #0]
    69a6:	682f      	ldr	r7, [r5, #0]
    69a8:	7156      	strb	r6, [r2, #5]
    69aa:	71d6      	strb	r6, [r2, #7]
    69ac:	2b00      	cmp	r3, #0
    69ae:	d100      	bne.n	69b2 <spi_init+0xce>
    69b0:	7196      	strb	r6, [r2, #6]
    69b2:	2600      	movs	r6, #0
    69b4:	6aa3      	ldr	r3, [r4, #40]	; 0x28
    69b6:	9304      	str	r3, [sp, #16]
    69b8:	6ae3      	ldr	r3, [r4, #44]	; 0x2c
    69ba:	9305      	str	r3, [sp, #20]
    69bc:	6b23      	ldr	r3, [r4, #48]	; 0x30
    69be:	9306      	str	r3, [sp, #24]
    69c0:	6b63      	ldr	r3, [r4, #52]	; 0x34
    69c2:	9307      	str	r3, [sp, #28]
    69c4:	00b3      	lsls	r3, r6, #2
    69c6:	aa04      	add	r2, sp, #16
    69c8:	5898      	ldr	r0, [r3, r2]
    69ca:	b2f1      	uxtb	r1, r6
    69cc:	2800      	cmp	r0, #0
    69ce:	d102      	bne.n	69d6 <spi_init+0xf2>
    69d0:	0038      	movs	r0, r7
    69d2:	4b41      	ldr	r3, [pc, #260]	; (6ad8 <spi_init+0x1f4>)
    69d4:	4798      	blx	r3
    69d6:	1c43      	adds	r3, r0, #1
    69d8:	d006      	beq.n	69e8 <spi_init+0x104>
    69da:	ab02      	add	r3, sp, #8
    69dc:	7118      	strb	r0, [r3, #4]
    69de:	0c00      	lsrs	r0, r0, #16
    69e0:	b2c0      	uxtb	r0, r0
    69e2:	a903      	add	r1, sp, #12
    69e4:	4b3d      	ldr	r3, [pc, #244]	; (6adc <spi_init+0x1f8>)
    69e6:	4798      	blx	r3
    69e8:	3601      	adds	r6, #1
    69ea:	2e04      	cmp	r6, #4
    69ec:	d1ea      	bne.n	69c4 <spi_init+0xe0>
    69ee:	7823      	ldrb	r3, [r4, #0]
    69f0:	716b      	strb	r3, [r5, #5]
    69f2:	7c23      	ldrb	r3, [r4, #16]
    69f4:	71ab      	strb	r3, [r5, #6]
    69f6:	7ca3      	ldrb	r3, [r4, #18]
    69f8:	71eb      	strb	r3, [r5, #7]
    69fa:	7d23      	ldrb	r3, [r4, #20]
    69fc:	722b      	strb	r3, [r5, #8]
    69fe:	ab02      	add	r3, sp, #8
    6a00:	1c9e      	adds	r6, r3, #2
    6a02:	2300      	movs	r3, #0
    6a04:	8033      	strh	r3, [r6, #0]
    6a06:	7823      	ldrb	r3, [r4, #0]
    6a08:	2b01      	cmp	r3, #1
    6a0a:	d110      	bne.n	6a2e <spi_init+0x14a>
    6a0c:	4b2a      	ldr	r3, [pc, #168]	; (6ab8 <spi_init+0x1d4>)
    6a0e:	6828      	ldr	r0, [r5, #0]
    6a10:	4798      	blx	r3
    6a12:	3014      	adds	r0, #20
    6a14:	4b32      	ldr	r3, [pc, #200]	; (6ae0 <spi_init+0x1fc>)
    6a16:	b2c0      	uxtb	r0, r0
    6a18:	4798      	blx	r3
    6a1a:	4b32      	ldr	r3, [pc, #200]	; (6ae4 <spi_init+0x200>)
    6a1c:	0001      	movs	r1, r0
    6a1e:	0032      	movs	r2, r6
    6a20:	69a0      	ldr	r0, [r4, #24]
    6a22:	4798      	blx	r3
    6a24:	2317      	movs	r3, #23
    6a26:	2800      	cmp	r0, #0
    6a28:	d13c      	bne.n	6aa4 <spi_init+0x1c0>
    6a2a:	7833      	ldrb	r3, [r6, #0]
    6a2c:	733b      	strb	r3, [r7, #12]
    6a2e:	7823      	ldrb	r3, [r4, #0]
    6a30:	2b00      	cmp	r3, #0
    6a32:	d13d      	bne.n	6ab0 <spi_init+0x1cc>
    6a34:	7fe1      	ldrb	r1, [r4, #31]
    6a36:	7fa5      	ldrb	r5, [r4, #30]
    6a38:	6a7b      	ldr	r3, [r7, #36]	; 0x24
    6a3a:	0409      	lsls	r1, r1, #16
    6a3c:	4329      	orrs	r1, r5
    6a3e:	4319      	orrs	r1, r3
    6a40:	69a0      	ldr	r0, [r4, #24]
    6a42:	8ba2      	ldrh	r2, [r4, #28]
    6a44:	1c63      	adds	r3, r4, #1
    6a46:	6279      	str	r1, [r7, #36]	; 0x24
    6a48:	7fdb      	ldrb	r3, [r3, #31]
    6a4a:	2b00      	cmp	r3, #0
    6a4c:	d12d      	bne.n	6aaa <spi_init+0x1c6>
    6a4e:	0013      	movs	r3, r2
    6a50:	68a1      	ldr	r1, [r4, #8]
    6a52:	6862      	ldr	r2, [r4, #4]
    6a54:	430a      	orrs	r2, r1
    6a56:	68e1      	ldr	r1, [r4, #12]
    6a58:	430a      	orrs	r2, r1
    6a5a:	7c21      	ldrb	r1, [r4, #16]
    6a5c:	4302      	orrs	r2, r0
    6a5e:	430b      	orrs	r3, r1
    6a60:	7c61      	ldrb	r1, [r4, #17]
    6a62:	2900      	cmp	r1, #0
    6a64:	d103      	bne.n	6a6e <spi_init+0x18a>
    6a66:	4920      	ldr	r1, [pc, #128]	; (6ae8 <spi_init+0x204>)
    6a68:	7889      	ldrb	r1, [r1, #2]
    6a6a:	0789      	lsls	r1, r1, #30
    6a6c:	d501      	bpl.n	6a72 <spi_init+0x18e>
    6a6e:	2180      	movs	r1, #128	; 0x80
    6a70:	430a      	orrs	r2, r1
    6a72:	7ca1      	ldrb	r1, [r4, #18]
    6a74:	2900      	cmp	r1, #0
    6a76:	d002      	beq.n	6a7e <spi_init+0x19a>
    6a78:	2180      	movs	r1, #128	; 0x80
    6a7a:	0289      	lsls	r1, r1, #10
    6a7c:	430b      	orrs	r3, r1
    6a7e:	7ce1      	ldrb	r1, [r4, #19]
    6a80:	2900      	cmp	r1, #0
    6a82:	d002      	beq.n	6a8a <spi_init+0x1a6>
    6a84:	2180      	movs	r1, #128	; 0x80
    6a86:	0089      	lsls	r1, r1, #2
    6a88:	430b      	orrs	r3, r1
    6a8a:	7d21      	ldrb	r1, [r4, #20]
    6a8c:	2900      	cmp	r1, #0
    6a8e:	d002      	beq.n	6a96 <spi_init+0x1b2>
    6a90:	2180      	movs	r1, #128	; 0x80
    6a92:	0189      	lsls	r1, r1, #6
    6a94:	430b      	orrs	r3, r1
    6a96:	6839      	ldr	r1, [r7, #0]
    6a98:	430a      	orrs	r2, r1
    6a9a:	603a      	str	r2, [r7, #0]
    6a9c:	687a      	ldr	r2, [r7, #4]
    6a9e:	4313      	orrs	r3, r2
    6aa0:	607b      	str	r3, [r7, #4]
    6aa2:	2300      	movs	r3, #0
    6aa4:	0018      	movs	r0, r3
    6aa6:	b009      	add	sp, #36	; 0x24
    6aa8:	bdf0      	pop	{r4, r5, r6, r7, pc}
    6aaa:	2340      	movs	r3, #64	; 0x40
    6aac:	4313      	orrs	r3, r2
    6aae:	e7cf      	b.n	6a50 <spi_init+0x16c>
    6ab0:	2300      	movs	r3, #0
    6ab2:	0018      	movs	r0, r3
    6ab4:	e7cc      	b.n	6a50 <spi_init+0x16c>
    6ab6:	46c0      	nop			; (mov r8, r8)
    6ab8:	00006fa1 	.word	0x00006fa1
    6abc:	40000400 	.word	0x40000400
    6ac0:	00007969 	.word	0x00007969
    6ac4:	000078e1 	.word	0x000078e1
    6ac8:	00006e01 	.word	0x00006e01
    6acc:	00006fd5 	.word	0x00006fd5
    6ad0:	00006bdd 	.word	0x00006bdd
    6ad4:	20003f80 	.word	0x20003f80
    6ad8:	00006e45 	.word	0x00006e45
    6adc:	00007a6d 	.word	0x00007a6d
    6ae0:	000079b5 	.word	0x000079b5
    6ae4:	00006dd9 	.word	0x00006dd9
    6ae8:	41002000 	.word	0x41002000

00006aec <spi_select_slave>:
    6aec:	b5f0      	push	{r4, r5, r6, r7, lr}
    6aee:	7943      	ldrb	r3, [r0, #5]
    6af0:	b085      	sub	sp, #20
    6af2:	0005      	movs	r5, r0
    6af4:	000e      	movs	r6, r1
    6af6:	0014      	movs	r4, r2
    6af8:	9300      	str	r3, [sp, #0]
    6afa:	2015      	movs	r0, #21
    6afc:	2b01      	cmp	r3, #1
    6afe:	d104      	bne.n	6b0a <spi_select_slave+0x1e>
    6b00:	7a2b      	ldrb	r3, [r5, #8]
    6b02:	9301      	str	r3, [sp, #4]
    6b04:	2b00      	cmp	r3, #0
    6b06:	d002      	beq.n	6b0e <spi_select_slave+0x22>
    6b08:	2000      	movs	r0, #0
    6b0a:	b005      	add	sp, #20
    6b0c:	bdf0      	pop	{r4, r5, r6, r7, pc}
    6b0e:	4f18      	ldr	r7, [pc, #96]	; (6b70 <spi_select_slave+0x84>)
    6b10:	2a00      	cmp	r2, #0
    6b12:	d027      	beq.n	6b64 <spi_select_slave+0x78>
    6b14:	784c      	ldrb	r4, [r1, #1]
    6b16:	2c00      	cmp	r4, #0
    6b18:	d020      	beq.n	6b5c <spi_select_slave+0x70>
    6b1a:	4b16      	ldr	r3, [pc, #88]	; (6b74 <spi_select_slave+0x88>)
    6b1c:	0028      	movs	r0, r5
    6b1e:	4798      	blx	r3
    6b20:	0003      	movs	r3, r0
    6b22:	7830      	ldrb	r0, [r6, #0]
    6b24:	2b00      	cmp	r3, #0
    6b26:	d103      	bne.n	6b30 <spi_select_slave+0x44>
    6b28:	9900      	ldr	r1, [sp, #0]
    6b2a:	47b8      	blx	r7
    6b2c:	2005      	movs	r0, #5
    6b2e:	e7ec      	b.n	6b0a <spi_select_slave+0x1e>
    6b30:	9901      	ldr	r1, [sp, #4]
    6b32:	47b8      	blx	r7
    6b34:	4b10      	ldr	r3, [pc, #64]	; (6b78 <spi_select_slave+0x8c>)
    6b36:	78b1      	ldrb	r1, [r6, #2]
    6b38:	0028      	movs	r0, r5
    6b3a:	4798      	blx	r3
    6b3c:	79eb      	ldrb	r3, [r5, #7]
    6b3e:	2b00      	cmp	r3, #0
    6b40:	d1e2      	bne.n	6b08 <spi_select_slave+0x1c>
    6b42:	0028      	movs	r0, r5
    6b44:	4b0d      	ldr	r3, [pc, #52]	; (6b7c <spi_select_slave+0x90>)
    6b46:	4798      	blx	r3
    6b48:	2800      	cmp	r0, #0
    6b4a:	d0fa      	beq.n	6b42 <spi_select_slave+0x56>
    6b4c:	2400      	movs	r4, #0
    6b4e:	ab02      	add	r3, sp, #8
    6b50:	1d99      	adds	r1, r3, #6
    6b52:	0028      	movs	r0, r5
    6b54:	4b0a      	ldr	r3, [pc, #40]	; (6b80 <spi_select_slave+0x94>)
    6b56:	800c      	strh	r4, [r1, #0]
    6b58:	4798      	blx	r3
    6b5a:	e7d5      	b.n	6b08 <spi_select_slave+0x1c>
    6b5c:	7808      	ldrb	r0, [r1, #0]
    6b5e:	0021      	movs	r1, r4
    6b60:	47b8      	blx	r7
    6b62:	e7d1      	b.n	6b08 <spi_select_slave+0x1c>
    6b64:	7808      	ldrb	r0, [r1, #0]
    6b66:	9900      	ldr	r1, [sp, #0]
    6b68:	47b8      	blx	r7
    6b6a:	0020      	movs	r0, r4
    6b6c:	e7cd      	b.n	6b0a <spi_select_slave+0x1e>
    6b6e:	46c0      	nop			; (mov r8, r8)
    6b70:	00006849 	.word	0x00006849
    6b74:	00006875 	.word	0x00006875
    6b78:	00006889 	.word	0x00006889
    6b7c:	0000687f 	.word	0x0000687f
    6b80:	000068a9 	.word	0x000068a9

00006b84 <spi_register_callback>:
    6b84:	1c93      	adds	r3, r2, #2
    6b86:	009b      	lsls	r3, r3, #2
    6b88:	18c3      	adds	r3, r0, r3
    6b8a:	6059      	str	r1, [r3, #4]
    6b8c:	2301      	movs	r3, #1
    6b8e:	4093      	lsls	r3, r2
    6b90:	001a      	movs	r2, r3
    6b92:	3036      	adds	r0, #54	; 0x36
    6b94:	7803      	ldrb	r3, [r0, #0]
    6b96:	4313      	orrs	r3, r2
    6b98:	7003      	strb	r3, [r0, #0]
    6b9a:	4770      	bx	lr

00006b9c <spi_transceive_buffer_job>:
    6b9c:	b570      	push	{r4, r5, r6, lr}
    6b9e:	2417      	movs	r4, #23
    6ba0:	2b00      	cmp	r3, #0
    6ba2:	d018      	beq.n	6bd6 <spi_transceive_buffer_job+0x3a>
    6ba4:	79c5      	ldrb	r5, [r0, #7]
    6ba6:	3405      	adds	r4, #5
    6ba8:	2d00      	cmp	r5, #0
    6baa:	d014      	beq.n	6bd6 <spi_transceive_buffer_job+0x3a>
    6bac:	0005      	movs	r5, r0
    6bae:	3538      	adds	r5, #56	; 0x38
    6bb0:	782e      	ldrb	r6, [r5, #0]
    6bb2:	3c17      	subs	r4, #23
    6bb4:	42a6      	cmp	r6, r4
    6bb6:	d00e      	beq.n	6bd6 <spi_transceive_buffer_job+0x3a>
    6bb8:	6282      	str	r2, [r0, #40]	; 0x28
    6bba:	2202      	movs	r2, #2
    6bbc:	8683      	strh	r3, [r0, #52]	; 0x34
    6bbe:	62c1      	str	r1, [r0, #44]	; 0x2c
    6bc0:	8603      	strh	r3, [r0, #48]	; 0x30
    6bc2:	702c      	strb	r4, [r5, #0]
    6bc4:	6803      	ldr	r3, [r0, #0]
    6bc6:	7242      	strb	r2, [r0, #9]
    6bc8:	759c      	strb	r4, [r3, #22]
    6bca:	2400      	movs	r4, #0
    6bcc:	7941      	ldrb	r1, [r0, #5]
    6bce:	42a1      	cmp	r1, r4
    6bd0:	d101      	bne.n	6bd6 <spi_transceive_buffer_job+0x3a>
    6bd2:	761a      	strb	r2, [r3, #24]
    6bd4:	759a      	strb	r2, [r3, #22]
    6bd6:	0020      	movs	r0, r4
    6bd8:	bd70      	pop	{r4, r5, r6, pc}
	...

00006bdc <_spi_interrupt_handler>:
    6bdc:	b5f8      	push	{r3, r4, r5, r6, r7, lr}
    6bde:	4b7c      	ldr	r3, [pc, #496]	; (6dd0 <_spi_interrupt_handler+0x1f4>)
    6be0:	0080      	lsls	r0, r0, #2
    6be2:	58c4      	ldr	r4, [r0, r3]
    6be4:	0023      	movs	r3, r4
    6be6:	0022      	movs	r2, r4
    6be8:	3337      	adds	r3, #55	; 0x37
    6bea:	3236      	adds	r2, #54	; 0x36
    6bec:	6825      	ldr	r5, [r4, #0]
    6bee:	781b      	ldrb	r3, [r3, #0]
    6bf0:	7816      	ldrb	r6, [r2, #0]
    6bf2:	401e      	ands	r6, r3
    6bf4:	7e2b      	ldrb	r3, [r5, #24]
    6bf6:	7daf      	ldrb	r7, [r5, #22]
    6bf8:	401f      	ands	r7, r3
    6bfa:	07fb      	lsls	r3, r7, #31
    6bfc:	d539      	bpl.n	6c72 <_spi_interrupt_handler+0x96>
    6bfe:	7962      	ldrb	r2, [r4, #5]
    6c00:	0013      	movs	r3, r2
    6c02:	2a01      	cmp	r2, #1
    6c04:	d133      	bne.n	6c6e <_spi_interrupt_handler+0x92>
    6c06:	7a63      	ldrb	r3, [r4, #9]
    6c08:	2b00      	cmp	r3, #0
    6c0a:	d10d      	bne.n	6c28 <_spi_interrupt_handler+0x4c>
    6c0c:	4b71      	ldr	r3, [pc, #452]	; (6dd4 <_spi_interrupt_handler+0x1f8>)
    6c0e:	881b      	ldrh	r3, [r3, #0]
    6c10:	62ab      	str	r3, [r5, #40]	; 0x28
    6c12:	8e63      	ldrh	r3, [r4, #50]	; 0x32
    6c14:	3b01      	subs	r3, #1
    6c16:	b29b      	uxth	r3, r3
    6c18:	8663      	strh	r3, [r4, #50]	; 0x32
    6c1a:	8e63      	ldrh	r3, [r4, #50]	; 0x32
    6c1c:	2b00      	cmp	r3, #0
    6c1e:	d100      	bne.n	6c22 <_spi_interrupt_handler+0x46>
    6c20:	752a      	strb	r2, [r5, #20]
    6c22:	7963      	ldrb	r3, [r4, #5]
    6c24:	2b01      	cmp	r3, #1
    6c26:	d122      	bne.n	6c6e <_spi_interrupt_handler+0x92>
    6c28:	7a63      	ldrb	r3, [r4, #9]
    6c2a:	2b00      	cmp	r3, #0
    6c2c:	d021      	beq.n	6c72 <_spi_interrupt_handler+0x96>
    6c2e:	6ae1      	ldr	r1, [r4, #44]	; 0x2c
    6c30:	6822      	ldr	r2, [r4, #0]
    6c32:	1c48      	adds	r0, r1, #1
    6c34:	780b      	ldrb	r3, [r1, #0]
    6c36:	62e0      	str	r0, [r4, #44]	; 0x2c
    6c38:	79a0      	ldrb	r0, [r4, #6]
    6c3a:	b2db      	uxtb	r3, r3
    6c3c:	2801      	cmp	r0, #1
    6c3e:	d100      	bne.n	6c42 <_spi_interrupt_handler+0x66>
    6c40:	e074      	b.n	6d2c <_spi_interrupt_handler+0x150>
    6c42:	b29b      	uxth	r3, r3
    6c44:	05db      	lsls	r3, r3, #23
    6c46:	0ddb      	lsrs	r3, r3, #23
    6c48:	6293      	str	r3, [r2, #40]	; 0x28
    6c4a:	8ea3      	ldrh	r3, [r4, #52]	; 0x34
    6c4c:	3b01      	subs	r3, #1
    6c4e:	b29b      	uxth	r3, r3
    6c50:	86a3      	strh	r3, [r4, #52]	; 0x34
    6c52:	8ea3      	ldrh	r3, [r4, #52]	; 0x34
    6c54:	2b00      	cmp	r3, #0
    6c56:	d10c      	bne.n	6c72 <_spi_interrupt_handler+0x96>
    6c58:	3301      	adds	r3, #1
    6c5a:	752b      	strb	r3, [r5, #20]
    6c5c:	7a63      	ldrb	r3, [r4, #9]
    6c5e:	2b01      	cmp	r3, #1
    6c60:	d107      	bne.n	6c72 <_spi_interrupt_handler+0x96>
    6c62:	79e3      	ldrb	r3, [r4, #7]
    6c64:	2b00      	cmp	r3, #0
    6c66:	d104      	bne.n	6c72 <_spi_interrupt_handler+0x96>
    6c68:	3302      	adds	r3, #2
    6c6a:	75ab      	strb	r3, [r5, #22]
    6c6c:	e001      	b.n	6c72 <_spi_interrupt_handler+0x96>
    6c6e:	2b00      	cmp	r3, #0
    6c70:	d0da      	beq.n	6c28 <_spi_interrupt_handler+0x4c>
    6c72:	2104      	movs	r1, #4
    6c74:	420f      	tst	r7, r1
    6c76:	d015      	beq.n	6ca4 <_spi_interrupt_handler+0xc8>
    6c78:	8b6b      	ldrh	r3, [r5, #26]
    6c7a:	420b      	tst	r3, r1
    6c7c:	d05c      	beq.n	6d38 <_spi_interrupt_handler+0x15c>
    6c7e:	7a63      	ldrb	r3, [r4, #9]
    6c80:	2b01      	cmp	r3, #1
    6c82:	d00c      	beq.n	6c9e <_spi_interrupt_handler+0xc2>
    6c84:	0023      	movs	r3, r4
    6c86:	221e      	movs	r2, #30
    6c88:	3338      	adds	r3, #56	; 0x38
    6c8a:	701a      	strb	r2, [r3, #0]
    6c8c:	2303      	movs	r3, #3
    6c8e:	7263      	strb	r3, [r4, #9]
    6c90:	3302      	adds	r3, #2
    6c92:	752b      	strb	r3, [r5, #20]
    6c94:	0733      	lsls	r3, r6, #28
    6c96:	d502      	bpl.n	6c9e <_spi_interrupt_handler+0xc2>
    6c98:	0020      	movs	r0, r4
    6c9a:	69a3      	ldr	r3, [r4, #24]
    6c9c:	4798      	blx	r3
    6c9e:	6aab      	ldr	r3, [r5, #40]	; 0x28
    6ca0:	2304      	movs	r3, #4
    6ca2:	836b      	strh	r3, [r5, #26]
    6ca4:	2202      	movs	r2, #2
    6ca6:	4217      	tst	r7, r2
    6ca8:	d027      	beq.n	6cfa <_spi_interrupt_handler+0x11e>
    6caa:	7963      	ldrb	r3, [r4, #5]
    6cac:	2b00      	cmp	r3, #0
    6cae:	d10e      	bne.n	6cce <_spi_interrupt_handler+0xf2>
    6cb0:	2107      	movs	r1, #7
    6cb2:	7529      	strb	r1, [r5, #20]
    6cb4:	762a      	strb	r2, [r5, #24]
    6cb6:	3201      	adds	r2, #1
    6cb8:	7262      	strb	r2, [r4, #9]
    6cba:	0022      	movs	r2, r4
    6cbc:	3238      	adds	r2, #56	; 0x38
    6cbe:	86a3      	strh	r3, [r4, #52]	; 0x34
    6cc0:	8623      	strh	r3, [r4, #48]	; 0x30
    6cc2:	7013      	strb	r3, [r2, #0]
    6cc4:	06f3      	lsls	r3, r6, #27
    6cc6:	d502      	bpl.n	6cce <_spi_interrupt_handler+0xf2>
    6cc8:	0020      	movs	r0, r4
    6cca:	69e3      	ldr	r3, [r4, #28]
    6ccc:	4798      	blx	r3
    6cce:	7963      	ldrb	r3, [r4, #5]
    6cd0:	2b01      	cmp	r3, #1
    6cd2:	d112      	bne.n	6cfa <_spi_interrupt_handler+0x11e>
    6cd4:	7a63      	ldrb	r3, [r4, #9]
    6cd6:	b2db      	uxtb	r3, r3
    6cd8:	2b01      	cmp	r3, #1
    6cda:	d10e      	bne.n	6cfa <_spi_interrupt_handler+0x11e>
    6cdc:	79e2      	ldrb	r2, [r4, #7]
    6cde:	2a00      	cmp	r2, #0
    6ce0:	d10b      	bne.n	6cfa <_spi_interrupt_handler+0x11e>
    6ce2:	2102      	movs	r1, #2
    6ce4:	7529      	strb	r1, [r5, #20]
    6ce6:	3101      	adds	r1, #1
    6ce8:	7261      	strb	r1, [r4, #9]
    6cea:	0021      	movs	r1, r4
    6cec:	3138      	adds	r1, #56	; 0x38
    6cee:	700a      	strb	r2, [r1, #0]
    6cf0:	421e      	tst	r6, r3
    6cf2:	d002      	beq.n	6cfa <_spi_interrupt_handler+0x11e>
    6cf4:	0020      	movs	r0, r4
    6cf6:	68e3      	ldr	r3, [r4, #12]
    6cf8:	4798      	blx	r3
    6cfa:	2308      	movs	r3, #8
    6cfc:	421f      	tst	r7, r3
    6cfe:	d009      	beq.n	6d14 <_spi_interrupt_handler+0x138>
    6d00:	7962      	ldrb	r2, [r4, #5]
    6d02:	2a00      	cmp	r2, #0
    6d04:	d106      	bne.n	6d14 <_spi_interrupt_handler+0x138>
    6d06:	752b      	strb	r3, [r5, #20]
    6d08:	762b      	strb	r3, [r5, #24]
    6d0a:	06b3      	lsls	r3, r6, #26
    6d0c:	d502      	bpl.n	6d14 <_spi_interrupt_handler+0x138>
    6d0e:	0020      	movs	r0, r4
    6d10:	6a23      	ldr	r3, [r4, #32]
    6d12:	4798      	blx	r3
    6d14:	b27f      	sxtb	r7, r7
    6d16:	2f00      	cmp	r7, #0
    6d18:	da07      	bge.n	6d2a <_spi_interrupt_handler+0x14e>
    6d1a:	2380      	movs	r3, #128	; 0x80
    6d1c:	752b      	strb	r3, [r5, #20]
    6d1e:	762b      	strb	r3, [r5, #24]
    6d20:	0673      	lsls	r3, r6, #25
    6d22:	d502      	bpl.n	6d2a <_spi_interrupt_handler+0x14e>
    6d24:	6a63      	ldr	r3, [r4, #36]	; 0x24
    6d26:	0020      	movs	r0, r4
    6d28:	4798      	blx	r3
    6d2a:	bdf8      	pop	{r3, r4, r5, r6, r7, pc}
    6d2c:	7848      	ldrb	r0, [r1, #1]
    6d2e:	3102      	adds	r1, #2
    6d30:	0200      	lsls	r0, r0, #8
    6d32:	4303      	orrs	r3, r0
    6d34:	62e1      	str	r1, [r4, #44]	; 0x2c
    6d36:	e785      	b.n	6c44 <_spi_interrupt_handler+0x68>
    6d38:	7a62      	ldrb	r2, [r4, #9]
    6d3a:	6823      	ldr	r3, [r4, #0]
    6d3c:	b2d2      	uxtb	r2, r2
    6d3e:	6a9b      	ldr	r3, [r3, #40]	; 0x28
    6d40:	2a01      	cmp	r2, #1
    6d42:	d113      	bne.n	6d6c <_spi_interrupt_handler+0x190>
    6d44:	8e63      	ldrh	r3, [r4, #50]	; 0x32
    6d46:	3b01      	subs	r3, #1
    6d48:	b29b      	uxth	r3, r3
    6d4a:	8663      	strh	r3, [r4, #50]	; 0x32
    6d4c:	8e63      	ldrh	r3, [r4, #50]	; 0x32
    6d4e:	b29b      	uxth	r3, r3
    6d50:	2b00      	cmp	r3, #0
    6d52:	d1a7      	bne.n	6ca4 <_spi_interrupt_handler+0xc8>
    6d54:	7529      	strb	r1, [r5, #20]
    6d56:	0021      	movs	r1, r4
    6d58:	3138      	adds	r1, #56	; 0x38
    6d5a:	700b      	strb	r3, [r1, #0]
    6d5c:	3303      	adds	r3, #3
    6d5e:	7263      	strb	r3, [r4, #9]
    6d60:	4216      	tst	r6, r2
    6d62:	d09f      	beq.n	6ca4 <_spi_interrupt_handler+0xc8>
    6d64:	0020      	movs	r0, r4
    6d66:	68e3      	ldr	r3, [r4, #12]
    6d68:	4798      	blx	r3
    6d6a:	e79b      	b.n	6ca4 <_spi_interrupt_handler+0xc8>
    6d6c:	05db      	lsls	r3, r3, #23
    6d6e:	6aa1      	ldr	r1, [r4, #40]	; 0x28
    6d70:	0ddb      	lsrs	r3, r3, #23
    6d72:	b2da      	uxtb	r2, r3
    6d74:	700a      	strb	r2, [r1, #0]
    6d76:	6aa2      	ldr	r2, [r4, #40]	; 0x28
    6d78:	1c51      	adds	r1, r2, #1
    6d7a:	62a1      	str	r1, [r4, #40]	; 0x28
    6d7c:	79a1      	ldrb	r1, [r4, #6]
    6d7e:	2901      	cmp	r1, #1
    6d80:	d104      	bne.n	6d8c <_spi_interrupt_handler+0x1b0>
    6d82:	0a1b      	lsrs	r3, r3, #8
    6d84:	7053      	strb	r3, [r2, #1]
    6d86:	6aa3      	ldr	r3, [r4, #40]	; 0x28
    6d88:	3301      	adds	r3, #1
    6d8a:	62a3      	str	r3, [r4, #40]	; 0x28
    6d8c:	8e23      	ldrh	r3, [r4, #48]	; 0x30
    6d8e:	3b01      	subs	r3, #1
    6d90:	b29b      	uxth	r3, r3
    6d92:	8623      	strh	r3, [r4, #48]	; 0x30
    6d94:	8e23      	ldrh	r3, [r4, #48]	; 0x30
    6d96:	b29b      	uxth	r3, r3
    6d98:	2b00      	cmp	r3, #0
    6d9a:	d000      	beq.n	6d9e <_spi_interrupt_handler+0x1c2>
    6d9c:	e782      	b.n	6ca4 <_spi_interrupt_handler+0xc8>
    6d9e:	0022      	movs	r2, r4
    6da0:	3238      	adds	r2, #56	; 0x38
    6da2:	7013      	strb	r3, [r2, #0]
    6da4:	3304      	adds	r3, #4
    6da6:	752b      	strb	r3, [r5, #20]
    6da8:	7a62      	ldrb	r2, [r4, #9]
    6daa:	2a02      	cmp	r2, #2
    6dac:	d105      	bne.n	6dba <_spi_interrupt_handler+0x1de>
    6dae:	421e      	tst	r6, r3
    6db0:	d100      	bne.n	6db4 <_spi_interrupt_handler+0x1d8>
    6db2:	e777      	b.n	6ca4 <_spi_interrupt_handler+0xc8>
    6db4:	0020      	movs	r0, r4
    6db6:	6963      	ldr	r3, [r4, #20]
    6db8:	e7d6      	b.n	6d68 <_spi_interrupt_handler+0x18c>
    6dba:	7a63      	ldrb	r3, [r4, #9]
    6dbc:	2b00      	cmp	r3, #0
    6dbe:	d000      	beq.n	6dc2 <_spi_interrupt_handler+0x1e6>
    6dc0:	e770      	b.n	6ca4 <_spi_interrupt_handler+0xc8>
    6dc2:	07b3      	lsls	r3, r6, #30
    6dc4:	d400      	bmi.n	6dc8 <_spi_interrupt_handler+0x1ec>
    6dc6:	e76d      	b.n	6ca4 <_spi_interrupt_handler+0xc8>
    6dc8:	0020      	movs	r0, r4
    6dca:	6923      	ldr	r3, [r4, #16]
    6dcc:	e7cc      	b.n	6d68 <_spi_interrupt_handler+0x18c>
    6dce:	46c0      	nop			; (mov r8, r8)
    6dd0:	20003f80 	.word	0x20003f80
    6dd4:	20003f7c 	.word	0x20003f7c

00006dd8 <_sercom_get_sync_baud_val>:
    6dd8:	b510      	push	{r4, lr}
    6dda:	0849      	lsrs	r1, r1, #1
    6ddc:	0004      	movs	r4, r0
    6dde:	2300      	movs	r3, #0
    6de0:	2040      	movs	r0, #64	; 0x40
    6de2:	42a1      	cmp	r1, r4
    6de4:	d201      	bcs.n	6dea <_sercom_get_sync_baud_val+0x12>
    6de6:	bd10      	pop	{r4, pc}
    6de8:	0003      	movs	r3, r0
    6dea:	1c58      	adds	r0, r3, #1
    6dec:	1b09      	subs	r1, r1, r4
    6dee:	b280      	uxth	r0, r0
    6df0:	428c      	cmp	r4, r1
    6df2:	d9f9      	bls.n	6de8 <_sercom_get_sync_baud_val+0x10>
    6df4:	2040      	movs	r0, #64	; 0x40
    6df6:	2bff      	cmp	r3, #255	; 0xff
    6df8:	d8f5      	bhi.n	6de6 <_sercom_get_sync_baud_val+0xe>
    6dfa:	8013      	strh	r3, [r2, #0]
    6dfc:	2000      	movs	r0, #0
    6dfe:	e7f2      	b.n	6de6 <_sercom_get_sync_baud_val+0xe>

00006e00 <sercom_set_gclk_generator>:
    6e00:	b537      	push	{r0, r1, r2, r4, r5, lr}
    6e02:	4c0d      	ldr	r4, [pc, #52]	; (6e38 <sercom_set_gclk_generator+0x38>)
    6e04:	0005      	movs	r5, r0
    6e06:	7823      	ldrb	r3, [r4, #0]
    6e08:	2b00      	cmp	r3, #0
    6e0a:	d001      	beq.n	6e10 <sercom_set_gclk_generator+0x10>
    6e0c:	2900      	cmp	r1, #0
    6e0e:	d00c      	beq.n	6e2a <sercom_set_gclk_generator+0x2a>
    6e10:	a901      	add	r1, sp, #4
    6e12:	2013      	movs	r0, #19
    6e14:	4b09      	ldr	r3, [pc, #36]	; (6e3c <sercom_set_gclk_generator+0x3c>)
    6e16:	700d      	strb	r5, [r1, #0]
    6e18:	4798      	blx	r3
    6e1a:	2013      	movs	r0, #19
    6e1c:	4b08      	ldr	r3, [pc, #32]	; (6e40 <sercom_set_gclk_generator+0x40>)
    6e1e:	4798      	blx	r3
    6e20:	2301      	movs	r3, #1
    6e22:	2000      	movs	r0, #0
    6e24:	7065      	strb	r5, [r4, #1]
    6e26:	7023      	strb	r3, [r4, #0]
    6e28:	bd3e      	pop	{r1, r2, r3, r4, r5, pc}
    6e2a:	7863      	ldrb	r3, [r4, #1]
    6e2c:	0008      	movs	r0, r1
    6e2e:	42ab      	cmp	r3, r5
    6e30:	d0fa      	beq.n	6e28 <sercom_set_gclk_generator+0x28>
    6e32:	201d      	movs	r0, #29
    6e34:	e7f8      	b.n	6e28 <sercom_set_gclk_generator+0x28>
    6e36:	46c0      	nop			; (mov r8, r8)
    6e38:	20003b1c 	.word	0x20003b1c
    6e3c:	00007969 	.word	0x00007969
    6e40:	000078e1 	.word	0x000078e1

00006e44 <_sercom_get_default_pad>:
    6e44:	4a39      	ldr	r2, [pc, #228]	; (6f2c <_sercom_get_default_pad+0xe8>)
    6e46:	0003      	movs	r3, r0
    6e48:	b500      	push	{lr}
    6e4a:	0008      	movs	r0, r1
    6e4c:	4293      	cmp	r3, r2
    6e4e:	d033      	beq.n	6eb8 <_sercom_get_default_pad+0x74>
    6e50:	d807      	bhi.n	6e62 <_sercom_get_default_pad+0x1e>
    6e52:	4a37      	ldr	r2, [pc, #220]	; (6f30 <_sercom_get_default_pad+0xec>)
    6e54:	4293      	cmp	r3, r2
    6e56:	d014      	beq.n	6e82 <_sercom_get_default_pad+0x3e>
    6e58:	4a36      	ldr	r2, [pc, #216]	; (6f34 <_sercom_get_default_pad+0xf0>)
    6e5a:	4293      	cmp	r3, r2
    6e5c:	d01f      	beq.n	6e9e <_sercom_get_default_pad+0x5a>
    6e5e:	2300      	movs	r3, #0
    6e60:	e017      	b.n	6e92 <_sercom_get_default_pad+0x4e>
    6e62:	4a35      	ldr	r2, [pc, #212]	; (6f38 <_sercom_get_default_pad+0xf4>)
    6e64:	4293      	cmp	r3, r2
    6e66:	d03a      	beq.n	6ede <_sercom_get_default_pad+0x9a>
    6e68:	4a34      	ldr	r2, [pc, #208]	; (6f3c <_sercom_get_default_pad+0xf8>)
    6e6a:	4293      	cmp	r3, r2
    6e6c:	d044      	beq.n	6ef8 <_sercom_get_default_pad+0xb4>
    6e6e:	4a34      	ldr	r2, [pc, #208]	; (6f40 <_sercom_get_default_pad+0xfc>)
    6e70:	4293      	cmp	r3, r2
    6e72:	d1f4      	bne.n	6e5e <_sercom_get_default_pad+0x1a>
    6e74:	2300      	movs	r3, #0
    6e76:	2903      	cmp	r1, #3
    6e78:	d80b      	bhi.n	6e92 <_sercom_get_default_pad+0x4e>
    6e7a:	f000 ff09 	bl	7c90 <__gnu_thumb1_case_uqi>
    6e7e:	2a50      	.short	0x2a50
    6e80:	2e2c      	.short	0x2e2c
    6e82:	2300      	movs	r3, #0
    6e84:	2903      	cmp	r1, #3
    6e86:	d804      	bhi.n	6e92 <_sercom_get_default_pad+0x4e>
    6e88:	f000 ff02 	bl	7c90 <__gnu_thumb1_case_uqi>
    6e8c:	07050243 	.word	0x07050243
    6e90:	4b2c      	ldr	r3, [pc, #176]	; (6f44 <_sercom_get_default_pad+0x100>)
    6e92:	0018      	movs	r0, r3
    6e94:	bd00      	pop	{pc}
    6e96:	4b2c      	ldr	r3, [pc, #176]	; (6f48 <_sercom_get_default_pad+0x104>)
    6e98:	e7fb      	b.n	6e92 <_sercom_get_default_pad+0x4e>
    6e9a:	4b2c      	ldr	r3, [pc, #176]	; (6f4c <_sercom_get_default_pad+0x108>)
    6e9c:	e7f9      	b.n	6e92 <_sercom_get_default_pad+0x4e>
    6e9e:	2300      	movs	r3, #0
    6ea0:	2903      	cmp	r1, #3
    6ea2:	d8f6      	bhi.n	6e92 <_sercom_get_default_pad+0x4e>
    6ea4:	f000 fef4 	bl	7c90 <__gnu_thumb1_case_uqi>
    6ea8:	06040237 	.word	0x06040237
    6eac:	4b28      	ldr	r3, [pc, #160]	; (6f50 <_sercom_get_default_pad+0x10c>)
    6eae:	e7f0      	b.n	6e92 <_sercom_get_default_pad+0x4e>
    6eb0:	4b28      	ldr	r3, [pc, #160]	; (6f54 <_sercom_get_default_pad+0x110>)
    6eb2:	e7ee      	b.n	6e92 <_sercom_get_default_pad+0x4e>
    6eb4:	4b28      	ldr	r3, [pc, #160]	; (6f58 <_sercom_get_default_pad+0x114>)
    6eb6:	e7ec      	b.n	6e92 <_sercom_get_default_pad+0x4e>
    6eb8:	2300      	movs	r3, #0
    6eba:	2903      	cmp	r1, #3
    6ebc:	d8e9      	bhi.n	6e92 <_sercom_get_default_pad+0x4e>
    6ebe:	f000 fee7 	bl	7c90 <__gnu_thumb1_case_uqi>
    6ec2:	022c      	.short	0x022c
    6ec4:	0604      	.short	0x0604
    6ec6:	4b25      	ldr	r3, [pc, #148]	; (6f5c <_sercom_get_default_pad+0x118>)
    6ec8:	e7e3      	b.n	6e92 <_sercom_get_default_pad+0x4e>
    6eca:	4b25      	ldr	r3, [pc, #148]	; (6f60 <_sercom_get_default_pad+0x11c>)
    6ecc:	e7e1      	b.n	6e92 <_sercom_get_default_pad+0x4e>
    6ece:	4b25      	ldr	r3, [pc, #148]	; (6f64 <_sercom_get_default_pad+0x120>)
    6ed0:	e7df      	b.n	6e92 <_sercom_get_default_pad+0x4e>
    6ed2:	4b25      	ldr	r3, [pc, #148]	; (6f68 <_sercom_get_default_pad+0x124>)
    6ed4:	e7dd      	b.n	6e92 <_sercom_get_default_pad+0x4e>
    6ed6:	4b25      	ldr	r3, [pc, #148]	; (6f6c <_sercom_get_default_pad+0x128>)
    6ed8:	e7db      	b.n	6e92 <_sercom_get_default_pad+0x4e>
    6eda:	4b25      	ldr	r3, [pc, #148]	; (6f70 <_sercom_get_default_pad+0x12c>)
    6edc:	e7d9      	b.n	6e92 <_sercom_get_default_pad+0x4e>
    6ede:	2300      	movs	r3, #0
    6ee0:	2903      	cmp	r1, #3
    6ee2:	d8d6      	bhi.n	6e92 <_sercom_get_default_pad+0x4e>
    6ee4:	f000 fed4 	bl	7c90 <__gnu_thumb1_case_uqi>
    6ee8:	0604021d 	.word	0x0604021d
    6eec:	4b21      	ldr	r3, [pc, #132]	; (6f74 <_sercom_get_default_pad+0x130>)
    6eee:	e7d0      	b.n	6e92 <_sercom_get_default_pad+0x4e>
    6ef0:	4b21      	ldr	r3, [pc, #132]	; (6f78 <_sercom_get_default_pad+0x134>)
    6ef2:	e7ce      	b.n	6e92 <_sercom_get_default_pad+0x4e>
    6ef4:	4b21      	ldr	r3, [pc, #132]	; (6f7c <_sercom_get_default_pad+0x138>)
    6ef6:	e7cc      	b.n	6e92 <_sercom_get_default_pad+0x4e>
    6ef8:	2300      	movs	r3, #0
    6efa:	2903      	cmp	r1, #3
    6efc:	d8c9      	bhi.n	6e92 <_sercom_get_default_pad+0x4e>
    6efe:	f000 fec7 	bl	7c90 <__gnu_thumb1_case_uqi>
    6f02:	0212      	.short	0x0212
    6f04:	0604      	.short	0x0604
    6f06:	4b1e      	ldr	r3, [pc, #120]	; (6f80 <_sercom_get_default_pad+0x13c>)
    6f08:	e7c3      	b.n	6e92 <_sercom_get_default_pad+0x4e>
    6f0a:	4b1e      	ldr	r3, [pc, #120]	; (6f84 <_sercom_get_default_pad+0x140>)
    6f0c:	e7c1      	b.n	6e92 <_sercom_get_default_pad+0x4e>
    6f0e:	4b1e      	ldr	r3, [pc, #120]	; (6f88 <_sercom_get_default_pad+0x144>)
    6f10:	e7bf      	b.n	6e92 <_sercom_get_default_pad+0x4e>
    6f12:	4b1e      	ldr	r3, [pc, #120]	; (6f8c <_sercom_get_default_pad+0x148>)
    6f14:	e7bd      	b.n	6e92 <_sercom_get_default_pad+0x4e>
    6f16:	2303      	movs	r3, #3
    6f18:	e7bb      	b.n	6e92 <_sercom_get_default_pad+0x4e>
    6f1a:	4b1d      	ldr	r3, [pc, #116]	; (6f90 <_sercom_get_default_pad+0x14c>)
    6f1c:	e7b9      	b.n	6e92 <_sercom_get_default_pad+0x4e>
    6f1e:	4b1d      	ldr	r3, [pc, #116]	; (6f94 <_sercom_get_default_pad+0x150>)
    6f20:	e7b7      	b.n	6e92 <_sercom_get_default_pad+0x4e>
    6f22:	4b1d      	ldr	r3, [pc, #116]	; (6f98 <_sercom_get_default_pad+0x154>)
    6f24:	e7b5      	b.n	6e92 <_sercom_get_default_pad+0x4e>
    6f26:	4b1d      	ldr	r3, [pc, #116]	; (6f9c <_sercom_get_default_pad+0x158>)
    6f28:	e7b3      	b.n	6e92 <_sercom_get_default_pad+0x4e>
    6f2a:	46c0      	nop			; (mov r8, r8)
    6f2c:	42001000 	.word	0x42001000
    6f30:	42000800 	.word	0x42000800
    6f34:	42000c00 	.word	0x42000c00
    6f38:	42001800 	.word	0x42001800
    6f3c:	42001c00 	.word	0x42001c00
    6f40:	42001400 	.word	0x42001400
    6f44:	00050003 	.word	0x00050003
    6f48:	00060003 	.word	0x00060003
    6f4c:	00070003 	.word	0x00070003
    6f50:	00010003 	.word	0x00010003
    6f54:	001e0003 	.word	0x001e0003
    6f58:	001f0003 	.word	0x001f0003
    6f5c:	00090003 	.word	0x00090003
    6f60:	000a0003 	.word	0x000a0003
    6f64:	000b0003 	.word	0x000b0003
    6f68:	00110003 	.word	0x00110003
    6f6c:	00120003 	.word	0x00120003
    6f70:	00130003 	.word	0x00130003
    6f74:	000d0003 	.word	0x000d0003
    6f78:	000e0003 	.word	0x000e0003
    6f7c:	000f0003 	.word	0x000f0003
    6f80:	00170003 	.word	0x00170003
    6f84:	00180003 	.word	0x00180003
    6f88:	00190003 	.word	0x00190003
    6f8c:	00040003 	.word	0x00040003
    6f90:	00080003 	.word	0x00080003
    6f94:	00100003 	.word	0x00100003
    6f98:	000c0003 	.word	0x000c0003
    6f9c:	00160003 	.word	0x00160003

00006fa0 <_sercom_get_sercom_inst_index>:
    6fa0:	b570      	push	{r4, r5, r6, lr}
    6fa2:	b086      	sub	sp, #24
    6fa4:	4669      	mov	r1, sp
    6fa6:	4b09      	ldr	r3, [pc, #36]	; (6fcc <_sercom_get_sercom_inst_index+0x2c>)
    6fa8:	466a      	mov	r2, sp
    6faa:	cb70      	ldmia	r3!, {r4, r5, r6}
    6fac:	c170      	stmia	r1!, {r4, r5, r6}
    6fae:	cb70      	ldmia	r3!, {r4, r5, r6}
    6fb0:	c170      	stmia	r1!, {r4, r5, r6}
    6fb2:	2300      	movs	r3, #0
    6fb4:	0099      	lsls	r1, r3, #2
    6fb6:	5851      	ldr	r1, [r2, r1]
    6fb8:	4281      	cmp	r1, r0
    6fba:	d102      	bne.n	6fc2 <_sercom_get_sercom_inst_index+0x22>
    6fbc:	b2d8      	uxtb	r0, r3
    6fbe:	b006      	add	sp, #24
    6fc0:	bd70      	pop	{r4, r5, r6, pc}
    6fc2:	3301      	adds	r3, #1
    6fc4:	2b06      	cmp	r3, #6
    6fc6:	d1f5      	bne.n	6fb4 <_sercom_get_sercom_inst_index+0x14>
    6fc8:	2000      	movs	r0, #0
    6fca:	e7f8      	b.n	6fbe <_sercom_get_sercom_inst_index+0x1e>
    6fcc:	0000b954 	.word	0x0000b954

00006fd0 <_sercom_default_handler>:
    6fd0:	4770      	bx	lr
	...

00006fd4 <_sercom_set_handler>:
    6fd4:	b5f0      	push	{r4, r5, r6, r7, lr}
    6fd6:	4c09      	ldr	r4, [pc, #36]	; (6ffc <_sercom_set_handler+0x28>)
    6fd8:	4a09      	ldr	r2, [pc, #36]	; (7000 <_sercom_set_handler+0x2c>)
    6fda:	7823      	ldrb	r3, [r4, #0]
    6fdc:	2b00      	cmp	r3, #0
    6fde:	d109      	bne.n	6ff4 <_sercom_set_handler+0x20>
    6fe0:	001e      	movs	r6, r3
    6fe2:	4f08      	ldr	r7, [pc, #32]	; (7004 <_sercom_set_handler+0x30>)
    6fe4:	4d08      	ldr	r5, [pc, #32]	; (7008 <_sercom_set_handler+0x34>)
    6fe6:	50d7      	str	r7, [r2, r3]
    6fe8:	50ee      	str	r6, [r5, r3]
    6fea:	3304      	adds	r3, #4
    6fec:	2b18      	cmp	r3, #24
    6fee:	d1fa      	bne.n	6fe6 <_sercom_set_handler+0x12>
    6ff0:	3b17      	subs	r3, #23
    6ff2:	7023      	strb	r3, [r4, #0]
    6ff4:	0080      	lsls	r0, r0, #2
    6ff6:	5011      	str	r1, [r2, r0]
    6ff8:	bdf0      	pop	{r4, r5, r6, r7, pc}
    6ffa:	46c0      	nop			; (mov r8, r8)
    6ffc:	20003b1e 	.word	0x20003b1e
    7000:	20003b20 	.word	0x20003b20
    7004:	00006fd1 	.word	0x00006fd1
    7008:	20003f80 	.word	0x20003f80

0000700c <_sercom_get_interrupt_vector>:
    700c:	b507      	push	{r0, r1, r2, lr}
    700e:	2309      	movs	r3, #9
    7010:	466a      	mov	r2, sp
    7012:	7013      	strb	r3, [r2, #0]
    7014:	3301      	adds	r3, #1
    7016:	7053      	strb	r3, [r2, #1]
    7018:	3301      	adds	r3, #1
    701a:	7093      	strb	r3, [r2, #2]
    701c:	3301      	adds	r3, #1
    701e:	70d3      	strb	r3, [r2, #3]
    7020:	3301      	adds	r3, #1
    7022:	7113      	strb	r3, [r2, #4]
    7024:	3301      	adds	r3, #1
    7026:	7153      	strb	r3, [r2, #5]
    7028:	4b02      	ldr	r3, [pc, #8]	; (7034 <_sercom_get_interrupt_vector+0x28>)
    702a:	4798      	blx	r3
    702c:	466b      	mov	r3, sp
    702e:	5618      	ldrsb	r0, [r3, r0]
    7030:	bd0e      	pop	{r1, r2, r3, pc}
    7032:	46c0      	nop			; (mov r8, r8)
    7034:	00006fa1 	.word	0x00006fa1

00007038 <SERCOM0_Handler>:
    7038:	b510      	push	{r4, lr}
    703a:	4b02      	ldr	r3, [pc, #8]	; (7044 <SERCOM0_Handler+0xc>)
    703c:	2000      	movs	r0, #0
    703e:	681b      	ldr	r3, [r3, #0]
    7040:	4798      	blx	r3
    7042:	bd10      	pop	{r4, pc}
    7044:	20003b20 	.word	0x20003b20

00007048 <SERCOM1_Handler>:
    7048:	b510      	push	{r4, lr}
    704a:	4b02      	ldr	r3, [pc, #8]	; (7054 <SERCOM1_Handler+0xc>)
    704c:	2001      	movs	r0, #1
    704e:	685b      	ldr	r3, [r3, #4]
    7050:	4798      	blx	r3
    7052:	bd10      	pop	{r4, pc}
    7054:	20003b20 	.word	0x20003b20

00007058 <SERCOM2_Handler>:
    7058:	b510      	push	{r4, lr}
    705a:	4b02      	ldr	r3, [pc, #8]	; (7064 <SERCOM2_Handler+0xc>)
    705c:	2002      	movs	r0, #2
    705e:	689b      	ldr	r3, [r3, #8]
    7060:	4798      	blx	r3
    7062:	bd10      	pop	{r4, pc}
    7064:	20003b20 	.word	0x20003b20

00007068 <SERCOM3_Handler>:
    7068:	b510      	push	{r4, lr}
    706a:	4b02      	ldr	r3, [pc, #8]	; (7074 <SERCOM3_Handler+0xc>)
    706c:	2003      	movs	r0, #3
    706e:	68db      	ldr	r3, [r3, #12]
    7070:	4798      	blx	r3
    7072:	bd10      	pop	{r4, pc}
    7074:	20003b20 	.word	0x20003b20

00007078 <SERCOM4_Handler>:
    7078:	b510      	push	{r4, lr}
    707a:	4b02      	ldr	r3, [pc, #8]	; (7084 <SERCOM4_Handler+0xc>)
    707c:	2004      	movs	r0, #4
    707e:	691b      	ldr	r3, [r3, #16]
    7080:	4798      	blx	r3
    7082:	bd10      	pop	{r4, pc}
    7084:	20003b20 	.word	0x20003b20

00007088 <SERCOM5_Handler>:
    7088:	b510      	push	{r4, lr}
    708a:	4b02      	ldr	r3, [pc, #8]	; (7094 <SERCOM5_Handler+0xc>)
    708c:	2005      	movs	r0, #5
    708e:	695b      	ldr	r3, [r3, #20]
    7090:	4798      	blx	r3
    7092:	bd10      	pop	{r4, pc}
    7094:	20003b20 	.word	0x20003b20

00007098 <delay_init>:
    7098:	4770      	bx	lr
	...

0000709c <port_pin_set_config>:
    709c:	b507      	push	{r0, r1, r2, lr}
    709e:	2280      	movs	r2, #128	; 0x80
    70a0:	ab01      	add	r3, sp, #4
    70a2:	701a      	strb	r2, [r3, #0]
    70a4:	780a      	ldrb	r2, [r1, #0]
    70a6:	705a      	strb	r2, [r3, #1]
    70a8:	784a      	ldrb	r2, [r1, #1]
    70aa:	709a      	strb	r2, [r3, #2]
    70ac:	788a      	ldrb	r2, [r1, #2]
    70ae:	0019      	movs	r1, r3
    70b0:	70da      	strb	r2, [r3, #3]
    70b2:	4b01      	ldr	r3, [pc, #4]	; (70b8 <port_pin_set_config+0x1c>)
    70b4:	4798      	blx	r3
    70b6:	bd07      	pop	{r0, r1, r2, pc}
    70b8:	00007a6d 	.word	0x00007a6d

000070bc <arch_ioport_disable_pin>:
    70bc:	2201      	movs	r2, #1
    70be:	231f      	movs	r3, #31
    70c0:	b530      	push	{r4, r5, lr}
    70c2:	0014      	movs	r4, r2
    70c4:	4003      	ands	r3, r0
    70c6:	409c      	lsls	r4, r3
    70c8:	0940      	lsrs	r0, r0, #5
    70ca:	4b08      	ldr	r3, [pc, #32]	; (70ec <arch_ioport_disable_pin+0x30>)
    70cc:	01c0      	lsls	r0, r0, #7
    70ce:	18c0      	adds	r0, r0, r3
    70d0:	2300      	movs	r3, #0
    70d2:	0011      	movs	r1, r2
    70d4:	4099      	lsls	r1, r3
    70d6:	420c      	tst	r4, r1
    70d8:	d004      	beq.n	70e4 <arch_ioport_disable_pin+0x28>
    70da:	18c1      	adds	r1, r0, r3
    70dc:	3140      	adds	r1, #64	; 0x40
    70de:	780d      	ldrb	r5, [r1, #0]
    70e0:	4315      	orrs	r5, r2
    70e2:	700d      	strb	r5, [r1, #0]
    70e4:	3301      	adds	r3, #1
    70e6:	2b20      	cmp	r3, #32
    70e8:	d1f3      	bne.n	70d2 <arch_ioport_disable_pin+0x16>
    70ea:	bd30      	pop	{r4, r5, pc}
    70ec:	41004400 	.word	0x41004400

000070f0 <arch_ioport_set_pin_mode>:
    70f0:	231f      	movs	r3, #31
    70f2:	b570      	push	{r4, r5, r6, lr}
    70f4:	2401      	movs	r4, #1
    70f6:	4003      	ands	r3, r0
    70f8:	409c      	lsls	r4, r3
    70fa:	0940      	lsrs	r0, r0, #5
    70fc:	4b14      	ldr	r3, [pc, #80]	; (7150 <arch_ioport_set_pin_mode+0x60>)
    70fe:	01c0      	lsls	r0, r0, #7
    7100:	18c0      	adds	r0, r0, r3
    7102:	2330      	movs	r3, #48	; 0x30
    7104:	4219      	tst	r1, r3
    7106:	d01c      	beq.n	7142 <arch_ioport_set_pin_mode+0x52>
    7108:	25c0      	movs	r5, #192	; 0xc0
    710a:	02ed      	lsls	r5, r5, #11
    710c:	060b      	lsls	r3, r1, #24
    710e:	d502      	bpl.n	7116 <arch_ioport_set_pin_mode+0x26>
    7110:	2380      	movs	r3, #128	; 0x80
    7112:	03db      	lsls	r3, r3, #15
    7114:	431d      	orrs	r5, r3
    7116:	23f0      	movs	r3, #240	; 0xf0
    7118:	060e      	lsls	r6, r1, #24
    711a:	051b      	lsls	r3, r3, #20
    711c:	401e      	ands	r6, r3
    711e:	23a0      	movs	r3, #160	; 0xa0
    7120:	05db      	lsls	r3, r3, #23
    7122:	4333      	orrs	r3, r6
    7124:	b2a2      	uxth	r2, r4
    7126:	431a      	orrs	r2, r3
    7128:	23d0      	movs	r3, #208	; 0xd0
    712a:	432a      	orrs	r2, r5
    712c:	061b      	lsls	r3, r3, #24
    712e:	6282      	str	r2, [r0, #40]	; 0x28
    7130:	4333      	orrs	r3, r6
    7132:	0c22      	lsrs	r2, r4, #16
    7134:	4313      	orrs	r3, r2
    7136:	432b      	orrs	r3, r5
    7138:	6283      	str	r3, [r0, #40]	; 0x28
    713a:	068b      	lsls	r3, r1, #26
    713c:	d504      	bpl.n	7148 <arch_ioport_set_pin_mode+0x58>
    713e:	6144      	str	r4, [r0, #20]
    7140:	bd70      	pop	{r4, r5, r6, pc}
    7142:	2580      	movs	r5, #128	; 0x80
    7144:	02ad      	lsls	r5, r5, #10
    7146:	e7e1      	b.n	710c <arch_ioport_set_pin_mode+0x1c>
    7148:	06cb      	lsls	r3, r1, #27
    714a:	d5f9      	bpl.n	7140 <arch_ioport_set_pin_mode+0x50>
    714c:	6184      	str	r4, [r0, #24]
    714e:	e7f7      	b.n	7140 <arch_ioport_set_pin_mode+0x50>
    7150:	41004400 	.word	0x41004400

00007154 <system_board_init>:
    7154:	b5f8      	push	{r3, r4, r5, r6, r7, lr}
    7156:	4e4f      	ldr	r6, [pc, #316]	; (7294 <system_board_init+0x140>)
    7158:	2301      	movs	r3, #1
    715a:	0032      	movs	r2, r6
    715c:	2502      	movs	r5, #2
    715e:	3240      	adds	r2, #64	; 0x40
    7160:	60b3      	str	r3, [r6, #8]
    7162:	7813      	ldrb	r3, [r2, #0]
    7164:	4c4c      	ldr	r4, [pc, #304]	; (7298 <system_board_init+0x144>)
    7166:	432b      	orrs	r3, r5
    7168:	7013      	strb	r3, [r2, #0]
    716a:	2301      	movs	r3, #1
    716c:	6173      	str	r3, [r6, #20]
    716e:	6075      	str	r5, [r6, #4]
    7170:	7853      	ldrb	r3, [r2, #1]
    7172:	2120      	movs	r1, #32
    7174:	432b      	orrs	r3, r5
    7176:	7053      	strb	r3, [r2, #1]
    7178:	2001      	movs	r0, #1
    717a:	47a0      	blx	r4
    717c:	0028      	movs	r0, r5
    717e:	2101      	movs	r1, #1
    7180:	47a0      	blx	r4
    7182:	4f46      	ldr	r7, [pc, #280]	; (729c <system_board_init+0x148>)
    7184:	0028      	movs	r0, r5
    7186:	47b8      	blx	r7
    7188:	2101      	movs	r1, #1
    718a:	2028      	movs	r0, #40	; 0x28
    718c:	47a0      	blx	r4
    718e:	2028      	movs	r0, #40	; 0x28
    7190:	47b8      	blx	r7
    7192:	2101      	movs	r1, #1
    7194:	2029      	movs	r0, #41	; 0x29
    7196:	47a0      	blx	r4
    7198:	2029      	movs	r0, #41	; 0x29
    719a:	47b8      	blx	r7
    719c:	2380      	movs	r3, #128	; 0x80
    719e:	0032      	movs	r2, r6
    71a0:	015b      	lsls	r3, r3, #5
    71a2:	6073      	str	r3, [r6, #4]
    71a4:	324c      	adds	r2, #76	; 0x4c
    71a6:	7813      	ldrb	r3, [r2, #0]
    71a8:	2120      	movs	r1, #32
    71aa:	432b      	orrs	r3, r5
    71ac:	7013      	strb	r3, [r2, #0]
    71ae:	200c      	movs	r0, #12
    71b0:	47a0      	blx	r4
    71b2:	2280      	movs	r2, #128	; 0x80
    71b4:	4b3a      	ldr	r3, [pc, #232]	; (72a0 <system_board_init+0x14c>)
    71b6:	0112      	lsls	r2, r2, #4
    71b8:	605a      	str	r2, [r3, #4]
    71ba:	001a      	movs	r2, r3
    71bc:	326b      	adds	r2, #107	; 0x6b
    71be:	7813      	ldrb	r3, [r2, #0]
    71c0:	2120      	movs	r1, #32
    71c2:	432b      	orrs	r3, r5
    71c4:	7013      	strb	r3, [r2, #0]
    71c6:	202b      	movs	r0, #43	; 0x2b
    71c8:	47a0      	blx	r4
    71ca:	2101      	movs	r1, #1
    71cc:	2004      	movs	r0, #4
    71ce:	47a0      	blx	r4
    71d0:	2004      	movs	r0, #4
    71d2:	47b8      	blx	r7
    71d4:	2101      	movs	r1, #1
    71d6:	2005      	movs	r0, #5
    71d8:	47a0      	blx	r4
    71da:	2005      	movs	r0, #5
    71dc:	47b8      	blx	r7
    71de:	2101      	movs	r1, #1
    71e0:	2006      	movs	r0, #6
    71e2:	47a0      	blx	r4
    71e4:	2006      	movs	r0, #6
    71e6:	47b8      	blx	r7
    71e8:	0029      	movs	r1, r5
    71ea:	2016      	movs	r0, #22
    71ec:	47a0      	blx	r4
    71ee:	2016      	movs	r0, #22
    71f0:	47b8      	blx	r7
    71f2:	0029      	movs	r1, r5
    71f4:	2017      	movs	r0, #23
    71f6:	47a0      	blx	r4
    71f8:	2017      	movs	r0, #23
    71fa:	47b8      	blx	r7
    71fc:	2101      	movs	r1, #1
    71fe:	2022      	movs	r0, #34	; 0x22
    7200:	47a0      	blx	r4
    7202:	2022      	movs	r0, #34	; 0x22
    7204:	47b8      	blx	r7
    7206:	0029      	movs	r1, r5
    7208:	2010      	movs	r0, #16
    720a:	47a0      	blx	r4
    720c:	2010      	movs	r0, #16
    720e:	47b8      	blx	r7
    7210:	0029      	movs	r1, r5
    7212:	2011      	movs	r0, #17
    7214:	47a0      	blx	r4
    7216:	2011      	movs	r0, #17
    7218:	47b8      	blx	r7
    721a:	2380      	movs	r3, #128	; 0x80
    721c:	0032      	movs	r2, r6
    721e:	011b      	lsls	r3, r3, #4
    7220:	324b      	adds	r2, #75	; 0x4b
    7222:	60b3      	str	r3, [r6, #8]
    7224:	7813      	ldrb	r3, [r2, #0]
    7226:	0029      	movs	r1, r5
    7228:	432b      	orrs	r3, r5
    722a:	7013      	strb	r3, [r2, #0]
    722c:	2380      	movs	r3, #128	; 0x80
    722e:	011b      	lsls	r3, r3, #4
    7230:	61b3      	str	r3, [r6, #24]
    7232:	2009      	movs	r0, #9
    7234:	47a0      	blx	r4
    7236:	2009      	movs	r0, #9
    7238:	47b8      	blx	r7
    723a:	0029      	movs	r1, r5
    723c:	200a      	movs	r0, #10
    723e:	47a0      	blx	r4
    7240:	200a      	movs	r0, #10
    7242:	47b8      	blx	r7
    7244:	0029      	movs	r1, r5
    7246:	2008      	movs	r0, #8
    7248:	47a0      	blx	r4
    724a:	2008      	movs	r0, #8
    724c:	47b8      	blx	r7
    724e:	4b14      	ldr	r3, [pc, #80]	; (72a0 <system_board_init+0x14c>)
    7250:	2280      	movs	r2, #128	; 0x80
    7252:	0019      	movs	r1, r3
    7254:	03d2      	lsls	r2, r2, #15
    7256:	609a      	str	r2, [r3, #8]
    7258:	3176      	adds	r1, #118	; 0x76
    725a:	780b      	ldrb	r3, [r1, #0]
    725c:	201c      	movs	r0, #28
    725e:	432b      	orrs	r3, r5
    7260:	700b      	strb	r3, [r1, #0]
    7262:	4b0f      	ldr	r3, [pc, #60]	; (72a0 <system_board_init+0x14c>)
    7264:	39a1      	subs	r1, #161	; 0xa1
    7266:	615a      	str	r2, [r3, #20]
    7268:	2280      	movs	r2, #128	; 0x80
    726a:	0392      	lsls	r2, r2, #14
    726c:	60b2      	str	r2, [r6, #8]
    726e:	780b      	ldrb	r3, [r1, #0]
    7270:	432b      	orrs	r3, r5
    7272:	700b      	strb	r3, [r1, #0]
    7274:	2380      	movs	r3, #128	; 0x80
    7276:	055b      	lsls	r3, r3, #21
    7278:	6172      	str	r2, [r6, #20]
    727a:	6073      	str	r3, [r6, #4]
    727c:	365c      	adds	r6, #92	; 0x5c
    727e:	7833      	ldrb	r3, [r6, #0]
    7280:	2120      	movs	r1, #32
    7282:	432b      	orrs	r3, r5
    7284:	7033      	strb	r3, [r6, #0]
    7286:	47a0      	blx	r4
    7288:	0029      	movs	r1, r5
    728a:	2003      	movs	r0, #3
    728c:	47a0      	blx	r4
    728e:	2003      	movs	r0, #3
    7290:	47b8      	blx	r7
    7292:	bdf8      	pop	{r3, r4, r5, r6, r7, pc}
    7294:	41004400 	.word	0x41004400
    7298:	000070f1 	.word	0x000070f1
    729c:	000070bd 	.word	0x000070bd
    72a0:	41004480 	.word	0x41004480

000072a4 <cpu_irq_enter_critical>:
    72a4:	4b09      	ldr	r3, [pc, #36]	; (72cc <cpu_irq_enter_critical+0x28>)
    72a6:	6819      	ldr	r1, [r3, #0]
    72a8:	2900      	cmp	r1, #0
    72aa:	d10b      	bne.n	72c4 <cpu_irq_enter_critical+0x20>
    72ac:	f3ef 8010 	mrs	r0, PRIMASK
    72b0:	4a07      	ldr	r2, [pc, #28]	; (72d0 <cpu_irq_enter_critical+0x2c>)
    72b2:	2800      	cmp	r0, #0
    72b4:	d105      	bne.n	72c2 <cpu_irq_enter_critical+0x1e>
    72b6:	b672      	cpsid	i
    72b8:	f3bf 8f5f 	dmb	sy
    72bc:	4905      	ldr	r1, [pc, #20]	; (72d4 <cpu_irq_enter_critical+0x30>)
    72be:	7008      	strb	r0, [r1, #0]
    72c0:	2101      	movs	r1, #1
    72c2:	7011      	strb	r1, [r2, #0]
    72c4:	681a      	ldr	r2, [r3, #0]
    72c6:	3201      	adds	r2, #1
    72c8:	601a      	str	r2, [r3, #0]
    72ca:	4770      	bx	lr
    72cc:	20003b38 	.word	0x20003b38
    72d0:	20003b3c 	.word	0x20003b3c
    72d4:	200000c6 	.word	0x200000c6

000072d8 <cpu_irq_leave_critical>:
    72d8:	4b08      	ldr	r3, [pc, #32]	; (72fc <cpu_irq_leave_critical+0x24>)
    72da:	681a      	ldr	r2, [r3, #0]
    72dc:	3a01      	subs	r2, #1
    72de:	601a      	str	r2, [r3, #0]
    72e0:	681b      	ldr	r3, [r3, #0]
    72e2:	2b00      	cmp	r3, #0
    72e4:	d109      	bne.n	72fa <cpu_irq_leave_critical+0x22>
    72e6:	4b06      	ldr	r3, [pc, #24]	; (7300 <cpu_irq_leave_critical+0x28>)
    72e8:	781b      	ldrb	r3, [r3, #0]
    72ea:	2b00      	cmp	r3, #0
    72ec:	d005      	beq.n	72fa <cpu_irq_leave_critical+0x22>
    72ee:	2201      	movs	r2, #1
    72f0:	4b04      	ldr	r3, [pc, #16]	; (7304 <cpu_irq_leave_critical+0x2c>)
    72f2:	701a      	strb	r2, [r3, #0]
    72f4:	f3bf 8f5f 	dmb	sy
    72f8:	b662      	cpsie	i
    72fa:	4770      	bx	lr
    72fc:	20003b38 	.word	0x20003b38
    7300:	20003b3c 	.word	0x20003b3c
    7304:	200000c6 	.word	0x200000c6

00007308 <_system_dfll_wait_for_sync>:
    7308:	2310      	movs	r3, #16
    730a:	4902      	ldr	r1, [pc, #8]	; (7314 <_system_dfll_wait_for_sync+0xc>)
    730c:	68ca      	ldr	r2, [r1, #12]
    730e:	421a      	tst	r2, r3
    7310:	d0fc      	beq.n	730c <_system_dfll_wait_for_sync+0x4>
    7312:	4770      	bx	lr
    7314:	40000800 	.word	0x40000800

00007318 <system_clock_source_enable.part.0>:
    7318:	2202      	movs	r2, #2
    731a:	b5f8      	push	{r3, r4, r5, r6, r7, lr}
    731c:	2600      	movs	r6, #0
    731e:	4d09      	ldr	r5, [pc, #36]	; (7344 <system_clock_source_enable.part.0+0x2c>)
    7320:	4c09      	ldr	r4, [pc, #36]	; (7348 <system_clock_source_enable.part.0+0x30>)
    7322:	682b      	ldr	r3, [r5, #0]
    7324:	4f09      	ldr	r7, [pc, #36]	; (734c <system_clock_source_enable.part.0+0x34>)
    7326:	4313      	orrs	r3, r2
    7328:	602b      	str	r3, [r5, #0]
    732a:	84a2      	strh	r2, [r4, #36]	; 0x24
    732c:	47b8      	blx	r7
    732e:	68ab      	ldr	r3, [r5, #8]
    7330:	62e3      	str	r3, [r4, #44]	; 0x2c
    7332:	686b      	ldr	r3, [r5, #4]
    7334:	62a3      	str	r3, [r4, #40]	; 0x28
    7336:	84a6      	strh	r6, [r4, #36]	; 0x24
    7338:	47b8      	blx	r7
    733a:	682b      	ldr	r3, [r5, #0]
    733c:	0030      	movs	r0, r6
    733e:	b29b      	uxth	r3, r3
    7340:	84a3      	strh	r3, [r4, #36]	; 0x24
    7342:	bdf8      	pop	{r3, r4, r5, r6, r7, pc}
    7344:	20003b40 	.word	0x20003b40
    7348:	40000800 	.word	0x40000800
    734c:	00007309 	.word	0x00007309

00007350 <system_clock_source_get_hz>:
    7350:	b570      	push	{r4, r5, r6, lr}
    7352:	2808      	cmp	r0, #8
    7354:	d806      	bhi.n	7364 <system_clock_source_get_hz+0x14>
    7356:	f000 fc9b 	bl	7c90 <__gnu_thumb1_case_uqi>
    735a:	0508      	.short	0x0508
    735c:	12303005 	.word	0x12303005
    7360:	150b      	.short	0x150b
    7362:	28          	.byte	0x28
    7363:	00          	.byte	0x00
    7364:	2400      	movs	r4, #0
    7366:	0020      	movs	r0, r4
    7368:	bd70      	pop	{r4, r5, r6, pc}
    736a:	4b16      	ldr	r3, [pc, #88]	; (73c4 <system_clock_source_get_hz+0x74>)
    736c:	691c      	ldr	r4, [r3, #16]
    736e:	e7fa      	b.n	7366 <system_clock_source_get_hz+0x16>
    7370:	4b15      	ldr	r3, [pc, #84]	; (73c8 <system_clock_source_get_hz+0x78>)
    7372:	4c16      	ldr	r4, [pc, #88]	; (73cc <system_clock_source_get_hz+0x7c>)
    7374:	6a1b      	ldr	r3, [r3, #32]
    7376:	059b      	lsls	r3, r3, #22
    7378:	0f9b      	lsrs	r3, r3, #30
    737a:	40dc      	lsrs	r4, r3
    737c:	e7f3      	b.n	7366 <system_clock_source_get_hz+0x16>
    737e:	4b11      	ldr	r3, [pc, #68]	; (73c4 <system_clock_source_get_hz+0x74>)
    7380:	695c      	ldr	r4, [r3, #20]
    7382:	e7f0      	b.n	7366 <system_clock_source_get_hz+0x16>
    7384:	4d0f      	ldr	r5, [pc, #60]	; (73c4 <system_clock_source_get_hz+0x74>)
    7386:	2400      	movs	r4, #0
    7388:	682b      	ldr	r3, [r5, #0]
    738a:	079b      	lsls	r3, r3, #30
    738c:	d5eb      	bpl.n	7366 <system_clock_source_get_hz+0x16>
    738e:	4b10      	ldr	r3, [pc, #64]	; (73d0 <system_clock_source_get_hz+0x80>)
    7390:	4798      	blx	r3
    7392:	2224      	movs	r2, #36	; 0x24
    7394:	682b      	ldr	r3, [r5, #0]
    7396:	4013      	ands	r3, r2
    7398:	2b04      	cmp	r3, #4
    739a:	d111      	bne.n	73c0 <system_clock_source_get_hz+0x70>
    739c:	0020      	movs	r0, r4
    739e:	4b0d      	ldr	r3, [pc, #52]	; (73d4 <system_clock_source_get_hz+0x84>)
    73a0:	4798      	blx	r3
    73a2:	68ac      	ldr	r4, [r5, #8]
    73a4:	b2a4      	uxth	r4, r4
    73a6:	4344      	muls	r4, r0
    73a8:	e7dd      	b.n	7366 <system_clock_source_get_hz+0x16>
    73aa:	4b0b      	ldr	r3, [pc, #44]	; (73d8 <system_clock_source_get_hz+0x88>)
    73ac:	2400      	movs	r4, #0
    73ae:	781b      	ldrb	r3, [r3, #0]
    73b0:	075b      	lsls	r3, r3, #29
    73b2:	d5d8      	bpl.n	7366 <system_clock_source_get_hz+0x16>
    73b4:	4b03      	ldr	r3, [pc, #12]	; (73c4 <system_clock_source_get_hz+0x74>)
    73b6:	68dc      	ldr	r4, [r3, #12]
    73b8:	e7d5      	b.n	7366 <system_clock_source_get_hz+0x16>
    73ba:	2480      	movs	r4, #128	; 0x80
    73bc:	0224      	lsls	r4, r4, #8
    73be:	e7d2      	b.n	7366 <system_clock_source_get_hz+0x16>
    73c0:	4c06      	ldr	r4, [pc, #24]	; (73dc <system_clock_source_get_hz+0x8c>)
    73c2:	e7d0      	b.n	7366 <system_clock_source_get_hz+0x16>
    73c4:	20003b40 	.word	0x20003b40
    73c8:	40000800 	.word	0x40000800
    73cc:	007a1200 	.word	0x007a1200
    73d0:	00007309 	.word	0x00007309
    73d4:	000079b5 	.word	0x000079b5
    73d8:	40000850 	.word	0x40000850
    73dc:	02dc6c00 	.word	0x02dc6c00

000073e0 <system_clock_source_osc8m_set_config>:
    73e0:	b570      	push	{r4, r5, r6, lr}
    73e2:	7884      	ldrb	r4, [r0, #2]
    73e4:	7802      	ldrb	r2, [r0, #0]
    73e6:	7845      	ldrb	r5, [r0, #1]
    73e8:	2001      	movs	r0, #1
    73ea:	2640      	movs	r6, #64	; 0x40
    73ec:	4005      	ands	r5, r0
    73ee:	4020      	ands	r0, r4
    73f0:	2480      	movs	r4, #128	; 0x80
    73f2:	4908      	ldr	r1, [pc, #32]	; (7414 <system_clock_source_osc8m_set_config+0x34>)
    73f4:	01ad      	lsls	r5, r5, #6
    73f6:	6a0b      	ldr	r3, [r1, #32]
    73f8:	01c0      	lsls	r0, r0, #7
    73fa:	43b3      	bics	r3, r6
    73fc:	432b      	orrs	r3, r5
    73fe:	43a3      	bics	r3, r4
    7400:	4303      	orrs	r3, r0
    7402:	2003      	movs	r0, #3
    7404:	4002      	ands	r2, r0
    7406:	4804      	ldr	r0, [pc, #16]	; (7418 <system_clock_source_osc8m_set_config+0x38>)
    7408:	0212      	lsls	r2, r2, #8
    740a:	4003      	ands	r3, r0
    740c:	4313      	orrs	r3, r2
    740e:	620b      	str	r3, [r1, #32]
    7410:	bd70      	pop	{r4, r5, r6, pc}
    7412:	46c0      	nop			; (mov r8, r8)
    7414:	40000800 	.word	0x40000800
    7418:	fffffcff 	.word	0xfffffcff

0000741c <system_clock_source_xosc_set_config>:
    741c:	b5f7      	push	{r0, r1, r2, r4, r5, r6, r7, lr}
    741e:	210f      	movs	r1, #15
    7420:	4b28      	ldr	r3, [pc, #160]	; (74c4 <system_clock_source_xosc_set_config+0xa8>)
    7422:	7845      	ldrb	r5, [r0, #1]
    7424:	469c      	mov	ip, r3
    7426:	400d      	ands	r5, r1
    7428:	7801      	ldrb	r1, [r0, #0]
    742a:	8a1b      	ldrh	r3, [r3, #16]
    742c:	424c      	negs	r4, r1
    742e:	4161      	adcs	r1, r4
    7430:	4664      	mov	r4, ip
    7432:	b2c9      	uxtb	r1, r1
    7434:	9100      	str	r1, [sp, #0]
    7436:	4f24      	ldr	r7, [pc, #144]	; (74c8 <system_clock_source_xosc_set_config+0xac>)
    7438:	6841      	ldr	r1, [r0, #4]
    743a:	055a      	lsls	r2, r3, #21
    743c:	7886      	ldrb	r6, [r0, #2]
    743e:	0f52      	lsrs	r2, r2, #29
    7440:	9401      	str	r4, [sp, #4]
    7442:	42b9      	cmp	r1, r7
    7444:	d936      	bls.n	74b4 <system_clock_source_xosc_set_config+0x98>
    7446:	4f21      	ldr	r7, [pc, #132]	; (74cc <system_clock_source_xosc_set_config+0xb0>)
    7448:	42b9      	cmp	r1, r7
    744a:	d935      	bls.n	74b8 <system_clock_source_xosc_set_config+0x9c>
    744c:	4f20      	ldr	r7, [pc, #128]	; (74d0 <system_clock_source_xosc_set_config+0xb4>)
    744e:	42b9      	cmp	r1, r7
    7450:	d934      	bls.n	74bc <system_clock_source_xosc_set_config+0xa0>
    7452:	4f20      	ldr	r7, [pc, #128]	; (74d4 <system_clock_source_xosc_set_config+0xb8>)
    7454:	42b9      	cmp	r1, r7
    7456:	d933      	bls.n	74c0 <system_clock_source_xosc_set_config+0xa4>
    7458:	4f1f      	ldr	r7, [pc, #124]	; (74d8 <system_clock_source_xosc_set_config+0xbc>)
    745a:	42b9      	cmp	r1, r7
    745c:	d800      	bhi.n	7460 <system_clock_source_xosc_set_config+0x44>
    745e:	2204      	movs	r2, #4
    7460:	4c1e      	ldr	r4, [pc, #120]	; (74dc <system_clock_source_xosc_set_config+0xc0>)
    7462:	7a47      	ldrb	r7, [r0, #9]
    7464:	7a00      	ldrb	r0, [r0, #8]
    7466:	6121      	str	r1, [r4, #16]
    7468:	2101      	movs	r1, #1
    746a:	2404      	movs	r4, #4
    746c:	468c      	mov	ip, r1
    746e:	9900      	ldr	r1, [sp, #0]
    7470:	43a3      	bics	r3, r4
    7472:	0089      	lsls	r1, r1, #2
    7474:	430b      	orrs	r3, r1
    7476:	4661      	mov	r1, ip
    7478:	4008      	ands	r0, r1
    747a:	313f      	adds	r1, #63	; 0x3f
    747c:	438b      	bics	r3, r1
    747e:	0184      	lsls	r4, r0, #6
    7480:	0018      	movs	r0, r3
    7482:	4663      	mov	r3, ip
    7484:	4320      	orrs	r0, r4
    7486:	401f      	ands	r7, r3
    7488:	337f      	adds	r3, #127	; 0x7f
    748a:	4398      	bics	r0, r3
    748c:	01f9      	lsls	r1, r7, #7
    748e:	0007      	movs	r7, r0
    7490:	0213      	lsls	r3, r2, #8
    7492:	4a13      	ldr	r2, [pc, #76]	; (74e0 <system_clock_source_xosc_set_config+0xc4>)
    7494:	430f      	orrs	r7, r1
    7496:	403a      	ands	r2, r7
    7498:	431a      	orrs	r2, r3
    749a:	4663      	mov	r3, ip
    749c:	401e      	ands	r6, r3
    749e:	02f3      	lsls	r3, r6, #11
    74a0:	4e10      	ldr	r6, [pc, #64]	; (74e4 <system_clock_source_xosc_set_config+0xc8>)
    74a2:	4016      	ands	r6, r2
    74a4:	431e      	orrs	r6, r3
    74a6:	032b      	lsls	r3, r5, #12
    74a8:	0535      	lsls	r5, r6, #20
    74aa:	0d2d      	lsrs	r5, r5, #20
    74ac:	431d      	orrs	r5, r3
    74ae:	9b01      	ldr	r3, [sp, #4]
    74b0:	821d      	strh	r5, [r3, #16]
    74b2:	bdf7      	pop	{r0, r1, r2, r4, r5, r6, r7, pc}
    74b4:	2200      	movs	r2, #0
    74b6:	e7d3      	b.n	7460 <system_clock_source_xosc_set_config+0x44>
    74b8:	2201      	movs	r2, #1
    74ba:	e7d1      	b.n	7460 <system_clock_source_xosc_set_config+0x44>
    74bc:	2202      	movs	r2, #2
    74be:	e7cf      	b.n	7460 <system_clock_source_xosc_set_config+0x44>
    74c0:	2203      	movs	r2, #3
    74c2:	e7cd      	b.n	7460 <system_clock_source_xosc_set_config+0x44>
    74c4:	40000800 	.word	0x40000800
    74c8:	001e8480 	.word	0x001e8480
    74cc:	003d0900 	.word	0x003d0900
    74d0:	007a1200 	.word	0x007a1200
    74d4:	00f42400 	.word	0x00f42400
    74d8:	01e84800 	.word	0x01e84800
    74dc:	20003b40 	.word	0x20003b40
    74e0:	fffff8ff 	.word	0xfffff8ff
    74e4:	fffff7ff 	.word	0xfffff7ff

000074e8 <system_clock_source_dfll_set_config>:
    74e8:	b510      	push	{r4, lr}
    74ea:	7a02      	ldrb	r2, [r0, #8]
    74ec:	8943      	ldrh	r3, [r0, #10]
    74ee:	0692      	lsls	r2, r2, #26
    74f0:	059b      	lsls	r3, r3, #22
    74f2:	0d9b      	lsrs	r3, r3, #22
    74f4:	0c12      	lsrs	r2, r2, #16
    74f6:	431a      	orrs	r2, r3
    74f8:	4b17      	ldr	r3, [pc, #92]	; (7558 <system_clock_source_dfll_set_config+0x70>)
    74fa:	605a      	str	r2, [r3, #4]
    74fc:	79c1      	ldrb	r1, [r0, #7]
    74fe:	7982      	ldrb	r2, [r0, #6]
    7500:	8884      	ldrh	r4, [r0, #4]
    7502:	430a      	orrs	r2, r1
    7504:	8841      	ldrh	r1, [r0, #2]
    7506:	4321      	orrs	r1, r4
    7508:	430a      	orrs	r2, r1
    750a:	7841      	ldrb	r1, [r0, #1]
    750c:	7804      	ldrb	r4, [r0, #0]
    750e:	01c9      	lsls	r1, r1, #7
    7510:	430a      	orrs	r2, r1
    7512:	601a      	str	r2, [r3, #0]
    7514:	2c04      	cmp	r4, #4
    7516:	d10d      	bne.n	7534 <system_clock_source_dfll_set_config+0x4c>
    7518:	7b02      	ldrb	r2, [r0, #12]
    751a:	8a01      	ldrh	r1, [r0, #16]
    751c:	0692      	lsls	r2, r2, #26
    751e:	430a      	orrs	r2, r1
    7520:	89c1      	ldrh	r1, [r0, #14]
    7522:	480e      	ldr	r0, [pc, #56]	; (755c <system_clock_source_dfll_set_config+0x74>)
    7524:	0409      	lsls	r1, r1, #16
    7526:	4001      	ands	r1, r0
    7528:	430a      	orrs	r2, r1
    752a:	609a      	str	r2, [r3, #8]
    752c:	681a      	ldr	r2, [r3, #0]
    752e:	4314      	orrs	r4, r2
    7530:	601c      	str	r4, [r3, #0]
    7532:	bd10      	pop	{r4, pc}
    7534:	2c20      	cmp	r4, #32
    7536:	d1fc      	bne.n	7532 <system_clock_source_dfll_set_config+0x4a>
    7538:	7b02      	ldrb	r2, [r0, #12]
    753a:	8a01      	ldrh	r1, [r0, #16]
    753c:	0692      	lsls	r2, r2, #26
    753e:	430a      	orrs	r2, r1
    7540:	89c1      	ldrh	r1, [r0, #14]
    7542:	4806      	ldr	r0, [pc, #24]	; (755c <system_clock_source_dfll_set_config+0x74>)
    7544:	0409      	lsls	r1, r1, #16
    7546:	4001      	ands	r1, r0
    7548:	430a      	orrs	r2, r1
    754a:	609a      	str	r2, [r3, #8]
    754c:	6819      	ldr	r1, [r3, #0]
    754e:	4a04      	ldr	r2, [pc, #16]	; (7560 <system_clock_source_dfll_set_config+0x78>)
    7550:	430a      	orrs	r2, r1
    7552:	601a      	str	r2, [r3, #0]
    7554:	e7ed      	b.n	7532 <system_clock_source_dfll_set_config+0x4a>
    7556:	46c0      	nop			; (mov r8, r8)
    7558:	20003b40 	.word	0x20003b40
    755c:	03ff0000 	.word	0x03ff0000
    7560:	00000424 	.word	0x00000424

00007564 <system_clock_source_enable>:
    7564:	b510      	push	{r4, lr}
    7566:	2808      	cmp	r0, #8
    7568:	d806      	bhi.n	7578 <system_clock_source_enable+0x14>
    756a:	f000 fb91 	bl	7c90 <__gnu_thumb1_case_uqi>
    756e:	0514      	.short	0x0514
    7570:	1a0e0c05 	.word	0x1a0e0c05
    7574:	2007      	.short	0x2007
    7576:	23          	.byte	0x23
    7577:	00          	.byte	0x00
    7578:	2017      	movs	r0, #23
    757a:	bd10      	pop	{r4, pc}
    757c:	2302      	movs	r3, #2
    757e:	4a10      	ldr	r2, [pc, #64]	; (75c0 <system_clock_source_enable+0x5c>)
    7580:	6a11      	ldr	r1, [r2, #32]
    7582:	430b      	orrs	r3, r1
    7584:	6213      	str	r3, [r2, #32]
    7586:	2000      	movs	r0, #0
    7588:	e7f7      	b.n	757a <system_clock_source_enable+0x16>
    758a:	2302      	movs	r3, #2
    758c:	4a0c      	ldr	r2, [pc, #48]	; (75c0 <system_clock_source_enable+0x5c>)
    758e:	6991      	ldr	r1, [r2, #24]
    7590:	430b      	orrs	r3, r1
    7592:	6193      	str	r3, [r2, #24]
    7594:	e7f7      	b.n	7586 <system_clock_source_enable+0x22>
    7596:	2302      	movs	r3, #2
    7598:	4a09      	ldr	r2, [pc, #36]	; (75c0 <system_clock_source_enable+0x5c>)
    759a:	8a11      	ldrh	r1, [r2, #16]
    759c:	430b      	orrs	r3, r1
    759e:	8213      	strh	r3, [r2, #16]
    75a0:	e7f1      	b.n	7586 <system_clock_source_enable+0x22>
    75a2:	2302      	movs	r3, #2
    75a4:	4a06      	ldr	r2, [pc, #24]	; (75c0 <system_clock_source_enable+0x5c>)
    75a6:	8a91      	ldrh	r1, [r2, #20]
    75a8:	430b      	orrs	r3, r1
    75aa:	8293      	strh	r3, [r2, #20]
    75ac:	e7eb      	b.n	7586 <system_clock_source_enable+0x22>
    75ae:	4b05      	ldr	r3, [pc, #20]	; (75c4 <system_clock_source_enable+0x60>)
    75b0:	4798      	blx	r3
    75b2:	e7e2      	b.n	757a <system_clock_source_enable+0x16>
    75b4:	2302      	movs	r3, #2
    75b6:	4a04      	ldr	r2, [pc, #16]	; (75c8 <system_clock_source_enable+0x64>)
    75b8:	7811      	ldrb	r1, [r2, #0]
    75ba:	430b      	orrs	r3, r1
    75bc:	7013      	strb	r3, [r2, #0]
    75be:	e7e2      	b.n	7586 <system_clock_source_enable+0x22>
    75c0:	40000800 	.word	0x40000800
    75c4:	00007319 	.word	0x00007319
    75c8:	40000844 	.word	0x40000844

000075cc <system_clock_init>:
    75cc:	23c2      	movs	r3, #194	; 0xc2
    75ce:	221e      	movs	r2, #30
    75d0:	b5f0      	push	{r4, r5, r6, r7, lr}
    75d2:	4e4d      	ldr	r6, [pc, #308]	; (7708 <system_clock_init+0x13c>)
    75d4:	00db      	lsls	r3, r3, #3
    75d6:	494d      	ldr	r1, [pc, #308]	; (770c <system_clock_init+0x140>)
    75d8:	60b3      	str	r3, [r6, #8]
    75da:	684b      	ldr	r3, [r1, #4]
    75dc:	2400      	movs	r4, #0
    75de:	4393      	bics	r3, r2
    75e0:	001a      	movs	r2, r3
    75e2:	2306      	movs	r3, #6
    75e4:	4313      	orrs	r3, r2
    75e6:	604b      	str	r3, [r1, #4]
    75e8:	2302      	movs	r3, #2
    75ea:	b08d      	sub	sp, #52	; 0x34
    75ec:	ad07      	add	r5, sp, #28
    75ee:	702b      	strb	r3, [r5, #0]
    75f0:	b2e0      	uxtb	r0, r4
    75f2:	0029      	movs	r1, r5
    75f4:	4b46      	ldr	r3, [pc, #280]	; (7710 <system_clock_init+0x144>)
    75f6:	3401      	adds	r4, #1
    75f8:	4798      	blx	r3
    75fa:	2c25      	cmp	r4, #37	; 0x25
    75fc:	d1f8      	bne.n	75f0 <system_clock_init+0x24>
    75fe:	4b45      	ldr	r3, [pc, #276]	; (7714 <system_clock_init+0x148>)
    7600:	a801      	add	r0, sp, #4
    7602:	6043      	str	r3, [r0, #4]
    7604:	230f      	movs	r3, #15
    7606:	2400      	movs	r4, #0
    7608:	7043      	strb	r3, [r0, #1]
    760a:	4b43      	ldr	r3, [pc, #268]	; (7718 <system_clock_init+0x14c>)
    760c:	7004      	strb	r4, [r0, #0]
    760e:	7084      	strb	r4, [r0, #2]
    7610:	7204      	strb	r4, [r0, #8]
    7612:	7244      	strb	r4, [r0, #9]
    7614:	4798      	blx	r3
    7616:	0020      	movs	r0, r4
    7618:	4c40      	ldr	r4, [pc, #256]	; (771c <system_clock_init+0x150>)
    761a:	47a0      	blx	r4
    761c:	2301      	movs	r3, #1
    761e:	68f2      	ldr	r2, [r6, #12]
    7620:	421a      	tst	r2, r3
    7622:	d0fc      	beq.n	761e <system_clock_init+0x52>
    7624:	2388      	movs	r3, #136	; 0x88
    7626:	8a32      	ldrh	r2, [r6, #16]
    7628:	011b      	lsls	r3, r3, #4
    762a:	4313      	orrs	r3, r2
    762c:	8233      	strh	r3, [r6, #16]
    762e:	2300      	movs	r3, #0
    7630:	2220      	movs	r2, #32
    7632:	806b      	strh	r3, [r5, #2]
    7634:	71ab      	strb	r3, [r5, #6]
    7636:	71eb      	strb	r3, [r5, #7]
    7638:	706b      	strb	r3, [r5, #1]
    763a:	4b39      	ldr	r3, [pc, #228]	; (7720 <system_clock_init+0x154>)
    763c:	702a      	strb	r2, [r5, #0]
    763e:	681b      	ldr	r3, [r3, #0]
    7640:	0e9b      	lsrs	r3, r3, #26
    7642:	2b3f      	cmp	r3, #63	; 0x3f
    7644:	d100      	bne.n	7648 <system_clock_init+0x7c>
    7646:	3b20      	subs	r3, #32
    7648:	722b      	strb	r3, [r5, #8]
    764a:	2307      	movs	r3, #7
    764c:	732b      	strb	r3, [r5, #12]
    764e:	3303      	adds	r3, #3
    7650:	81eb      	strh	r3, [r5, #14]
    7652:	4b34      	ldr	r3, [pc, #208]	; (7724 <system_clock_init+0x158>)
    7654:	0028      	movs	r0, r5
    7656:	816b      	strh	r3, [r5, #10]
    7658:	3bff      	subs	r3, #255	; 0xff
    765a:	80ab      	strh	r3, [r5, #4]
    765c:	4b32      	ldr	r3, [pc, #200]	; (7728 <system_clock_init+0x15c>)
    765e:	2701      	movs	r7, #1
    7660:	822b      	strh	r3, [r5, #16]
    7662:	4b32      	ldr	r3, [pc, #200]	; (772c <system_clock_init+0x160>)
    7664:	2500      	movs	r5, #0
    7666:	4798      	blx	r3
    7668:	466b      	mov	r3, sp
    766a:	4668      	mov	r0, sp
    766c:	705d      	strb	r5, [r3, #1]
    766e:	709f      	strb	r7, [r3, #2]
    7670:	701d      	strb	r5, [r3, #0]
    7672:	4b2f      	ldr	r3, [pc, #188]	; (7730 <system_clock_init+0x164>)
    7674:	4798      	blx	r3
    7676:	2006      	movs	r0, #6
    7678:	47a0      	blx	r4
    767a:	4b2e      	ldr	r3, [pc, #184]	; (7734 <system_clock_init+0x168>)
    767c:	4798      	blx	r3
    767e:	2306      	movs	r3, #6
    7680:	ac04      	add	r4, sp, #16
    7682:	0021      	movs	r1, r4
    7684:	7023      	strb	r3, [r4, #0]
    7686:	0038      	movs	r0, r7
    7688:	4b2b      	ldr	r3, [pc, #172]	; (7738 <system_clock_init+0x16c>)
    768a:	6067      	str	r7, [r4, #4]
    768c:	7065      	strb	r5, [r4, #1]
    768e:	7225      	strb	r5, [r4, #8]
    7690:	7265      	strb	r5, [r4, #9]
    7692:	4798      	blx	r3
    7694:	0038      	movs	r0, r7
    7696:	4b29      	ldr	r3, [pc, #164]	; (773c <system_clock_init+0x170>)
    7698:	4798      	blx	r3
    769a:	0021      	movs	r1, r4
    769c:	2003      	movs	r0, #3
    769e:	4b26      	ldr	r3, [pc, #152]	; (7738 <system_clock_init+0x16c>)
    76a0:	6067      	str	r7, [r4, #4]
    76a2:	7065      	strb	r5, [r4, #1]
    76a4:	7225      	strb	r5, [r4, #8]
    76a6:	7265      	strb	r5, [r4, #9]
    76a8:	7025      	strb	r5, [r4, #0]
    76aa:	4798      	blx	r3
    76ac:	2003      	movs	r0, #3
    76ae:	4b23      	ldr	r3, [pc, #140]	; (773c <system_clock_init+0x170>)
    76b0:	4798      	blx	r3
    76b2:	2306      	movs	r3, #6
    76b4:	7023      	strb	r3, [r4, #0]
    76b6:	23ff      	movs	r3, #255	; 0xff
    76b8:	0021      	movs	r1, r4
    76ba:	6063      	str	r3, [r4, #4]
    76bc:	2004      	movs	r0, #4
    76be:	4b1e      	ldr	r3, [pc, #120]	; (7738 <system_clock_init+0x16c>)
    76c0:	7065      	strb	r5, [r4, #1]
    76c2:	7225      	strb	r5, [r4, #8]
    76c4:	7265      	strb	r5, [r4, #9]
    76c6:	4798      	blx	r3
    76c8:	2004      	movs	r0, #4
    76ca:	4b1c      	ldr	r3, [pc, #112]	; (773c <system_clock_init+0x170>)
    76cc:	4798      	blx	r3
    76ce:	4b1c      	ldr	r3, [pc, #112]	; (7740 <system_clock_init+0x174>)
    76d0:	4798      	blx	r3
    76d2:	2310      	movs	r3, #16
    76d4:	68f2      	ldr	r2, [r6, #12]
    76d6:	421a      	tst	r2, r3
    76d8:	d0fc      	beq.n	76d4 <system_clock_init+0x108>
    76da:	2500      	movs	r5, #0
    76dc:	4b19      	ldr	r3, [pc, #100]	; (7744 <system_clock_init+0x178>)
    76de:	0021      	movs	r1, r4
    76e0:	721d      	strb	r5, [r3, #8]
    76e2:	725d      	strb	r5, [r3, #9]
    76e4:	729d      	strb	r5, [r3, #10]
    76e6:	72dd      	strb	r5, [r3, #11]
    76e8:	2301      	movs	r3, #1
    76ea:	6063      	str	r3, [r4, #4]
    76ec:	3306      	adds	r3, #6
    76ee:	7023      	strb	r3, [r4, #0]
    76f0:	0028      	movs	r0, r5
    76f2:	4b11      	ldr	r3, [pc, #68]	; (7738 <system_clock_init+0x16c>)
    76f4:	7065      	strb	r5, [r4, #1]
    76f6:	7225      	strb	r5, [r4, #8]
    76f8:	7265      	strb	r5, [r4, #9]
    76fa:	4798      	blx	r3
    76fc:	0028      	movs	r0, r5
    76fe:	4b0f      	ldr	r3, [pc, #60]	; (773c <system_clock_init+0x170>)
    7700:	4798      	blx	r3
    7702:	b00d      	add	sp, #52	; 0x34
    7704:	bdf0      	pop	{r4, r5, r6, r7, pc}
    7706:	46c0      	nop			; (mov r8, r8)
    7708:	40000800 	.word	0x40000800
    770c:	41004000 	.word	0x41004000
    7710:	00007969 	.word	0x00007969
    7714:	00b71b00 	.word	0x00b71b00
    7718:	0000741d 	.word	0x0000741d
    771c:	00007565 	.word	0x00007565
    7720:	00806024 	.word	0x00806024
    7724:	000001ff 	.word	0x000001ff
    7728:	ffffbb80 	.word	0xffffbb80
    772c:	000074e9 	.word	0x000074e9
    7730:	000073e1 	.word	0x000073e1
    7734:	00007755 	.word	0x00007755
    7738:	00007775 	.word	0x00007775
    773c:	00007819 	.word	0x00007819
    7740:	00007319 	.word	0x00007319
    7744:	40000400 	.word	0x40000400

00007748 <system_gclk_is_syncing>:
    7748:	4b01      	ldr	r3, [pc, #4]	; (7750 <system_gclk_is_syncing+0x8>)
    774a:	7858      	ldrb	r0, [r3, #1]
    774c:	09c0      	lsrs	r0, r0, #7
    774e:	4770      	bx	lr
    7750:	40000c00 	.word	0x40000c00

00007754 <system_gclk_init>:
    7754:	2308      	movs	r3, #8
    7756:	4a05      	ldr	r2, [pc, #20]	; (776c <system_gclk_init+0x18>)
    7758:	6991      	ldr	r1, [r2, #24]
    775a:	430b      	orrs	r3, r1
    775c:	6193      	str	r3, [r2, #24]
    775e:	2301      	movs	r3, #1
    7760:	4a03      	ldr	r2, [pc, #12]	; (7770 <system_gclk_init+0x1c>)
    7762:	7013      	strb	r3, [r2, #0]
    7764:	7811      	ldrb	r1, [r2, #0]
    7766:	4219      	tst	r1, r3
    7768:	d1fc      	bne.n	7764 <system_gclk_init+0x10>
    776a:	4770      	bx	lr
    776c:	40000400 	.word	0x40000400
    7770:	40000c00 	.word	0x40000c00

00007774 <system_gclk_gen_set_config>:
    7774:	b5f8      	push	{r3, r4, r5, r6, r7, lr}
    7776:	780c      	ldrb	r4, [r1, #0]
    7778:	784b      	ldrb	r3, [r1, #1]
    777a:	0224      	lsls	r4, r4, #8
    777c:	0006      	movs	r6, r0
    777e:	0005      	movs	r5, r0
    7780:	4304      	orrs	r4, r0
    7782:	2b00      	cmp	r3, #0
    7784:	d002      	beq.n	778c <system_gclk_gen_set_config+0x18>
    7786:	2380      	movs	r3, #128	; 0x80
    7788:	02db      	lsls	r3, r3, #11
    778a:	431c      	orrs	r4, r3
    778c:	7a4b      	ldrb	r3, [r1, #9]
    778e:	2b00      	cmp	r3, #0
    7790:	d002      	beq.n	7798 <system_gclk_gen_set_config+0x24>
    7792:	2380      	movs	r3, #128	; 0x80
    7794:	031b      	lsls	r3, r3, #12
    7796:	431c      	orrs	r4, r3
    7798:	684b      	ldr	r3, [r1, #4]
    779a:	2b01      	cmp	r3, #1
    779c:	d912      	bls.n	77c4 <system_gclk_gen_set_config+0x50>
    779e:	1e5d      	subs	r5, r3, #1
    77a0:	401d      	ands	r5, r3
    77a2:	2202      	movs	r2, #2
    77a4:	2d00      	cmp	r5, #0
    77a6:	d006      	beq.n	77b6 <system_gclk_gen_set_config+0x42>
    77a8:	021d      	lsls	r5, r3, #8
    77aa:	2380      	movs	r3, #128	; 0x80
    77ac:	4335      	orrs	r5, r6
    77ae:	029b      	lsls	r3, r3, #10
    77b0:	e007      	b.n	77c2 <system_gclk_gen_set_config+0x4e>
    77b2:	3501      	adds	r5, #1
    77b4:	0052      	lsls	r2, r2, #1
    77b6:	429a      	cmp	r2, r3
    77b8:	d3fb      	bcc.n	77b2 <system_gclk_gen_set_config+0x3e>
    77ba:	2380      	movs	r3, #128	; 0x80
    77bc:	022d      	lsls	r5, r5, #8
    77be:	4335      	orrs	r5, r6
    77c0:	035b      	lsls	r3, r3, #13
    77c2:	431c      	orrs	r4, r3
    77c4:	7a0b      	ldrb	r3, [r1, #8]
    77c6:	2b00      	cmp	r3, #0
    77c8:	d002      	beq.n	77d0 <system_gclk_gen_set_config+0x5c>
    77ca:	2380      	movs	r3, #128	; 0x80
    77cc:	039b      	lsls	r3, r3, #14
    77ce:	431c      	orrs	r4, r3
    77d0:	4f0c      	ldr	r7, [pc, #48]	; (7804 <system_gclk_gen_set_config+0x90>)
    77d2:	47b8      	blx	r7
    77d4:	2800      	cmp	r0, #0
    77d6:	d1fb      	bne.n	77d0 <system_gclk_gen_set_config+0x5c>
    77d8:	4b0b      	ldr	r3, [pc, #44]	; (7808 <system_gclk_gen_set_config+0x94>)
    77da:	4798      	blx	r3
    77dc:	4b0b      	ldr	r3, [pc, #44]	; (780c <system_gclk_gen_set_config+0x98>)
    77de:	701e      	strb	r6, [r3, #0]
    77e0:	47b8      	blx	r7
    77e2:	2800      	cmp	r0, #0
    77e4:	d1fc      	bne.n	77e0 <system_gclk_gen_set_config+0x6c>
    77e6:	4b0a      	ldr	r3, [pc, #40]	; (7810 <system_gclk_gen_set_config+0x9c>)
    77e8:	609d      	str	r5, [r3, #8]
    77ea:	001d      	movs	r5, r3
    77ec:	47b8      	blx	r7
    77ee:	2800      	cmp	r0, #0
    77f0:	d1fc      	bne.n	77ec <system_gclk_gen_set_config+0x78>
    77f2:	2280      	movs	r2, #128	; 0x80
    77f4:	686b      	ldr	r3, [r5, #4]
    77f6:	0252      	lsls	r2, r2, #9
    77f8:	4013      	ands	r3, r2
    77fa:	431c      	orrs	r4, r3
    77fc:	606c      	str	r4, [r5, #4]
    77fe:	4b05      	ldr	r3, [pc, #20]	; (7814 <system_gclk_gen_set_config+0xa0>)
    7800:	4798      	blx	r3
    7802:	bdf8      	pop	{r3, r4, r5, r6, r7, pc}
    7804:	00007749 	.word	0x00007749
    7808:	000072a5 	.word	0x000072a5
    780c:	40000c08 	.word	0x40000c08
    7810:	40000c00 	.word	0x40000c00
    7814:	000072d9 	.word	0x000072d9

00007818 <system_gclk_gen_enable>:
    7818:	b570      	push	{r4, r5, r6, lr}
    781a:	0005      	movs	r5, r0
    781c:	4c09      	ldr	r4, [pc, #36]	; (7844 <system_gclk_gen_enable+0x2c>)
    781e:	47a0      	blx	r4
    7820:	2800      	cmp	r0, #0
    7822:	d1fb      	bne.n	781c <system_gclk_gen_enable+0x4>
    7824:	4b08      	ldr	r3, [pc, #32]	; (7848 <system_gclk_gen_enable+0x30>)
    7826:	4798      	blx	r3
    7828:	4b08      	ldr	r3, [pc, #32]	; (784c <system_gclk_gen_enable+0x34>)
    782a:	701d      	strb	r5, [r3, #0]
    782c:	47a0      	blx	r4
    782e:	2800      	cmp	r0, #0
    7830:	d1fc      	bne.n	782c <system_gclk_gen_enable+0x14>
    7832:	2380      	movs	r3, #128	; 0x80
    7834:	4a06      	ldr	r2, [pc, #24]	; (7850 <system_gclk_gen_enable+0x38>)
    7836:	025b      	lsls	r3, r3, #9
    7838:	6851      	ldr	r1, [r2, #4]
    783a:	430b      	orrs	r3, r1
    783c:	6053      	str	r3, [r2, #4]
    783e:	4b05      	ldr	r3, [pc, #20]	; (7854 <system_gclk_gen_enable+0x3c>)
    7840:	4798      	blx	r3
    7842:	bd70      	pop	{r4, r5, r6, pc}
    7844:	00007749 	.word	0x00007749
    7848:	000072a5 	.word	0x000072a5
    784c:	40000c04 	.word	0x40000c04
    7850:	40000c00 	.word	0x40000c00
    7854:	000072d9 	.word	0x000072d9

00007858 <system_gclk_gen_get_hz>:
    7858:	b5f7      	push	{r0, r1, r2, r4, r5, r6, r7, lr}
    785a:	0007      	movs	r7, r0
    785c:	4e18      	ldr	r6, [pc, #96]	; (78c0 <system_gclk_gen_get_hz+0x68>)
    785e:	47b0      	blx	r6
    7860:	2800      	cmp	r0, #0
    7862:	d1fb      	bne.n	785c <system_gclk_gen_get_hz+0x4>
    7864:	4b17      	ldr	r3, [pc, #92]	; (78c4 <system_gclk_gen_get_hz+0x6c>)
    7866:	4798      	blx	r3
    7868:	4b17      	ldr	r3, [pc, #92]	; (78c8 <system_gclk_gen_get_hz+0x70>)
    786a:	701f      	strb	r7, [r3, #0]
    786c:	9301      	str	r3, [sp, #4]
    786e:	47b0      	blx	r6
    7870:	2800      	cmp	r0, #0
    7872:	d1fc      	bne.n	786e <system_gclk_gen_get_hz+0x16>
    7874:	4d15      	ldr	r5, [pc, #84]	; (78cc <system_gclk_gen_get_hz+0x74>)
    7876:	4b16      	ldr	r3, [pc, #88]	; (78d0 <system_gclk_gen_get_hz+0x78>)
    7878:	6868      	ldr	r0, [r5, #4]
    787a:	04c0      	lsls	r0, r0, #19
    787c:	0ec0      	lsrs	r0, r0, #27
    787e:	4798      	blx	r3
    7880:	0004      	movs	r4, r0
    7882:	9b01      	ldr	r3, [sp, #4]
    7884:	701f      	strb	r7, [r3, #0]
    7886:	686b      	ldr	r3, [r5, #4]
    7888:	02db      	lsls	r3, r3, #11
    788a:	0fdb      	lsrs	r3, r3, #31
    788c:	9301      	str	r3, [sp, #4]
    788e:	4b11      	ldr	r3, [pc, #68]	; (78d4 <system_gclk_gen_get_hz+0x7c>)
    7890:	701f      	strb	r7, [r3, #0]
    7892:	47b0      	blx	r6
    7894:	2800      	cmp	r0, #0
    7896:	d1fc      	bne.n	7892 <system_gclk_gen_get_hz+0x3a>
    7898:	68ad      	ldr	r5, [r5, #8]
    789a:	4b0f      	ldr	r3, [pc, #60]	; (78d8 <system_gclk_gen_get_hz+0x80>)
    789c:	4798      	blx	r3
    789e:	9b01      	ldr	r3, [sp, #4]
    78a0:	022d      	lsls	r5, r5, #8
    78a2:	0c2d      	lsrs	r5, r5, #16
    78a4:	2b00      	cmp	r3, #0
    78a6:	d108      	bne.n	78ba <system_gclk_gen_get_hz+0x62>
    78a8:	2d01      	cmp	r5, #1
    78aa:	d904      	bls.n	78b6 <system_gclk_gen_get_hz+0x5e>
    78ac:	0020      	movs	r0, r4
    78ae:	0029      	movs	r1, r5
    78b0:	4b0a      	ldr	r3, [pc, #40]	; (78dc <system_gclk_gen_get_hz+0x84>)
    78b2:	4798      	blx	r3
    78b4:	0004      	movs	r4, r0
    78b6:	0020      	movs	r0, r4
    78b8:	bdfe      	pop	{r1, r2, r3, r4, r5, r6, r7, pc}
    78ba:	3501      	adds	r5, #1
    78bc:	40ec      	lsrs	r4, r5
    78be:	e7fa      	b.n	78b6 <system_gclk_gen_get_hz+0x5e>
    78c0:	00007749 	.word	0x00007749
    78c4:	000072a5 	.word	0x000072a5
    78c8:	40000c04 	.word	0x40000c04
    78cc:	40000c00 	.word	0x40000c00
    78d0:	00007351 	.word	0x00007351
    78d4:	40000c08 	.word	0x40000c08
    78d8:	000072d9 	.word	0x000072d9
    78dc:	00007cb9 	.word	0x00007cb9

000078e0 <system_gclk_chan_enable>:
    78e0:	b510      	push	{r4, lr}
    78e2:	0004      	movs	r4, r0
    78e4:	4b06      	ldr	r3, [pc, #24]	; (7900 <system_gclk_chan_enable+0x20>)
    78e6:	4798      	blx	r3
    78e8:	4b06      	ldr	r3, [pc, #24]	; (7904 <system_gclk_chan_enable+0x24>)
    78ea:	4a07      	ldr	r2, [pc, #28]	; (7908 <system_gclk_chan_enable+0x28>)
    78ec:	701c      	strb	r4, [r3, #0]
    78ee:	2380      	movs	r3, #128	; 0x80
    78f0:	8851      	ldrh	r1, [r2, #2]
    78f2:	01db      	lsls	r3, r3, #7
    78f4:	430b      	orrs	r3, r1
    78f6:	8053      	strh	r3, [r2, #2]
    78f8:	4b04      	ldr	r3, [pc, #16]	; (790c <system_gclk_chan_enable+0x2c>)
    78fa:	4798      	blx	r3
    78fc:	bd10      	pop	{r4, pc}
    78fe:	46c0      	nop			; (mov r8, r8)
    7900:	000072a5 	.word	0x000072a5
    7904:	40000c02 	.word	0x40000c02
    7908:	40000c00 	.word	0x40000c00
    790c:	000072d9 	.word	0x000072d9

00007910 <system_gclk_chan_disable>:
    7910:	b510      	push	{r4, lr}
    7912:	0004      	movs	r4, r0
    7914:	4b0e      	ldr	r3, [pc, #56]	; (7950 <system_gclk_chan_disable+0x40>)
    7916:	4798      	blx	r3
    7918:	4b0e      	ldr	r3, [pc, #56]	; (7954 <system_gclk_chan_disable+0x44>)
    791a:	4a0f      	ldr	r2, [pc, #60]	; (7958 <system_gclk_chan_disable+0x48>)
    791c:	701c      	strb	r4, [r3, #0]
    791e:	4b0f      	ldr	r3, [pc, #60]	; (795c <system_gclk_chan_disable+0x4c>)
    7920:	4c0f      	ldr	r4, [pc, #60]	; (7960 <system_gclk_chan_disable+0x50>)
    7922:	8858      	ldrh	r0, [r3, #2]
    7924:	8859      	ldrh	r1, [r3, #2]
    7926:	0500      	lsls	r0, r0, #20
    7928:	4011      	ands	r1, r2
    792a:	8059      	strh	r1, [r3, #2]
    792c:	8859      	ldrh	r1, [r3, #2]
    792e:	0f00      	lsrs	r0, r0, #28
    7930:	4021      	ands	r1, r4
    7932:	8059      	strh	r1, [r3, #2]
    7934:	0011      	movs	r1, r2
    7936:	2280      	movs	r2, #128	; 0x80
    7938:	01d2      	lsls	r2, r2, #7
    793a:	885c      	ldrh	r4, [r3, #2]
    793c:	4214      	tst	r4, r2
    793e:	d1fc      	bne.n	793a <system_gclk_chan_disable+0x2a>
    7940:	885a      	ldrh	r2, [r3, #2]
    7942:	0200      	lsls	r0, r0, #8
    7944:	400a      	ands	r2, r1
    7946:	4302      	orrs	r2, r0
    7948:	805a      	strh	r2, [r3, #2]
    794a:	4b06      	ldr	r3, [pc, #24]	; (7964 <system_gclk_chan_disable+0x54>)
    794c:	4798      	blx	r3
    794e:	bd10      	pop	{r4, pc}
    7950:	000072a5 	.word	0x000072a5
    7954:	40000c02 	.word	0x40000c02
    7958:	fffff0ff 	.word	0xfffff0ff
    795c:	40000c00 	.word	0x40000c00
    7960:	ffffbfff 	.word	0xffffbfff
    7964:	000072d9 	.word	0x000072d9

00007968 <system_gclk_chan_set_config>:
    7968:	b510      	push	{r4, lr}
    796a:	780c      	ldrb	r4, [r1, #0]
    796c:	4b03      	ldr	r3, [pc, #12]	; (797c <system_gclk_chan_set_config+0x14>)
    796e:	0224      	lsls	r4, r4, #8
    7970:	4304      	orrs	r4, r0
    7972:	4798      	blx	r3
    7974:	4b02      	ldr	r3, [pc, #8]	; (7980 <system_gclk_chan_set_config+0x18>)
    7976:	b2a4      	uxth	r4, r4
    7978:	805c      	strh	r4, [r3, #2]
    797a:	bd10      	pop	{r4, pc}
    797c:	00007911 	.word	0x00007911
    7980:	40000c00 	.word	0x40000c00

00007984 <system_gclk_chan_lock>:
    7984:	b510      	push	{r4, lr}
    7986:	0004      	movs	r4, r0
    7988:	4b06      	ldr	r3, [pc, #24]	; (79a4 <system_gclk_chan_lock+0x20>)
    798a:	4798      	blx	r3
    798c:	21c0      	movs	r1, #192	; 0xc0
    798e:	4b06      	ldr	r3, [pc, #24]	; (79a8 <system_gclk_chan_lock+0x24>)
    7990:	4a06      	ldr	r2, [pc, #24]	; (79ac <system_gclk_chan_lock+0x28>)
    7992:	701c      	strb	r4, [r3, #0]
    7994:	8853      	ldrh	r3, [r2, #2]
    7996:	0209      	lsls	r1, r1, #8
    7998:	430b      	orrs	r3, r1
    799a:	8053      	strh	r3, [r2, #2]
    799c:	4b04      	ldr	r3, [pc, #16]	; (79b0 <system_gclk_chan_lock+0x2c>)
    799e:	4798      	blx	r3
    79a0:	bd10      	pop	{r4, pc}
    79a2:	46c0      	nop			; (mov r8, r8)
    79a4:	000072a5 	.word	0x000072a5
    79a8:	40000c02 	.word	0x40000c02
    79ac:	40000c00 	.word	0x40000c00
    79b0:	000072d9 	.word	0x000072d9

000079b4 <system_gclk_chan_get_hz>:
    79b4:	b510      	push	{r4, lr}
    79b6:	0004      	movs	r4, r0
    79b8:	4b06      	ldr	r3, [pc, #24]	; (79d4 <system_gclk_chan_get_hz+0x20>)
    79ba:	4798      	blx	r3
    79bc:	4b06      	ldr	r3, [pc, #24]	; (79d8 <system_gclk_chan_get_hz+0x24>)
    79be:	701c      	strb	r4, [r3, #0]
    79c0:	4b06      	ldr	r3, [pc, #24]	; (79dc <system_gclk_chan_get_hz+0x28>)
    79c2:	885c      	ldrh	r4, [r3, #2]
    79c4:	4b06      	ldr	r3, [pc, #24]	; (79e0 <system_gclk_chan_get_hz+0x2c>)
    79c6:	0524      	lsls	r4, r4, #20
    79c8:	0f24      	lsrs	r4, r4, #28
    79ca:	4798      	blx	r3
    79cc:	0020      	movs	r0, r4
    79ce:	4b05      	ldr	r3, [pc, #20]	; (79e4 <system_gclk_chan_get_hz+0x30>)
    79d0:	4798      	blx	r3
    79d2:	bd10      	pop	{r4, pc}
    79d4:	000072a5 	.word	0x000072a5
    79d8:	40000c02 	.word	0x40000c02
    79dc:	40000c00 	.word	0x40000c00
    79e0:	000072d9 	.word	0x000072d9
    79e4:	00007859 	.word	0x00007859

000079e8 <_system_pinmux_config>:
    79e8:	78d3      	ldrb	r3, [r2, #3]
    79ea:	b530      	push	{r4, r5, lr}
    79ec:	2b00      	cmp	r3, #0
    79ee:	d135      	bne.n	7a5c <_system_pinmux_config+0x74>
    79f0:	7814      	ldrb	r4, [r2, #0]
    79f2:	2c80      	cmp	r4, #128	; 0x80
    79f4:	d003      	beq.n	79fe <_system_pinmux_config+0x16>
    79f6:	2380      	movs	r3, #128	; 0x80
    79f8:	0624      	lsls	r4, r4, #24
    79fa:	025b      	lsls	r3, r3, #9
    79fc:	4323      	orrs	r3, r4
    79fe:	2502      	movs	r5, #2
    7a00:	7854      	ldrb	r4, [r2, #1]
    7a02:	43ac      	bics	r4, r5
    7a04:	d106      	bne.n	7a14 <_system_pinmux_config+0x2c>
    7a06:	7894      	ldrb	r4, [r2, #2]
    7a08:	2c00      	cmp	r4, #0
    7a0a:	d124      	bne.n	7a56 <_system_pinmux_config+0x6e>
    7a0c:	2480      	movs	r4, #128	; 0x80
    7a0e:	02a4      	lsls	r4, r4, #10
    7a10:	4323      	orrs	r3, r4
    7a12:	6041      	str	r1, [r0, #4]
    7a14:	7854      	ldrb	r4, [r2, #1]
    7a16:	3c01      	subs	r4, #1
    7a18:	2c01      	cmp	r4, #1
    7a1a:	d801      	bhi.n	7a20 <_system_pinmux_config+0x38>
    7a1c:	4c12      	ldr	r4, [pc, #72]	; (7a68 <_system_pinmux_config+0x80>)
    7a1e:	4023      	ands	r3, r4
    7a20:	24a0      	movs	r4, #160	; 0xa0
    7a22:	b28d      	uxth	r5, r1
    7a24:	05e4      	lsls	r4, r4, #23
    7a26:	432c      	orrs	r4, r5
    7a28:	431c      	orrs	r4, r3
    7a2a:	6284      	str	r4, [r0, #40]	; 0x28
    7a2c:	24d0      	movs	r4, #208	; 0xd0
    7a2e:	0c0d      	lsrs	r5, r1, #16
    7a30:	0624      	lsls	r4, r4, #24
    7a32:	432c      	orrs	r4, r5
    7a34:	431c      	orrs	r4, r3
    7a36:	6284      	str	r4, [r0, #40]	; 0x28
    7a38:	78d4      	ldrb	r4, [r2, #3]
    7a3a:	2c00      	cmp	r4, #0
    7a3c:	d10a      	bne.n	7a54 <_system_pinmux_config+0x6c>
    7a3e:	035b      	lsls	r3, r3, #13
    7a40:	d503      	bpl.n	7a4a <_system_pinmux_config+0x62>
    7a42:	7893      	ldrb	r3, [r2, #2]
    7a44:	2b01      	cmp	r3, #1
    7a46:	d10c      	bne.n	7a62 <_system_pinmux_config+0x7a>
    7a48:	6181      	str	r1, [r0, #24]
    7a4a:	7853      	ldrb	r3, [r2, #1]
    7a4c:	3b01      	subs	r3, #1
    7a4e:	2b01      	cmp	r3, #1
    7a50:	d800      	bhi.n	7a54 <_system_pinmux_config+0x6c>
    7a52:	6081      	str	r1, [r0, #8]
    7a54:	bd30      	pop	{r4, r5, pc}
    7a56:	24c0      	movs	r4, #192	; 0xc0
    7a58:	02e4      	lsls	r4, r4, #11
    7a5a:	e7d9      	b.n	7a10 <_system_pinmux_config+0x28>
    7a5c:	6041      	str	r1, [r0, #4]
    7a5e:	2300      	movs	r3, #0
    7a60:	e7de      	b.n	7a20 <_system_pinmux_config+0x38>
    7a62:	6141      	str	r1, [r0, #20]
    7a64:	e7f1      	b.n	7a4a <_system_pinmux_config+0x62>
    7a66:	46c0      	nop			; (mov r8, r8)
    7a68:	fffbffff 	.word	0xfffbffff

00007a6c <system_pinmux_pin_set_config>:
    7a6c:	b510      	push	{r4, lr}
    7a6e:	0003      	movs	r3, r0
    7a70:	000a      	movs	r2, r1
    7a72:	0944      	lsrs	r4, r0, #5
    7a74:	09c1      	lsrs	r1, r0, #7
    7a76:	2000      	movs	r0, #0
    7a78:	4281      	cmp	r1, r0
    7a7a:	d102      	bne.n	7a82 <system_pinmux_pin_set_config+0x16>
    7a7c:	4904      	ldr	r1, [pc, #16]	; (7a90 <system_pinmux_pin_set_config+0x24>)
    7a7e:	01e0      	lsls	r0, r4, #7
    7a80:	1840      	adds	r0, r0, r1
    7a82:	211f      	movs	r1, #31
    7a84:	400b      	ands	r3, r1
    7a86:	391e      	subs	r1, #30
    7a88:	4099      	lsls	r1, r3
    7a8a:	4b02      	ldr	r3, [pc, #8]	; (7a94 <system_pinmux_pin_set_config+0x28>)
    7a8c:	4798      	blx	r3
    7a8e:	bd10      	pop	{r4, pc}
    7a90:	41004400 	.word	0x41004400
    7a94:	000079e9 	.word	0x000079e9

00007a98 <_system_dummy_init>:
    7a98:	4770      	bx	lr
	...

00007a9c <system_init>:
    7a9c:	b510      	push	{r4, lr}
    7a9e:	4b05      	ldr	r3, [pc, #20]	; (7ab4 <system_init+0x18>)
    7aa0:	4798      	blx	r3
    7aa2:	4b05      	ldr	r3, [pc, #20]	; (7ab8 <system_init+0x1c>)
    7aa4:	4798      	blx	r3
    7aa6:	4b05      	ldr	r3, [pc, #20]	; (7abc <system_init+0x20>)
    7aa8:	4798      	blx	r3
    7aaa:	4b05      	ldr	r3, [pc, #20]	; (7ac0 <system_init+0x24>)
    7aac:	4798      	blx	r3
    7aae:	4b05      	ldr	r3, [pc, #20]	; (7ac4 <system_init+0x28>)
    7ab0:	4798      	blx	r3
    7ab2:	bd10      	pop	{r4, pc}
    7ab4:	000075cd 	.word	0x000075cd
    7ab8:	00007155 	.word	0x00007155
    7abc:	00007a99 	.word	0x00007a99
    7ac0:	000012dd 	.word	0x000012dd
    7ac4:	00007a99 	.word	0x00007a99

00007ac8 <Dummy_Handler>:
    7ac8:	e7fe      	b.n	7ac8 <Dummy_Handler>
	...

00007acc <Reset_Handler>:
    7acc:	4821      	ldr	r0, [pc, #132]	; (7b54 <Reset_Handler+0x88>)
    7ace:	4922      	ldr	r1, [pc, #136]	; (7b58 <Reset_Handler+0x8c>)
    7ad0:	b570      	push	{r4, r5, r6, lr}
    7ad2:	4288      	cmp	r0, r1
    7ad4:	d004      	beq.n	7ae0 <Reset_Handler+0x14>
    7ad6:	2300      	movs	r3, #0
    7ad8:	4c20      	ldr	r4, [pc, #128]	; (7b5c <Reset_Handler+0x90>)
    7ada:	18ca      	adds	r2, r1, r3
    7adc:	42a2      	cmp	r2, r4
    7ade:	d332      	bcc.n	7b46 <Reset_Handler+0x7a>
    7ae0:	2100      	movs	r1, #0
    7ae2:	4b1f      	ldr	r3, [pc, #124]	; (7b60 <Reset_Handler+0x94>)
    7ae4:	4a1f      	ldr	r2, [pc, #124]	; (7b64 <Reset_Handler+0x98>)
    7ae6:	4293      	cmp	r3, r2
    7ae8:	d331      	bcc.n	7b4e <Reset_Handler+0x82>
    7aea:	21ff      	movs	r1, #255	; 0xff
    7aec:	4b1e      	ldr	r3, [pc, #120]	; (7b68 <Reset_Handler+0x9c>)
    7aee:	4a1f      	ldr	r2, [pc, #124]	; (7b6c <Reset_Handler+0xa0>)
    7af0:	438b      	bics	r3, r1
    7af2:	6093      	str	r3, [r2, #8]
    7af4:	2202      	movs	r2, #2
    7af6:	250c      	movs	r5, #12
    7af8:	2408      	movs	r4, #8
    7afa:	2630      	movs	r6, #48	; 0x30
    7afc:	4b1c      	ldr	r3, [pc, #112]	; (7b70 <Reset_Handler+0xa4>)
    7afe:	481d      	ldr	r0, [pc, #116]	; (7b74 <Reset_Handler+0xa8>)
    7b00:	625a      	str	r2, [r3, #36]	; 0x24
    7b02:	78c3      	ldrb	r3, [r0, #3]
    7b04:	39fc      	subs	r1, #252	; 0xfc
    7b06:	438b      	bics	r3, r1
    7b08:	4313      	orrs	r3, r2
    7b0a:	70c3      	strb	r3, [r0, #3]
    7b0c:	78c3      	ldrb	r3, [r0, #3]
    7b0e:	43ab      	bics	r3, r5
    7b10:	4323      	orrs	r3, r4
    7b12:	70c3      	strb	r3, [r0, #3]
    7b14:	4b18      	ldr	r3, [pc, #96]	; (7b78 <Reset_Handler+0xac>)
    7b16:	7b98      	ldrb	r0, [r3, #14]
    7b18:	43b0      	bics	r0, r6
    7b1a:	0006      	movs	r6, r0
    7b1c:	2020      	movs	r0, #32
    7b1e:	4330      	orrs	r0, r6
    7b20:	7398      	strb	r0, [r3, #14]
    7b22:	7b98      	ldrb	r0, [r3, #14]
    7b24:	43a8      	bics	r0, r5
    7b26:	4304      	orrs	r4, r0
    7b28:	739c      	strb	r4, [r3, #14]
    7b2a:	7b98      	ldrb	r0, [r3, #14]
    7b2c:	4388      	bics	r0, r1
    7b2e:	4302      	orrs	r2, r0
    7b30:	739a      	strb	r2, [r3, #14]
    7b32:	2380      	movs	r3, #128	; 0x80
    7b34:	4a11      	ldr	r2, [pc, #68]	; (7b7c <Reset_Handler+0xb0>)
    7b36:	6851      	ldr	r1, [r2, #4]
    7b38:	430b      	orrs	r3, r1
    7b3a:	6053      	str	r3, [r2, #4]
    7b3c:	4b10      	ldr	r3, [pc, #64]	; (7b80 <Reset_Handler+0xb4>)
    7b3e:	4798      	blx	r3
    7b40:	4b10      	ldr	r3, [pc, #64]	; (7b84 <Reset_Handler+0xb8>)
    7b42:	4798      	blx	r3
    7b44:	e7fe      	b.n	7b44 <Reset_Handler+0x78>
    7b46:	58c5      	ldr	r5, [r0, r3]
    7b48:	3304      	adds	r3, #4
    7b4a:	6015      	str	r5, [r2, #0]
    7b4c:	e7c5      	b.n	7ada <Reset_Handler+0xe>
    7b4e:	c302      	stmia	r3!, {r1}
    7b50:	e7c9      	b.n	7ae6 <Reset_Handler+0x1a>
    7b52:	46c0      	nop			; (mov r8, r8)
    7b54:	0000bb08 	.word	0x0000bb08
    7b58:	20000000 	.word	0x20000000
    7b5c:	2000012c 	.word	0x2000012c
    7b60:	2000012c 	.word	0x2000012c
    7b64:	20003f9c 	.word	0x20003f9c
    7b68:	00000000 	.word	0x00000000
    7b6c:	e000ed00 	.word	0xe000ed00
    7b70:	410070fc 	.word	0x410070fc
    7b74:	41005000 	.word	0x41005000
    7b78:	41004800 	.word	0x41004800
    7b7c:	41004000 	.word	0x41004000
    7b80:	0000adcd 	.word	0x0000adcd
    7b84:	00007ba9 	.word	0x00007ba9

00007b88 <_sbrk>:
    7b88:	4b05      	ldr	r3, [pc, #20]	; (7ba0 <_sbrk+0x18>)
    7b8a:	0002      	movs	r2, r0
    7b8c:	6819      	ldr	r1, [r3, #0]
    7b8e:	2900      	cmp	r1, #0
    7b90:	d101      	bne.n	7b96 <_sbrk+0xe>
    7b92:	4904      	ldr	r1, [pc, #16]	; (7ba4 <_sbrk+0x1c>)
    7b94:	6019      	str	r1, [r3, #0]
    7b96:	6818      	ldr	r0, [r3, #0]
    7b98:	1882      	adds	r2, r0, r2
    7b9a:	601a      	str	r2, [r3, #0]
    7b9c:	4770      	bx	lr
    7b9e:	46c0      	nop			; (mov r8, r8)
    7ba0:	20003b58 	.word	0x20003b58
    7ba4:	20005fa0 	.word	0x20005fa0

00007ba8 <main>:
    7ba8:	b5f7      	push	{r0, r1, r2, r4, r5, r6, r7, lr}
    7baa:	2501      	movs	r5, #1
    7bac:	4b23      	ldr	r3, [pc, #140]	; (7c3c <main+0x94>)
    7bae:	4798      	blx	r3
    7bb0:	4b23      	ldr	r3, [pc, #140]	; (7c40 <main+0x98>)
    7bb2:	4798      	blx	r3
    7bb4:	4b23      	ldr	r3, [pc, #140]	; (7c44 <main+0x9c>)
    7bb6:	701d      	strb	r5, [r3, #0]
    7bb8:	f3bf 8f5f 	dmb	sy
    7bbc:	b662      	cpsie	i
    7bbe:	2700      	movs	r7, #0
    7bc0:	466b      	mov	r3, sp
    7bc2:	466a      	mov	r2, sp
    7bc4:	701f      	strb	r7, [r3, #0]
    7bc6:	705d      	strb	r5, [r3, #1]
    7bc8:	2304      	movs	r3, #4
    7bca:	2680      	movs	r6, #128	; 0x80
    7bcc:	7093      	strb	r3, [r2, #2]
    7bce:	4c1e      	ldr	r4, [pc, #120]	; (7c48 <main+0xa0>)
    7bd0:	3308      	adds	r3, #8
    7bd2:	70d3      	strb	r3, [r2, #3]
    7bd4:	03f6      	lsls	r6, r6, #15
    7bd6:	4b1d      	ldr	r3, [pc, #116]	; (7c4c <main+0xa4>)
    7bd8:	4668      	mov	r0, sp
    7bda:	7117      	strb	r7, [r2, #4]
    7bdc:	7157      	strb	r7, [r2, #5]
    7bde:	4798      	blx	r3
    7be0:	0038      	movs	r0, r7
    7be2:	4b1b      	ldr	r3, [pc, #108]	; (7c50 <main+0xa8>)
    7be4:	61a6      	str	r6, [r4, #24]
    7be6:	4798      	blx	r3
    7be8:	2264      	movs	r2, #100	; 0x64
    7bea:	2300      	movs	r3, #0
    7bec:	0039      	movs	r1, r7
    7bee:	4f19      	ldr	r7, [pc, #100]	; (7c54 <main+0xac>)
    7bf0:	47b8      	blx	r7
    7bf2:	2300      	movs	r3, #0
    7bf4:	4a18      	ldr	r2, [pc, #96]	; (7c58 <main+0xb0>)
    7bf6:	4f19      	ldr	r7, [pc, #100]	; (7c5c <main+0xb4>)
    7bf8:	1880      	adds	r0, r0, r2
    7bfa:	4159      	adcs	r1, r3
    7bfc:	4a18      	ldr	r2, [pc, #96]	; (7c60 <main+0xb8>)
    7bfe:	2300      	movs	r3, #0
    7c00:	47b8      	blx	r7
    7c02:	4b18      	ldr	r3, [pc, #96]	; (7c64 <main+0xbc>)
    7c04:	4798      	blx	r3
    7c06:	4b18      	ldr	r3, [pc, #96]	; (7c68 <main+0xc0>)
    7c08:	6166      	str	r6, [r4, #20]
    7c0a:	4798      	blx	r3
    7c0c:	2080      	movs	r0, #128	; 0x80
    7c0e:	2103      	movs	r1, #3
    7c10:	0040      	lsls	r0, r0, #1
    7c12:	4b16      	ldr	r3, [pc, #88]	; (7c6c <main+0xc4>)
    7c14:	4798      	blx	r3
    7c16:	2080      	movs	r0, #128	; 0x80
    7c18:	2102      	movs	r1, #2
    7c1a:	0080      	lsls	r0, r0, #2
    7c1c:	4b14      	ldr	r3, [pc, #80]	; (7c70 <main+0xc8>)
    7c1e:	4798      	blx	r3
    7c20:	2080      	movs	r0, #128	; 0x80
    7c22:	2102      	movs	r1, #2
    7c24:	0040      	lsls	r0, r0, #1
    7c26:	4b13      	ldr	r3, [pc, #76]	; (7c74 <main+0xcc>)
    7c28:	4798      	blx	r3
    7c2a:	2080      	movs	r0, #128	; 0x80
    7c2c:	4b12      	ldr	r3, [pc, #72]	; (7c78 <main+0xd0>)
    7c2e:	0029      	movs	r1, r5
    7c30:	0080      	lsls	r0, r0, #2
    7c32:	4798      	blx	r3
    7c34:	4b11      	ldr	r3, [pc, #68]	; (7c7c <main+0xd4>)
    7c36:	4798      	blx	r3
    7c38:	e7fe      	b.n	7c38 <main+0x90>
    7c3a:	46c0      	nop			; (mov r8, r8)
    7c3c:	00007a9d 	.word	0x00007a9d
    7c40:	00007099 	.word	0x00007099
    7c44:	200000c6 	.word	0x200000c6
    7c48:	41004480 	.word	0x41004480
    7c4c:	00006741 	.word	0x00006741
    7c50:	00007859 	.word	0x00007859
    7c54:	00008151 	.word	0x00008151
    7c58:	00001b57 	.word	0x00001b57
    7c5c:	00008111 	.word	0x00008111
    7c60:	00001b58 	.word	0x00001b58
    7c64:	20000001 	.word	0x20000001
    7c68:	00004859 	.word	0x00004859
    7c6c:	00004f65 	.word	0x00004f65
    7c70:	00004ab9 	.word	0x00004ab9
    7c74:	000051f1 	.word	0x000051f1
    7c78:	00004c19 	.word	0x00004c19
    7c7c:	00005ce9 	.word	0x00005ce9

00007c80 <vApplicationMallocFailedHook>:
    7c80:	b672      	cpsid	i
    7c82:	e7fe      	b.n	7c82 <vApplicationMallocFailedHook+0x2>

00007c84 <vApplicationIdleHook>:
    7c84:	4770      	bx	lr

00007c86 <vApplicationTickHook>:
    7c86:	4770      	bx	lr

00007c88 <vApplicationStackOverflowHook>:
    7c88:	b672      	cpsid	i
    7c8a:	e7fe      	b.n	7c8a <vApplicationStackOverflowHook+0x2>

00007c8c <HardFault_Handler>:
    7c8c:	e7fe      	b.n	7c8c <HardFault_Handler>

00007c8e <NMI_Handler>:
    7c8e:	e7fe      	b.n	7c8e <NMI_Handler>

00007c90 <__gnu_thumb1_case_uqi>:
    7c90:	b402      	push	{r1}
    7c92:	4671      	mov	r1, lr
    7c94:	0849      	lsrs	r1, r1, #1
    7c96:	0049      	lsls	r1, r1, #1
    7c98:	5c09      	ldrb	r1, [r1, r0]
    7c9a:	0049      	lsls	r1, r1, #1
    7c9c:	448e      	add	lr, r1
    7c9e:	bc02      	pop	{r1}
    7ca0:	4770      	bx	lr
    7ca2:	46c0      	nop			; (mov r8, r8)

00007ca4 <__gnu_thumb1_case_shi>:
    7ca4:	b403      	push	{r0, r1}
    7ca6:	4671      	mov	r1, lr
    7ca8:	0849      	lsrs	r1, r1, #1
    7caa:	0040      	lsls	r0, r0, #1
    7cac:	0049      	lsls	r1, r1, #1
    7cae:	5e09      	ldrsh	r1, [r1, r0]
    7cb0:	0049      	lsls	r1, r1, #1
    7cb2:	448e      	add	lr, r1
    7cb4:	bc03      	pop	{r0, r1}
    7cb6:	4770      	bx	lr

00007cb8 <__udivsi3>:
    7cb8:	2200      	movs	r2, #0
    7cba:	0843      	lsrs	r3, r0, #1
    7cbc:	428b      	cmp	r3, r1
    7cbe:	d374      	bcc.n	7daa <__udivsi3+0xf2>
    7cc0:	0903      	lsrs	r3, r0, #4
    7cc2:	428b      	cmp	r3, r1
    7cc4:	d35f      	bcc.n	7d86 <__udivsi3+0xce>
    7cc6:	0a03      	lsrs	r3, r0, #8
    7cc8:	428b      	cmp	r3, r1
    7cca:	d344      	bcc.n	7d56 <__udivsi3+0x9e>
    7ccc:	0b03      	lsrs	r3, r0, #12
    7cce:	428b      	cmp	r3, r1
    7cd0:	d328      	bcc.n	7d24 <__udivsi3+0x6c>
    7cd2:	0c03      	lsrs	r3, r0, #16
    7cd4:	428b      	cmp	r3, r1
    7cd6:	d30d      	bcc.n	7cf4 <__udivsi3+0x3c>
    7cd8:	22ff      	movs	r2, #255	; 0xff
    7cda:	0209      	lsls	r1, r1, #8
    7cdc:	ba12      	rev	r2, r2
    7cde:	0c03      	lsrs	r3, r0, #16
    7ce0:	428b      	cmp	r3, r1
    7ce2:	d302      	bcc.n	7cea <__udivsi3+0x32>
    7ce4:	1212      	asrs	r2, r2, #8
    7ce6:	0209      	lsls	r1, r1, #8
    7ce8:	d065      	beq.n	7db6 <__udivsi3+0xfe>
    7cea:	0b03      	lsrs	r3, r0, #12
    7cec:	428b      	cmp	r3, r1
    7cee:	d319      	bcc.n	7d24 <__udivsi3+0x6c>
    7cf0:	e000      	b.n	7cf4 <__udivsi3+0x3c>
    7cf2:	0a09      	lsrs	r1, r1, #8
    7cf4:	0bc3      	lsrs	r3, r0, #15
    7cf6:	428b      	cmp	r3, r1
    7cf8:	d301      	bcc.n	7cfe <__udivsi3+0x46>
    7cfa:	03cb      	lsls	r3, r1, #15
    7cfc:	1ac0      	subs	r0, r0, r3
    7cfe:	4152      	adcs	r2, r2
    7d00:	0b83      	lsrs	r3, r0, #14
    7d02:	428b      	cmp	r3, r1
    7d04:	d301      	bcc.n	7d0a <__udivsi3+0x52>
    7d06:	038b      	lsls	r3, r1, #14
    7d08:	1ac0      	subs	r0, r0, r3
    7d0a:	4152      	adcs	r2, r2
    7d0c:	0b43      	lsrs	r3, r0, #13
    7d0e:	428b      	cmp	r3, r1
    7d10:	d301      	bcc.n	7d16 <__udivsi3+0x5e>
    7d12:	034b      	lsls	r3, r1, #13
    7d14:	1ac0      	subs	r0, r0, r3
    7d16:	4152      	adcs	r2, r2
    7d18:	0b03      	lsrs	r3, r0, #12
    7d1a:	428b      	cmp	r3, r1
    7d1c:	d301      	bcc.n	7d22 <__udivsi3+0x6a>
    7d1e:	030b      	lsls	r3, r1, #12
    7d20:	1ac0      	subs	r0, r0, r3
    7d22:	4152      	adcs	r2, r2
    7d24:	0ac3      	lsrs	r3, r0, #11
    7d26:	428b      	cmp	r3, r1
    7d28:	d301      	bcc.n	7d2e <__udivsi3+0x76>
    7d2a:	02cb      	lsls	r3, r1, #11
    7d2c:	1ac0      	subs	r0, r0, r3
    7d2e:	4152      	adcs	r2, r2
    7d30:	0a83      	lsrs	r3, r0, #10
    7d32:	428b      	cmp	r3, r1
    7d34:	d301      	bcc.n	7d3a <__udivsi3+0x82>
    7d36:	028b      	lsls	r3, r1, #10
    7d38:	1ac0      	subs	r0, r0, r3
    7d3a:	4152      	adcs	r2, r2
    7d3c:	0a43      	lsrs	r3, r0, #9
    7d3e:	428b      	cmp	r3, r1
    7d40:	d301      	bcc.n	7d46 <__udivsi3+0x8e>
    7d42:	024b      	lsls	r3, r1, #9
    7d44:	1ac0      	subs	r0, r0, r3
    7d46:	4152      	adcs	r2, r2
    7d48:	0a03      	lsrs	r3, r0, #8
    7d4a:	428b      	cmp	r3, r1
    7d4c:	d301      	bcc.n	7d52 <__udivsi3+0x9a>
    7d4e:	020b      	lsls	r3, r1, #8
    7d50:	1ac0      	subs	r0, r0, r3
    7d52:	4152      	adcs	r2, r2
    7d54:	d2cd      	bcs.n	7cf2 <__udivsi3+0x3a>
    7d56:	09c3      	lsrs	r3, r0, #7
    7d58:	428b      	cmp	r3, r1
    7d5a:	d301      	bcc.n	7d60 <__udivsi3+0xa8>
    7d5c:	01cb      	lsls	r3, r1, #7
    7d5e:	1ac0      	subs	r0, r0, r3
    7d60:	4152      	adcs	r2, r2
    7d62:	0983      	lsrs	r3, r0, #6
    7d64:	428b      	cmp	r3, r1
    7d66:	d301      	bcc.n	7d6c <__udivsi3+0xb4>
    7d68:	018b      	lsls	r3, r1, #6
    7d6a:	1ac0      	subs	r0, r0, r3
    7d6c:	4152      	adcs	r2, r2
    7d6e:	0943      	lsrs	r3, r0, #5
    7d70:	428b      	cmp	r3, r1
    7d72:	d301      	bcc.n	7d78 <__udivsi3+0xc0>
    7d74:	014b      	lsls	r3, r1, #5
    7d76:	1ac0      	subs	r0, r0, r3
    7d78:	4152      	adcs	r2, r2
    7d7a:	0903      	lsrs	r3, r0, #4
    7d7c:	428b      	cmp	r3, r1
    7d7e:	d301      	bcc.n	7d84 <__udivsi3+0xcc>
    7d80:	010b      	lsls	r3, r1, #4
    7d82:	1ac0      	subs	r0, r0, r3
    7d84:	4152      	adcs	r2, r2
    7d86:	08c3      	lsrs	r3, r0, #3
    7d88:	428b      	cmp	r3, r1
    7d8a:	d301      	bcc.n	7d90 <__udivsi3+0xd8>
    7d8c:	00cb      	lsls	r3, r1, #3
    7d8e:	1ac0      	subs	r0, r0, r3
    7d90:	4152      	adcs	r2, r2
    7d92:	0883      	lsrs	r3, r0, #2
    7d94:	428b      	cmp	r3, r1
    7d96:	d301      	bcc.n	7d9c <__udivsi3+0xe4>
    7d98:	008b      	lsls	r3, r1, #2
    7d9a:	1ac0      	subs	r0, r0, r3
    7d9c:	4152      	adcs	r2, r2
    7d9e:	0843      	lsrs	r3, r0, #1
    7da0:	428b      	cmp	r3, r1
    7da2:	d301      	bcc.n	7da8 <__udivsi3+0xf0>
    7da4:	004b      	lsls	r3, r1, #1
    7da6:	1ac0      	subs	r0, r0, r3
    7da8:	4152      	adcs	r2, r2
    7daa:	1a41      	subs	r1, r0, r1
    7dac:	d200      	bcs.n	7db0 <__udivsi3+0xf8>
    7dae:	4601      	mov	r1, r0
    7db0:	4152      	adcs	r2, r2
    7db2:	4610      	mov	r0, r2
    7db4:	4770      	bx	lr
    7db6:	e7ff      	b.n	7db8 <__udivsi3+0x100>
    7db8:	b501      	push	{r0, lr}
    7dba:	2000      	movs	r0, #0
    7dbc:	f000 f8f0 	bl	7fa0 <__aeabi_idiv0>
    7dc0:	bd02      	pop	{r1, pc}
    7dc2:	46c0      	nop			; (mov r8, r8)

00007dc4 <__aeabi_uidivmod>:
    7dc4:	2900      	cmp	r1, #0
    7dc6:	d0f7      	beq.n	7db8 <__udivsi3+0x100>
    7dc8:	e776      	b.n	7cb8 <__udivsi3>
    7dca:	4770      	bx	lr

00007dcc <__divsi3>:
    7dcc:	4603      	mov	r3, r0
    7dce:	430b      	orrs	r3, r1
    7dd0:	d47f      	bmi.n	7ed2 <__divsi3+0x106>
    7dd2:	2200      	movs	r2, #0
    7dd4:	0843      	lsrs	r3, r0, #1
    7dd6:	428b      	cmp	r3, r1
    7dd8:	d374      	bcc.n	7ec4 <__divsi3+0xf8>
    7dda:	0903      	lsrs	r3, r0, #4
    7ddc:	428b      	cmp	r3, r1
    7dde:	d35f      	bcc.n	7ea0 <__divsi3+0xd4>
    7de0:	0a03      	lsrs	r3, r0, #8
    7de2:	428b      	cmp	r3, r1
    7de4:	d344      	bcc.n	7e70 <__divsi3+0xa4>
    7de6:	0b03      	lsrs	r3, r0, #12
    7de8:	428b      	cmp	r3, r1
    7dea:	d328      	bcc.n	7e3e <__divsi3+0x72>
    7dec:	0c03      	lsrs	r3, r0, #16
    7dee:	428b      	cmp	r3, r1
    7df0:	d30d      	bcc.n	7e0e <__divsi3+0x42>
    7df2:	22ff      	movs	r2, #255	; 0xff
    7df4:	0209      	lsls	r1, r1, #8
    7df6:	ba12      	rev	r2, r2
    7df8:	0c03      	lsrs	r3, r0, #16
    7dfa:	428b      	cmp	r3, r1
    7dfc:	d302      	bcc.n	7e04 <__divsi3+0x38>
    7dfe:	1212      	asrs	r2, r2, #8
    7e00:	0209      	lsls	r1, r1, #8
    7e02:	d065      	beq.n	7ed0 <__divsi3+0x104>
    7e04:	0b03      	lsrs	r3, r0, #12
    7e06:	428b      	cmp	r3, r1
    7e08:	d319      	bcc.n	7e3e <__divsi3+0x72>
    7e0a:	e000      	b.n	7e0e <__divsi3+0x42>
    7e0c:	0a09      	lsrs	r1, r1, #8
    7e0e:	0bc3      	lsrs	r3, r0, #15
    7e10:	428b      	cmp	r3, r1
    7e12:	d301      	bcc.n	7e18 <__divsi3+0x4c>
    7e14:	03cb      	lsls	r3, r1, #15
    7e16:	1ac0      	subs	r0, r0, r3
    7e18:	4152      	adcs	r2, r2
    7e1a:	0b83      	lsrs	r3, r0, #14
    7e1c:	428b      	cmp	r3, r1
    7e1e:	d301      	bcc.n	7e24 <__divsi3+0x58>
    7e20:	038b      	lsls	r3, r1, #14
    7e22:	1ac0      	subs	r0, r0, r3
    7e24:	4152      	adcs	r2, r2
    7e26:	0b43      	lsrs	r3, r0, #13
    7e28:	428b      	cmp	r3, r1
    7e2a:	d301      	bcc.n	7e30 <__divsi3+0x64>
    7e2c:	034b      	lsls	r3, r1, #13
    7e2e:	1ac0      	subs	r0, r0, r3
    7e30:	4152      	adcs	r2, r2
    7e32:	0b03      	lsrs	r3, r0, #12
    7e34:	428b      	cmp	r3, r1
    7e36:	d301      	bcc.n	7e3c <__divsi3+0x70>
    7e38:	030b      	lsls	r3, r1, #12
    7e3a:	1ac0      	subs	r0, r0, r3
    7e3c:	4152      	adcs	r2, r2
    7e3e:	0ac3      	lsrs	r3, r0, #11
    7e40:	428b      	cmp	r3, r1
    7e42:	d301      	bcc.n	7e48 <__divsi3+0x7c>
    7e44:	02cb      	lsls	r3, r1, #11
    7e46:	1ac0      	subs	r0, r0, r3
    7e48:	4152      	adcs	r2, r2
    7e4a:	0a83      	lsrs	r3, r0, #10
    7e4c:	428b      	cmp	r3, r1
    7e4e:	d301      	bcc.n	7e54 <__divsi3+0x88>
    7e50:	028b      	lsls	r3, r1, #10
    7e52:	1ac0      	subs	r0, r0, r3
    7e54:	4152      	adcs	r2, r2
    7e56:	0a43      	lsrs	r3, r0, #9
    7e58:	428b      	cmp	r3, r1
    7e5a:	d301      	bcc.n	7e60 <__divsi3+0x94>
    7e5c:	024b      	lsls	r3, r1, #9
    7e5e:	1ac0      	subs	r0, r0, r3
    7e60:	4152      	adcs	r2, r2
    7e62:	0a03      	lsrs	r3, r0, #8
    7e64:	428b      	cmp	r3, r1
    7e66:	d301      	bcc.n	7e6c <__divsi3+0xa0>
    7e68:	020b      	lsls	r3, r1, #8
    7e6a:	1ac0      	subs	r0, r0, r3
    7e6c:	4152      	adcs	r2, r2
    7e6e:	d2cd      	bcs.n	7e0c <__divsi3+0x40>
    7e70:	09c3      	lsrs	r3, r0, #7
    7e72:	428b      	cmp	r3, r1
    7e74:	d301      	bcc.n	7e7a <__divsi3+0xae>
    7e76:	01cb      	lsls	r3, r1, #7
    7e78:	1ac0      	subs	r0, r0, r3
    7e7a:	4152      	adcs	r2, r2
    7e7c:	0983      	lsrs	r3, r0, #6
    7e7e:	428b      	cmp	r3, r1
    7e80:	d301      	bcc.n	7e86 <__divsi3+0xba>
    7e82:	018b      	lsls	r3, r1, #6
    7e84:	1ac0      	subs	r0, r0, r3
    7e86:	4152      	adcs	r2, r2
    7e88:	0943      	lsrs	r3, r0, #5
    7e8a:	428b      	cmp	r3, r1
    7e8c:	d301      	bcc.n	7e92 <__divsi3+0xc6>
    7e8e:	014b      	lsls	r3, r1, #5
    7e90:	1ac0      	subs	r0, r0, r3
    7e92:	4152      	adcs	r2, r2
    7e94:	0903      	lsrs	r3, r0, #4
    7e96:	428b      	cmp	r3, r1
    7e98:	d301      	bcc.n	7e9e <__divsi3+0xd2>
    7e9a:	010b      	lsls	r3, r1, #4
    7e9c:	1ac0      	subs	r0, r0, r3
    7e9e:	4152      	adcs	r2, r2
    7ea0:	08c3      	lsrs	r3, r0, #3
    7ea2:	428b      	cmp	r3, r1
    7ea4:	d301      	bcc.n	7eaa <__divsi3+0xde>
    7ea6:	00cb      	lsls	r3, r1, #3
    7ea8:	1ac0      	subs	r0, r0, r3
    7eaa:	4152      	adcs	r2, r2
    7eac:	0883      	lsrs	r3, r0, #2
    7eae:	428b      	cmp	r3, r1
    7eb0:	d301      	bcc.n	7eb6 <__divsi3+0xea>
    7eb2:	008b      	lsls	r3, r1, #2
    7eb4:	1ac0      	subs	r0, r0, r3
    7eb6:	4152      	adcs	r2, r2
    7eb8:	0843      	lsrs	r3, r0, #1
    7eba:	428b      	cmp	r3, r1
    7ebc:	d301      	bcc.n	7ec2 <__divsi3+0xf6>
    7ebe:	004b      	lsls	r3, r1, #1
    7ec0:	1ac0      	subs	r0, r0, r3
    7ec2:	4152      	adcs	r2, r2
    7ec4:	1a41      	subs	r1, r0, r1
    7ec6:	d200      	bcs.n	7eca <__divsi3+0xfe>
    7ec8:	4601      	mov	r1, r0
    7eca:	4152      	adcs	r2, r2
    7ecc:	4610      	mov	r0, r2
    7ece:	4770      	bx	lr
    7ed0:	e05d      	b.n	7f8e <__divsi3+0x1c2>
    7ed2:	0fca      	lsrs	r2, r1, #31
    7ed4:	d000      	beq.n	7ed8 <__divsi3+0x10c>
    7ed6:	4249      	negs	r1, r1
    7ed8:	1003      	asrs	r3, r0, #32
    7eda:	d300      	bcc.n	7ede <__divsi3+0x112>
    7edc:	4240      	negs	r0, r0
    7ede:	4053      	eors	r3, r2
    7ee0:	2200      	movs	r2, #0
    7ee2:	469c      	mov	ip, r3
    7ee4:	0903      	lsrs	r3, r0, #4
    7ee6:	428b      	cmp	r3, r1
    7ee8:	d32d      	bcc.n	7f46 <__divsi3+0x17a>
    7eea:	0a03      	lsrs	r3, r0, #8
    7eec:	428b      	cmp	r3, r1
    7eee:	d312      	bcc.n	7f16 <__divsi3+0x14a>
    7ef0:	22fc      	movs	r2, #252	; 0xfc
    7ef2:	0189      	lsls	r1, r1, #6
    7ef4:	ba12      	rev	r2, r2
    7ef6:	0a03      	lsrs	r3, r0, #8
    7ef8:	428b      	cmp	r3, r1
    7efa:	d30c      	bcc.n	7f16 <__divsi3+0x14a>
    7efc:	0189      	lsls	r1, r1, #6
    7efe:	1192      	asrs	r2, r2, #6
    7f00:	428b      	cmp	r3, r1
    7f02:	d308      	bcc.n	7f16 <__divsi3+0x14a>
    7f04:	0189      	lsls	r1, r1, #6
    7f06:	1192      	asrs	r2, r2, #6
    7f08:	428b      	cmp	r3, r1
    7f0a:	d304      	bcc.n	7f16 <__divsi3+0x14a>
    7f0c:	0189      	lsls	r1, r1, #6
    7f0e:	d03a      	beq.n	7f86 <__divsi3+0x1ba>
    7f10:	1192      	asrs	r2, r2, #6
    7f12:	e000      	b.n	7f16 <__divsi3+0x14a>
    7f14:	0989      	lsrs	r1, r1, #6
    7f16:	09c3      	lsrs	r3, r0, #7
    7f18:	428b      	cmp	r3, r1
    7f1a:	d301      	bcc.n	7f20 <__divsi3+0x154>
    7f1c:	01cb      	lsls	r3, r1, #7
    7f1e:	1ac0      	subs	r0, r0, r3
    7f20:	4152      	adcs	r2, r2
    7f22:	0983      	lsrs	r3, r0, #6
    7f24:	428b      	cmp	r3, r1
    7f26:	d301      	bcc.n	7f2c <__divsi3+0x160>
    7f28:	018b      	lsls	r3, r1, #6
    7f2a:	1ac0      	subs	r0, r0, r3
    7f2c:	4152      	adcs	r2, r2
    7f2e:	0943      	lsrs	r3, r0, #5
    7f30:	428b      	cmp	r3, r1
    7f32:	d301      	bcc.n	7f38 <__divsi3+0x16c>
    7f34:	014b      	lsls	r3, r1, #5
    7f36:	1ac0      	subs	r0, r0, r3
    7f38:	4152      	adcs	r2, r2
    7f3a:	0903      	lsrs	r3, r0, #4
    7f3c:	428b      	cmp	r3, r1
    7f3e:	d301      	bcc.n	7f44 <__divsi3+0x178>
    7f40:	010b      	lsls	r3, r1, #4
    7f42:	1ac0      	subs	r0, r0, r3
    7f44:	4152      	adcs	r2, r2
    7f46:	08c3      	lsrs	r3, r0, #3
    7f48:	428b      	cmp	r3, r1
    7f4a:	d301      	bcc.n	7f50 <__divsi3+0x184>
    7f4c:	00cb      	lsls	r3, r1, #3
    7f4e:	1ac0      	subs	r0, r0, r3
    7f50:	4152      	adcs	r2, r2
    7f52:	0883      	lsrs	r3, r0, #2
    7f54:	428b      	cmp	r3, r1
    7f56:	d301      	bcc.n	7f5c <__divsi3+0x190>
    7f58:	008b      	lsls	r3, r1, #2
    7f5a:	1ac0      	subs	r0, r0, r3
    7f5c:	4152      	adcs	r2, r2
    7f5e:	d2d9      	bcs.n	7f14 <__divsi3+0x148>
    7f60:	0843      	lsrs	r3, r0, #1
    7f62:	428b      	cmp	r3, r1
    7f64:	d301      	bcc.n	7f6a <__divsi3+0x19e>
    7f66:	004b      	lsls	r3, r1, #1
    7f68:	1ac0      	subs	r0, r0, r3
    7f6a:	4152      	adcs	r2, r2
    7f6c:	1a41      	subs	r1, r0, r1
    7f6e:	d200      	bcs.n	7f72 <__divsi3+0x1a6>
    7f70:	4601      	mov	r1, r0
    7f72:	4663      	mov	r3, ip
    7f74:	4152      	adcs	r2, r2
    7f76:	105b      	asrs	r3, r3, #1
    7f78:	4610      	mov	r0, r2
    7f7a:	d301      	bcc.n	7f80 <__divsi3+0x1b4>
    7f7c:	4240      	negs	r0, r0
    7f7e:	2b00      	cmp	r3, #0
    7f80:	d500      	bpl.n	7f84 <__divsi3+0x1b8>
    7f82:	4249      	negs	r1, r1
    7f84:	4770      	bx	lr
    7f86:	4663      	mov	r3, ip
    7f88:	105b      	asrs	r3, r3, #1
    7f8a:	d300      	bcc.n	7f8e <__divsi3+0x1c2>
    7f8c:	4240      	negs	r0, r0
    7f8e:	b501      	push	{r0, lr}
    7f90:	2000      	movs	r0, #0
    7f92:	f000 f805 	bl	7fa0 <__aeabi_idiv0>
    7f96:	bd02      	pop	{r1, pc}

00007f98 <__aeabi_idivmod>:
    7f98:	2900      	cmp	r1, #0
    7f9a:	d0f8      	beq.n	7f8e <__divsi3+0x1c2>
    7f9c:	e716      	b.n	7dcc <__divsi3>
    7f9e:	4770      	bx	lr

00007fa0 <__aeabi_idiv0>:
    7fa0:	4770      	bx	lr
    7fa2:	46c0      	nop			; (mov r8, r8)

00007fa4 <__aeabi_cdrcmple>:
    7fa4:	4684      	mov	ip, r0
    7fa6:	1c10      	adds	r0, r2, #0
    7fa8:	4662      	mov	r2, ip
    7faa:	468c      	mov	ip, r1
    7fac:	1c19      	adds	r1, r3, #0
    7fae:	4663      	mov	r3, ip
    7fb0:	e000      	b.n	7fb4 <__aeabi_cdcmpeq>
    7fb2:	46c0      	nop			; (mov r8, r8)

00007fb4 <__aeabi_cdcmpeq>:
    7fb4:	b51f      	push	{r0, r1, r2, r3, r4, lr}
    7fb6:	f001 ff7b 	bl	9eb0 <__ledf2>
    7fba:	2800      	cmp	r0, #0
    7fbc:	d401      	bmi.n	7fc2 <__aeabi_cdcmpeq+0xe>
    7fbe:	2100      	movs	r1, #0
    7fc0:	42c8      	cmn	r0, r1
    7fc2:	bd1f      	pop	{r0, r1, r2, r3, r4, pc}

00007fc4 <__aeabi_dcmpeq>:
    7fc4:	b510      	push	{r4, lr}
    7fc6:	f001 fed5 	bl	9d74 <__eqdf2>
    7fca:	4240      	negs	r0, r0
    7fcc:	3001      	adds	r0, #1
    7fce:	bd10      	pop	{r4, pc}

00007fd0 <__aeabi_dcmplt>:
    7fd0:	b510      	push	{r4, lr}
    7fd2:	f001 ff6d 	bl	9eb0 <__ledf2>
    7fd6:	2800      	cmp	r0, #0
    7fd8:	db01      	blt.n	7fde <__aeabi_dcmplt+0xe>
    7fda:	2000      	movs	r0, #0
    7fdc:	bd10      	pop	{r4, pc}
    7fde:	2001      	movs	r0, #1
    7fe0:	bd10      	pop	{r4, pc}
    7fe2:	46c0      	nop			; (mov r8, r8)

00007fe4 <__aeabi_dcmple>:
    7fe4:	b510      	push	{r4, lr}
    7fe6:	f001 ff63 	bl	9eb0 <__ledf2>
    7fea:	2800      	cmp	r0, #0
    7fec:	dd01      	ble.n	7ff2 <__aeabi_dcmple+0xe>
    7fee:	2000      	movs	r0, #0
    7ff0:	bd10      	pop	{r4, pc}
    7ff2:	2001      	movs	r0, #1
    7ff4:	bd10      	pop	{r4, pc}
    7ff6:	46c0      	nop			; (mov r8, r8)

00007ff8 <__aeabi_dcmpgt>:
    7ff8:	b510      	push	{r4, lr}
    7ffa:	f001 fef5 	bl	9de8 <__gedf2>
    7ffe:	2800      	cmp	r0, #0
    8000:	dc01      	bgt.n	8006 <__aeabi_dcmpgt+0xe>
    8002:	2000      	movs	r0, #0
    8004:	bd10      	pop	{r4, pc}
    8006:	2001      	movs	r0, #1
    8008:	bd10      	pop	{r4, pc}
    800a:	46c0      	nop			; (mov r8, r8)

0000800c <__aeabi_dcmpge>:
    800c:	b510      	push	{r4, lr}
    800e:	f001 feeb 	bl	9de8 <__gedf2>
    8012:	2800      	cmp	r0, #0
    8014:	da01      	bge.n	801a <__aeabi_dcmpge+0xe>
    8016:	2000      	movs	r0, #0
    8018:	bd10      	pop	{r4, pc}
    801a:	2001      	movs	r0, #1
    801c:	bd10      	pop	{r4, pc}
    801e:	46c0      	nop			; (mov r8, r8)

00008020 <__aeabi_cfrcmple>:
    8020:	4684      	mov	ip, r0
    8022:	1c08      	adds	r0, r1, #0
    8024:	4661      	mov	r1, ip
    8026:	e7ff      	b.n	8028 <__aeabi_cfcmpeq>

00008028 <__aeabi_cfcmpeq>:
    8028:	b51f      	push	{r0, r1, r2, r3, r4, lr}
    802a:	f000 fcf1 	bl	8a10 <__lesf2>
    802e:	2800      	cmp	r0, #0
    8030:	d401      	bmi.n	8036 <__aeabi_cfcmpeq+0xe>
    8032:	2100      	movs	r1, #0
    8034:	42c8      	cmn	r0, r1
    8036:	bd1f      	pop	{r0, r1, r2, r3, r4, pc}

00008038 <__aeabi_fcmpeq>:
    8038:	b510      	push	{r4, lr}
    803a:	f000 fc83 	bl	8944 <__eqsf2>
    803e:	4240      	negs	r0, r0
    8040:	3001      	adds	r0, #1
    8042:	bd10      	pop	{r4, pc}

00008044 <__aeabi_fcmplt>:
    8044:	b510      	push	{r4, lr}
    8046:	f000 fce3 	bl	8a10 <__lesf2>
    804a:	2800      	cmp	r0, #0
    804c:	db01      	blt.n	8052 <__aeabi_fcmplt+0xe>
    804e:	2000      	movs	r0, #0
    8050:	bd10      	pop	{r4, pc}
    8052:	2001      	movs	r0, #1
    8054:	bd10      	pop	{r4, pc}
    8056:	46c0      	nop			; (mov r8, r8)

00008058 <__aeabi_fcmple>:
    8058:	b510      	push	{r4, lr}
    805a:	f000 fcd9 	bl	8a10 <__lesf2>
    805e:	2800      	cmp	r0, #0
    8060:	dd01      	ble.n	8066 <__aeabi_fcmple+0xe>
    8062:	2000      	movs	r0, #0
    8064:	bd10      	pop	{r4, pc}
    8066:	2001      	movs	r0, #1
    8068:	bd10      	pop	{r4, pc}
    806a:	46c0      	nop			; (mov r8, r8)

0000806c <__aeabi_fcmpgt>:
    806c:	b510      	push	{r4, lr}
    806e:	f000 fc8f 	bl	8990 <__gesf2>
    8072:	2800      	cmp	r0, #0
    8074:	dc01      	bgt.n	807a <__aeabi_fcmpgt+0xe>
    8076:	2000      	movs	r0, #0
    8078:	bd10      	pop	{r4, pc}
    807a:	2001      	movs	r0, #1
    807c:	bd10      	pop	{r4, pc}
    807e:	46c0      	nop			; (mov r8, r8)

00008080 <__aeabi_fcmpge>:
    8080:	b510      	push	{r4, lr}
    8082:	f000 fc85 	bl	8990 <__gesf2>
    8086:	2800      	cmp	r0, #0
    8088:	da01      	bge.n	808e <__aeabi_fcmpge+0xe>
    808a:	2000      	movs	r0, #0
    808c:	bd10      	pop	{r4, pc}
    808e:	2001      	movs	r0, #1
    8090:	bd10      	pop	{r4, pc}
    8092:	46c0      	nop			; (mov r8, r8)

00008094 <__clzsi2>:
    8094:	211c      	movs	r1, #28
    8096:	2301      	movs	r3, #1
    8098:	041b      	lsls	r3, r3, #16
    809a:	4298      	cmp	r0, r3
    809c:	d301      	bcc.n	80a2 <__clzsi2+0xe>
    809e:	0c00      	lsrs	r0, r0, #16
    80a0:	3910      	subs	r1, #16
    80a2:	0a1b      	lsrs	r3, r3, #8
    80a4:	4298      	cmp	r0, r3
    80a6:	d301      	bcc.n	80ac <__clzsi2+0x18>
    80a8:	0a00      	lsrs	r0, r0, #8
    80aa:	3908      	subs	r1, #8
    80ac:	091b      	lsrs	r3, r3, #4
    80ae:	4298      	cmp	r0, r3
    80b0:	d301      	bcc.n	80b6 <__clzsi2+0x22>
    80b2:	0900      	lsrs	r0, r0, #4
    80b4:	3904      	subs	r1, #4
    80b6:	a202      	add	r2, pc, #8	; (adr r2, 80c0 <__clzsi2+0x2c>)
    80b8:	5c10      	ldrb	r0, [r2, r0]
    80ba:	1840      	adds	r0, r0, r1
    80bc:	4770      	bx	lr
    80be:	46c0      	nop			; (mov r8, r8)
    80c0:	02020304 	.word	0x02020304
    80c4:	01010101 	.word	0x01010101
	...

000080d0 <__ctzsi2>:
    80d0:	4241      	negs	r1, r0
    80d2:	4008      	ands	r0, r1
    80d4:	211c      	movs	r1, #28
    80d6:	2301      	movs	r3, #1
    80d8:	041b      	lsls	r3, r3, #16
    80da:	4298      	cmp	r0, r3
    80dc:	d301      	bcc.n	80e2 <__ctzsi2+0x12>
    80de:	0c00      	lsrs	r0, r0, #16
    80e0:	3910      	subs	r1, #16
    80e2:	0a1b      	lsrs	r3, r3, #8
    80e4:	4298      	cmp	r0, r3
    80e6:	d301      	bcc.n	80ec <__ctzsi2+0x1c>
    80e8:	0a00      	lsrs	r0, r0, #8
    80ea:	3908      	subs	r1, #8
    80ec:	091b      	lsrs	r3, r3, #4
    80ee:	4298      	cmp	r0, r3
    80f0:	d301      	bcc.n	80f6 <__ctzsi2+0x26>
    80f2:	0900      	lsrs	r0, r0, #4
    80f4:	3904      	subs	r1, #4
    80f6:	a202      	add	r2, pc, #8	; (adr r2, 8100 <__ctzsi2+0x30>)
    80f8:	5c10      	ldrb	r0, [r2, r0]
    80fa:	1a40      	subs	r0, r0, r1
    80fc:	4770      	bx	lr
    80fe:	46c0      	nop			; (mov r8, r8)
    8100:	1d1d1c1b 	.word	0x1d1d1c1b
    8104:	1e1e1e1e 	.word	0x1e1e1e1e
    8108:	1f1f1f1f 	.word	0x1f1f1f1f
    810c:	1f1f1f1f 	.word	0x1f1f1f1f

00008110 <__aeabi_uldivmod>:
    8110:	2b00      	cmp	r3, #0
    8112:	d111      	bne.n	8138 <__aeabi_uldivmod+0x28>
    8114:	2a00      	cmp	r2, #0
    8116:	d10f      	bne.n	8138 <__aeabi_uldivmod+0x28>
    8118:	2900      	cmp	r1, #0
    811a:	d100      	bne.n	811e <__aeabi_uldivmod+0xe>
    811c:	2800      	cmp	r0, #0
    811e:	d002      	beq.n	8126 <__aeabi_uldivmod+0x16>
    8120:	2100      	movs	r1, #0
    8122:	43c9      	mvns	r1, r1
    8124:	1c08      	adds	r0, r1, #0
    8126:	b407      	push	{r0, r1, r2}
    8128:	4802      	ldr	r0, [pc, #8]	; (8134 <__aeabi_uldivmod+0x24>)
    812a:	a102      	add	r1, pc, #8	; (adr r1, 8134 <__aeabi_uldivmod+0x24>)
    812c:	1840      	adds	r0, r0, r1
    812e:	9002      	str	r0, [sp, #8]
    8130:	bd03      	pop	{r0, r1, pc}
    8132:	46c0      	nop			; (mov r8, r8)
    8134:	fffffe6d 	.word	0xfffffe6d
    8138:	b403      	push	{r0, r1}
    813a:	4668      	mov	r0, sp
    813c:	b501      	push	{r0, lr}
    813e:	9802      	ldr	r0, [sp, #8]
    8140:	f000 f866 	bl	8210 <__udivmoddi4>
    8144:	9b01      	ldr	r3, [sp, #4]
    8146:	469e      	mov	lr, r3
    8148:	b002      	add	sp, #8
    814a:	bc0c      	pop	{r2, r3}
    814c:	4770      	bx	lr
    814e:	46c0      	nop			; (mov r8, r8)

00008150 <__aeabi_lmul>:
    8150:	b5f0      	push	{r4, r5, r6, r7, lr}
    8152:	46ce      	mov	lr, r9
    8154:	4647      	mov	r7, r8
    8156:	0415      	lsls	r5, r2, #16
    8158:	0c2d      	lsrs	r5, r5, #16
    815a:	002e      	movs	r6, r5
    815c:	b580      	push	{r7, lr}
    815e:	0407      	lsls	r7, r0, #16
    8160:	0c14      	lsrs	r4, r2, #16
    8162:	0c3f      	lsrs	r7, r7, #16
    8164:	4699      	mov	r9, r3
    8166:	0c03      	lsrs	r3, r0, #16
    8168:	437e      	muls	r6, r7
    816a:	435d      	muls	r5, r3
    816c:	4367      	muls	r7, r4
    816e:	4363      	muls	r3, r4
    8170:	197f      	adds	r7, r7, r5
    8172:	0c34      	lsrs	r4, r6, #16
    8174:	19e4      	adds	r4, r4, r7
    8176:	469c      	mov	ip, r3
    8178:	42a5      	cmp	r5, r4
    817a:	d903      	bls.n	8184 <__aeabi_lmul+0x34>
    817c:	2380      	movs	r3, #128	; 0x80
    817e:	025b      	lsls	r3, r3, #9
    8180:	4698      	mov	r8, r3
    8182:	44c4      	add	ip, r8
    8184:	464b      	mov	r3, r9
    8186:	4351      	muls	r1, r2
    8188:	4343      	muls	r3, r0
    818a:	0436      	lsls	r6, r6, #16
    818c:	0c36      	lsrs	r6, r6, #16
    818e:	0c25      	lsrs	r5, r4, #16
    8190:	0424      	lsls	r4, r4, #16
    8192:	4465      	add	r5, ip
    8194:	19a4      	adds	r4, r4, r6
    8196:	1859      	adds	r1, r3, r1
    8198:	1949      	adds	r1, r1, r5
    819a:	0020      	movs	r0, r4
    819c:	bc0c      	pop	{r2, r3}
    819e:	4690      	mov	r8, r2
    81a0:	4699      	mov	r9, r3
    81a2:	bdf0      	pop	{r4, r5, r6, r7, pc}

000081a4 <__aeabi_f2uiz>:
    81a4:	219e      	movs	r1, #158	; 0x9e
    81a6:	b510      	push	{r4, lr}
    81a8:	05c9      	lsls	r1, r1, #23
    81aa:	1c04      	adds	r4, r0, #0
    81ac:	f7ff ff68 	bl	8080 <__aeabi_fcmpge>
    81b0:	2800      	cmp	r0, #0
    81b2:	d103      	bne.n	81bc <__aeabi_f2uiz+0x18>
    81b4:	1c20      	adds	r0, r4, #0
    81b6:	f000 ff29 	bl	900c <__aeabi_f2iz>
    81ba:	bd10      	pop	{r4, pc}
    81bc:	219e      	movs	r1, #158	; 0x9e
    81be:	1c20      	adds	r0, r4, #0
    81c0:	05c9      	lsls	r1, r1, #23
    81c2:	f000 fd87 	bl	8cd4 <__aeabi_fsub>
    81c6:	f000 ff21 	bl	900c <__aeabi_f2iz>
    81ca:	2380      	movs	r3, #128	; 0x80
    81cc:	061b      	lsls	r3, r3, #24
    81ce:	469c      	mov	ip, r3
    81d0:	4460      	add	r0, ip
    81d2:	e7f2      	b.n	81ba <__aeabi_f2uiz+0x16>

000081d4 <__aeabi_d2uiz>:
    81d4:	b570      	push	{r4, r5, r6, lr}
    81d6:	2200      	movs	r2, #0
    81d8:	4b0c      	ldr	r3, [pc, #48]	; (820c <__aeabi_d2uiz+0x38>)
    81da:	0004      	movs	r4, r0
    81dc:	000d      	movs	r5, r1
    81de:	f7ff ff15 	bl	800c <__aeabi_dcmpge>
    81e2:	2800      	cmp	r0, #0
    81e4:	d104      	bne.n	81f0 <__aeabi_d2uiz+0x1c>
    81e6:	0020      	movs	r0, r4
    81e8:	0029      	movs	r1, r5
    81ea:	f002 fc59 	bl	aaa0 <__aeabi_d2iz>
    81ee:	bd70      	pop	{r4, r5, r6, pc}
    81f0:	4b06      	ldr	r3, [pc, #24]	; (820c <__aeabi_d2uiz+0x38>)
    81f2:	2200      	movs	r2, #0
    81f4:	0020      	movs	r0, r4
    81f6:	0029      	movs	r1, r5
    81f8:	f002 f93c 	bl	a474 <__aeabi_dsub>
    81fc:	f002 fc50 	bl	aaa0 <__aeabi_d2iz>
    8200:	2380      	movs	r3, #128	; 0x80
    8202:	061b      	lsls	r3, r3, #24
    8204:	469c      	mov	ip, r3
    8206:	4460      	add	r0, ip
    8208:	e7f1      	b.n	81ee <__aeabi_d2uiz+0x1a>
    820a:	46c0      	nop			; (mov r8, r8)
    820c:	41e00000 	.word	0x41e00000

00008210 <__udivmoddi4>:
    8210:	b5f0      	push	{r4, r5, r6, r7, lr}
    8212:	4657      	mov	r7, sl
    8214:	464e      	mov	r6, r9
    8216:	4645      	mov	r5, r8
    8218:	46de      	mov	lr, fp
    821a:	b5e0      	push	{r5, r6, r7, lr}
    821c:	0004      	movs	r4, r0
    821e:	b083      	sub	sp, #12
    8220:	000d      	movs	r5, r1
    8222:	4692      	mov	sl, r2
    8224:	4699      	mov	r9, r3
    8226:	428b      	cmp	r3, r1
    8228:	d82f      	bhi.n	828a <__udivmoddi4+0x7a>
    822a:	d02c      	beq.n	8286 <__udivmoddi4+0x76>
    822c:	4649      	mov	r1, r9
    822e:	4650      	mov	r0, sl
    8230:	f002 fdc0 	bl	adb4 <__clzdi2>
    8234:	0029      	movs	r1, r5
    8236:	0006      	movs	r6, r0
    8238:	0020      	movs	r0, r4
    823a:	f002 fdbb 	bl	adb4 <__clzdi2>
    823e:	1a33      	subs	r3, r6, r0
    8240:	4698      	mov	r8, r3
    8242:	3b20      	subs	r3, #32
    8244:	469b      	mov	fp, r3
    8246:	d500      	bpl.n	824a <__udivmoddi4+0x3a>
    8248:	e074      	b.n	8334 <__udivmoddi4+0x124>
    824a:	4653      	mov	r3, sl
    824c:	465a      	mov	r2, fp
    824e:	4093      	lsls	r3, r2
    8250:	001f      	movs	r7, r3
    8252:	4653      	mov	r3, sl
    8254:	4642      	mov	r2, r8
    8256:	4093      	lsls	r3, r2
    8258:	001e      	movs	r6, r3
    825a:	42af      	cmp	r7, r5
    825c:	d829      	bhi.n	82b2 <__udivmoddi4+0xa2>
    825e:	d026      	beq.n	82ae <__udivmoddi4+0x9e>
    8260:	465b      	mov	r3, fp
    8262:	1ba4      	subs	r4, r4, r6
    8264:	41bd      	sbcs	r5, r7
    8266:	2b00      	cmp	r3, #0
    8268:	da00      	bge.n	826c <__udivmoddi4+0x5c>
    826a:	e079      	b.n	8360 <__udivmoddi4+0x150>
    826c:	2200      	movs	r2, #0
    826e:	2300      	movs	r3, #0
    8270:	9200      	str	r2, [sp, #0]
    8272:	9301      	str	r3, [sp, #4]
    8274:	2301      	movs	r3, #1
    8276:	465a      	mov	r2, fp
    8278:	4093      	lsls	r3, r2
    827a:	9301      	str	r3, [sp, #4]
    827c:	2301      	movs	r3, #1
    827e:	4642      	mov	r2, r8
    8280:	4093      	lsls	r3, r2
    8282:	9300      	str	r3, [sp, #0]
    8284:	e019      	b.n	82ba <__udivmoddi4+0xaa>
    8286:	4282      	cmp	r2, r0
    8288:	d9d0      	bls.n	822c <__udivmoddi4+0x1c>
    828a:	2200      	movs	r2, #0
    828c:	2300      	movs	r3, #0
    828e:	9200      	str	r2, [sp, #0]
    8290:	9301      	str	r3, [sp, #4]
    8292:	9b0c      	ldr	r3, [sp, #48]	; 0x30
    8294:	2b00      	cmp	r3, #0
    8296:	d001      	beq.n	829c <__udivmoddi4+0x8c>
    8298:	601c      	str	r4, [r3, #0]
    829a:	605d      	str	r5, [r3, #4]
    829c:	9800      	ldr	r0, [sp, #0]
    829e:	9901      	ldr	r1, [sp, #4]
    82a0:	b003      	add	sp, #12
    82a2:	bc3c      	pop	{r2, r3, r4, r5}
    82a4:	4690      	mov	r8, r2
    82a6:	4699      	mov	r9, r3
    82a8:	46a2      	mov	sl, r4
    82aa:	46ab      	mov	fp, r5
    82ac:	bdf0      	pop	{r4, r5, r6, r7, pc}
    82ae:	42a3      	cmp	r3, r4
    82b0:	d9d6      	bls.n	8260 <__udivmoddi4+0x50>
    82b2:	2200      	movs	r2, #0
    82b4:	2300      	movs	r3, #0
    82b6:	9200      	str	r2, [sp, #0]
    82b8:	9301      	str	r3, [sp, #4]
    82ba:	4643      	mov	r3, r8
    82bc:	2b00      	cmp	r3, #0
    82be:	d0e8      	beq.n	8292 <__udivmoddi4+0x82>
    82c0:	07fb      	lsls	r3, r7, #31
    82c2:	0872      	lsrs	r2, r6, #1
    82c4:	431a      	orrs	r2, r3
    82c6:	4646      	mov	r6, r8
    82c8:	087b      	lsrs	r3, r7, #1
    82ca:	e00e      	b.n	82ea <__udivmoddi4+0xda>
    82cc:	42ab      	cmp	r3, r5
    82ce:	d101      	bne.n	82d4 <__udivmoddi4+0xc4>
    82d0:	42a2      	cmp	r2, r4
    82d2:	d80c      	bhi.n	82ee <__udivmoddi4+0xde>
    82d4:	1aa4      	subs	r4, r4, r2
    82d6:	419d      	sbcs	r5, r3
    82d8:	2001      	movs	r0, #1
    82da:	1924      	adds	r4, r4, r4
    82dc:	416d      	adcs	r5, r5
    82de:	2100      	movs	r1, #0
    82e0:	3e01      	subs	r6, #1
    82e2:	1824      	adds	r4, r4, r0
    82e4:	414d      	adcs	r5, r1
    82e6:	2e00      	cmp	r6, #0
    82e8:	d006      	beq.n	82f8 <__udivmoddi4+0xe8>
    82ea:	42ab      	cmp	r3, r5
    82ec:	d9ee      	bls.n	82cc <__udivmoddi4+0xbc>
    82ee:	3e01      	subs	r6, #1
    82f0:	1924      	adds	r4, r4, r4
    82f2:	416d      	adcs	r5, r5
    82f4:	2e00      	cmp	r6, #0
    82f6:	d1f8      	bne.n	82ea <__udivmoddi4+0xda>
    82f8:	465b      	mov	r3, fp
    82fa:	9800      	ldr	r0, [sp, #0]
    82fc:	9901      	ldr	r1, [sp, #4]
    82fe:	1900      	adds	r0, r0, r4
    8300:	4169      	adcs	r1, r5
    8302:	2b00      	cmp	r3, #0
    8304:	db22      	blt.n	834c <__udivmoddi4+0x13c>
    8306:	002b      	movs	r3, r5
    8308:	465a      	mov	r2, fp
    830a:	40d3      	lsrs	r3, r2
    830c:	002a      	movs	r2, r5
    830e:	4644      	mov	r4, r8
    8310:	40e2      	lsrs	r2, r4
    8312:	001c      	movs	r4, r3
    8314:	465b      	mov	r3, fp
    8316:	0015      	movs	r5, r2
    8318:	2b00      	cmp	r3, #0
    831a:	db2c      	blt.n	8376 <__udivmoddi4+0x166>
    831c:	0026      	movs	r6, r4
    831e:	409e      	lsls	r6, r3
    8320:	0033      	movs	r3, r6
    8322:	0026      	movs	r6, r4
    8324:	4647      	mov	r7, r8
    8326:	40be      	lsls	r6, r7
    8328:	0032      	movs	r2, r6
    832a:	1a80      	subs	r0, r0, r2
    832c:	4199      	sbcs	r1, r3
    832e:	9000      	str	r0, [sp, #0]
    8330:	9101      	str	r1, [sp, #4]
    8332:	e7ae      	b.n	8292 <__udivmoddi4+0x82>
    8334:	4642      	mov	r2, r8
    8336:	2320      	movs	r3, #32
    8338:	1a9b      	subs	r3, r3, r2
    833a:	4652      	mov	r2, sl
    833c:	40da      	lsrs	r2, r3
    833e:	4641      	mov	r1, r8
    8340:	0013      	movs	r3, r2
    8342:	464a      	mov	r2, r9
    8344:	408a      	lsls	r2, r1
    8346:	0017      	movs	r7, r2
    8348:	431f      	orrs	r7, r3
    834a:	e782      	b.n	8252 <__udivmoddi4+0x42>
    834c:	4642      	mov	r2, r8
    834e:	2320      	movs	r3, #32
    8350:	1a9b      	subs	r3, r3, r2
    8352:	002a      	movs	r2, r5
    8354:	4646      	mov	r6, r8
    8356:	409a      	lsls	r2, r3
    8358:	0023      	movs	r3, r4
    835a:	40f3      	lsrs	r3, r6
    835c:	4313      	orrs	r3, r2
    835e:	e7d5      	b.n	830c <__udivmoddi4+0xfc>
    8360:	4642      	mov	r2, r8
    8362:	2320      	movs	r3, #32
    8364:	2100      	movs	r1, #0
    8366:	1a9b      	subs	r3, r3, r2
    8368:	2200      	movs	r2, #0
    836a:	9100      	str	r1, [sp, #0]
    836c:	9201      	str	r2, [sp, #4]
    836e:	2201      	movs	r2, #1
    8370:	40da      	lsrs	r2, r3
    8372:	9201      	str	r2, [sp, #4]
    8374:	e782      	b.n	827c <__udivmoddi4+0x6c>
    8376:	4642      	mov	r2, r8
    8378:	2320      	movs	r3, #32
    837a:	0026      	movs	r6, r4
    837c:	1a9b      	subs	r3, r3, r2
    837e:	40de      	lsrs	r6, r3
    8380:	002f      	movs	r7, r5
    8382:	46b4      	mov	ip, r6
    8384:	4097      	lsls	r7, r2
    8386:	4666      	mov	r6, ip
    8388:	003b      	movs	r3, r7
    838a:	4333      	orrs	r3, r6
    838c:	e7c9      	b.n	8322 <__udivmoddi4+0x112>
    838e:	46c0      	nop			; (mov r8, r8)

00008390 <__aeabi_fadd>:
    8390:	b5f0      	push	{r4, r5, r6, r7, lr}
    8392:	46c6      	mov	lr, r8
    8394:	024e      	lsls	r6, r1, #9
    8396:	0247      	lsls	r7, r0, #9
    8398:	0a76      	lsrs	r6, r6, #9
    839a:	0a7b      	lsrs	r3, r7, #9
    839c:	0044      	lsls	r4, r0, #1
    839e:	0fc5      	lsrs	r5, r0, #31
    83a0:	00f7      	lsls	r7, r6, #3
    83a2:	0048      	lsls	r0, r1, #1
    83a4:	4698      	mov	r8, r3
    83a6:	b500      	push	{lr}
    83a8:	0e24      	lsrs	r4, r4, #24
    83aa:	002a      	movs	r2, r5
    83ac:	00db      	lsls	r3, r3, #3
    83ae:	0e00      	lsrs	r0, r0, #24
    83b0:	0fc9      	lsrs	r1, r1, #31
    83b2:	46bc      	mov	ip, r7
    83b4:	428d      	cmp	r5, r1
    83b6:	d067      	beq.n	8488 <__aeabi_fadd+0xf8>
    83b8:	1a22      	subs	r2, r4, r0
    83ba:	2a00      	cmp	r2, #0
    83bc:	dc00      	bgt.n	83c0 <__aeabi_fadd+0x30>
    83be:	e0a5      	b.n	850c <__aeabi_fadd+0x17c>
    83c0:	2800      	cmp	r0, #0
    83c2:	d13a      	bne.n	843a <__aeabi_fadd+0xaa>
    83c4:	2f00      	cmp	r7, #0
    83c6:	d100      	bne.n	83ca <__aeabi_fadd+0x3a>
    83c8:	e093      	b.n	84f2 <__aeabi_fadd+0x162>
    83ca:	1e51      	subs	r1, r2, #1
    83cc:	2900      	cmp	r1, #0
    83ce:	d000      	beq.n	83d2 <__aeabi_fadd+0x42>
    83d0:	e0bc      	b.n	854c <__aeabi_fadd+0x1bc>
    83d2:	2401      	movs	r4, #1
    83d4:	1bdb      	subs	r3, r3, r7
    83d6:	015a      	lsls	r2, r3, #5
    83d8:	d546      	bpl.n	8468 <__aeabi_fadd+0xd8>
    83da:	019b      	lsls	r3, r3, #6
    83dc:	099e      	lsrs	r6, r3, #6
    83de:	0030      	movs	r0, r6
    83e0:	f7ff fe58 	bl	8094 <__clzsi2>
    83e4:	3805      	subs	r0, #5
    83e6:	4086      	lsls	r6, r0
    83e8:	4284      	cmp	r4, r0
    83ea:	dd00      	ble.n	83ee <__aeabi_fadd+0x5e>
    83ec:	e09d      	b.n	852a <__aeabi_fadd+0x19a>
    83ee:	1b04      	subs	r4, r0, r4
    83f0:	0032      	movs	r2, r6
    83f2:	2020      	movs	r0, #32
    83f4:	3401      	adds	r4, #1
    83f6:	40e2      	lsrs	r2, r4
    83f8:	1b04      	subs	r4, r0, r4
    83fa:	40a6      	lsls	r6, r4
    83fc:	0033      	movs	r3, r6
    83fe:	1e5e      	subs	r6, r3, #1
    8400:	41b3      	sbcs	r3, r6
    8402:	2400      	movs	r4, #0
    8404:	4313      	orrs	r3, r2
    8406:	075a      	lsls	r2, r3, #29
    8408:	d004      	beq.n	8414 <__aeabi_fadd+0x84>
    840a:	220f      	movs	r2, #15
    840c:	401a      	ands	r2, r3
    840e:	2a04      	cmp	r2, #4
    8410:	d000      	beq.n	8414 <__aeabi_fadd+0x84>
    8412:	3304      	adds	r3, #4
    8414:	015a      	lsls	r2, r3, #5
    8416:	d529      	bpl.n	846c <__aeabi_fadd+0xdc>
    8418:	3401      	adds	r4, #1
    841a:	2cff      	cmp	r4, #255	; 0xff
    841c:	d100      	bne.n	8420 <__aeabi_fadd+0x90>
    841e:	e081      	b.n	8524 <__aeabi_fadd+0x194>
    8420:	002a      	movs	r2, r5
    8422:	019b      	lsls	r3, r3, #6
    8424:	0a5b      	lsrs	r3, r3, #9
    8426:	b2e4      	uxtb	r4, r4
    8428:	025b      	lsls	r3, r3, #9
    842a:	05e4      	lsls	r4, r4, #23
    842c:	0a58      	lsrs	r0, r3, #9
    842e:	07d2      	lsls	r2, r2, #31
    8430:	4320      	orrs	r0, r4
    8432:	4310      	orrs	r0, r2
    8434:	bc04      	pop	{r2}
    8436:	4690      	mov	r8, r2
    8438:	bdf0      	pop	{r4, r5, r6, r7, pc}
    843a:	2cff      	cmp	r4, #255	; 0xff
    843c:	d0e3      	beq.n	8406 <__aeabi_fadd+0x76>
    843e:	2180      	movs	r1, #128	; 0x80
    8440:	0038      	movs	r0, r7
    8442:	04c9      	lsls	r1, r1, #19
    8444:	4308      	orrs	r0, r1
    8446:	4684      	mov	ip, r0
    8448:	2a1b      	cmp	r2, #27
    844a:	dd00      	ble.n	844e <__aeabi_fadd+0xbe>
    844c:	e082      	b.n	8554 <__aeabi_fadd+0x1c4>
    844e:	2020      	movs	r0, #32
    8450:	4661      	mov	r1, ip
    8452:	40d1      	lsrs	r1, r2
    8454:	1a82      	subs	r2, r0, r2
    8456:	4660      	mov	r0, ip
    8458:	4090      	lsls	r0, r2
    845a:	0002      	movs	r2, r0
    845c:	1e50      	subs	r0, r2, #1
    845e:	4182      	sbcs	r2, r0
    8460:	430a      	orrs	r2, r1
    8462:	1a9b      	subs	r3, r3, r2
    8464:	015a      	lsls	r2, r3, #5
    8466:	d4b8      	bmi.n	83da <__aeabi_fadd+0x4a>
    8468:	075a      	lsls	r2, r3, #29
    846a:	d1ce      	bne.n	840a <__aeabi_fadd+0x7a>
    846c:	08de      	lsrs	r6, r3, #3
    846e:	002a      	movs	r2, r5
    8470:	2cff      	cmp	r4, #255	; 0xff
    8472:	d13a      	bne.n	84ea <__aeabi_fadd+0x15a>
    8474:	2e00      	cmp	r6, #0
    8476:	d100      	bne.n	847a <__aeabi_fadd+0xea>
    8478:	e0ae      	b.n	85d8 <__aeabi_fadd+0x248>
    847a:	2380      	movs	r3, #128	; 0x80
    847c:	03db      	lsls	r3, r3, #15
    847e:	4333      	orrs	r3, r6
    8480:	025b      	lsls	r3, r3, #9
    8482:	0a5b      	lsrs	r3, r3, #9
    8484:	24ff      	movs	r4, #255	; 0xff
    8486:	e7cf      	b.n	8428 <__aeabi_fadd+0x98>
    8488:	1a21      	subs	r1, r4, r0
    848a:	2900      	cmp	r1, #0
    848c:	dd52      	ble.n	8534 <__aeabi_fadd+0x1a4>
    848e:	2800      	cmp	r0, #0
    8490:	d031      	beq.n	84f6 <__aeabi_fadd+0x166>
    8492:	2cff      	cmp	r4, #255	; 0xff
    8494:	d0b7      	beq.n	8406 <__aeabi_fadd+0x76>
    8496:	2080      	movs	r0, #128	; 0x80
    8498:	003e      	movs	r6, r7
    849a:	04c0      	lsls	r0, r0, #19
    849c:	4306      	orrs	r6, r0
    849e:	46b4      	mov	ip, r6
    84a0:	291b      	cmp	r1, #27
    84a2:	dd00      	ble.n	84a6 <__aeabi_fadd+0x116>
    84a4:	e0aa      	b.n	85fc <__aeabi_fadd+0x26c>
    84a6:	2620      	movs	r6, #32
    84a8:	4660      	mov	r0, ip
    84aa:	40c8      	lsrs	r0, r1
    84ac:	1a71      	subs	r1, r6, r1
    84ae:	4666      	mov	r6, ip
    84b0:	408e      	lsls	r6, r1
    84b2:	0031      	movs	r1, r6
    84b4:	1e4e      	subs	r6, r1, #1
    84b6:	41b1      	sbcs	r1, r6
    84b8:	4301      	orrs	r1, r0
    84ba:	185b      	adds	r3, r3, r1
    84bc:	0159      	lsls	r1, r3, #5
    84be:	d5d3      	bpl.n	8468 <__aeabi_fadd+0xd8>
    84c0:	3401      	adds	r4, #1
    84c2:	2cff      	cmp	r4, #255	; 0xff
    84c4:	d100      	bne.n	84c8 <__aeabi_fadd+0x138>
    84c6:	e087      	b.n	85d8 <__aeabi_fadd+0x248>
    84c8:	2201      	movs	r2, #1
    84ca:	4978      	ldr	r1, [pc, #480]	; (86ac <__aeabi_fadd+0x31c>)
    84cc:	401a      	ands	r2, r3
    84ce:	085b      	lsrs	r3, r3, #1
    84d0:	400b      	ands	r3, r1
    84d2:	4313      	orrs	r3, r2
    84d4:	e797      	b.n	8406 <__aeabi_fadd+0x76>
    84d6:	2c00      	cmp	r4, #0
    84d8:	d000      	beq.n	84dc <__aeabi_fadd+0x14c>
    84da:	e0a7      	b.n	862c <__aeabi_fadd+0x29c>
    84dc:	2b00      	cmp	r3, #0
    84de:	d000      	beq.n	84e2 <__aeabi_fadd+0x152>
    84e0:	e0b6      	b.n	8650 <__aeabi_fadd+0x2c0>
    84e2:	1e3b      	subs	r3, r7, #0
    84e4:	d162      	bne.n	85ac <__aeabi_fadd+0x21c>
    84e6:	2600      	movs	r6, #0
    84e8:	2200      	movs	r2, #0
    84ea:	0273      	lsls	r3, r6, #9
    84ec:	0a5b      	lsrs	r3, r3, #9
    84ee:	b2e4      	uxtb	r4, r4
    84f0:	e79a      	b.n	8428 <__aeabi_fadd+0x98>
    84f2:	0014      	movs	r4, r2
    84f4:	e787      	b.n	8406 <__aeabi_fadd+0x76>
    84f6:	2f00      	cmp	r7, #0
    84f8:	d04d      	beq.n	8596 <__aeabi_fadd+0x206>
    84fa:	1e48      	subs	r0, r1, #1
    84fc:	2800      	cmp	r0, #0
    84fe:	d157      	bne.n	85b0 <__aeabi_fadd+0x220>
    8500:	4463      	add	r3, ip
    8502:	2401      	movs	r4, #1
    8504:	015a      	lsls	r2, r3, #5
    8506:	d5af      	bpl.n	8468 <__aeabi_fadd+0xd8>
    8508:	2402      	movs	r4, #2
    850a:	e7dd      	b.n	84c8 <__aeabi_fadd+0x138>
    850c:	2a00      	cmp	r2, #0
    850e:	d124      	bne.n	855a <__aeabi_fadd+0x1ca>
    8510:	1c62      	adds	r2, r4, #1
    8512:	b2d2      	uxtb	r2, r2
    8514:	2a01      	cmp	r2, #1
    8516:	ddde      	ble.n	84d6 <__aeabi_fadd+0x146>
    8518:	1bde      	subs	r6, r3, r7
    851a:	0172      	lsls	r2, r6, #5
    851c:	d535      	bpl.n	858a <__aeabi_fadd+0x1fa>
    851e:	1afe      	subs	r6, r7, r3
    8520:	000d      	movs	r5, r1
    8522:	e75c      	b.n	83de <__aeabi_fadd+0x4e>
    8524:	002a      	movs	r2, r5
    8526:	2300      	movs	r3, #0
    8528:	e77e      	b.n	8428 <__aeabi_fadd+0x98>
    852a:	0033      	movs	r3, r6
    852c:	4a60      	ldr	r2, [pc, #384]	; (86b0 <__aeabi_fadd+0x320>)
    852e:	1a24      	subs	r4, r4, r0
    8530:	4013      	ands	r3, r2
    8532:	e768      	b.n	8406 <__aeabi_fadd+0x76>
    8534:	2900      	cmp	r1, #0
    8536:	d163      	bne.n	8600 <__aeabi_fadd+0x270>
    8538:	1c61      	adds	r1, r4, #1
    853a:	b2c8      	uxtb	r0, r1
    853c:	2801      	cmp	r0, #1
    853e:	dd4e      	ble.n	85de <__aeabi_fadd+0x24e>
    8540:	29ff      	cmp	r1, #255	; 0xff
    8542:	d049      	beq.n	85d8 <__aeabi_fadd+0x248>
    8544:	4463      	add	r3, ip
    8546:	085b      	lsrs	r3, r3, #1
    8548:	000c      	movs	r4, r1
    854a:	e75c      	b.n	8406 <__aeabi_fadd+0x76>
    854c:	2aff      	cmp	r2, #255	; 0xff
    854e:	d041      	beq.n	85d4 <__aeabi_fadd+0x244>
    8550:	000a      	movs	r2, r1
    8552:	e779      	b.n	8448 <__aeabi_fadd+0xb8>
    8554:	2201      	movs	r2, #1
    8556:	1a9b      	subs	r3, r3, r2
    8558:	e784      	b.n	8464 <__aeabi_fadd+0xd4>
    855a:	2c00      	cmp	r4, #0
    855c:	d01d      	beq.n	859a <__aeabi_fadd+0x20a>
    855e:	28ff      	cmp	r0, #255	; 0xff
    8560:	d022      	beq.n	85a8 <__aeabi_fadd+0x218>
    8562:	2480      	movs	r4, #128	; 0x80
    8564:	04e4      	lsls	r4, r4, #19
    8566:	4252      	negs	r2, r2
    8568:	4323      	orrs	r3, r4
    856a:	2a1b      	cmp	r2, #27
    856c:	dd00      	ble.n	8570 <__aeabi_fadd+0x1e0>
    856e:	e08a      	b.n	8686 <__aeabi_fadd+0x2f6>
    8570:	001c      	movs	r4, r3
    8572:	2520      	movs	r5, #32
    8574:	40d4      	lsrs	r4, r2
    8576:	1aaa      	subs	r2, r5, r2
    8578:	4093      	lsls	r3, r2
    857a:	1e5a      	subs	r2, r3, #1
    857c:	4193      	sbcs	r3, r2
    857e:	4323      	orrs	r3, r4
    8580:	4662      	mov	r2, ip
    8582:	0004      	movs	r4, r0
    8584:	1ad3      	subs	r3, r2, r3
    8586:	000d      	movs	r5, r1
    8588:	e725      	b.n	83d6 <__aeabi_fadd+0x46>
    858a:	2e00      	cmp	r6, #0
    858c:	d000      	beq.n	8590 <__aeabi_fadd+0x200>
    858e:	e726      	b.n	83de <__aeabi_fadd+0x4e>
    8590:	2200      	movs	r2, #0
    8592:	2400      	movs	r4, #0
    8594:	e7a9      	b.n	84ea <__aeabi_fadd+0x15a>
    8596:	000c      	movs	r4, r1
    8598:	e735      	b.n	8406 <__aeabi_fadd+0x76>
    859a:	2b00      	cmp	r3, #0
    859c:	d04d      	beq.n	863a <__aeabi_fadd+0x2aa>
    859e:	43d2      	mvns	r2, r2
    85a0:	2a00      	cmp	r2, #0
    85a2:	d0ed      	beq.n	8580 <__aeabi_fadd+0x1f0>
    85a4:	28ff      	cmp	r0, #255	; 0xff
    85a6:	d1e0      	bne.n	856a <__aeabi_fadd+0x1da>
    85a8:	4663      	mov	r3, ip
    85aa:	24ff      	movs	r4, #255	; 0xff
    85ac:	000d      	movs	r5, r1
    85ae:	e72a      	b.n	8406 <__aeabi_fadd+0x76>
    85b0:	29ff      	cmp	r1, #255	; 0xff
    85b2:	d00f      	beq.n	85d4 <__aeabi_fadd+0x244>
    85b4:	0001      	movs	r1, r0
    85b6:	e773      	b.n	84a0 <__aeabi_fadd+0x110>
    85b8:	2b00      	cmp	r3, #0
    85ba:	d061      	beq.n	8680 <__aeabi_fadd+0x2f0>
    85bc:	24ff      	movs	r4, #255	; 0xff
    85be:	2f00      	cmp	r7, #0
    85c0:	d100      	bne.n	85c4 <__aeabi_fadd+0x234>
    85c2:	e720      	b.n	8406 <__aeabi_fadd+0x76>
    85c4:	2280      	movs	r2, #128	; 0x80
    85c6:	4641      	mov	r1, r8
    85c8:	03d2      	lsls	r2, r2, #15
    85ca:	4211      	tst	r1, r2
    85cc:	d002      	beq.n	85d4 <__aeabi_fadd+0x244>
    85ce:	4216      	tst	r6, r2
    85d0:	d100      	bne.n	85d4 <__aeabi_fadd+0x244>
    85d2:	003b      	movs	r3, r7
    85d4:	24ff      	movs	r4, #255	; 0xff
    85d6:	e716      	b.n	8406 <__aeabi_fadd+0x76>
    85d8:	24ff      	movs	r4, #255	; 0xff
    85da:	2300      	movs	r3, #0
    85dc:	e724      	b.n	8428 <__aeabi_fadd+0x98>
    85de:	2c00      	cmp	r4, #0
    85e0:	d1ea      	bne.n	85b8 <__aeabi_fadd+0x228>
    85e2:	2b00      	cmp	r3, #0
    85e4:	d058      	beq.n	8698 <__aeabi_fadd+0x308>
    85e6:	2f00      	cmp	r7, #0
    85e8:	d100      	bne.n	85ec <__aeabi_fadd+0x25c>
    85ea:	e70c      	b.n	8406 <__aeabi_fadd+0x76>
    85ec:	4463      	add	r3, ip
    85ee:	015a      	lsls	r2, r3, #5
    85f0:	d400      	bmi.n	85f4 <__aeabi_fadd+0x264>
    85f2:	e739      	b.n	8468 <__aeabi_fadd+0xd8>
    85f4:	4a2e      	ldr	r2, [pc, #184]	; (86b0 <__aeabi_fadd+0x320>)
    85f6:	000c      	movs	r4, r1
    85f8:	4013      	ands	r3, r2
    85fa:	e704      	b.n	8406 <__aeabi_fadd+0x76>
    85fc:	2101      	movs	r1, #1
    85fe:	e75c      	b.n	84ba <__aeabi_fadd+0x12a>
    8600:	2c00      	cmp	r4, #0
    8602:	d11e      	bne.n	8642 <__aeabi_fadd+0x2b2>
    8604:	2b00      	cmp	r3, #0
    8606:	d040      	beq.n	868a <__aeabi_fadd+0x2fa>
    8608:	43c9      	mvns	r1, r1
    860a:	2900      	cmp	r1, #0
    860c:	d00b      	beq.n	8626 <__aeabi_fadd+0x296>
    860e:	28ff      	cmp	r0, #255	; 0xff
    8610:	d036      	beq.n	8680 <__aeabi_fadd+0x2f0>
    8612:	291b      	cmp	r1, #27
    8614:	dc47      	bgt.n	86a6 <__aeabi_fadd+0x316>
    8616:	001c      	movs	r4, r3
    8618:	2620      	movs	r6, #32
    861a:	40cc      	lsrs	r4, r1
    861c:	1a71      	subs	r1, r6, r1
    861e:	408b      	lsls	r3, r1
    8620:	1e59      	subs	r1, r3, #1
    8622:	418b      	sbcs	r3, r1
    8624:	4323      	orrs	r3, r4
    8626:	4463      	add	r3, ip
    8628:	0004      	movs	r4, r0
    862a:	e747      	b.n	84bc <__aeabi_fadd+0x12c>
    862c:	2b00      	cmp	r3, #0
    862e:	d118      	bne.n	8662 <__aeabi_fadd+0x2d2>
    8630:	1e3b      	subs	r3, r7, #0
    8632:	d02d      	beq.n	8690 <__aeabi_fadd+0x300>
    8634:	000d      	movs	r5, r1
    8636:	24ff      	movs	r4, #255	; 0xff
    8638:	e6e5      	b.n	8406 <__aeabi_fadd+0x76>
    863a:	003b      	movs	r3, r7
    863c:	0004      	movs	r4, r0
    863e:	000d      	movs	r5, r1
    8640:	e6e1      	b.n	8406 <__aeabi_fadd+0x76>
    8642:	28ff      	cmp	r0, #255	; 0xff
    8644:	d01c      	beq.n	8680 <__aeabi_fadd+0x2f0>
    8646:	2480      	movs	r4, #128	; 0x80
    8648:	04e4      	lsls	r4, r4, #19
    864a:	4249      	negs	r1, r1
    864c:	4323      	orrs	r3, r4
    864e:	e7e0      	b.n	8612 <__aeabi_fadd+0x282>
    8650:	2f00      	cmp	r7, #0
    8652:	d100      	bne.n	8656 <__aeabi_fadd+0x2c6>
    8654:	e6d7      	b.n	8406 <__aeabi_fadd+0x76>
    8656:	1bde      	subs	r6, r3, r7
    8658:	0172      	lsls	r2, r6, #5
    865a:	d51f      	bpl.n	869c <__aeabi_fadd+0x30c>
    865c:	1afb      	subs	r3, r7, r3
    865e:	000d      	movs	r5, r1
    8660:	e6d1      	b.n	8406 <__aeabi_fadd+0x76>
    8662:	24ff      	movs	r4, #255	; 0xff
    8664:	2f00      	cmp	r7, #0
    8666:	d100      	bne.n	866a <__aeabi_fadd+0x2da>
    8668:	e6cd      	b.n	8406 <__aeabi_fadd+0x76>
    866a:	2280      	movs	r2, #128	; 0x80
    866c:	4640      	mov	r0, r8
    866e:	03d2      	lsls	r2, r2, #15
    8670:	4210      	tst	r0, r2
    8672:	d0af      	beq.n	85d4 <__aeabi_fadd+0x244>
    8674:	4216      	tst	r6, r2
    8676:	d1ad      	bne.n	85d4 <__aeabi_fadd+0x244>
    8678:	003b      	movs	r3, r7
    867a:	000d      	movs	r5, r1
    867c:	24ff      	movs	r4, #255	; 0xff
    867e:	e6c2      	b.n	8406 <__aeabi_fadd+0x76>
    8680:	4663      	mov	r3, ip
    8682:	24ff      	movs	r4, #255	; 0xff
    8684:	e6bf      	b.n	8406 <__aeabi_fadd+0x76>
    8686:	2301      	movs	r3, #1
    8688:	e77a      	b.n	8580 <__aeabi_fadd+0x1f0>
    868a:	003b      	movs	r3, r7
    868c:	0004      	movs	r4, r0
    868e:	e6ba      	b.n	8406 <__aeabi_fadd+0x76>
    8690:	2680      	movs	r6, #128	; 0x80
    8692:	2200      	movs	r2, #0
    8694:	03f6      	lsls	r6, r6, #15
    8696:	e6f0      	b.n	847a <__aeabi_fadd+0xea>
    8698:	003b      	movs	r3, r7
    869a:	e6b4      	b.n	8406 <__aeabi_fadd+0x76>
    869c:	1e33      	subs	r3, r6, #0
    869e:	d000      	beq.n	86a2 <__aeabi_fadd+0x312>
    86a0:	e6e2      	b.n	8468 <__aeabi_fadd+0xd8>
    86a2:	2200      	movs	r2, #0
    86a4:	e721      	b.n	84ea <__aeabi_fadd+0x15a>
    86a6:	2301      	movs	r3, #1
    86a8:	e7bd      	b.n	8626 <__aeabi_fadd+0x296>
    86aa:	46c0      	nop			; (mov r8, r8)
    86ac:	7dffffff 	.word	0x7dffffff
    86b0:	fbffffff 	.word	0xfbffffff

000086b4 <__aeabi_fdiv>:
    86b4:	b5f0      	push	{r4, r5, r6, r7, lr}
    86b6:	4657      	mov	r7, sl
    86b8:	464e      	mov	r6, r9
    86ba:	46de      	mov	lr, fp
    86bc:	4645      	mov	r5, r8
    86be:	b5e0      	push	{r5, r6, r7, lr}
    86c0:	0244      	lsls	r4, r0, #9
    86c2:	0043      	lsls	r3, r0, #1
    86c4:	0fc6      	lsrs	r6, r0, #31
    86c6:	b083      	sub	sp, #12
    86c8:	1c0f      	adds	r7, r1, #0
    86ca:	0a64      	lsrs	r4, r4, #9
    86cc:	0e1b      	lsrs	r3, r3, #24
    86ce:	46b2      	mov	sl, r6
    86d0:	d053      	beq.n	877a <__aeabi_fdiv+0xc6>
    86d2:	2bff      	cmp	r3, #255	; 0xff
    86d4:	d027      	beq.n	8726 <__aeabi_fdiv+0x72>
    86d6:	2280      	movs	r2, #128	; 0x80
    86d8:	00e4      	lsls	r4, r4, #3
    86da:	04d2      	lsls	r2, r2, #19
    86dc:	4314      	orrs	r4, r2
    86de:	227f      	movs	r2, #127	; 0x7f
    86e0:	4252      	negs	r2, r2
    86e2:	4690      	mov	r8, r2
    86e4:	4498      	add	r8, r3
    86e6:	2300      	movs	r3, #0
    86e8:	4699      	mov	r9, r3
    86ea:	469b      	mov	fp, r3
    86ec:	027d      	lsls	r5, r7, #9
    86ee:	0078      	lsls	r0, r7, #1
    86f0:	0ffb      	lsrs	r3, r7, #31
    86f2:	0a6d      	lsrs	r5, r5, #9
    86f4:	0e00      	lsrs	r0, r0, #24
    86f6:	9300      	str	r3, [sp, #0]
    86f8:	d024      	beq.n	8744 <__aeabi_fdiv+0x90>
    86fa:	28ff      	cmp	r0, #255	; 0xff
    86fc:	d046      	beq.n	878c <__aeabi_fdiv+0xd8>
    86fe:	2380      	movs	r3, #128	; 0x80
    8700:	2100      	movs	r1, #0
    8702:	00ed      	lsls	r5, r5, #3
    8704:	04db      	lsls	r3, r3, #19
    8706:	431d      	orrs	r5, r3
    8708:	387f      	subs	r0, #127	; 0x7f
    870a:	4647      	mov	r7, r8
    870c:	1a38      	subs	r0, r7, r0
    870e:	464f      	mov	r7, r9
    8710:	430f      	orrs	r7, r1
    8712:	00bf      	lsls	r7, r7, #2
    8714:	46b9      	mov	r9, r7
    8716:	0033      	movs	r3, r6
    8718:	9a00      	ldr	r2, [sp, #0]
    871a:	4f87      	ldr	r7, [pc, #540]	; (8938 <__aeabi_fdiv+0x284>)
    871c:	4053      	eors	r3, r2
    871e:	464a      	mov	r2, r9
    8720:	58ba      	ldr	r2, [r7, r2]
    8722:	9301      	str	r3, [sp, #4]
    8724:	4697      	mov	pc, r2
    8726:	2c00      	cmp	r4, #0
    8728:	d14e      	bne.n	87c8 <__aeabi_fdiv+0x114>
    872a:	2308      	movs	r3, #8
    872c:	4699      	mov	r9, r3
    872e:	33f7      	adds	r3, #247	; 0xf7
    8730:	4698      	mov	r8, r3
    8732:	3bfd      	subs	r3, #253	; 0xfd
    8734:	469b      	mov	fp, r3
    8736:	027d      	lsls	r5, r7, #9
    8738:	0078      	lsls	r0, r7, #1
    873a:	0ffb      	lsrs	r3, r7, #31
    873c:	0a6d      	lsrs	r5, r5, #9
    873e:	0e00      	lsrs	r0, r0, #24
    8740:	9300      	str	r3, [sp, #0]
    8742:	d1da      	bne.n	86fa <__aeabi_fdiv+0x46>
    8744:	2d00      	cmp	r5, #0
    8746:	d126      	bne.n	8796 <__aeabi_fdiv+0xe2>
    8748:	2000      	movs	r0, #0
    874a:	2101      	movs	r1, #1
    874c:	0033      	movs	r3, r6
    874e:	9a00      	ldr	r2, [sp, #0]
    8750:	4f7a      	ldr	r7, [pc, #488]	; (893c <__aeabi_fdiv+0x288>)
    8752:	4053      	eors	r3, r2
    8754:	4642      	mov	r2, r8
    8756:	1a10      	subs	r0, r2, r0
    8758:	464a      	mov	r2, r9
    875a:	430a      	orrs	r2, r1
    875c:	0092      	lsls	r2, r2, #2
    875e:	58ba      	ldr	r2, [r7, r2]
    8760:	001d      	movs	r5, r3
    8762:	4697      	mov	pc, r2
    8764:	9b00      	ldr	r3, [sp, #0]
    8766:	002c      	movs	r4, r5
    8768:	469a      	mov	sl, r3
    876a:	468b      	mov	fp, r1
    876c:	465b      	mov	r3, fp
    876e:	2b02      	cmp	r3, #2
    8770:	d131      	bne.n	87d6 <__aeabi_fdiv+0x122>
    8772:	4653      	mov	r3, sl
    8774:	21ff      	movs	r1, #255	; 0xff
    8776:	2400      	movs	r4, #0
    8778:	e038      	b.n	87ec <__aeabi_fdiv+0x138>
    877a:	2c00      	cmp	r4, #0
    877c:	d117      	bne.n	87ae <__aeabi_fdiv+0xfa>
    877e:	2304      	movs	r3, #4
    8780:	4699      	mov	r9, r3
    8782:	2300      	movs	r3, #0
    8784:	4698      	mov	r8, r3
    8786:	3301      	adds	r3, #1
    8788:	469b      	mov	fp, r3
    878a:	e7af      	b.n	86ec <__aeabi_fdiv+0x38>
    878c:	20ff      	movs	r0, #255	; 0xff
    878e:	2d00      	cmp	r5, #0
    8790:	d10b      	bne.n	87aa <__aeabi_fdiv+0xf6>
    8792:	2102      	movs	r1, #2
    8794:	e7da      	b.n	874c <__aeabi_fdiv+0x98>
    8796:	0028      	movs	r0, r5
    8798:	f7ff fc7c 	bl	8094 <__clzsi2>
    879c:	1f43      	subs	r3, r0, #5
    879e:	409d      	lsls	r5, r3
    87a0:	2376      	movs	r3, #118	; 0x76
    87a2:	425b      	negs	r3, r3
    87a4:	1a18      	subs	r0, r3, r0
    87a6:	2100      	movs	r1, #0
    87a8:	e7af      	b.n	870a <__aeabi_fdiv+0x56>
    87aa:	2103      	movs	r1, #3
    87ac:	e7ad      	b.n	870a <__aeabi_fdiv+0x56>
    87ae:	0020      	movs	r0, r4
    87b0:	f7ff fc70 	bl	8094 <__clzsi2>
    87b4:	1f43      	subs	r3, r0, #5
    87b6:	409c      	lsls	r4, r3
    87b8:	2376      	movs	r3, #118	; 0x76
    87ba:	425b      	negs	r3, r3
    87bc:	1a1b      	subs	r3, r3, r0
    87be:	4698      	mov	r8, r3
    87c0:	2300      	movs	r3, #0
    87c2:	4699      	mov	r9, r3
    87c4:	469b      	mov	fp, r3
    87c6:	e791      	b.n	86ec <__aeabi_fdiv+0x38>
    87c8:	230c      	movs	r3, #12
    87ca:	4699      	mov	r9, r3
    87cc:	33f3      	adds	r3, #243	; 0xf3
    87ce:	4698      	mov	r8, r3
    87d0:	3bfc      	subs	r3, #252	; 0xfc
    87d2:	469b      	mov	fp, r3
    87d4:	e78a      	b.n	86ec <__aeabi_fdiv+0x38>
    87d6:	2b03      	cmp	r3, #3
    87d8:	d100      	bne.n	87dc <__aeabi_fdiv+0x128>
    87da:	e0a5      	b.n	8928 <__aeabi_fdiv+0x274>
    87dc:	4655      	mov	r5, sl
    87de:	2b01      	cmp	r3, #1
    87e0:	d000      	beq.n	87e4 <__aeabi_fdiv+0x130>
    87e2:	e081      	b.n	88e8 <__aeabi_fdiv+0x234>
    87e4:	2301      	movs	r3, #1
    87e6:	2100      	movs	r1, #0
    87e8:	2400      	movs	r4, #0
    87ea:	402b      	ands	r3, r5
    87ec:	0264      	lsls	r4, r4, #9
    87ee:	05c9      	lsls	r1, r1, #23
    87f0:	0a60      	lsrs	r0, r4, #9
    87f2:	07db      	lsls	r3, r3, #31
    87f4:	4308      	orrs	r0, r1
    87f6:	4318      	orrs	r0, r3
    87f8:	b003      	add	sp, #12
    87fa:	bc3c      	pop	{r2, r3, r4, r5}
    87fc:	4690      	mov	r8, r2
    87fe:	4699      	mov	r9, r3
    8800:	46a2      	mov	sl, r4
    8802:	46ab      	mov	fp, r5
    8804:	bdf0      	pop	{r4, r5, r6, r7, pc}
    8806:	2480      	movs	r4, #128	; 0x80
    8808:	2300      	movs	r3, #0
    880a:	03e4      	lsls	r4, r4, #15
    880c:	21ff      	movs	r1, #255	; 0xff
    880e:	e7ed      	b.n	87ec <__aeabi_fdiv+0x138>
    8810:	21ff      	movs	r1, #255	; 0xff
    8812:	2400      	movs	r4, #0
    8814:	e7ea      	b.n	87ec <__aeabi_fdiv+0x138>
    8816:	2301      	movs	r3, #1
    8818:	1a59      	subs	r1, r3, r1
    881a:	291b      	cmp	r1, #27
    881c:	dd66      	ble.n	88ec <__aeabi_fdiv+0x238>
    881e:	9a01      	ldr	r2, [sp, #4]
    8820:	4013      	ands	r3, r2
    8822:	2100      	movs	r1, #0
    8824:	2400      	movs	r4, #0
    8826:	e7e1      	b.n	87ec <__aeabi_fdiv+0x138>
    8828:	2380      	movs	r3, #128	; 0x80
    882a:	03db      	lsls	r3, r3, #15
    882c:	421c      	tst	r4, r3
    882e:	d038      	beq.n	88a2 <__aeabi_fdiv+0x1ee>
    8830:	421d      	tst	r5, r3
    8832:	d051      	beq.n	88d8 <__aeabi_fdiv+0x224>
    8834:	431c      	orrs	r4, r3
    8836:	0264      	lsls	r4, r4, #9
    8838:	0a64      	lsrs	r4, r4, #9
    883a:	0033      	movs	r3, r6
    883c:	21ff      	movs	r1, #255	; 0xff
    883e:	e7d5      	b.n	87ec <__aeabi_fdiv+0x138>
    8840:	0163      	lsls	r3, r4, #5
    8842:	016c      	lsls	r4, r5, #5
    8844:	42a3      	cmp	r3, r4
    8846:	d23b      	bcs.n	88c0 <__aeabi_fdiv+0x20c>
    8848:	261b      	movs	r6, #27
    884a:	2100      	movs	r1, #0
    884c:	3801      	subs	r0, #1
    884e:	2501      	movs	r5, #1
    8850:	001f      	movs	r7, r3
    8852:	0049      	lsls	r1, r1, #1
    8854:	005b      	lsls	r3, r3, #1
    8856:	2f00      	cmp	r7, #0
    8858:	db01      	blt.n	885e <__aeabi_fdiv+0x1aa>
    885a:	429c      	cmp	r4, r3
    885c:	d801      	bhi.n	8862 <__aeabi_fdiv+0x1ae>
    885e:	1b1b      	subs	r3, r3, r4
    8860:	4329      	orrs	r1, r5
    8862:	3e01      	subs	r6, #1
    8864:	2e00      	cmp	r6, #0
    8866:	d1f3      	bne.n	8850 <__aeabi_fdiv+0x19c>
    8868:	001c      	movs	r4, r3
    886a:	1e63      	subs	r3, r4, #1
    886c:	419c      	sbcs	r4, r3
    886e:	430c      	orrs	r4, r1
    8870:	0001      	movs	r1, r0
    8872:	317f      	adds	r1, #127	; 0x7f
    8874:	2900      	cmp	r1, #0
    8876:	ddce      	ble.n	8816 <__aeabi_fdiv+0x162>
    8878:	0763      	lsls	r3, r4, #29
    887a:	d004      	beq.n	8886 <__aeabi_fdiv+0x1d2>
    887c:	230f      	movs	r3, #15
    887e:	4023      	ands	r3, r4
    8880:	2b04      	cmp	r3, #4
    8882:	d000      	beq.n	8886 <__aeabi_fdiv+0x1d2>
    8884:	3404      	adds	r4, #4
    8886:	0123      	lsls	r3, r4, #4
    8888:	d503      	bpl.n	8892 <__aeabi_fdiv+0x1de>
    888a:	0001      	movs	r1, r0
    888c:	4b2c      	ldr	r3, [pc, #176]	; (8940 <__aeabi_fdiv+0x28c>)
    888e:	3180      	adds	r1, #128	; 0x80
    8890:	401c      	ands	r4, r3
    8892:	29fe      	cmp	r1, #254	; 0xfe
    8894:	dd0d      	ble.n	88b2 <__aeabi_fdiv+0x1fe>
    8896:	2301      	movs	r3, #1
    8898:	9a01      	ldr	r2, [sp, #4]
    889a:	21ff      	movs	r1, #255	; 0xff
    889c:	4013      	ands	r3, r2
    889e:	2400      	movs	r4, #0
    88a0:	e7a4      	b.n	87ec <__aeabi_fdiv+0x138>
    88a2:	2380      	movs	r3, #128	; 0x80
    88a4:	03db      	lsls	r3, r3, #15
    88a6:	431c      	orrs	r4, r3
    88a8:	0264      	lsls	r4, r4, #9
    88aa:	0a64      	lsrs	r4, r4, #9
    88ac:	0033      	movs	r3, r6
    88ae:	21ff      	movs	r1, #255	; 0xff
    88b0:	e79c      	b.n	87ec <__aeabi_fdiv+0x138>
    88b2:	2301      	movs	r3, #1
    88b4:	9a01      	ldr	r2, [sp, #4]
    88b6:	01a4      	lsls	r4, r4, #6
    88b8:	0a64      	lsrs	r4, r4, #9
    88ba:	b2c9      	uxtb	r1, r1
    88bc:	4013      	ands	r3, r2
    88be:	e795      	b.n	87ec <__aeabi_fdiv+0x138>
    88c0:	1b1b      	subs	r3, r3, r4
    88c2:	261a      	movs	r6, #26
    88c4:	2101      	movs	r1, #1
    88c6:	e7c2      	b.n	884e <__aeabi_fdiv+0x19a>
    88c8:	9b00      	ldr	r3, [sp, #0]
    88ca:	468b      	mov	fp, r1
    88cc:	469a      	mov	sl, r3
    88ce:	2400      	movs	r4, #0
    88d0:	e74c      	b.n	876c <__aeabi_fdiv+0xb8>
    88d2:	0263      	lsls	r3, r4, #9
    88d4:	d5e5      	bpl.n	88a2 <__aeabi_fdiv+0x1ee>
    88d6:	2500      	movs	r5, #0
    88d8:	2480      	movs	r4, #128	; 0x80
    88da:	03e4      	lsls	r4, r4, #15
    88dc:	432c      	orrs	r4, r5
    88de:	0264      	lsls	r4, r4, #9
    88e0:	0a64      	lsrs	r4, r4, #9
    88e2:	9b00      	ldr	r3, [sp, #0]
    88e4:	21ff      	movs	r1, #255	; 0xff
    88e6:	e781      	b.n	87ec <__aeabi_fdiv+0x138>
    88e8:	9501      	str	r5, [sp, #4]
    88ea:	e7c1      	b.n	8870 <__aeabi_fdiv+0x1bc>
    88ec:	0023      	movs	r3, r4
    88ee:	2020      	movs	r0, #32
    88f0:	40cb      	lsrs	r3, r1
    88f2:	1a41      	subs	r1, r0, r1
    88f4:	408c      	lsls	r4, r1
    88f6:	1e61      	subs	r1, r4, #1
    88f8:	418c      	sbcs	r4, r1
    88fa:	431c      	orrs	r4, r3
    88fc:	0763      	lsls	r3, r4, #29
    88fe:	d004      	beq.n	890a <__aeabi_fdiv+0x256>
    8900:	230f      	movs	r3, #15
    8902:	4023      	ands	r3, r4
    8904:	2b04      	cmp	r3, #4
    8906:	d000      	beq.n	890a <__aeabi_fdiv+0x256>
    8908:	3404      	adds	r4, #4
    890a:	0163      	lsls	r3, r4, #5
    890c:	d505      	bpl.n	891a <__aeabi_fdiv+0x266>
    890e:	2301      	movs	r3, #1
    8910:	9a01      	ldr	r2, [sp, #4]
    8912:	2101      	movs	r1, #1
    8914:	4013      	ands	r3, r2
    8916:	2400      	movs	r4, #0
    8918:	e768      	b.n	87ec <__aeabi_fdiv+0x138>
    891a:	2301      	movs	r3, #1
    891c:	9a01      	ldr	r2, [sp, #4]
    891e:	01a4      	lsls	r4, r4, #6
    8920:	0a64      	lsrs	r4, r4, #9
    8922:	4013      	ands	r3, r2
    8924:	2100      	movs	r1, #0
    8926:	e761      	b.n	87ec <__aeabi_fdiv+0x138>
    8928:	2380      	movs	r3, #128	; 0x80
    892a:	03db      	lsls	r3, r3, #15
    892c:	431c      	orrs	r4, r3
    892e:	0264      	lsls	r4, r4, #9
    8930:	0a64      	lsrs	r4, r4, #9
    8932:	4653      	mov	r3, sl
    8934:	21ff      	movs	r1, #255	; 0xff
    8936:	e759      	b.n	87ec <__aeabi_fdiv+0x138>
    8938:	0000b96c 	.word	0x0000b96c
    893c:	0000b9ac 	.word	0x0000b9ac
    8940:	f7ffffff 	.word	0xf7ffffff

00008944 <__eqsf2>:
    8944:	b570      	push	{r4, r5, r6, lr}
    8946:	0042      	lsls	r2, r0, #1
    8948:	0245      	lsls	r5, r0, #9
    894a:	024e      	lsls	r6, r1, #9
    894c:	004c      	lsls	r4, r1, #1
    894e:	0fc3      	lsrs	r3, r0, #31
    8950:	0a6d      	lsrs	r5, r5, #9
    8952:	0e12      	lsrs	r2, r2, #24
    8954:	0a76      	lsrs	r6, r6, #9
    8956:	0e24      	lsrs	r4, r4, #24
    8958:	0fc9      	lsrs	r1, r1, #31
    895a:	2001      	movs	r0, #1
    895c:	2aff      	cmp	r2, #255	; 0xff
    895e:	d006      	beq.n	896e <__eqsf2+0x2a>
    8960:	2cff      	cmp	r4, #255	; 0xff
    8962:	d003      	beq.n	896c <__eqsf2+0x28>
    8964:	42a2      	cmp	r2, r4
    8966:	d101      	bne.n	896c <__eqsf2+0x28>
    8968:	42b5      	cmp	r5, r6
    896a:	d006      	beq.n	897a <__eqsf2+0x36>
    896c:	bd70      	pop	{r4, r5, r6, pc}
    896e:	2d00      	cmp	r5, #0
    8970:	d1fc      	bne.n	896c <__eqsf2+0x28>
    8972:	2cff      	cmp	r4, #255	; 0xff
    8974:	d1fa      	bne.n	896c <__eqsf2+0x28>
    8976:	2e00      	cmp	r6, #0
    8978:	d1f8      	bne.n	896c <__eqsf2+0x28>
    897a:	428b      	cmp	r3, r1
    897c:	d006      	beq.n	898c <__eqsf2+0x48>
    897e:	2001      	movs	r0, #1
    8980:	2a00      	cmp	r2, #0
    8982:	d1f3      	bne.n	896c <__eqsf2+0x28>
    8984:	0028      	movs	r0, r5
    8986:	1e45      	subs	r5, r0, #1
    8988:	41a8      	sbcs	r0, r5
    898a:	e7ef      	b.n	896c <__eqsf2+0x28>
    898c:	2000      	movs	r0, #0
    898e:	e7ed      	b.n	896c <__eqsf2+0x28>

00008990 <__gesf2>:
    8990:	b5f0      	push	{r4, r5, r6, r7, lr}
    8992:	0042      	lsls	r2, r0, #1
    8994:	0245      	lsls	r5, r0, #9
    8996:	024c      	lsls	r4, r1, #9
    8998:	0fc3      	lsrs	r3, r0, #31
    899a:	0048      	lsls	r0, r1, #1
    899c:	0a6d      	lsrs	r5, r5, #9
    899e:	0e12      	lsrs	r2, r2, #24
    89a0:	0a64      	lsrs	r4, r4, #9
    89a2:	0e00      	lsrs	r0, r0, #24
    89a4:	0fc9      	lsrs	r1, r1, #31
    89a6:	2aff      	cmp	r2, #255	; 0xff
    89a8:	d01e      	beq.n	89e8 <__gesf2+0x58>
    89aa:	28ff      	cmp	r0, #255	; 0xff
    89ac:	d021      	beq.n	89f2 <__gesf2+0x62>
    89ae:	2a00      	cmp	r2, #0
    89b0:	d10a      	bne.n	89c8 <__gesf2+0x38>
    89b2:	426e      	negs	r6, r5
    89b4:	416e      	adcs	r6, r5
    89b6:	b2f6      	uxtb	r6, r6
    89b8:	2800      	cmp	r0, #0
    89ba:	d10f      	bne.n	89dc <__gesf2+0x4c>
    89bc:	2c00      	cmp	r4, #0
    89be:	d10d      	bne.n	89dc <__gesf2+0x4c>
    89c0:	2000      	movs	r0, #0
    89c2:	2d00      	cmp	r5, #0
    89c4:	d009      	beq.n	89da <__gesf2+0x4a>
    89c6:	e005      	b.n	89d4 <__gesf2+0x44>
    89c8:	2800      	cmp	r0, #0
    89ca:	d101      	bne.n	89d0 <__gesf2+0x40>
    89cc:	2c00      	cmp	r4, #0
    89ce:	d001      	beq.n	89d4 <__gesf2+0x44>
    89d0:	428b      	cmp	r3, r1
    89d2:	d011      	beq.n	89f8 <__gesf2+0x68>
    89d4:	2101      	movs	r1, #1
    89d6:	4258      	negs	r0, r3
    89d8:	4308      	orrs	r0, r1
    89da:	bdf0      	pop	{r4, r5, r6, r7, pc}
    89dc:	2e00      	cmp	r6, #0
    89de:	d0f7      	beq.n	89d0 <__gesf2+0x40>
    89e0:	2001      	movs	r0, #1
    89e2:	3901      	subs	r1, #1
    89e4:	4308      	orrs	r0, r1
    89e6:	e7f8      	b.n	89da <__gesf2+0x4a>
    89e8:	2d00      	cmp	r5, #0
    89ea:	d0de      	beq.n	89aa <__gesf2+0x1a>
    89ec:	2002      	movs	r0, #2
    89ee:	4240      	negs	r0, r0
    89f0:	e7f3      	b.n	89da <__gesf2+0x4a>
    89f2:	2c00      	cmp	r4, #0
    89f4:	d0db      	beq.n	89ae <__gesf2+0x1e>
    89f6:	e7f9      	b.n	89ec <__gesf2+0x5c>
    89f8:	4282      	cmp	r2, r0
    89fa:	dceb      	bgt.n	89d4 <__gesf2+0x44>
    89fc:	db04      	blt.n	8a08 <__gesf2+0x78>
    89fe:	42a5      	cmp	r5, r4
    8a00:	d8e8      	bhi.n	89d4 <__gesf2+0x44>
    8a02:	2000      	movs	r0, #0
    8a04:	42a5      	cmp	r5, r4
    8a06:	d2e8      	bcs.n	89da <__gesf2+0x4a>
    8a08:	2101      	movs	r1, #1
    8a0a:	1e58      	subs	r0, r3, #1
    8a0c:	4308      	orrs	r0, r1
    8a0e:	e7e4      	b.n	89da <__gesf2+0x4a>

00008a10 <__lesf2>:
    8a10:	b5f0      	push	{r4, r5, r6, r7, lr}
    8a12:	0042      	lsls	r2, r0, #1
    8a14:	024d      	lsls	r5, r1, #9
    8a16:	004c      	lsls	r4, r1, #1
    8a18:	0246      	lsls	r6, r0, #9
    8a1a:	0a76      	lsrs	r6, r6, #9
    8a1c:	0e12      	lsrs	r2, r2, #24
    8a1e:	0fc3      	lsrs	r3, r0, #31
    8a20:	0a6d      	lsrs	r5, r5, #9
    8a22:	0e24      	lsrs	r4, r4, #24
    8a24:	0fc9      	lsrs	r1, r1, #31
    8a26:	2aff      	cmp	r2, #255	; 0xff
    8a28:	d016      	beq.n	8a58 <__lesf2+0x48>
    8a2a:	2cff      	cmp	r4, #255	; 0xff
    8a2c:	d018      	beq.n	8a60 <__lesf2+0x50>
    8a2e:	2a00      	cmp	r2, #0
    8a30:	d10a      	bne.n	8a48 <__lesf2+0x38>
    8a32:	4270      	negs	r0, r6
    8a34:	4170      	adcs	r0, r6
    8a36:	b2c0      	uxtb	r0, r0
    8a38:	2c00      	cmp	r4, #0
    8a3a:	d015      	beq.n	8a68 <__lesf2+0x58>
    8a3c:	2800      	cmp	r0, #0
    8a3e:	d005      	beq.n	8a4c <__lesf2+0x3c>
    8a40:	2001      	movs	r0, #1
    8a42:	3901      	subs	r1, #1
    8a44:	4308      	orrs	r0, r1
    8a46:	bdf0      	pop	{r4, r5, r6, r7, pc}
    8a48:	2c00      	cmp	r4, #0
    8a4a:	d013      	beq.n	8a74 <__lesf2+0x64>
    8a4c:	4299      	cmp	r1, r3
    8a4e:	d014      	beq.n	8a7a <__lesf2+0x6a>
    8a50:	2001      	movs	r0, #1
    8a52:	425b      	negs	r3, r3
    8a54:	4318      	orrs	r0, r3
    8a56:	e7f6      	b.n	8a46 <__lesf2+0x36>
    8a58:	2002      	movs	r0, #2
    8a5a:	2e00      	cmp	r6, #0
    8a5c:	d1f3      	bne.n	8a46 <__lesf2+0x36>
    8a5e:	e7e4      	b.n	8a2a <__lesf2+0x1a>
    8a60:	2002      	movs	r0, #2
    8a62:	2d00      	cmp	r5, #0
    8a64:	d1ef      	bne.n	8a46 <__lesf2+0x36>
    8a66:	e7e2      	b.n	8a2e <__lesf2+0x1e>
    8a68:	2d00      	cmp	r5, #0
    8a6a:	d1e7      	bne.n	8a3c <__lesf2+0x2c>
    8a6c:	2000      	movs	r0, #0
    8a6e:	2e00      	cmp	r6, #0
    8a70:	d0e9      	beq.n	8a46 <__lesf2+0x36>
    8a72:	e7ed      	b.n	8a50 <__lesf2+0x40>
    8a74:	2d00      	cmp	r5, #0
    8a76:	d1e9      	bne.n	8a4c <__lesf2+0x3c>
    8a78:	e7ea      	b.n	8a50 <__lesf2+0x40>
    8a7a:	42a2      	cmp	r2, r4
    8a7c:	dc06      	bgt.n	8a8c <__lesf2+0x7c>
    8a7e:	dbdf      	blt.n	8a40 <__lesf2+0x30>
    8a80:	42ae      	cmp	r6, r5
    8a82:	d803      	bhi.n	8a8c <__lesf2+0x7c>
    8a84:	2000      	movs	r0, #0
    8a86:	42ae      	cmp	r6, r5
    8a88:	d3da      	bcc.n	8a40 <__lesf2+0x30>
    8a8a:	e7dc      	b.n	8a46 <__lesf2+0x36>
    8a8c:	2001      	movs	r0, #1
    8a8e:	4249      	negs	r1, r1
    8a90:	4308      	orrs	r0, r1
    8a92:	e7d8      	b.n	8a46 <__lesf2+0x36>

00008a94 <__aeabi_fmul>:
    8a94:	b5f8      	push	{r3, r4, r5, r6, r7, lr}
    8a96:	4657      	mov	r7, sl
    8a98:	464e      	mov	r6, r9
    8a9a:	4645      	mov	r5, r8
    8a9c:	46de      	mov	lr, fp
    8a9e:	b5e0      	push	{r5, r6, r7, lr}
    8aa0:	0247      	lsls	r7, r0, #9
    8aa2:	0046      	lsls	r6, r0, #1
    8aa4:	4688      	mov	r8, r1
    8aa6:	0a7f      	lsrs	r7, r7, #9
    8aa8:	0e36      	lsrs	r6, r6, #24
    8aaa:	0fc4      	lsrs	r4, r0, #31
    8aac:	2e00      	cmp	r6, #0
    8aae:	d047      	beq.n	8b40 <__aeabi_fmul+0xac>
    8ab0:	2eff      	cmp	r6, #255	; 0xff
    8ab2:	d024      	beq.n	8afe <__aeabi_fmul+0x6a>
    8ab4:	00fb      	lsls	r3, r7, #3
    8ab6:	2780      	movs	r7, #128	; 0x80
    8ab8:	04ff      	lsls	r7, r7, #19
    8aba:	431f      	orrs	r7, r3
    8abc:	2300      	movs	r3, #0
    8abe:	4699      	mov	r9, r3
    8ac0:	469a      	mov	sl, r3
    8ac2:	3e7f      	subs	r6, #127	; 0x7f
    8ac4:	4643      	mov	r3, r8
    8ac6:	025d      	lsls	r5, r3, #9
    8ac8:	0058      	lsls	r0, r3, #1
    8aca:	0fdb      	lsrs	r3, r3, #31
    8acc:	0a6d      	lsrs	r5, r5, #9
    8ace:	0e00      	lsrs	r0, r0, #24
    8ad0:	4698      	mov	r8, r3
    8ad2:	d043      	beq.n	8b5c <__aeabi_fmul+0xc8>
    8ad4:	28ff      	cmp	r0, #255	; 0xff
    8ad6:	d03b      	beq.n	8b50 <__aeabi_fmul+0xbc>
    8ad8:	00eb      	lsls	r3, r5, #3
    8ada:	2580      	movs	r5, #128	; 0x80
    8adc:	2200      	movs	r2, #0
    8ade:	04ed      	lsls	r5, r5, #19
    8ae0:	431d      	orrs	r5, r3
    8ae2:	387f      	subs	r0, #127	; 0x7f
    8ae4:	1836      	adds	r6, r6, r0
    8ae6:	1c73      	adds	r3, r6, #1
    8ae8:	4641      	mov	r1, r8
    8aea:	469b      	mov	fp, r3
    8aec:	464b      	mov	r3, r9
    8aee:	4061      	eors	r1, r4
    8af0:	4313      	orrs	r3, r2
    8af2:	2b0f      	cmp	r3, #15
    8af4:	d864      	bhi.n	8bc0 <__aeabi_fmul+0x12c>
    8af6:	4875      	ldr	r0, [pc, #468]	; (8ccc <__aeabi_fmul+0x238>)
    8af8:	009b      	lsls	r3, r3, #2
    8afa:	58c3      	ldr	r3, [r0, r3]
    8afc:	469f      	mov	pc, r3
    8afe:	2f00      	cmp	r7, #0
    8b00:	d142      	bne.n	8b88 <__aeabi_fmul+0xf4>
    8b02:	2308      	movs	r3, #8
    8b04:	4699      	mov	r9, r3
    8b06:	3b06      	subs	r3, #6
    8b08:	26ff      	movs	r6, #255	; 0xff
    8b0a:	469a      	mov	sl, r3
    8b0c:	e7da      	b.n	8ac4 <__aeabi_fmul+0x30>
    8b0e:	4641      	mov	r1, r8
    8b10:	2a02      	cmp	r2, #2
    8b12:	d028      	beq.n	8b66 <__aeabi_fmul+0xd2>
    8b14:	2a03      	cmp	r2, #3
    8b16:	d100      	bne.n	8b1a <__aeabi_fmul+0x86>
    8b18:	e0ce      	b.n	8cb8 <__aeabi_fmul+0x224>
    8b1a:	2a01      	cmp	r2, #1
    8b1c:	d000      	beq.n	8b20 <__aeabi_fmul+0x8c>
    8b1e:	e0ac      	b.n	8c7a <__aeabi_fmul+0x1e6>
    8b20:	4011      	ands	r1, r2
    8b22:	2000      	movs	r0, #0
    8b24:	2200      	movs	r2, #0
    8b26:	b2cc      	uxtb	r4, r1
    8b28:	0240      	lsls	r0, r0, #9
    8b2a:	05d2      	lsls	r2, r2, #23
    8b2c:	0a40      	lsrs	r0, r0, #9
    8b2e:	07e4      	lsls	r4, r4, #31
    8b30:	4310      	orrs	r0, r2
    8b32:	4320      	orrs	r0, r4
    8b34:	bc3c      	pop	{r2, r3, r4, r5}
    8b36:	4690      	mov	r8, r2
    8b38:	4699      	mov	r9, r3
    8b3a:	46a2      	mov	sl, r4
    8b3c:	46ab      	mov	fp, r5
    8b3e:	bdf8      	pop	{r3, r4, r5, r6, r7, pc}
    8b40:	2f00      	cmp	r7, #0
    8b42:	d115      	bne.n	8b70 <__aeabi_fmul+0xdc>
    8b44:	2304      	movs	r3, #4
    8b46:	4699      	mov	r9, r3
    8b48:	3b03      	subs	r3, #3
    8b4a:	2600      	movs	r6, #0
    8b4c:	469a      	mov	sl, r3
    8b4e:	e7b9      	b.n	8ac4 <__aeabi_fmul+0x30>
    8b50:	20ff      	movs	r0, #255	; 0xff
    8b52:	2202      	movs	r2, #2
    8b54:	2d00      	cmp	r5, #0
    8b56:	d0c5      	beq.n	8ae4 <__aeabi_fmul+0x50>
    8b58:	2203      	movs	r2, #3
    8b5a:	e7c3      	b.n	8ae4 <__aeabi_fmul+0x50>
    8b5c:	2d00      	cmp	r5, #0
    8b5e:	d119      	bne.n	8b94 <__aeabi_fmul+0x100>
    8b60:	2000      	movs	r0, #0
    8b62:	2201      	movs	r2, #1
    8b64:	e7be      	b.n	8ae4 <__aeabi_fmul+0x50>
    8b66:	2401      	movs	r4, #1
    8b68:	22ff      	movs	r2, #255	; 0xff
    8b6a:	400c      	ands	r4, r1
    8b6c:	2000      	movs	r0, #0
    8b6e:	e7db      	b.n	8b28 <__aeabi_fmul+0x94>
    8b70:	0038      	movs	r0, r7
    8b72:	f7ff fa8f 	bl	8094 <__clzsi2>
    8b76:	2676      	movs	r6, #118	; 0x76
    8b78:	1f43      	subs	r3, r0, #5
    8b7a:	409f      	lsls	r7, r3
    8b7c:	2300      	movs	r3, #0
    8b7e:	4276      	negs	r6, r6
    8b80:	1a36      	subs	r6, r6, r0
    8b82:	4699      	mov	r9, r3
    8b84:	469a      	mov	sl, r3
    8b86:	e79d      	b.n	8ac4 <__aeabi_fmul+0x30>
    8b88:	230c      	movs	r3, #12
    8b8a:	4699      	mov	r9, r3
    8b8c:	3b09      	subs	r3, #9
    8b8e:	26ff      	movs	r6, #255	; 0xff
    8b90:	469a      	mov	sl, r3
    8b92:	e797      	b.n	8ac4 <__aeabi_fmul+0x30>
    8b94:	0028      	movs	r0, r5
    8b96:	f7ff fa7d 	bl	8094 <__clzsi2>
    8b9a:	1f43      	subs	r3, r0, #5
    8b9c:	409d      	lsls	r5, r3
    8b9e:	2376      	movs	r3, #118	; 0x76
    8ba0:	425b      	negs	r3, r3
    8ba2:	1a18      	subs	r0, r3, r0
    8ba4:	2200      	movs	r2, #0
    8ba6:	e79d      	b.n	8ae4 <__aeabi_fmul+0x50>
    8ba8:	2080      	movs	r0, #128	; 0x80
    8baa:	2400      	movs	r4, #0
    8bac:	03c0      	lsls	r0, r0, #15
    8bae:	22ff      	movs	r2, #255	; 0xff
    8bb0:	e7ba      	b.n	8b28 <__aeabi_fmul+0x94>
    8bb2:	003d      	movs	r5, r7
    8bb4:	4652      	mov	r2, sl
    8bb6:	e7ab      	b.n	8b10 <__aeabi_fmul+0x7c>
    8bb8:	003d      	movs	r5, r7
    8bba:	0021      	movs	r1, r4
    8bbc:	4652      	mov	r2, sl
    8bbe:	e7a7      	b.n	8b10 <__aeabi_fmul+0x7c>
    8bc0:	0c3b      	lsrs	r3, r7, #16
    8bc2:	469c      	mov	ip, r3
    8bc4:	042a      	lsls	r2, r5, #16
    8bc6:	0c12      	lsrs	r2, r2, #16
    8bc8:	0c2b      	lsrs	r3, r5, #16
    8bca:	0014      	movs	r4, r2
    8bcc:	4660      	mov	r0, ip
    8bce:	4665      	mov	r5, ip
    8bd0:	043f      	lsls	r7, r7, #16
    8bd2:	0c3f      	lsrs	r7, r7, #16
    8bd4:	437c      	muls	r4, r7
    8bd6:	4342      	muls	r2, r0
    8bd8:	435d      	muls	r5, r3
    8bda:	437b      	muls	r3, r7
    8bdc:	0c27      	lsrs	r7, r4, #16
    8bde:	189b      	adds	r3, r3, r2
    8be0:	18ff      	adds	r7, r7, r3
    8be2:	42ba      	cmp	r2, r7
    8be4:	d903      	bls.n	8bee <__aeabi_fmul+0x15a>
    8be6:	2380      	movs	r3, #128	; 0x80
    8be8:	025b      	lsls	r3, r3, #9
    8bea:	469c      	mov	ip, r3
    8bec:	4465      	add	r5, ip
    8bee:	0424      	lsls	r4, r4, #16
    8bf0:	043a      	lsls	r2, r7, #16
    8bf2:	0c24      	lsrs	r4, r4, #16
    8bf4:	1912      	adds	r2, r2, r4
    8bf6:	0193      	lsls	r3, r2, #6
    8bf8:	1e5c      	subs	r4, r3, #1
    8bfa:	41a3      	sbcs	r3, r4
    8bfc:	0c3f      	lsrs	r7, r7, #16
    8bfe:	0e92      	lsrs	r2, r2, #26
    8c00:	197d      	adds	r5, r7, r5
    8c02:	431a      	orrs	r2, r3
    8c04:	01ad      	lsls	r5, r5, #6
    8c06:	4315      	orrs	r5, r2
    8c08:	012b      	lsls	r3, r5, #4
    8c0a:	d504      	bpl.n	8c16 <__aeabi_fmul+0x182>
    8c0c:	2301      	movs	r3, #1
    8c0e:	465e      	mov	r6, fp
    8c10:	086a      	lsrs	r2, r5, #1
    8c12:	401d      	ands	r5, r3
    8c14:	4315      	orrs	r5, r2
    8c16:	0032      	movs	r2, r6
    8c18:	327f      	adds	r2, #127	; 0x7f
    8c1a:	2a00      	cmp	r2, #0
    8c1c:	dd25      	ble.n	8c6a <__aeabi_fmul+0x1d6>
    8c1e:	076b      	lsls	r3, r5, #29
    8c20:	d004      	beq.n	8c2c <__aeabi_fmul+0x198>
    8c22:	230f      	movs	r3, #15
    8c24:	402b      	ands	r3, r5
    8c26:	2b04      	cmp	r3, #4
    8c28:	d000      	beq.n	8c2c <__aeabi_fmul+0x198>
    8c2a:	3504      	adds	r5, #4
    8c2c:	012b      	lsls	r3, r5, #4
    8c2e:	d503      	bpl.n	8c38 <__aeabi_fmul+0x1a4>
    8c30:	0032      	movs	r2, r6
    8c32:	4b27      	ldr	r3, [pc, #156]	; (8cd0 <__aeabi_fmul+0x23c>)
    8c34:	3280      	adds	r2, #128	; 0x80
    8c36:	401d      	ands	r5, r3
    8c38:	2afe      	cmp	r2, #254	; 0xfe
    8c3a:	dc94      	bgt.n	8b66 <__aeabi_fmul+0xd2>
    8c3c:	2401      	movs	r4, #1
    8c3e:	01a8      	lsls	r0, r5, #6
    8c40:	0a40      	lsrs	r0, r0, #9
    8c42:	b2d2      	uxtb	r2, r2
    8c44:	400c      	ands	r4, r1
    8c46:	e76f      	b.n	8b28 <__aeabi_fmul+0x94>
    8c48:	2080      	movs	r0, #128	; 0x80
    8c4a:	03c0      	lsls	r0, r0, #15
    8c4c:	4207      	tst	r7, r0
    8c4e:	d007      	beq.n	8c60 <__aeabi_fmul+0x1cc>
    8c50:	4205      	tst	r5, r0
    8c52:	d105      	bne.n	8c60 <__aeabi_fmul+0x1cc>
    8c54:	4328      	orrs	r0, r5
    8c56:	0240      	lsls	r0, r0, #9
    8c58:	0a40      	lsrs	r0, r0, #9
    8c5a:	4644      	mov	r4, r8
    8c5c:	22ff      	movs	r2, #255	; 0xff
    8c5e:	e763      	b.n	8b28 <__aeabi_fmul+0x94>
    8c60:	4338      	orrs	r0, r7
    8c62:	0240      	lsls	r0, r0, #9
    8c64:	0a40      	lsrs	r0, r0, #9
    8c66:	22ff      	movs	r2, #255	; 0xff
    8c68:	e75e      	b.n	8b28 <__aeabi_fmul+0x94>
    8c6a:	2401      	movs	r4, #1
    8c6c:	1aa3      	subs	r3, r4, r2
    8c6e:	2b1b      	cmp	r3, #27
    8c70:	dd05      	ble.n	8c7e <__aeabi_fmul+0x1ea>
    8c72:	400c      	ands	r4, r1
    8c74:	2200      	movs	r2, #0
    8c76:	2000      	movs	r0, #0
    8c78:	e756      	b.n	8b28 <__aeabi_fmul+0x94>
    8c7a:	465e      	mov	r6, fp
    8c7c:	e7cb      	b.n	8c16 <__aeabi_fmul+0x182>
    8c7e:	002a      	movs	r2, r5
    8c80:	2020      	movs	r0, #32
    8c82:	40da      	lsrs	r2, r3
    8c84:	1ac3      	subs	r3, r0, r3
    8c86:	409d      	lsls	r5, r3
    8c88:	002b      	movs	r3, r5
    8c8a:	1e5d      	subs	r5, r3, #1
    8c8c:	41ab      	sbcs	r3, r5
    8c8e:	4313      	orrs	r3, r2
    8c90:	075a      	lsls	r2, r3, #29
    8c92:	d004      	beq.n	8c9e <__aeabi_fmul+0x20a>
    8c94:	220f      	movs	r2, #15
    8c96:	401a      	ands	r2, r3
    8c98:	2a04      	cmp	r2, #4
    8c9a:	d000      	beq.n	8c9e <__aeabi_fmul+0x20a>
    8c9c:	3304      	adds	r3, #4
    8c9e:	015a      	lsls	r2, r3, #5
    8ca0:	d504      	bpl.n	8cac <__aeabi_fmul+0x218>
    8ca2:	2401      	movs	r4, #1
    8ca4:	2201      	movs	r2, #1
    8ca6:	400c      	ands	r4, r1
    8ca8:	2000      	movs	r0, #0
    8caa:	e73d      	b.n	8b28 <__aeabi_fmul+0x94>
    8cac:	2401      	movs	r4, #1
    8cae:	019b      	lsls	r3, r3, #6
    8cb0:	0a58      	lsrs	r0, r3, #9
    8cb2:	400c      	ands	r4, r1
    8cb4:	2200      	movs	r2, #0
    8cb6:	e737      	b.n	8b28 <__aeabi_fmul+0x94>
    8cb8:	2080      	movs	r0, #128	; 0x80
    8cba:	2401      	movs	r4, #1
    8cbc:	03c0      	lsls	r0, r0, #15
    8cbe:	4328      	orrs	r0, r5
    8cc0:	0240      	lsls	r0, r0, #9
    8cc2:	0a40      	lsrs	r0, r0, #9
    8cc4:	400c      	ands	r4, r1
    8cc6:	22ff      	movs	r2, #255	; 0xff
    8cc8:	e72e      	b.n	8b28 <__aeabi_fmul+0x94>
    8cca:	46c0      	nop			; (mov r8, r8)
    8ccc:	0000b9ec 	.word	0x0000b9ec
    8cd0:	f7ffffff 	.word	0xf7ffffff

00008cd4 <__aeabi_fsub>:
    8cd4:	b5f0      	push	{r4, r5, r6, r7, lr}
    8cd6:	464f      	mov	r7, r9
    8cd8:	46d6      	mov	lr, sl
    8cda:	4646      	mov	r6, r8
    8cdc:	0044      	lsls	r4, r0, #1
    8cde:	b5c0      	push	{r6, r7, lr}
    8ce0:	0fc2      	lsrs	r2, r0, #31
    8ce2:	0247      	lsls	r7, r0, #9
    8ce4:	0248      	lsls	r0, r1, #9
    8ce6:	0a40      	lsrs	r0, r0, #9
    8ce8:	4684      	mov	ip, r0
    8cea:	4666      	mov	r6, ip
    8cec:	0a7b      	lsrs	r3, r7, #9
    8cee:	0048      	lsls	r0, r1, #1
    8cf0:	0fc9      	lsrs	r1, r1, #31
    8cf2:	469a      	mov	sl, r3
    8cf4:	0e24      	lsrs	r4, r4, #24
    8cf6:	0015      	movs	r5, r2
    8cf8:	00db      	lsls	r3, r3, #3
    8cfa:	0e00      	lsrs	r0, r0, #24
    8cfc:	4689      	mov	r9, r1
    8cfe:	00f6      	lsls	r6, r6, #3
    8d00:	28ff      	cmp	r0, #255	; 0xff
    8d02:	d100      	bne.n	8d06 <__aeabi_fsub+0x32>
    8d04:	e08f      	b.n	8e26 <__aeabi_fsub+0x152>
    8d06:	2101      	movs	r1, #1
    8d08:	464f      	mov	r7, r9
    8d0a:	404f      	eors	r7, r1
    8d0c:	0039      	movs	r1, r7
    8d0e:	4291      	cmp	r1, r2
    8d10:	d066      	beq.n	8de0 <__aeabi_fsub+0x10c>
    8d12:	1a22      	subs	r2, r4, r0
    8d14:	2a00      	cmp	r2, #0
    8d16:	dc00      	bgt.n	8d1a <__aeabi_fsub+0x46>
    8d18:	e09d      	b.n	8e56 <__aeabi_fsub+0x182>
    8d1a:	2800      	cmp	r0, #0
    8d1c:	d13d      	bne.n	8d9a <__aeabi_fsub+0xc6>
    8d1e:	2e00      	cmp	r6, #0
    8d20:	d100      	bne.n	8d24 <__aeabi_fsub+0x50>
    8d22:	e08b      	b.n	8e3c <__aeabi_fsub+0x168>
    8d24:	1e51      	subs	r1, r2, #1
    8d26:	2900      	cmp	r1, #0
    8d28:	d000      	beq.n	8d2c <__aeabi_fsub+0x58>
    8d2a:	e0b5      	b.n	8e98 <__aeabi_fsub+0x1c4>
    8d2c:	2401      	movs	r4, #1
    8d2e:	1b9b      	subs	r3, r3, r6
    8d30:	015a      	lsls	r2, r3, #5
    8d32:	d544      	bpl.n	8dbe <__aeabi_fsub+0xea>
    8d34:	019b      	lsls	r3, r3, #6
    8d36:	099f      	lsrs	r7, r3, #6
    8d38:	0038      	movs	r0, r7
    8d3a:	f7ff f9ab 	bl	8094 <__clzsi2>
    8d3e:	3805      	subs	r0, #5
    8d40:	4087      	lsls	r7, r0
    8d42:	4284      	cmp	r4, r0
    8d44:	dd00      	ble.n	8d48 <__aeabi_fsub+0x74>
    8d46:	e096      	b.n	8e76 <__aeabi_fsub+0x1a2>
    8d48:	1b04      	subs	r4, r0, r4
    8d4a:	003a      	movs	r2, r7
    8d4c:	2020      	movs	r0, #32
    8d4e:	3401      	adds	r4, #1
    8d50:	40e2      	lsrs	r2, r4
    8d52:	1b04      	subs	r4, r0, r4
    8d54:	40a7      	lsls	r7, r4
    8d56:	003b      	movs	r3, r7
    8d58:	1e5f      	subs	r7, r3, #1
    8d5a:	41bb      	sbcs	r3, r7
    8d5c:	2400      	movs	r4, #0
    8d5e:	4313      	orrs	r3, r2
    8d60:	075a      	lsls	r2, r3, #29
    8d62:	d004      	beq.n	8d6e <__aeabi_fsub+0x9a>
    8d64:	220f      	movs	r2, #15
    8d66:	401a      	ands	r2, r3
    8d68:	2a04      	cmp	r2, #4
    8d6a:	d000      	beq.n	8d6e <__aeabi_fsub+0x9a>
    8d6c:	3304      	adds	r3, #4
    8d6e:	015a      	lsls	r2, r3, #5
    8d70:	d527      	bpl.n	8dc2 <__aeabi_fsub+0xee>
    8d72:	3401      	adds	r4, #1
    8d74:	2cff      	cmp	r4, #255	; 0xff
    8d76:	d100      	bne.n	8d7a <__aeabi_fsub+0xa6>
    8d78:	e079      	b.n	8e6e <__aeabi_fsub+0x19a>
    8d7a:	2201      	movs	r2, #1
    8d7c:	019b      	lsls	r3, r3, #6
    8d7e:	0a5b      	lsrs	r3, r3, #9
    8d80:	b2e4      	uxtb	r4, r4
    8d82:	402a      	ands	r2, r5
    8d84:	025b      	lsls	r3, r3, #9
    8d86:	05e4      	lsls	r4, r4, #23
    8d88:	0a58      	lsrs	r0, r3, #9
    8d8a:	07d2      	lsls	r2, r2, #31
    8d8c:	4320      	orrs	r0, r4
    8d8e:	4310      	orrs	r0, r2
    8d90:	bc1c      	pop	{r2, r3, r4}
    8d92:	4690      	mov	r8, r2
    8d94:	4699      	mov	r9, r3
    8d96:	46a2      	mov	sl, r4
    8d98:	bdf0      	pop	{r4, r5, r6, r7, pc}
    8d9a:	2cff      	cmp	r4, #255	; 0xff
    8d9c:	d0e0      	beq.n	8d60 <__aeabi_fsub+0x8c>
    8d9e:	2180      	movs	r1, #128	; 0x80
    8da0:	04c9      	lsls	r1, r1, #19
    8da2:	430e      	orrs	r6, r1
    8da4:	2a1b      	cmp	r2, #27
    8da6:	dc7b      	bgt.n	8ea0 <__aeabi_fsub+0x1cc>
    8da8:	0031      	movs	r1, r6
    8daa:	2020      	movs	r0, #32
    8dac:	40d1      	lsrs	r1, r2
    8dae:	1a82      	subs	r2, r0, r2
    8db0:	4096      	lsls	r6, r2
    8db2:	1e72      	subs	r2, r6, #1
    8db4:	4196      	sbcs	r6, r2
    8db6:	430e      	orrs	r6, r1
    8db8:	1b9b      	subs	r3, r3, r6
    8dba:	015a      	lsls	r2, r3, #5
    8dbc:	d4ba      	bmi.n	8d34 <__aeabi_fsub+0x60>
    8dbe:	075a      	lsls	r2, r3, #29
    8dc0:	d1d0      	bne.n	8d64 <__aeabi_fsub+0x90>
    8dc2:	2201      	movs	r2, #1
    8dc4:	08df      	lsrs	r7, r3, #3
    8dc6:	402a      	ands	r2, r5
    8dc8:	2cff      	cmp	r4, #255	; 0xff
    8dca:	d133      	bne.n	8e34 <__aeabi_fsub+0x160>
    8dcc:	2f00      	cmp	r7, #0
    8dce:	d100      	bne.n	8dd2 <__aeabi_fsub+0xfe>
    8dd0:	e0a8      	b.n	8f24 <__aeabi_fsub+0x250>
    8dd2:	2380      	movs	r3, #128	; 0x80
    8dd4:	03db      	lsls	r3, r3, #15
    8dd6:	433b      	orrs	r3, r7
    8dd8:	025b      	lsls	r3, r3, #9
    8dda:	0a5b      	lsrs	r3, r3, #9
    8ddc:	24ff      	movs	r4, #255	; 0xff
    8dde:	e7d1      	b.n	8d84 <__aeabi_fsub+0xb0>
    8de0:	1a21      	subs	r1, r4, r0
    8de2:	2900      	cmp	r1, #0
    8de4:	dd4c      	ble.n	8e80 <__aeabi_fsub+0x1ac>
    8de6:	2800      	cmp	r0, #0
    8de8:	d02a      	beq.n	8e40 <__aeabi_fsub+0x16c>
    8dea:	2cff      	cmp	r4, #255	; 0xff
    8dec:	d0b8      	beq.n	8d60 <__aeabi_fsub+0x8c>
    8dee:	2080      	movs	r0, #128	; 0x80
    8df0:	04c0      	lsls	r0, r0, #19
    8df2:	4306      	orrs	r6, r0
    8df4:	291b      	cmp	r1, #27
    8df6:	dd00      	ble.n	8dfa <__aeabi_fsub+0x126>
    8df8:	e0af      	b.n	8f5a <__aeabi_fsub+0x286>
    8dfa:	0030      	movs	r0, r6
    8dfc:	2720      	movs	r7, #32
    8dfe:	40c8      	lsrs	r0, r1
    8e00:	1a79      	subs	r1, r7, r1
    8e02:	408e      	lsls	r6, r1
    8e04:	1e71      	subs	r1, r6, #1
    8e06:	418e      	sbcs	r6, r1
    8e08:	4306      	orrs	r6, r0
    8e0a:	199b      	adds	r3, r3, r6
    8e0c:	0159      	lsls	r1, r3, #5
    8e0e:	d5d6      	bpl.n	8dbe <__aeabi_fsub+0xea>
    8e10:	3401      	adds	r4, #1
    8e12:	2cff      	cmp	r4, #255	; 0xff
    8e14:	d100      	bne.n	8e18 <__aeabi_fsub+0x144>
    8e16:	e085      	b.n	8f24 <__aeabi_fsub+0x250>
    8e18:	2201      	movs	r2, #1
    8e1a:	497a      	ldr	r1, [pc, #488]	; (9004 <__aeabi_fsub+0x330>)
    8e1c:	401a      	ands	r2, r3
    8e1e:	085b      	lsrs	r3, r3, #1
    8e20:	400b      	ands	r3, r1
    8e22:	4313      	orrs	r3, r2
    8e24:	e79c      	b.n	8d60 <__aeabi_fsub+0x8c>
    8e26:	2e00      	cmp	r6, #0
    8e28:	d000      	beq.n	8e2c <__aeabi_fsub+0x158>
    8e2a:	e770      	b.n	8d0e <__aeabi_fsub+0x3a>
    8e2c:	e76b      	b.n	8d06 <__aeabi_fsub+0x32>
    8e2e:	1e3b      	subs	r3, r7, #0
    8e30:	d1c5      	bne.n	8dbe <__aeabi_fsub+0xea>
    8e32:	2200      	movs	r2, #0
    8e34:	027b      	lsls	r3, r7, #9
    8e36:	0a5b      	lsrs	r3, r3, #9
    8e38:	b2e4      	uxtb	r4, r4
    8e3a:	e7a3      	b.n	8d84 <__aeabi_fsub+0xb0>
    8e3c:	0014      	movs	r4, r2
    8e3e:	e78f      	b.n	8d60 <__aeabi_fsub+0x8c>
    8e40:	2e00      	cmp	r6, #0
    8e42:	d04d      	beq.n	8ee0 <__aeabi_fsub+0x20c>
    8e44:	1e48      	subs	r0, r1, #1
    8e46:	2800      	cmp	r0, #0
    8e48:	d157      	bne.n	8efa <__aeabi_fsub+0x226>
    8e4a:	199b      	adds	r3, r3, r6
    8e4c:	2401      	movs	r4, #1
    8e4e:	015a      	lsls	r2, r3, #5
    8e50:	d5b5      	bpl.n	8dbe <__aeabi_fsub+0xea>
    8e52:	2402      	movs	r4, #2
    8e54:	e7e0      	b.n	8e18 <__aeabi_fsub+0x144>
    8e56:	2a00      	cmp	r2, #0
    8e58:	d125      	bne.n	8ea6 <__aeabi_fsub+0x1d2>
    8e5a:	1c62      	adds	r2, r4, #1
    8e5c:	b2d2      	uxtb	r2, r2
    8e5e:	2a01      	cmp	r2, #1
    8e60:	dd72      	ble.n	8f48 <__aeabi_fsub+0x274>
    8e62:	1b9f      	subs	r7, r3, r6
    8e64:	017a      	lsls	r2, r7, #5
    8e66:	d535      	bpl.n	8ed4 <__aeabi_fsub+0x200>
    8e68:	1af7      	subs	r7, r6, r3
    8e6a:	000d      	movs	r5, r1
    8e6c:	e764      	b.n	8d38 <__aeabi_fsub+0x64>
    8e6e:	2201      	movs	r2, #1
    8e70:	2300      	movs	r3, #0
    8e72:	402a      	ands	r2, r5
    8e74:	e786      	b.n	8d84 <__aeabi_fsub+0xb0>
    8e76:	003b      	movs	r3, r7
    8e78:	4a63      	ldr	r2, [pc, #396]	; (9008 <__aeabi_fsub+0x334>)
    8e7a:	1a24      	subs	r4, r4, r0
    8e7c:	4013      	ands	r3, r2
    8e7e:	e76f      	b.n	8d60 <__aeabi_fsub+0x8c>
    8e80:	2900      	cmp	r1, #0
    8e82:	d16c      	bne.n	8f5e <__aeabi_fsub+0x28a>
    8e84:	1c61      	adds	r1, r4, #1
    8e86:	b2c8      	uxtb	r0, r1
    8e88:	2801      	cmp	r0, #1
    8e8a:	dd4e      	ble.n	8f2a <__aeabi_fsub+0x256>
    8e8c:	29ff      	cmp	r1, #255	; 0xff
    8e8e:	d049      	beq.n	8f24 <__aeabi_fsub+0x250>
    8e90:	199b      	adds	r3, r3, r6
    8e92:	085b      	lsrs	r3, r3, #1
    8e94:	000c      	movs	r4, r1
    8e96:	e763      	b.n	8d60 <__aeabi_fsub+0x8c>
    8e98:	2aff      	cmp	r2, #255	; 0xff
    8e9a:	d041      	beq.n	8f20 <__aeabi_fsub+0x24c>
    8e9c:	000a      	movs	r2, r1
    8e9e:	e781      	b.n	8da4 <__aeabi_fsub+0xd0>
    8ea0:	2601      	movs	r6, #1
    8ea2:	1b9b      	subs	r3, r3, r6
    8ea4:	e789      	b.n	8dba <__aeabi_fsub+0xe6>
    8ea6:	2c00      	cmp	r4, #0
    8ea8:	d01c      	beq.n	8ee4 <__aeabi_fsub+0x210>
    8eaa:	28ff      	cmp	r0, #255	; 0xff
    8eac:	d021      	beq.n	8ef2 <__aeabi_fsub+0x21e>
    8eae:	2480      	movs	r4, #128	; 0x80
    8eb0:	04e4      	lsls	r4, r4, #19
    8eb2:	4252      	negs	r2, r2
    8eb4:	4323      	orrs	r3, r4
    8eb6:	2a1b      	cmp	r2, #27
    8eb8:	dd00      	ble.n	8ebc <__aeabi_fsub+0x1e8>
    8eba:	e096      	b.n	8fea <__aeabi_fsub+0x316>
    8ebc:	001c      	movs	r4, r3
    8ebe:	2520      	movs	r5, #32
    8ec0:	40d4      	lsrs	r4, r2
    8ec2:	1aaa      	subs	r2, r5, r2
    8ec4:	4093      	lsls	r3, r2
    8ec6:	1e5a      	subs	r2, r3, #1
    8ec8:	4193      	sbcs	r3, r2
    8eca:	4323      	orrs	r3, r4
    8ecc:	1af3      	subs	r3, r6, r3
    8ece:	0004      	movs	r4, r0
    8ed0:	000d      	movs	r5, r1
    8ed2:	e72d      	b.n	8d30 <__aeabi_fsub+0x5c>
    8ed4:	2f00      	cmp	r7, #0
    8ed6:	d000      	beq.n	8eda <__aeabi_fsub+0x206>
    8ed8:	e72e      	b.n	8d38 <__aeabi_fsub+0x64>
    8eda:	2200      	movs	r2, #0
    8edc:	2400      	movs	r4, #0
    8ede:	e7a9      	b.n	8e34 <__aeabi_fsub+0x160>
    8ee0:	000c      	movs	r4, r1
    8ee2:	e73d      	b.n	8d60 <__aeabi_fsub+0x8c>
    8ee4:	2b00      	cmp	r3, #0
    8ee6:	d058      	beq.n	8f9a <__aeabi_fsub+0x2c6>
    8ee8:	43d2      	mvns	r2, r2
    8eea:	2a00      	cmp	r2, #0
    8eec:	d0ee      	beq.n	8ecc <__aeabi_fsub+0x1f8>
    8eee:	28ff      	cmp	r0, #255	; 0xff
    8ef0:	d1e1      	bne.n	8eb6 <__aeabi_fsub+0x1e2>
    8ef2:	0033      	movs	r3, r6
    8ef4:	24ff      	movs	r4, #255	; 0xff
    8ef6:	000d      	movs	r5, r1
    8ef8:	e732      	b.n	8d60 <__aeabi_fsub+0x8c>
    8efa:	29ff      	cmp	r1, #255	; 0xff
    8efc:	d010      	beq.n	8f20 <__aeabi_fsub+0x24c>
    8efe:	0001      	movs	r1, r0
    8f00:	e778      	b.n	8df4 <__aeabi_fsub+0x120>
    8f02:	2b00      	cmp	r3, #0
    8f04:	d06e      	beq.n	8fe4 <__aeabi_fsub+0x310>
    8f06:	24ff      	movs	r4, #255	; 0xff
    8f08:	2e00      	cmp	r6, #0
    8f0a:	d100      	bne.n	8f0e <__aeabi_fsub+0x23a>
    8f0c:	e728      	b.n	8d60 <__aeabi_fsub+0x8c>
    8f0e:	2280      	movs	r2, #128	; 0x80
    8f10:	4651      	mov	r1, sl
    8f12:	03d2      	lsls	r2, r2, #15
    8f14:	4211      	tst	r1, r2
    8f16:	d003      	beq.n	8f20 <__aeabi_fsub+0x24c>
    8f18:	4661      	mov	r1, ip
    8f1a:	4211      	tst	r1, r2
    8f1c:	d100      	bne.n	8f20 <__aeabi_fsub+0x24c>
    8f1e:	0033      	movs	r3, r6
    8f20:	24ff      	movs	r4, #255	; 0xff
    8f22:	e71d      	b.n	8d60 <__aeabi_fsub+0x8c>
    8f24:	24ff      	movs	r4, #255	; 0xff
    8f26:	2300      	movs	r3, #0
    8f28:	e72c      	b.n	8d84 <__aeabi_fsub+0xb0>
    8f2a:	2c00      	cmp	r4, #0
    8f2c:	d1e9      	bne.n	8f02 <__aeabi_fsub+0x22e>
    8f2e:	2b00      	cmp	r3, #0
    8f30:	d063      	beq.n	8ffa <__aeabi_fsub+0x326>
    8f32:	2e00      	cmp	r6, #0
    8f34:	d100      	bne.n	8f38 <__aeabi_fsub+0x264>
    8f36:	e713      	b.n	8d60 <__aeabi_fsub+0x8c>
    8f38:	199b      	adds	r3, r3, r6
    8f3a:	015a      	lsls	r2, r3, #5
    8f3c:	d400      	bmi.n	8f40 <__aeabi_fsub+0x26c>
    8f3e:	e73e      	b.n	8dbe <__aeabi_fsub+0xea>
    8f40:	4a31      	ldr	r2, [pc, #196]	; (9008 <__aeabi_fsub+0x334>)
    8f42:	000c      	movs	r4, r1
    8f44:	4013      	ands	r3, r2
    8f46:	e70b      	b.n	8d60 <__aeabi_fsub+0x8c>
    8f48:	2c00      	cmp	r4, #0
    8f4a:	d11e      	bne.n	8f8a <__aeabi_fsub+0x2b6>
    8f4c:	2b00      	cmp	r3, #0
    8f4e:	d12f      	bne.n	8fb0 <__aeabi_fsub+0x2dc>
    8f50:	2e00      	cmp	r6, #0
    8f52:	d04f      	beq.n	8ff4 <__aeabi_fsub+0x320>
    8f54:	0033      	movs	r3, r6
    8f56:	000d      	movs	r5, r1
    8f58:	e702      	b.n	8d60 <__aeabi_fsub+0x8c>
    8f5a:	2601      	movs	r6, #1
    8f5c:	e755      	b.n	8e0a <__aeabi_fsub+0x136>
    8f5e:	2c00      	cmp	r4, #0
    8f60:	d11f      	bne.n	8fa2 <__aeabi_fsub+0x2ce>
    8f62:	2b00      	cmp	r3, #0
    8f64:	d043      	beq.n	8fee <__aeabi_fsub+0x31a>
    8f66:	43c9      	mvns	r1, r1
    8f68:	2900      	cmp	r1, #0
    8f6a:	d00b      	beq.n	8f84 <__aeabi_fsub+0x2b0>
    8f6c:	28ff      	cmp	r0, #255	; 0xff
    8f6e:	d039      	beq.n	8fe4 <__aeabi_fsub+0x310>
    8f70:	291b      	cmp	r1, #27
    8f72:	dc44      	bgt.n	8ffe <__aeabi_fsub+0x32a>
    8f74:	001c      	movs	r4, r3
    8f76:	2720      	movs	r7, #32
    8f78:	40cc      	lsrs	r4, r1
    8f7a:	1a79      	subs	r1, r7, r1
    8f7c:	408b      	lsls	r3, r1
    8f7e:	1e59      	subs	r1, r3, #1
    8f80:	418b      	sbcs	r3, r1
    8f82:	4323      	orrs	r3, r4
    8f84:	199b      	adds	r3, r3, r6
    8f86:	0004      	movs	r4, r0
    8f88:	e740      	b.n	8e0c <__aeabi_fsub+0x138>
    8f8a:	2b00      	cmp	r3, #0
    8f8c:	d11a      	bne.n	8fc4 <__aeabi_fsub+0x2f0>
    8f8e:	2e00      	cmp	r6, #0
    8f90:	d124      	bne.n	8fdc <__aeabi_fsub+0x308>
    8f92:	2780      	movs	r7, #128	; 0x80
    8f94:	2200      	movs	r2, #0
    8f96:	03ff      	lsls	r7, r7, #15
    8f98:	e71b      	b.n	8dd2 <__aeabi_fsub+0xfe>
    8f9a:	0033      	movs	r3, r6
    8f9c:	0004      	movs	r4, r0
    8f9e:	000d      	movs	r5, r1
    8fa0:	e6de      	b.n	8d60 <__aeabi_fsub+0x8c>
    8fa2:	28ff      	cmp	r0, #255	; 0xff
    8fa4:	d01e      	beq.n	8fe4 <__aeabi_fsub+0x310>
    8fa6:	2480      	movs	r4, #128	; 0x80
    8fa8:	04e4      	lsls	r4, r4, #19
    8faa:	4249      	negs	r1, r1
    8fac:	4323      	orrs	r3, r4
    8fae:	e7df      	b.n	8f70 <__aeabi_fsub+0x29c>
    8fb0:	2e00      	cmp	r6, #0
    8fb2:	d100      	bne.n	8fb6 <__aeabi_fsub+0x2e2>
    8fb4:	e6d4      	b.n	8d60 <__aeabi_fsub+0x8c>
    8fb6:	1b9f      	subs	r7, r3, r6
    8fb8:	017a      	lsls	r2, r7, #5
    8fba:	d400      	bmi.n	8fbe <__aeabi_fsub+0x2ea>
    8fbc:	e737      	b.n	8e2e <__aeabi_fsub+0x15a>
    8fbe:	1af3      	subs	r3, r6, r3
    8fc0:	000d      	movs	r5, r1
    8fc2:	e6cd      	b.n	8d60 <__aeabi_fsub+0x8c>
    8fc4:	24ff      	movs	r4, #255	; 0xff
    8fc6:	2e00      	cmp	r6, #0
    8fc8:	d100      	bne.n	8fcc <__aeabi_fsub+0x2f8>
    8fca:	e6c9      	b.n	8d60 <__aeabi_fsub+0x8c>
    8fcc:	2280      	movs	r2, #128	; 0x80
    8fce:	4650      	mov	r0, sl
    8fd0:	03d2      	lsls	r2, r2, #15
    8fd2:	4210      	tst	r0, r2
    8fd4:	d0a4      	beq.n	8f20 <__aeabi_fsub+0x24c>
    8fd6:	4660      	mov	r0, ip
    8fd8:	4210      	tst	r0, r2
    8fda:	d1a1      	bne.n	8f20 <__aeabi_fsub+0x24c>
    8fdc:	0033      	movs	r3, r6
    8fde:	000d      	movs	r5, r1
    8fe0:	24ff      	movs	r4, #255	; 0xff
    8fe2:	e6bd      	b.n	8d60 <__aeabi_fsub+0x8c>
    8fe4:	0033      	movs	r3, r6
    8fe6:	24ff      	movs	r4, #255	; 0xff
    8fe8:	e6ba      	b.n	8d60 <__aeabi_fsub+0x8c>
    8fea:	2301      	movs	r3, #1
    8fec:	e76e      	b.n	8ecc <__aeabi_fsub+0x1f8>
    8fee:	0033      	movs	r3, r6
    8ff0:	0004      	movs	r4, r0
    8ff2:	e6b5      	b.n	8d60 <__aeabi_fsub+0x8c>
    8ff4:	2700      	movs	r7, #0
    8ff6:	2200      	movs	r2, #0
    8ff8:	e71c      	b.n	8e34 <__aeabi_fsub+0x160>
    8ffa:	0033      	movs	r3, r6
    8ffc:	e6b0      	b.n	8d60 <__aeabi_fsub+0x8c>
    8ffe:	2301      	movs	r3, #1
    9000:	e7c0      	b.n	8f84 <__aeabi_fsub+0x2b0>
    9002:	46c0      	nop			; (mov r8, r8)
    9004:	7dffffff 	.word	0x7dffffff
    9008:	fbffffff 	.word	0xfbffffff

0000900c <__aeabi_f2iz>:
    900c:	0241      	lsls	r1, r0, #9
    900e:	0043      	lsls	r3, r0, #1
    9010:	0fc2      	lsrs	r2, r0, #31
    9012:	0a49      	lsrs	r1, r1, #9
    9014:	0e1b      	lsrs	r3, r3, #24
    9016:	2000      	movs	r0, #0
    9018:	2b7e      	cmp	r3, #126	; 0x7e
    901a:	dd0d      	ble.n	9038 <__aeabi_f2iz+0x2c>
    901c:	2b9d      	cmp	r3, #157	; 0x9d
    901e:	dc0c      	bgt.n	903a <__aeabi_f2iz+0x2e>
    9020:	2080      	movs	r0, #128	; 0x80
    9022:	0400      	lsls	r0, r0, #16
    9024:	4301      	orrs	r1, r0
    9026:	2b95      	cmp	r3, #149	; 0x95
    9028:	dc0a      	bgt.n	9040 <__aeabi_f2iz+0x34>
    902a:	2096      	movs	r0, #150	; 0x96
    902c:	1ac3      	subs	r3, r0, r3
    902e:	40d9      	lsrs	r1, r3
    9030:	4248      	negs	r0, r1
    9032:	2a00      	cmp	r2, #0
    9034:	d100      	bne.n	9038 <__aeabi_f2iz+0x2c>
    9036:	0008      	movs	r0, r1
    9038:	4770      	bx	lr
    903a:	4b03      	ldr	r3, [pc, #12]	; (9048 <__aeabi_f2iz+0x3c>)
    903c:	18d0      	adds	r0, r2, r3
    903e:	e7fb      	b.n	9038 <__aeabi_f2iz+0x2c>
    9040:	3b96      	subs	r3, #150	; 0x96
    9042:	4099      	lsls	r1, r3
    9044:	e7f4      	b.n	9030 <__aeabi_f2iz+0x24>
    9046:	46c0      	nop			; (mov r8, r8)
    9048:	7fffffff 	.word	0x7fffffff

0000904c <__aeabi_i2f>:
    904c:	b570      	push	{r4, r5, r6, lr}
    904e:	2800      	cmp	r0, #0
    9050:	d030      	beq.n	90b4 <__aeabi_i2f+0x68>
    9052:	17c3      	asrs	r3, r0, #31
    9054:	18c4      	adds	r4, r0, r3
    9056:	405c      	eors	r4, r3
    9058:	0fc5      	lsrs	r5, r0, #31
    905a:	0020      	movs	r0, r4
    905c:	f7ff f81a 	bl	8094 <__clzsi2>
    9060:	239e      	movs	r3, #158	; 0x9e
    9062:	1a1b      	subs	r3, r3, r0
    9064:	2b96      	cmp	r3, #150	; 0x96
    9066:	dc0d      	bgt.n	9084 <__aeabi_i2f+0x38>
    9068:	2296      	movs	r2, #150	; 0x96
    906a:	1ad2      	subs	r2, r2, r3
    906c:	4094      	lsls	r4, r2
    906e:	002a      	movs	r2, r5
    9070:	0264      	lsls	r4, r4, #9
    9072:	0a64      	lsrs	r4, r4, #9
    9074:	b2db      	uxtb	r3, r3
    9076:	0264      	lsls	r4, r4, #9
    9078:	05db      	lsls	r3, r3, #23
    907a:	0a60      	lsrs	r0, r4, #9
    907c:	07d2      	lsls	r2, r2, #31
    907e:	4318      	orrs	r0, r3
    9080:	4310      	orrs	r0, r2
    9082:	bd70      	pop	{r4, r5, r6, pc}
    9084:	2b99      	cmp	r3, #153	; 0x99
    9086:	dc19      	bgt.n	90bc <__aeabi_i2f+0x70>
    9088:	2299      	movs	r2, #153	; 0x99
    908a:	1ad2      	subs	r2, r2, r3
    908c:	2a00      	cmp	r2, #0
    908e:	dd29      	ble.n	90e4 <__aeabi_i2f+0x98>
    9090:	4094      	lsls	r4, r2
    9092:	0022      	movs	r2, r4
    9094:	4c14      	ldr	r4, [pc, #80]	; (90e8 <__aeabi_i2f+0x9c>)
    9096:	4014      	ands	r4, r2
    9098:	0751      	lsls	r1, r2, #29
    909a:	d004      	beq.n	90a6 <__aeabi_i2f+0x5a>
    909c:	210f      	movs	r1, #15
    909e:	400a      	ands	r2, r1
    90a0:	2a04      	cmp	r2, #4
    90a2:	d000      	beq.n	90a6 <__aeabi_i2f+0x5a>
    90a4:	3404      	adds	r4, #4
    90a6:	0162      	lsls	r2, r4, #5
    90a8:	d413      	bmi.n	90d2 <__aeabi_i2f+0x86>
    90aa:	01a4      	lsls	r4, r4, #6
    90ac:	0a64      	lsrs	r4, r4, #9
    90ae:	b2db      	uxtb	r3, r3
    90b0:	002a      	movs	r2, r5
    90b2:	e7e0      	b.n	9076 <__aeabi_i2f+0x2a>
    90b4:	2200      	movs	r2, #0
    90b6:	2300      	movs	r3, #0
    90b8:	2400      	movs	r4, #0
    90ba:	e7dc      	b.n	9076 <__aeabi_i2f+0x2a>
    90bc:	2205      	movs	r2, #5
    90be:	0021      	movs	r1, r4
    90c0:	1a12      	subs	r2, r2, r0
    90c2:	40d1      	lsrs	r1, r2
    90c4:	22b9      	movs	r2, #185	; 0xb9
    90c6:	1ad2      	subs	r2, r2, r3
    90c8:	4094      	lsls	r4, r2
    90ca:	1e62      	subs	r2, r4, #1
    90cc:	4194      	sbcs	r4, r2
    90ce:	430c      	orrs	r4, r1
    90d0:	e7da      	b.n	9088 <__aeabi_i2f+0x3c>
    90d2:	4b05      	ldr	r3, [pc, #20]	; (90e8 <__aeabi_i2f+0x9c>)
    90d4:	002a      	movs	r2, r5
    90d6:	401c      	ands	r4, r3
    90d8:	239f      	movs	r3, #159	; 0x9f
    90da:	01a4      	lsls	r4, r4, #6
    90dc:	1a1b      	subs	r3, r3, r0
    90de:	0a64      	lsrs	r4, r4, #9
    90e0:	b2db      	uxtb	r3, r3
    90e2:	e7c8      	b.n	9076 <__aeabi_i2f+0x2a>
    90e4:	0022      	movs	r2, r4
    90e6:	e7d5      	b.n	9094 <__aeabi_i2f+0x48>
    90e8:	fbffffff 	.word	0xfbffffff

000090ec <__aeabi_dadd>:
    90ec:	b5f8      	push	{r3, r4, r5, r6, r7, lr}
    90ee:	4645      	mov	r5, r8
    90f0:	46de      	mov	lr, fp
    90f2:	4657      	mov	r7, sl
    90f4:	464e      	mov	r6, r9
    90f6:	030c      	lsls	r4, r1, #12
    90f8:	b5e0      	push	{r5, r6, r7, lr}
    90fa:	004e      	lsls	r6, r1, #1
    90fc:	0fc9      	lsrs	r1, r1, #31
    90fe:	4688      	mov	r8, r1
    9100:	000d      	movs	r5, r1
    9102:	0a61      	lsrs	r1, r4, #9
    9104:	0f44      	lsrs	r4, r0, #29
    9106:	430c      	orrs	r4, r1
    9108:	00c7      	lsls	r7, r0, #3
    910a:	0319      	lsls	r1, r3, #12
    910c:	0058      	lsls	r0, r3, #1
    910e:	0fdb      	lsrs	r3, r3, #31
    9110:	469b      	mov	fp, r3
    9112:	0a4b      	lsrs	r3, r1, #9
    9114:	0f51      	lsrs	r1, r2, #29
    9116:	430b      	orrs	r3, r1
    9118:	0d76      	lsrs	r6, r6, #21
    911a:	0d40      	lsrs	r0, r0, #21
    911c:	0019      	movs	r1, r3
    911e:	00d2      	lsls	r2, r2, #3
    9120:	45d8      	cmp	r8, fp
    9122:	d100      	bne.n	9126 <__aeabi_dadd+0x3a>
    9124:	e0ae      	b.n	9284 <__aeabi_dadd+0x198>
    9126:	1a35      	subs	r5, r6, r0
    9128:	2d00      	cmp	r5, #0
    912a:	dc00      	bgt.n	912e <__aeabi_dadd+0x42>
    912c:	e0f6      	b.n	931c <__aeabi_dadd+0x230>
    912e:	2800      	cmp	r0, #0
    9130:	d10f      	bne.n	9152 <__aeabi_dadd+0x66>
    9132:	4313      	orrs	r3, r2
    9134:	d100      	bne.n	9138 <__aeabi_dadd+0x4c>
    9136:	e0db      	b.n	92f0 <__aeabi_dadd+0x204>
    9138:	1e6b      	subs	r3, r5, #1
    913a:	2b00      	cmp	r3, #0
    913c:	d000      	beq.n	9140 <__aeabi_dadd+0x54>
    913e:	e137      	b.n	93b0 <__aeabi_dadd+0x2c4>
    9140:	1aba      	subs	r2, r7, r2
    9142:	4297      	cmp	r7, r2
    9144:	41bf      	sbcs	r7, r7
    9146:	1a64      	subs	r4, r4, r1
    9148:	427f      	negs	r7, r7
    914a:	1be4      	subs	r4, r4, r7
    914c:	2601      	movs	r6, #1
    914e:	0017      	movs	r7, r2
    9150:	e024      	b.n	919c <__aeabi_dadd+0xb0>
    9152:	4bc6      	ldr	r3, [pc, #792]	; (946c <__aeabi_dadd+0x380>)
    9154:	429e      	cmp	r6, r3
    9156:	d04d      	beq.n	91f4 <__aeabi_dadd+0x108>
    9158:	2380      	movs	r3, #128	; 0x80
    915a:	041b      	lsls	r3, r3, #16
    915c:	4319      	orrs	r1, r3
    915e:	2d38      	cmp	r5, #56	; 0x38
    9160:	dd00      	ble.n	9164 <__aeabi_dadd+0x78>
    9162:	e107      	b.n	9374 <__aeabi_dadd+0x288>
    9164:	2d1f      	cmp	r5, #31
    9166:	dd00      	ble.n	916a <__aeabi_dadd+0x7e>
    9168:	e138      	b.n	93dc <__aeabi_dadd+0x2f0>
    916a:	2020      	movs	r0, #32
    916c:	1b43      	subs	r3, r0, r5
    916e:	469a      	mov	sl, r3
    9170:	000b      	movs	r3, r1
    9172:	4650      	mov	r0, sl
    9174:	4083      	lsls	r3, r0
    9176:	4699      	mov	r9, r3
    9178:	0013      	movs	r3, r2
    917a:	4648      	mov	r0, r9
    917c:	40eb      	lsrs	r3, r5
    917e:	4318      	orrs	r0, r3
    9180:	0003      	movs	r3, r0
    9182:	4650      	mov	r0, sl
    9184:	4082      	lsls	r2, r0
    9186:	1e50      	subs	r0, r2, #1
    9188:	4182      	sbcs	r2, r0
    918a:	40e9      	lsrs	r1, r5
    918c:	431a      	orrs	r2, r3
    918e:	1aba      	subs	r2, r7, r2
    9190:	1a61      	subs	r1, r4, r1
    9192:	4297      	cmp	r7, r2
    9194:	41a4      	sbcs	r4, r4
    9196:	0017      	movs	r7, r2
    9198:	4264      	negs	r4, r4
    919a:	1b0c      	subs	r4, r1, r4
    919c:	0223      	lsls	r3, r4, #8
    919e:	d562      	bpl.n	9266 <__aeabi_dadd+0x17a>
    91a0:	0264      	lsls	r4, r4, #9
    91a2:	0a65      	lsrs	r5, r4, #9
    91a4:	2d00      	cmp	r5, #0
    91a6:	d100      	bne.n	91aa <__aeabi_dadd+0xbe>
    91a8:	e0df      	b.n	936a <__aeabi_dadd+0x27e>
    91aa:	0028      	movs	r0, r5
    91ac:	f7fe ff72 	bl	8094 <__clzsi2>
    91b0:	0003      	movs	r3, r0
    91b2:	3b08      	subs	r3, #8
    91b4:	2b1f      	cmp	r3, #31
    91b6:	dd00      	ble.n	91ba <__aeabi_dadd+0xce>
    91b8:	e0d2      	b.n	9360 <__aeabi_dadd+0x274>
    91ba:	2220      	movs	r2, #32
    91bc:	003c      	movs	r4, r7
    91be:	1ad2      	subs	r2, r2, r3
    91c0:	409d      	lsls	r5, r3
    91c2:	40d4      	lsrs	r4, r2
    91c4:	409f      	lsls	r7, r3
    91c6:	4325      	orrs	r5, r4
    91c8:	429e      	cmp	r6, r3
    91ca:	dd00      	ble.n	91ce <__aeabi_dadd+0xe2>
    91cc:	e0c4      	b.n	9358 <__aeabi_dadd+0x26c>
    91ce:	1b9e      	subs	r6, r3, r6
    91d0:	1c73      	adds	r3, r6, #1
    91d2:	2b1f      	cmp	r3, #31
    91d4:	dd00      	ble.n	91d8 <__aeabi_dadd+0xec>
    91d6:	e0f1      	b.n	93bc <__aeabi_dadd+0x2d0>
    91d8:	2220      	movs	r2, #32
    91da:	0038      	movs	r0, r7
    91dc:	0029      	movs	r1, r5
    91de:	1ad2      	subs	r2, r2, r3
    91e0:	40d8      	lsrs	r0, r3
    91e2:	4091      	lsls	r1, r2
    91e4:	4097      	lsls	r7, r2
    91e6:	002c      	movs	r4, r5
    91e8:	4301      	orrs	r1, r0
    91ea:	1e78      	subs	r0, r7, #1
    91ec:	4187      	sbcs	r7, r0
    91ee:	40dc      	lsrs	r4, r3
    91f0:	2600      	movs	r6, #0
    91f2:	430f      	orrs	r7, r1
    91f4:	077b      	lsls	r3, r7, #29
    91f6:	d009      	beq.n	920c <__aeabi_dadd+0x120>
    91f8:	230f      	movs	r3, #15
    91fa:	403b      	ands	r3, r7
    91fc:	2b04      	cmp	r3, #4
    91fe:	d005      	beq.n	920c <__aeabi_dadd+0x120>
    9200:	1d3b      	adds	r3, r7, #4
    9202:	42bb      	cmp	r3, r7
    9204:	41bf      	sbcs	r7, r7
    9206:	427f      	negs	r7, r7
    9208:	19e4      	adds	r4, r4, r7
    920a:	001f      	movs	r7, r3
    920c:	0223      	lsls	r3, r4, #8
    920e:	d52c      	bpl.n	926a <__aeabi_dadd+0x17e>
    9210:	4b96      	ldr	r3, [pc, #600]	; (946c <__aeabi_dadd+0x380>)
    9212:	3601      	adds	r6, #1
    9214:	429e      	cmp	r6, r3
    9216:	d100      	bne.n	921a <__aeabi_dadd+0x12e>
    9218:	e09a      	b.n	9350 <__aeabi_dadd+0x264>
    921a:	4645      	mov	r5, r8
    921c:	4b94      	ldr	r3, [pc, #592]	; (9470 <__aeabi_dadd+0x384>)
    921e:	08ff      	lsrs	r7, r7, #3
    9220:	401c      	ands	r4, r3
    9222:	0760      	lsls	r0, r4, #29
    9224:	0576      	lsls	r6, r6, #21
    9226:	0264      	lsls	r4, r4, #9
    9228:	4307      	orrs	r7, r0
    922a:	0b24      	lsrs	r4, r4, #12
    922c:	0d76      	lsrs	r6, r6, #21
    922e:	2100      	movs	r1, #0
    9230:	0324      	lsls	r4, r4, #12
    9232:	0b23      	lsrs	r3, r4, #12
    9234:	0d0c      	lsrs	r4, r1, #20
    9236:	4a8f      	ldr	r2, [pc, #572]	; (9474 <__aeabi_dadd+0x388>)
    9238:	0524      	lsls	r4, r4, #20
    923a:	431c      	orrs	r4, r3
    923c:	4014      	ands	r4, r2
    923e:	0533      	lsls	r3, r6, #20
    9240:	4323      	orrs	r3, r4
    9242:	005b      	lsls	r3, r3, #1
    9244:	07ed      	lsls	r5, r5, #31
    9246:	085b      	lsrs	r3, r3, #1
    9248:	432b      	orrs	r3, r5
    924a:	0038      	movs	r0, r7
    924c:	0019      	movs	r1, r3
    924e:	bc3c      	pop	{r2, r3, r4, r5}
    9250:	4690      	mov	r8, r2
    9252:	4699      	mov	r9, r3
    9254:	46a2      	mov	sl, r4
    9256:	46ab      	mov	fp, r5
    9258:	bdf8      	pop	{r3, r4, r5, r6, r7, pc}
    925a:	4664      	mov	r4, ip
    925c:	4304      	orrs	r4, r0
    925e:	d100      	bne.n	9262 <__aeabi_dadd+0x176>
    9260:	e211      	b.n	9686 <__aeabi_dadd+0x59a>
    9262:	0004      	movs	r4, r0
    9264:	4667      	mov	r7, ip
    9266:	077b      	lsls	r3, r7, #29
    9268:	d1c6      	bne.n	91f8 <__aeabi_dadd+0x10c>
    926a:	4645      	mov	r5, r8
    926c:	0760      	lsls	r0, r4, #29
    926e:	08ff      	lsrs	r7, r7, #3
    9270:	4307      	orrs	r7, r0
    9272:	08e4      	lsrs	r4, r4, #3
    9274:	4b7d      	ldr	r3, [pc, #500]	; (946c <__aeabi_dadd+0x380>)
    9276:	429e      	cmp	r6, r3
    9278:	d030      	beq.n	92dc <__aeabi_dadd+0x1f0>
    927a:	0324      	lsls	r4, r4, #12
    927c:	0576      	lsls	r6, r6, #21
    927e:	0b24      	lsrs	r4, r4, #12
    9280:	0d76      	lsrs	r6, r6, #21
    9282:	e7d4      	b.n	922e <__aeabi_dadd+0x142>
    9284:	1a33      	subs	r3, r6, r0
    9286:	469a      	mov	sl, r3
    9288:	2b00      	cmp	r3, #0
    928a:	dd78      	ble.n	937e <__aeabi_dadd+0x292>
    928c:	2800      	cmp	r0, #0
    928e:	d031      	beq.n	92f4 <__aeabi_dadd+0x208>
    9290:	4876      	ldr	r0, [pc, #472]	; (946c <__aeabi_dadd+0x380>)
    9292:	4286      	cmp	r6, r0
    9294:	d0ae      	beq.n	91f4 <__aeabi_dadd+0x108>
    9296:	2080      	movs	r0, #128	; 0x80
    9298:	0400      	lsls	r0, r0, #16
    929a:	4301      	orrs	r1, r0
    929c:	4653      	mov	r3, sl
    929e:	2b38      	cmp	r3, #56	; 0x38
    92a0:	dc00      	bgt.n	92a4 <__aeabi_dadd+0x1b8>
    92a2:	e0e9      	b.n	9478 <__aeabi_dadd+0x38c>
    92a4:	430a      	orrs	r2, r1
    92a6:	1e51      	subs	r1, r2, #1
    92a8:	418a      	sbcs	r2, r1
    92aa:	2100      	movs	r1, #0
    92ac:	19d2      	adds	r2, r2, r7
    92ae:	42ba      	cmp	r2, r7
    92b0:	41bf      	sbcs	r7, r7
    92b2:	1909      	adds	r1, r1, r4
    92b4:	427c      	negs	r4, r7
    92b6:	0017      	movs	r7, r2
    92b8:	190c      	adds	r4, r1, r4
    92ba:	0223      	lsls	r3, r4, #8
    92bc:	d5d3      	bpl.n	9266 <__aeabi_dadd+0x17a>
    92be:	4b6b      	ldr	r3, [pc, #428]	; (946c <__aeabi_dadd+0x380>)
    92c0:	3601      	adds	r6, #1
    92c2:	429e      	cmp	r6, r3
    92c4:	d100      	bne.n	92c8 <__aeabi_dadd+0x1dc>
    92c6:	e13a      	b.n	953e <__aeabi_dadd+0x452>
    92c8:	2001      	movs	r0, #1
    92ca:	4b69      	ldr	r3, [pc, #420]	; (9470 <__aeabi_dadd+0x384>)
    92cc:	401c      	ands	r4, r3
    92ce:	087b      	lsrs	r3, r7, #1
    92d0:	4007      	ands	r7, r0
    92d2:	431f      	orrs	r7, r3
    92d4:	07e0      	lsls	r0, r4, #31
    92d6:	4307      	orrs	r7, r0
    92d8:	0864      	lsrs	r4, r4, #1
    92da:	e78b      	b.n	91f4 <__aeabi_dadd+0x108>
    92dc:	0023      	movs	r3, r4
    92de:	433b      	orrs	r3, r7
    92e0:	d100      	bne.n	92e4 <__aeabi_dadd+0x1f8>
    92e2:	e1cb      	b.n	967c <__aeabi_dadd+0x590>
    92e4:	2280      	movs	r2, #128	; 0x80
    92e6:	0312      	lsls	r2, r2, #12
    92e8:	4314      	orrs	r4, r2
    92ea:	0324      	lsls	r4, r4, #12
    92ec:	0b24      	lsrs	r4, r4, #12
    92ee:	e79e      	b.n	922e <__aeabi_dadd+0x142>
    92f0:	002e      	movs	r6, r5
    92f2:	e77f      	b.n	91f4 <__aeabi_dadd+0x108>
    92f4:	0008      	movs	r0, r1
    92f6:	4310      	orrs	r0, r2
    92f8:	d100      	bne.n	92fc <__aeabi_dadd+0x210>
    92fa:	e0b4      	b.n	9466 <__aeabi_dadd+0x37a>
    92fc:	1e58      	subs	r0, r3, #1
    92fe:	2800      	cmp	r0, #0
    9300:	d000      	beq.n	9304 <__aeabi_dadd+0x218>
    9302:	e0de      	b.n	94c2 <__aeabi_dadd+0x3d6>
    9304:	18ba      	adds	r2, r7, r2
    9306:	42ba      	cmp	r2, r7
    9308:	419b      	sbcs	r3, r3
    930a:	1864      	adds	r4, r4, r1
    930c:	425b      	negs	r3, r3
    930e:	18e4      	adds	r4, r4, r3
    9310:	0017      	movs	r7, r2
    9312:	2601      	movs	r6, #1
    9314:	0223      	lsls	r3, r4, #8
    9316:	d5a6      	bpl.n	9266 <__aeabi_dadd+0x17a>
    9318:	2602      	movs	r6, #2
    931a:	e7d5      	b.n	92c8 <__aeabi_dadd+0x1dc>
    931c:	2d00      	cmp	r5, #0
    931e:	d16e      	bne.n	93fe <__aeabi_dadd+0x312>
    9320:	1c70      	adds	r0, r6, #1
    9322:	0540      	lsls	r0, r0, #21
    9324:	0d40      	lsrs	r0, r0, #21
    9326:	2801      	cmp	r0, #1
    9328:	dc00      	bgt.n	932c <__aeabi_dadd+0x240>
    932a:	e0f9      	b.n	9520 <__aeabi_dadd+0x434>
    932c:	1ab8      	subs	r0, r7, r2
    932e:	4684      	mov	ip, r0
    9330:	4287      	cmp	r7, r0
    9332:	4180      	sbcs	r0, r0
    9334:	1ae5      	subs	r5, r4, r3
    9336:	4240      	negs	r0, r0
    9338:	1a2d      	subs	r5, r5, r0
    933a:	0228      	lsls	r0, r5, #8
    933c:	d400      	bmi.n	9340 <__aeabi_dadd+0x254>
    933e:	e089      	b.n	9454 <__aeabi_dadd+0x368>
    9340:	1bd7      	subs	r7, r2, r7
    9342:	42ba      	cmp	r2, r7
    9344:	4192      	sbcs	r2, r2
    9346:	1b1c      	subs	r4, r3, r4
    9348:	4252      	negs	r2, r2
    934a:	1aa5      	subs	r5, r4, r2
    934c:	46d8      	mov	r8, fp
    934e:	e729      	b.n	91a4 <__aeabi_dadd+0xb8>
    9350:	4645      	mov	r5, r8
    9352:	2400      	movs	r4, #0
    9354:	2700      	movs	r7, #0
    9356:	e76a      	b.n	922e <__aeabi_dadd+0x142>
    9358:	4c45      	ldr	r4, [pc, #276]	; (9470 <__aeabi_dadd+0x384>)
    935a:	1af6      	subs	r6, r6, r3
    935c:	402c      	ands	r4, r5
    935e:	e749      	b.n	91f4 <__aeabi_dadd+0x108>
    9360:	003d      	movs	r5, r7
    9362:	3828      	subs	r0, #40	; 0x28
    9364:	4085      	lsls	r5, r0
    9366:	2700      	movs	r7, #0
    9368:	e72e      	b.n	91c8 <__aeabi_dadd+0xdc>
    936a:	0038      	movs	r0, r7
    936c:	f7fe fe92 	bl	8094 <__clzsi2>
    9370:	3020      	adds	r0, #32
    9372:	e71d      	b.n	91b0 <__aeabi_dadd+0xc4>
    9374:	430a      	orrs	r2, r1
    9376:	1e51      	subs	r1, r2, #1
    9378:	418a      	sbcs	r2, r1
    937a:	2100      	movs	r1, #0
    937c:	e707      	b.n	918e <__aeabi_dadd+0xa2>
    937e:	2b00      	cmp	r3, #0
    9380:	d000      	beq.n	9384 <__aeabi_dadd+0x298>
    9382:	e0f3      	b.n	956c <__aeabi_dadd+0x480>
    9384:	1c70      	adds	r0, r6, #1
    9386:	0543      	lsls	r3, r0, #21
    9388:	0d5b      	lsrs	r3, r3, #21
    938a:	2b01      	cmp	r3, #1
    938c:	dc00      	bgt.n	9390 <__aeabi_dadd+0x2a4>
    938e:	e0ad      	b.n	94ec <__aeabi_dadd+0x400>
    9390:	4b36      	ldr	r3, [pc, #216]	; (946c <__aeabi_dadd+0x380>)
    9392:	4298      	cmp	r0, r3
    9394:	d100      	bne.n	9398 <__aeabi_dadd+0x2ac>
    9396:	e0d1      	b.n	953c <__aeabi_dadd+0x450>
    9398:	18ba      	adds	r2, r7, r2
    939a:	42ba      	cmp	r2, r7
    939c:	41bf      	sbcs	r7, r7
    939e:	1864      	adds	r4, r4, r1
    93a0:	427f      	negs	r7, r7
    93a2:	19e4      	adds	r4, r4, r7
    93a4:	07e7      	lsls	r7, r4, #31
    93a6:	0852      	lsrs	r2, r2, #1
    93a8:	4317      	orrs	r7, r2
    93aa:	0864      	lsrs	r4, r4, #1
    93ac:	0006      	movs	r6, r0
    93ae:	e721      	b.n	91f4 <__aeabi_dadd+0x108>
    93b0:	482e      	ldr	r0, [pc, #184]	; (946c <__aeabi_dadd+0x380>)
    93b2:	4285      	cmp	r5, r0
    93b4:	d100      	bne.n	93b8 <__aeabi_dadd+0x2cc>
    93b6:	e093      	b.n	94e0 <__aeabi_dadd+0x3f4>
    93b8:	001d      	movs	r5, r3
    93ba:	e6d0      	b.n	915e <__aeabi_dadd+0x72>
    93bc:	0029      	movs	r1, r5
    93be:	3e1f      	subs	r6, #31
    93c0:	40f1      	lsrs	r1, r6
    93c2:	2b20      	cmp	r3, #32
    93c4:	d100      	bne.n	93c8 <__aeabi_dadd+0x2dc>
    93c6:	e08d      	b.n	94e4 <__aeabi_dadd+0x3f8>
    93c8:	2240      	movs	r2, #64	; 0x40
    93ca:	1ad3      	subs	r3, r2, r3
    93cc:	409d      	lsls	r5, r3
    93ce:	432f      	orrs	r7, r5
    93d0:	1e7d      	subs	r5, r7, #1
    93d2:	41af      	sbcs	r7, r5
    93d4:	2400      	movs	r4, #0
    93d6:	430f      	orrs	r7, r1
    93d8:	2600      	movs	r6, #0
    93da:	e744      	b.n	9266 <__aeabi_dadd+0x17a>
    93dc:	002b      	movs	r3, r5
    93de:	0008      	movs	r0, r1
    93e0:	3b20      	subs	r3, #32
    93e2:	40d8      	lsrs	r0, r3
    93e4:	0003      	movs	r3, r0
    93e6:	2d20      	cmp	r5, #32
    93e8:	d100      	bne.n	93ec <__aeabi_dadd+0x300>
    93ea:	e07d      	b.n	94e8 <__aeabi_dadd+0x3fc>
    93ec:	2040      	movs	r0, #64	; 0x40
    93ee:	1b45      	subs	r5, r0, r5
    93f0:	40a9      	lsls	r1, r5
    93f2:	430a      	orrs	r2, r1
    93f4:	1e51      	subs	r1, r2, #1
    93f6:	418a      	sbcs	r2, r1
    93f8:	2100      	movs	r1, #0
    93fa:	431a      	orrs	r2, r3
    93fc:	e6c7      	b.n	918e <__aeabi_dadd+0xa2>
    93fe:	2e00      	cmp	r6, #0
    9400:	d050      	beq.n	94a4 <__aeabi_dadd+0x3b8>
    9402:	4e1a      	ldr	r6, [pc, #104]	; (946c <__aeabi_dadd+0x380>)
    9404:	42b0      	cmp	r0, r6
    9406:	d057      	beq.n	94b8 <__aeabi_dadd+0x3cc>
    9408:	2680      	movs	r6, #128	; 0x80
    940a:	426b      	negs	r3, r5
    940c:	4699      	mov	r9, r3
    940e:	0436      	lsls	r6, r6, #16
    9410:	4334      	orrs	r4, r6
    9412:	464b      	mov	r3, r9
    9414:	2b38      	cmp	r3, #56	; 0x38
    9416:	dd00      	ble.n	941a <__aeabi_dadd+0x32e>
    9418:	e0d6      	b.n	95c8 <__aeabi_dadd+0x4dc>
    941a:	2b1f      	cmp	r3, #31
    941c:	dd00      	ble.n	9420 <__aeabi_dadd+0x334>
    941e:	e135      	b.n	968c <__aeabi_dadd+0x5a0>
    9420:	2620      	movs	r6, #32
    9422:	1af5      	subs	r5, r6, r3
    9424:	0026      	movs	r6, r4
    9426:	40ae      	lsls	r6, r5
    9428:	46b2      	mov	sl, r6
    942a:	003e      	movs	r6, r7
    942c:	40de      	lsrs	r6, r3
    942e:	46ac      	mov	ip, r5
    9430:	0035      	movs	r5, r6
    9432:	4656      	mov	r6, sl
    9434:	432e      	orrs	r6, r5
    9436:	4665      	mov	r5, ip
    9438:	40af      	lsls	r7, r5
    943a:	1e7d      	subs	r5, r7, #1
    943c:	41af      	sbcs	r7, r5
    943e:	40dc      	lsrs	r4, r3
    9440:	4337      	orrs	r7, r6
    9442:	1bd7      	subs	r7, r2, r7
    9444:	42ba      	cmp	r2, r7
    9446:	4192      	sbcs	r2, r2
    9448:	1b0c      	subs	r4, r1, r4
    944a:	4252      	negs	r2, r2
    944c:	1aa4      	subs	r4, r4, r2
    944e:	0006      	movs	r6, r0
    9450:	46d8      	mov	r8, fp
    9452:	e6a3      	b.n	919c <__aeabi_dadd+0xb0>
    9454:	4664      	mov	r4, ip
    9456:	4667      	mov	r7, ip
    9458:	432c      	orrs	r4, r5
    945a:	d000      	beq.n	945e <__aeabi_dadd+0x372>
    945c:	e6a2      	b.n	91a4 <__aeabi_dadd+0xb8>
    945e:	2500      	movs	r5, #0
    9460:	2600      	movs	r6, #0
    9462:	2700      	movs	r7, #0
    9464:	e706      	b.n	9274 <__aeabi_dadd+0x188>
    9466:	001e      	movs	r6, r3
    9468:	e6c4      	b.n	91f4 <__aeabi_dadd+0x108>
    946a:	46c0      	nop			; (mov r8, r8)
    946c:	000007ff 	.word	0x000007ff
    9470:	ff7fffff 	.word	0xff7fffff
    9474:	800fffff 	.word	0x800fffff
    9478:	2b1f      	cmp	r3, #31
    947a:	dc63      	bgt.n	9544 <__aeabi_dadd+0x458>
    947c:	2020      	movs	r0, #32
    947e:	1ac3      	subs	r3, r0, r3
    9480:	0008      	movs	r0, r1
    9482:	4098      	lsls	r0, r3
    9484:	469c      	mov	ip, r3
    9486:	4683      	mov	fp, r0
    9488:	4653      	mov	r3, sl
    948a:	0010      	movs	r0, r2
    948c:	40d8      	lsrs	r0, r3
    948e:	0003      	movs	r3, r0
    9490:	4658      	mov	r0, fp
    9492:	4318      	orrs	r0, r3
    9494:	4663      	mov	r3, ip
    9496:	409a      	lsls	r2, r3
    9498:	1e53      	subs	r3, r2, #1
    949a:	419a      	sbcs	r2, r3
    949c:	4653      	mov	r3, sl
    949e:	4302      	orrs	r2, r0
    94a0:	40d9      	lsrs	r1, r3
    94a2:	e703      	b.n	92ac <__aeabi_dadd+0x1c0>
    94a4:	0026      	movs	r6, r4
    94a6:	433e      	orrs	r6, r7
    94a8:	d006      	beq.n	94b8 <__aeabi_dadd+0x3cc>
    94aa:	43eb      	mvns	r3, r5
    94ac:	4699      	mov	r9, r3
    94ae:	2b00      	cmp	r3, #0
    94b0:	d0c7      	beq.n	9442 <__aeabi_dadd+0x356>
    94b2:	4e94      	ldr	r6, [pc, #592]	; (9704 <__aeabi_dadd+0x618>)
    94b4:	42b0      	cmp	r0, r6
    94b6:	d1ac      	bne.n	9412 <__aeabi_dadd+0x326>
    94b8:	000c      	movs	r4, r1
    94ba:	0017      	movs	r7, r2
    94bc:	0006      	movs	r6, r0
    94be:	46d8      	mov	r8, fp
    94c0:	e698      	b.n	91f4 <__aeabi_dadd+0x108>
    94c2:	4b90      	ldr	r3, [pc, #576]	; (9704 <__aeabi_dadd+0x618>)
    94c4:	459a      	cmp	sl, r3
    94c6:	d00b      	beq.n	94e0 <__aeabi_dadd+0x3f4>
    94c8:	4682      	mov	sl, r0
    94ca:	e6e7      	b.n	929c <__aeabi_dadd+0x1b0>
    94cc:	2800      	cmp	r0, #0
    94ce:	d000      	beq.n	94d2 <__aeabi_dadd+0x3e6>
    94d0:	e09e      	b.n	9610 <__aeabi_dadd+0x524>
    94d2:	0018      	movs	r0, r3
    94d4:	4310      	orrs	r0, r2
    94d6:	d100      	bne.n	94da <__aeabi_dadd+0x3ee>
    94d8:	e0e9      	b.n	96ae <__aeabi_dadd+0x5c2>
    94da:	001c      	movs	r4, r3
    94dc:	0017      	movs	r7, r2
    94de:	46d8      	mov	r8, fp
    94e0:	4e88      	ldr	r6, [pc, #544]	; (9704 <__aeabi_dadd+0x618>)
    94e2:	e687      	b.n	91f4 <__aeabi_dadd+0x108>
    94e4:	2500      	movs	r5, #0
    94e6:	e772      	b.n	93ce <__aeabi_dadd+0x2e2>
    94e8:	2100      	movs	r1, #0
    94ea:	e782      	b.n	93f2 <__aeabi_dadd+0x306>
    94ec:	0023      	movs	r3, r4
    94ee:	433b      	orrs	r3, r7
    94f0:	2e00      	cmp	r6, #0
    94f2:	d000      	beq.n	94f6 <__aeabi_dadd+0x40a>
    94f4:	e0ab      	b.n	964e <__aeabi_dadd+0x562>
    94f6:	2b00      	cmp	r3, #0
    94f8:	d100      	bne.n	94fc <__aeabi_dadd+0x410>
    94fa:	e0e7      	b.n	96cc <__aeabi_dadd+0x5e0>
    94fc:	000b      	movs	r3, r1
    94fe:	4313      	orrs	r3, r2
    9500:	d100      	bne.n	9504 <__aeabi_dadd+0x418>
    9502:	e677      	b.n	91f4 <__aeabi_dadd+0x108>
    9504:	18ba      	adds	r2, r7, r2
    9506:	42ba      	cmp	r2, r7
    9508:	41bf      	sbcs	r7, r7
    950a:	1864      	adds	r4, r4, r1
    950c:	427f      	negs	r7, r7
    950e:	19e4      	adds	r4, r4, r7
    9510:	0223      	lsls	r3, r4, #8
    9512:	d400      	bmi.n	9516 <__aeabi_dadd+0x42a>
    9514:	e0f2      	b.n	96fc <__aeabi_dadd+0x610>
    9516:	4b7c      	ldr	r3, [pc, #496]	; (9708 <__aeabi_dadd+0x61c>)
    9518:	0017      	movs	r7, r2
    951a:	401c      	ands	r4, r3
    951c:	0006      	movs	r6, r0
    951e:	e669      	b.n	91f4 <__aeabi_dadd+0x108>
    9520:	0020      	movs	r0, r4
    9522:	4338      	orrs	r0, r7
    9524:	2e00      	cmp	r6, #0
    9526:	d1d1      	bne.n	94cc <__aeabi_dadd+0x3e0>
    9528:	2800      	cmp	r0, #0
    952a:	d15b      	bne.n	95e4 <__aeabi_dadd+0x4f8>
    952c:	001c      	movs	r4, r3
    952e:	4314      	orrs	r4, r2
    9530:	d100      	bne.n	9534 <__aeabi_dadd+0x448>
    9532:	e0a8      	b.n	9686 <__aeabi_dadd+0x59a>
    9534:	001c      	movs	r4, r3
    9536:	0017      	movs	r7, r2
    9538:	46d8      	mov	r8, fp
    953a:	e65b      	b.n	91f4 <__aeabi_dadd+0x108>
    953c:	0006      	movs	r6, r0
    953e:	2400      	movs	r4, #0
    9540:	2700      	movs	r7, #0
    9542:	e697      	b.n	9274 <__aeabi_dadd+0x188>
    9544:	4650      	mov	r0, sl
    9546:	000b      	movs	r3, r1
    9548:	3820      	subs	r0, #32
    954a:	40c3      	lsrs	r3, r0
    954c:	4699      	mov	r9, r3
    954e:	4653      	mov	r3, sl
    9550:	2b20      	cmp	r3, #32
    9552:	d100      	bne.n	9556 <__aeabi_dadd+0x46a>
    9554:	e095      	b.n	9682 <__aeabi_dadd+0x596>
    9556:	2340      	movs	r3, #64	; 0x40
    9558:	4650      	mov	r0, sl
    955a:	1a1b      	subs	r3, r3, r0
    955c:	4099      	lsls	r1, r3
    955e:	430a      	orrs	r2, r1
    9560:	1e51      	subs	r1, r2, #1
    9562:	418a      	sbcs	r2, r1
    9564:	464b      	mov	r3, r9
    9566:	2100      	movs	r1, #0
    9568:	431a      	orrs	r2, r3
    956a:	e69f      	b.n	92ac <__aeabi_dadd+0x1c0>
    956c:	2e00      	cmp	r6, #0
    956e:	d130      	bne.n	95d2 <__aeabi_dadd+0x4e6>
    9570:	0026      	movs	r6, r4
    9572:	433e      	orrs	r6, r7
    9574:	d067      	beq.n	9646 <__aeabi_dadd+0x55a>
    9576:	43db      	mvns	r3, r3
    9578:	469a      	mov	sl, r3
    957a:	2b00      	cmp	r3, #0
    957c:	d01c      	beq.n	95b8 <__aeabi_dadd+0x4cc>
    957e:	4e61      	ldr	r6, [pc, #388]	; (9704 <__aeabi_dadd+0x618>)
    9580:	42b0      	cmp	r0, r6
    9582:	d060      	beq.n	9646 <__aeabi_dadd+0x55a>
    9584:	4653      	mov	r3, sl
    9586:	2b38      	cmp	r3, #56	; 0x38
    9588:	dd00      	ble.n	958c <__aeabi_dadd+0x4a0>
    958a:	e096      	b.n	96ba <__aeabi_dadd+0x5ce>
    958c:	2b1f      	cmp	r3, #31
    958e:	dd00      	ble.n	9592 <__aeabi_dadd+0x4a6>
    9590:	e09f      	b.n	96d2 <__aeabi_dadd+0x5e6>
    9592:	2620      	movs	r6, #32
    9594:	1af3      	subs	r3, r6, r3
    9596:	0026      	movs	r6, r4
    9598:	409e      	lsls	r6, r3
    959a:	469c      	mov	ip, r3
    959c:	46b3      	mov	fp, r6
    959e:	4653      	mov	r3, sl
    95a0:	003e      	movs	r6, r7
    95a2:	40de      	lsrs	r6, r3
    95a4:	0033      	movs	r3, r6
    95a6:	465e      	mov	r6, fp
    95a8:	431e      	orrs	r6, r3
    95aa:	4663      	mov	r3, ip
    95ac:	409f      	lsls	r7, r3
    95ae:	1e7b      	subs	r3, r7, #1
    95b0:	419f      	sbcs	r7, r3
    95b2:	4653      	mov	r3, sl
    95b4:	40dc      	lsrs	r4, r3
    95b6:	4337      	orrs	r7, r6
    95b8:	18bf      	adds	r7, r7, r2
    95ba:	4297      	cmp	r7, r2
    95bc:	4192      	sbcs	r2, r2
    95be:	1864      	adds	r4, r4, r1
    95c0:	4252      	negs	r2, r2
    95c2:	18a4      	adds	r4, r4, r2
    95c4:	0006      	movs	r6, r0
    95c6:	e678      	b.n	92ba <__aeabi_dadd+0x1ce>
    95c8:	4327      	orrs	r7, r4
    95ca:	1e7c      	subs	r4, r7, #1
    95cc:	41a7      	sbcs	r7, r4
    95ce:	2400      	movs	r4, #0
    95d0:	e737      	b.n	9442 <__aeabi_dadd+0x356>
    95d2:	4e4c      	ldr	r6, [pc, #304]	; (9704 <__aeabi_dadd+0x618>)
    95d4:	42b0      	cmp	r0, r6
    95d6:	d036      	beq.n	9646 <__aeabi_dadd+0x55a>
    95d8:	2680      	movs	r6, #128	; 0x80
    95da:	425b      	negs	r3, r3
    95dc:	0436      	lsls	r6, r6, #16
    95de:	469a      	mov	sl, r3
    95e0:	4334      	orrs	r4, r6
    95e2:	e7cf      	b.n	9584 <__aeabi_dadd+0x498>
    95e4:	0018      	movs	r0, r3
    95e6:	4310      	orrs	r0, r2
    95e8:	d100      	bne.n	95ec <__aeabi_dadd+0x500>
    95ea:	e603      	b.n	91f4 <__aeabi_dadd+0x108>
    95ec:	1ab8      	subs	r0, r7, r2
    95ee:	4684      	mov	ip, r0
    95f0:	4567      	cmp	r7, ip
    95f2:	41ad      	sbcs	r5, r5
    95f4:	1ae0      	subs	r0, r4, r3
    95f6:	426d      	negs	r5, r5
    95f8:	1b40      	subs	r0, r0, r5
    95fa:	0205      	lsls	r5, r0, #8
    95fc:	d400      	bmi.n	9600 <__aeabi_dadd+0x514>
    95fe:	e62c      	b.n	925a <__aeabi_dadd+0x16e>
    9600:	1bd7      	subs	r7, r2, r7
    9602:	42ba      	cmp	r2, r7
    9604:	4192      	sbcs	r2, r2
    9606:	1b1c      	subs	r4, r3, r4
    9608:	4252      	negs	r2, r2
    960a:	1aa4      	subs	r4, r4, r2
    960c:	46d8      	mov	r8, fp
    960e:	e5f1      	b.n	91f4 <__aeabi_dadd+0x108>
    9610:	0018      	movs	r0, r3
    9612:	4310      	orrs	r0, r2
    9614:	d100      	bne.n	9618 <__aeabi_dadd+0x52c>
    9616:	e763      	b.n	94e0 <__aeabi_dadd+0x3f4>
    9618:	08f8      	lsrs	r0, r7, #3
    961a:	0767      	lsls	r7, r4, #29
    961c:	4307      	orrs	r7, r0
    961e:	2080      	movs	r0, #128	; 0x80
    9620:	08e4      	lsrs	r4, r4, #3
    9622:	0300      	lsls	r0, r0, #12
    9624:	4204      	tst	r4, r0
    9626:	d008      	beq.n	963a <__aeabi_dadd+0x54e>
    9628:	08dd      	lsrs	r5, r3, #3
    962a:	4205      	tst	r5, r0
    962c:	d105      	bne.n	963a <__aeabi_dadd+0x54e>
    962e:	08d2      	lsrs	r2, r2, #3
    9630:	0759      	lsls	r1, r3, #29
    9632:	4311      	orrs	r1, r2
    9634:	000f      	movs	r7, r1
    9636:	002c      	movs	r4, r5
    9638:	46d8      	mov	r8, fp
    963a:	0f7b      	lsrs	r3, r7, #29
    963c:	00e4      	lsls	r4, r4, #3
    963e:	431c      	orrs	r4, r3
    9640:	00ff      	lsls	r7, r7, #3
    9642:	4e30      	ldr	r6, [pc, #192]	; (9704 <__aeabi_dadd+0x618>)
    9644:	e5d6      	b.n	91f4 <__aeabi_dadd+0x108>
    9646:	000c      	movs	r4, r1
    9648:	0017      	movs	r7, r2
    964a:	0006      	movs	r6, r0
    964c:	e5d2      	b.n	91f4 <__aeabi_dadd+0x108>
    964e:	2b00      	cmp	r3, #0
    9650:	d038      	beq.n	96c4 <__aeabi_dadd+0x5d8>
    9652:	000b      	movs	r3, r1
    9654:	4313      	orrs	r3, r2
    9656:	d100      	bne.n	965a <__aeabi_dadd+0x56e>
    9658:	e742      	b.n	94e0 <__aeabi_dadd+0x3f4>
    965a:	08f8      	lsrs	r0, r7, #3
    965c:	0767      	lsls	r7, r4, #29
    965e:	4307      	orrs	r7, r0
    9660:	2080      	movs	r0, #128	; 0x80
    9662:	08e4      	lsrs	r4, r4, #3
    9664:	0300      	lsls	r0, r0, #12
    9666:	4204      	tst	r4, r0
    9668:	d0e7      	beq.n	963a <__aeabi_dadd+0x54e>
    966a:	08cb      	lsrs	r3, r1, #3
    966c:	4203      	tst	r3, r0
    966e:	d1e4      	bne.n	963a <__aeabi_dadd+0x54e>
    9670:	08d2      	lsrs	r2, r2, #3
    9672:	0749      	lsls	r1, r1, #29
    9674:	4311      	orrs	r1, r2
    9676:	000f      	movs	r7, r1
    9678:	001c      	movs	r4, r3
    967a:	e7de      	b.n	963a <__aeabi_dadd+0x54e>
    967c:	2700      	movs	r7, #0
    967e:	2400      	movs	r4, #0
    9680:	e5d5      	b.n	922e <__aeabi_dadd+0x142>
    9682:	2100      	movs	r1, #0
    9684:	e76b      	b.n	955e <__aeabi_dadd+0x472>
    9686:	2500      	movs	r5, #0
    9688:	2700      	movs	r7, #0
    968a:	e5f3      	b.n	9274 <__aeabi_dadd+0x188>
    968c:	464e      	mov	r6, r9
    968e:	0025      	movs	r5, r4
    9690:	3e20      	subs	r6, #32
    9692:	40f5      	lsrs	r5, r6
    9694:	464b      	mov	r3, r9
    9696:	002e      	movs	r6, r5
    9698:	2b20      	cmp	r3, #32
    969a:	d02d      	beq.n	96f8 <__aeabi_dadd+0x60c>
    969c:	2540      	movs	r5, #64	; 0x40
    969e:	1aed      	subs	r5, r5, r3
    96a0:	40ac      	lsls	r4, r5
    96a2:	4327      	orrs	r7, r4
    96a4:	1e7c      	subs	r4, r7, #1
    96a6:	41a7      	sbcs	r7, r4
    96a8:	2400      	movs	r4, #0
    96aa:	4337      	orrs	r7, r6
    96ac:	e6c9      	b.n	9442 <__aeabi_dadd+0x356>
    96ae:	2480      	movs	r4, #128	; 0x80
    96b0:	2500      	movs	r5, #0
    96b2:	0324      	lsls	r4, r4, #12
    96b4:	4e13      	ldr	r6, [pc, #76]	; (9704 <__aeabi_dadd+0x618>)
    96b6:	2700      	movs	r7, #0
    96b8:	e5dc      	b.n	9274 <__aeabi_dadd+0x188>
    96ba:	4327      	orrs	r7, r4
    96bc:	1e7c      	subs	r4, r7, #1
    96be:	41a7      	sbcs	r7, r4
    96c0:	2400      	movs	r4, #0
    96c2:	e779      	b.n	95b8 <__aeabi_dadd+0x4cc>
    96c4:	000c      	movs	r4, r1
    96c6:	0017      	movs	r7, r2
    96c8:	4e0e      	ldr	r6, [pc, #56]	; (9704 <__aeabi_dadd+0x618>)
    96ca:	e593      	b.n	91f4 <__aeabi_dadd+0x108>
    96cc:	000c      	movs	r4, r1
    96ce:	0017      	movs	r7, r2
    96d0:	e590      	b.n	91f4 <__aeabi_dadd+0x108>
    96d2:	4656      	mov	r6, sl
    96d4:	0023      	movs	r3, r4
    96d6:	3e20      	subs	r6, #32
    96d8:	40f3      	lsrs	r3, r6
    96da:	4699      	mov	r9, r3
    96dc:	4653      	mov	r3, sl
    96de:	2b20      	cmp	r3, #32
    96e0:	d00e      	beq.n	9700 <__aeabi_dadd+0x614>
    96e2:	2340      	movs	r3, #64	; 0x40
    96e4:	4656      	mov	r6, sl
    96e6:	1b9b      	subs	r3, r3, r6
    96e8:	409c      	lsls	r4, r3
    96ea:	4327      	orrs	r7, r4
    96ec:	1e7c      	subs	r4, r7, #1
    96ee:	41a7      	sbcs	r7, r4
    96f0:	464b      	mov	r3, r9
    96f2:	2400      	movs	r4, #0
    96f4:	431f      	orrs	r7, r3
    96f6:	e75f      	b.n	95b8 <__aeabi_dadd+0x4cc>
    96f8:	2400      	movs	r4, #0
    96fa:	e7d2      	b.n	96a2 <__aeabi_dadd+0x5b6>
    96fc:	0017      	movs	r7, r2
    96fe:	e5b2      	b.n	9266 <__aeabi_dadd+0x17a>
    9700:	2400      	movs	r4, #0
    9702:	e7f2      	b.n	96ea <__aeabi_dadd+0x5fe>
    9704:	000007ff 	.word	0x000007ff
    9708:	ff7fffff 	.word	0xff7fffff

0000970c <__aeabi_ddiv>:
    970c:	b5f0      	push	{r4, r5, r6, r7, lr}
    970e:	4657      	mov	r7, sl
    9710:	4645      	mov	r5, r8
    9712:	46de      	mov	lr, fp
    9714:	464e      	mov	r6, r9
    9716:	b5e0      	push	{r5, r6, r7, lr}
    9718:	004c      	lsls	r4, r1, #1
    971a:	030e      	lsls	r6, r1, #12
    971c:	b087      	sub	sp, #28
    971e:	4683      	mov	fp, r0
    9720:	4692      	mov	sl, r2
    9722:	001d      	movs	r5, r3
    9724:	4680      	mov	r8, r0
    9726:	0b36      	lsrs	r6, r6, #12
    9728:	0d64      	lsrs	r4, r4, #21
    972a:	0fcf      	lsrs	r7, r1, #31
    972c:	2c00      	cmp	r4, #0
    972e:	d04f      	beq.n	97d0 <__aeabi_ddiv+0xc4>
    9730:	4b6f      	ldr	r3, [pc, #444]	; (98f0 <__aeabi_ddiv+0x1e4>)
    9732:	429c      	cmp	r4, r3
    9734:	d035      	beq.n	97a2 <__aeabi_ddiv+0x96>
    9736:	2380      	movs	r3, #128	; 0x80
    9738:	0f42      	lsrs	r2, r0, #29
    973a:	041b      	lsls	r3, r3, #16
    973c:	00f6      	lsls	r6, r6, #3
    973e:	4313      	orrs	r3, r2
    9740:	4333      	orrs	r3, r6
    9742:	4699      	mov	r9, r3
    9744:	00c3      	lsls	r3, r0, #3
    9746:	4698      	mov	r8, r3
    9748:	4b6a      	ldr	r3, [pc, #424]	; (98f4 <__aeabi_ddiv+0x1e8>)
    974a:	2600      	movs	r6, #0
    974c:	469c      	mov	ip, r3
    974e:	2300      	movs	r3, #0
    9750:	4464      	add	r4, ip
    9752:	9303      	str	r3, [sp, #12]
    9754:	032b      	lsls	r3, r5, #12
    9756:	0b1b      	lsrs	r3, r3, #12
    9758:	469b      	mov	fp, r3
    975a:	006b      	lsls	r3, r5, #1
    975c:	0fed      	lsrs	r5, r5, #31
    975e:	4650      	mov	r0, sl
    9760:	0d5b      	lsrs	r3, r3, #21
    9762:	9501      	str	r5, [sp, #4]
    9764:	d05e      	beq.n	9824 <__aeabi_ddiv+0x118>
    9766:	4a62      	ldr	r2, [pc, #392]	; (98f0 <__aeabi_ddiv+0x1e4>)
    9768:	4293      	cmp	r3, r2
    976a:	d053      	beq.n	9814 <__aeabi_ddiv+0x108>
    976c:	465a      	mov	r2, fp
    976e:	00d1      	lsls	r1, r2, #3
    9770:	2280      	movs	r2, #128	; 0x80
    9772:	0f40      	lsrs	r0, r0, #29
    9774:	0412      	lsls	r2, r2, #16
    9776:	4302      	orrs	r2, r0
    9778:	430a      	orrs	r2, r1
    977a:	4693      	mov	fp, r2
    977c:	4652      	mov	r2, sl
    977e:	00d1      	lsls	r1, r2, #3
    9780:	4a5c      	ldr	r2, [pc, #368]	; (98f4 <__aeabi_ddiv+0x1e8>)
    9782:	4694      	mov	ip, r2
    9784:	2200      	movs	r2, #0
    9786:	4463      	add	r3, ip
    9788:	0038      	movs	r0, r7
    978a:	4068      	eors	r0, r5
    978c:	4684      	mov	ip, r0
    978e:	9002      	str	r0, [sp, #8]
    9790:	1ae4      	subs	r4, r4, r3
    9792:	4316      	orrs	r6, r2
    9794:	2e0f      	cmp	r6, #15
    9796:	d900      	bls.n	979a <__aeabi_ddiv+0x8e>
    9798:	e0b4      	b.n	9904 <__aeabi_ddiv+0x1f8>
    979a:	4b57      	ldr	r3, [pc, #348]	; (98f8 <__aeabi_ddiv+0x1ec>)
    979c:	00b6      	lsls	r6, r6, #2
    979e:	599b      	ldr	r3, [r3, r6]
    97a0:	469f      	mov	pc, r3
    97a2:	0003      	movs	r3, r0
    97a4:	4333      	orrs	r3, r6
    97a6:	4699      	mov	r9, r3
    97a8:	d16c      	bne.n	9884 <__aeabi_ddiv+0x178>
    97aa:	2300      	movs	r3, #0
    97ac:	4698      	mov	r8, r3
    97ae:	3302      	adds	r3, #2
    97b0:	2608      	movs	r6, #8
    97b2:	9303      	str	r3, [sp, #12]
    97b4:	e7ce      	b.n	9754 <__aeabi_ddiv+0x48>
    97b6:	46cb      	mov	fp, r9
    97b8:	4641      	mov	r1, r8
    97ba:	9a03      	ldr	r2, [sp, #12]
    97bc:	9701      	str	r7, [sp, #4]
    97be:	2a02      	cmp	r2, #2
    97c0:	d165      	bne.n	988e <__aeabi_ddiv+0x182>
    97c2:	9b01      	ldr	r3, [sp, #4]
    97c4:	4c4a      	ldr	r4, [pc, #296]	; (98f0 <__aeabi_ddiv+0x1e4>)
    97c6:	469c      	mov	ip, r3
    97c8:	2300      	movs	r3, #0
    97ca:	2200      	movs	r2, #0
    97cc:	4698      	mov	r8, r3
    97ce:	e06b      	b.n	98a8 <__aeabi_ddiv+0x19c>
    97d0:	0003      	movs	r3, r0
    97d2:	4333      	orrs	r3, r6
    97d4:	4699      	mov	r9, r3
    97d6:	d04e      	beq.n	9876 <__aeabi_ddiv+0x16a>
    97d8:	2e00      	cmp	r6, #0
    97da:	d100      	bne.n	97de <__aeabi_ddiv+0xd2>
    97dc:	e1bc      	b.n	9b58 <__aeabi_ddiv+0x44c>
    97de:	0030      	movs	r0, r6
    97e0:	f7fe fc58 	bl	8094 <__clzsi2>
    97e4:	0003      	movs	r3, r0
    97e6:	3b0b      	subs	r3, #11
    97e8:	2b1c      	cmp	r3, #28
    97ea:	dd00      	ble.n	97ee <__aeabi_ddiv+0xe2>
    97ec:	e1ac      	b.n	9b48 <__aeabi_ddiv+0x43c>
    97ee:	221d      	movs	r2, #29
    97f0:	1ad3      	subs	r3, r2, r3
    97f2:	465a      	mov	r2, fp
    97f4:	0001      	movs	r1, r0
    97f6:	40da      	lsrs	r2, r3
    97f8:	3908      	subs	r1, #8
    97fa:	408e      	lsls	r6, r1
    97fc:	0013      	movs	r3, r2
    97fe:	4333      	orrs	r3, r6
    9800:	4699      	mov	r9, r3
    9802:	465b      	mov	r3, fp
    9804:	408b      	lsls	r3, r1
    9806:	4698      	mov	r8, r3
    9808:	2300      	movs	r3, #0
    980a:	4c3c      	ldr	r4, [pc, #240]	; (98fc <__aeabi_ddiv+0x1f0>)
    980c:	2600      	movs	r6, #0
    980e:	1a24      	subs	r4, r4, r0
    9810:	9303      	str	r3, [sp, #12]
    9812:	e79f      	b.n	9754 <__aeabi_ddiv+0x48>
    9814:	4651      	mov	r1, sl
    9816:	465a      	mov	r2, fp
    9818:	4311      	orrs	r1, r2
    981a:	d129      	bne.n	9870 <__aeabi_ddiv+0x164>
    981c:	2200      	movs	r2, #0
    981e:	4693      	mov	fp, r2
    9820:	3202      	adds	r2, #2
    9822:	e7b1      	b.n	9788 <__aeabi_ddiv+0x7c>
    9824:	4659      	mov	r1, fp
    9826:	4301      	orrs	r1, r0
    9828:	d01e      	beq.n	9868 <__aeabi_ddiv+0x15c>
    982a:	465b      	mov	r3, fp
    982c:	2b00      	cmp	r3, #0
    982e:	d100      	bne.n	9832 <__aeabi_ddiv+0x126>
    9830:	e19e      	b.n	9b70 <__aeabi_ddiv+0x464>
    9832:	4658      	mov	r0, fp
    9834:	f7fe fc2e 	bl	8094 <__clzsi2>
    9838:	0003      	movs	r3, r0
    983a:	3b0b      	subs	r3, #11
    983c:	2b1c      	cmp	r3, #28
    983e:	dd00      	ble.n	9842 <__aeabi_ddiv+0x136>
    9840:	e18f      	b.n	9b62 <__aeabi_ddiv+0x456>
    9842:	0002      	movs	r2, r0
    9844:	4659      	mov	r1, fp
    9846:	3a08      	subs	r2, #8
    9848:	4091      	lsls	r1, r2
    984a:	468b      	mov	fp, r1
    984c:	211d      	movs	r1, #29
    984e:	1acb      	subs	r3, r1, r3
    9850:	4651      	mov	r1, sl
    9852:	40d9      	lsrs	r1, r3
    9854:	000b      	movs	r3, r1
    9856:	4659      	mov	r1, fp
    9858:	430b      	orrs	r3, r1
    985a:	4651      	mov	r1, sl
    985c:	469b      	mov	fp, r3
    985e:	4091      	lsls	r1, r2
    9860:	4b26      	ldr	r3, [pc, #152]	; (98fc <__aeabi_ddiv+0x1f0>)
    9862:	2200      	movs	r2, #0
    9864:	1a1b      	subs	r3, r3, r0
    9866:	e78f      	b.n	9788 <__aeabi_ddiv+0x7c>
    9868:	2300      	movs	r3, #0
    986a:	2201      	movs	r2, #1
    986c:	469b      	mov	fp, r3
    986e:	e78b      	b.n	9788 <__aeabi_ddiv+0x7c>
    9870:	4651      	mov	r1, sl
    9872:	2203      	movs	r2, #3
    9874:	e788      	b.n	9788 <__aeabi_ddiv+0x7c>
    9876:	2300      	movs	r3, #0
    9878:	4698      	mov	r8, r3
    987a:	3301      	adds	r3, #1
    987c:	2604      	movs	r6, #4
    987e:	2400      	movs	r4, #0
    9880:	9303      	str	r3, [sp, #12]
    9882:	e767      	b.n	9754 <__aeabi_ddiv+0x48>
    9884:	2303      	movs	r3, #3
    9886:	46b1      	mov	r9, r6
    9888:	9303      	str	r3, [sp, #12]
    988a:	260c      	movs	r6, #12
    988c:	e762      	b.n	9754 <__aeabi_ddiv+0x48>
    988e:	2a03      	cmp	r2, #3
    9890:	d100      	bne.n	9894 <__aeabi_ddiv+0x188>
    9892:	e25c      	b.n	9d4e <__aeabi_ddiv+0x642>
    9894:	9b01      	ldr	r3, [sp, #4]
    9896:	2a01      	cmp	r2, #1
    9898:	d000      	beq.n	989c <__aeabi_ddiv+0x190>
    989a:	e1e4      	b.n	9c66 <__aeabi_ddiv+0x55a>
    989c:	4013      	ands	r3, r2
    989e:	469c      	mov	ip, r3
    98a0:	2300      	movs	r3, #0
    98a2:	2400      	movs	r4, #0
    98a4:	2200      	movs	r2, #0
    98a6:	4698      	mov	r8, r3
    98a8:	2100      	movs	r1, #0
    98aa:	0312      	lsls	r2, r2, #12
    98ac:	0b13      	lsrs	r3, r2, #12
    98ae:	0d0a      	lsrs	r2, r1, #20
    98b0:	0512      	lsls	r2, r2, #20
    98b2:	431a      	orrs	r2, r3
    98b4:	0523      	lsls	r3, r4, #20
    98b6:	4c12      	ldr	r4, [pc, #72]	; (9900 <__aeabi_ddiv+0x1f4>)
    98b8:	4640      	mov	r0, r8
    98ba:	4022      	ands	r2, r4
    98bc:	4313      	orrs	r3, r2
    98be:	4662      	mov	r2, ip
    98c0:	005b      	lsls	r3, r3, #1
    98c2:	07d2      	lsls	r2, r2, #31
    98c4:	085b      	lsrs	r3, r3, #1
    98c6:	4313      	orrs	r3, r2
    98c8:	0019      	movs	r1, r3
    98ca:	b007      	add	sp, #28
    98cc:	bc3c      	pop	{r2, r3, r4, r5}
    98ce:	4690      	mov	r8, r2
    98d0:	4699      	mov	r9, r3
    98d2:	46a2      	mov	sl, r4
    98d4:	46ab      	mov	fp, r5
    98d6:	bdf0      	pop	{r4, r5, r6, r7, pc}
    98d8:	2300      	movs	r3, #0
    98da:	2280      	movs	r2, #128	; 0x80
    98dc:	469c      	mov	ip, r3
    98de:	0312      	lsls	r2, r2, #12
    98e0:	4698      	mov	r8, r3
    98e2:	4c03      	ldr	r4, [pc, #12]	; (98f0 <__aeabi_ddiv+0x1e4>)
    98e4:	e7e0      	b.n	98a8 <__aeabi_ddiv+0x19c>
    98e6:	2300      	movs	r3, #0
    98e8:	4c01      	ldr	r4, [pc, #4]	; (98f0 <__aeabi_ddiv+0x1e4>)
    98ea:	2200      	movs	r2, #0
    98ec:	4698      	mov	r8, r3
    98ee:	e7db      	b.n	98a8 <__aeabi_ddiv+0x19c>
    98f0:	000007ff 	.word	0x000007ff
    98f4:	fffffc01 	.word	0xfffffc01
    98f8:	0000ba2c 	.word	0x0000ba2c
    98fc:	fffffc0d 	.word	0xfffffc0d
    9900:	800fffff 	.word	0x800fffff
    9904:	45d9      	cmp	r9, fp
    9906:	d900      	bls.n	990a <__aeabi_ddiv+0x1fe>
    9908:	e139      	b.n	9b7e <__aeabi_ddiv+0x472>
    990a:	d100      	bne.n	990e <__aeabi_ddiv+0x202>
    990c:	e134      	b.n	9b78 <__aeabi_ddiv+0x46c>
    990e:	2300      	movs	r3, #0
    9910:	4646      	mov	r6, r8
    9912:	464d      	mov	r5, r9
    9914:	469a      	mov	sl, r3
    9916:	3c01      	subs	r4, #1
    9918:	465b      	mov	r3, fp
    991a:	0e0a      	lsrs	r2, r1, #24
    991c:	021b      	lsls	r3, r3, #8
    991e:	431a      	orrs	r2, r3
    9920:	020b      	lsls	r3, r1, #8
    9922:	0c17      	lsrs	r7, r2, #16
    9924:	9303      	str	r3, [sp, #12]
    9926:	0413      	lsls	r3, r2, #16
    9928:	0c1b      	lsrs	r3, r3, #16
    992a:	0039      	movs	r1, r7
    992c:	0028      	movs	r0, r5
    992e:	4690      	mov	r8, r2
    9930:	9301      	str	r3, [sp, #4]
    9932:	f7fe f9c1 	bl	7cb8 <__udivsi3>
    9936:	0002      	movs	r2, r0
    9938:	9b01      	ldr	r3, [sp, #4]
    993a:	4683      	mov	fp, r0
    993c:	435a      	muls	r2, r3
    993e:	0028      	movs	r0, r5
    9940:	0039      	movs	r1, r7
    9942:	4691      	mov	r9, r2
    9944:	f7fe fa3e 	bl	7dc4 <__aeabi_uidivmod>
    9948:	0c35      	lsrs	r5, r6, #16
    994a:	0409      	lsls	r1, r1, #16
    994c:	430d      	orrs	r5, r1
    994e:	45a9      	cmp	r9, r5
    9950:	d90d      	bls.n	996e <__aeabi_ddiv+0x262>
    9952:	465b      	mov	r3, fp
    9954:	4445      	add	r5, r8
    9956:	3b01      	subs	r3, #1
    9958:	45a8      	cmp	r8, r5
    995a:	d900      	bls.n	995e <__aeabi_ddiv+0x252>
    995c:	e13a      	b.n	9bd4 <__aeabi_ddiv+0x4c8>
    995e:	45a9      	cmp	r9, r5
    9960:	d800      	bhi.n	9964 <__aeabi_ddiv+0x258>
    9962:	e137      	b.n	9bd4 <__aeabi_ddiv+0x4c8>
    9964:	2302      	movs	r3, #2
    9966:	425b      	negs	r3, r3
    9968:	469c      	mov	ip, r3
    996a:	4445      	add	r5, r8
    996c:	44e3      	add	fp, ip
    996e:	464b      	mov	r3, r9
    9970:	1aeb      	subs	r3, r5, r3
    9972:	0039      	movs	r1, r7
    9974:	0018      	movs	r0, r3
    9976:	9304      	str	r3, [sp, #16]
    9978:	f7fe f99e 	bl	7cb8 <__udivsi3>
    997c:	9b01      	ldr	r3, [sp, #4]
    997e:	0005      	movs	r5, r0
    9980:	4343      	muls	r3, r0
    9982:	0039      	movs	r1, r7
    9984:	9804      	ldr	r0, [sp, #16]
    9986:	4699      	mov	r9, r3
    9988:	f7fe fa1c 	bl	7dc4 <__aeabi_uidivmod>
    998c:	0433      	lsls	r3, r6, #16
    998e:	0409      	lsls	r1, r1, #16
    9990:	0c1b      	lsrs	r3, r3, #16
    9992:	430b      	orrs	r3, r1
    9994:	4599      	cmp	r9, r3
    9996:	d909      	bls.n	99ac <__aeabi_ddiv+0x2a0>
    9998:	4443      	add	r3, r8
    999a:	1e6a      	subs	r2, r5, #1
    999c:	4598      	cmp	r8, r3
    999e:	d900      	bls.n	99a2 <__aeabi_ddiv+0x296>
    99a0:	e11a      	b.n	9bd8 <__aeabi_ddiv+0x4cc>
    99a2:	4599      	cmp	r9, r3
    99a4:	d800      	bhi.n	99a8 <__aeabi_ddiv+0x29c>
    99a6:	e117      	b.n	9bd8 <__aeabi_ddiv+0x4cc>
    99a8:	3d02      	subs	r5, #2
    99aa:	4443      	add	r3, r8
    99ac:	464a      	mov	r2, r9
    99ae:	1a9b      	subs	r3, r3, r2
    99b0:	465a      	mov	r2, fp
    99b2:	0412      	lsls	r2, r2, #16
    99b4:	432a      	orrs	r2, r5
    99b6:	9903      	ldr	r1, [sp, #12]
    99b8:	4693      	mov	fp, r2
    99ba:	0c10      	lsrs	r0, r2, #16
    99bc:	0c0a      	lsrs	r2, r1, #16
    99be:	4691      	mov	r9, r2
    99c0:	0409      	lsls	r1, r1, #16
    99c2:	465a      	mov	r2, fp
    99c4:	0c09      	lsrs	r1, r1, #16
    99c6:	464e      	mov	r6, r9
    99c8:	000d      	movs	r5, r1
    99ca:	0412      	lsls	r2, r2, #16
    99cc:	0c12      	lsrs	r2, r2, #16
    99ce:	4345      	muls	r5, r0
    99d0:	9105      	str	r1, [sp, #20]
    99d2:	4351      	muls	r1, r2
    99d4:	4372      	muls	r2, r6
    99d6:	4370      	muls	r0, r6
    99d8:	1952      	adds	r2, r2, r5
    99da:	0c0e      	lsrs	r6, r1, #16
    99dc:	18b2      	adds	r2, r6, r2
    99de:	4295      	cmp	r5, r2
    99e0:	d903      	bls.n	99ea <__aeabi_ddiv+0x2de>
    99e2:	2580      	movs	r5, #128	; 0x80
    99e4:	026d      	lsls	r5, r5, #9
    99e6:	46ac      	mov	ip, r5
    99e8:	4460      	add	r0, ip
    99ea:	0c15      	lsrs	r5, r2, #16
    99ec:	0409      	lsls	r1, r1, #16
    99ee:	0412      	lsls	r2, r2, #16
    99f0:	0c09      	lsrs	r1, r1, #16
    99f2:	1828      	adds	r0, r5, r0
    99f4:	1852      	adds	r2, r2, r1
    99f6:	4283      	cmp	r3, r0
    99f8:	d200      	bcs.n	99fc <__aeabi_ddiv+0x2f0>
    99fa:	e0ce      	b.n	9b9a <__aeabi_ddiv+0x48e>
    99fc:	d100      	bne.n	9a00 <__aeabi_ddiv+0x2f4>
    99fe:	e0c8      	b.n	9b92 <__aeabi_ddiv+0x486>
    9a00:	1a1d      	subs	r5, r3, r0
    9a02:	4653      	mov	r3, sl
    9a04:	1a9e      	subs	r6, r3, r2
    9a06:	45b2      	cmp	sl, r6
    9a08:	4192      	sbcs	r2, r2
    9a0a:	4252      	negs	r2, r2
    9a0c:	1aab      	subs	r3, r5, r2
    9a0e:	469a      	mov	sl, r3
    9a10:	4598      	cmp	r8, r3
    9a12:	d100      	bne.n	9a16 <__aeabi_ddiv+0x30a>
    9a14:	e117      	b.n	9c46 <__aeabi_ddiv+0x53a>
    9a16:	0039      	movs	r1, r7
    9a18:	0018      	movs	r0, r3
    9a1a:	f7fe f94d 	bl	7cb8 <__udivsi3>
    9a1e:	9b01      	ldr	r3, [sp, #4]
    9a20:	0005      	movs	r5, r0
    9a22:	4343      	muls	r3, r0
    9a24:	0039      	movs	r1, r7
    9a26:	4650      	mov	r0, sl
    9a28:	9304      	str	r3, [sp, #16]
    9a2a:	f7fe f9cb 	bl	7dc4 <__aeabi_uidivmod>
    9a2e:	9804      	ldr	r0, [sp, #16]
    9a30:	040b      	lsls	r3, r1, #16
    9a32:	0c31      	lsrs	r1, r6, #16
    9a34:	4319      	orrs	r1, r3
    9a36:	4288      	cmp	r0, r1
    9a38:	d909      	bls.n	9a4e <__aeabi_ddiv+0x342>
    9a3a:	4441      	add	r1, r8
    9a3c:	1e6b      	subs	r3, r5, #1
    9a3e:	4588      	cmp	r8, r1
    9a40:	d900      	bls.n	9a44 <__aeabi_ddiv+0x338>
    9a42:	e107      	b.n	9c54 <__aeabi_ddiv+0x548>
    9a44:	4288      	cmp	r0, r1
    9a46:	d800      	bhi.n	9a4a <__aeabi_ddiv+0x33e>
    9a48:	e104      	b.n	9c54 <__aeabi_ddiv+0x548>
    9a4a:	3d02      	subs	r5, #2
    9a4c:	4441      	add	r1, r8
    9a4e:	9b04      	ldr	r3, [sp, #16]
    9a50:	1acb      	subs	r3, r1, r3
    9a52:	0018      	movs	r0, r3
    9a54:	0039      	movs	r1, r7
    9a56:	9304      	str	r3, [sp, #16]
    9a58:	f7fe f92e 	bl	7cb8 <__udivsi3>
    9a5c:	9b01      	ldr	r3, [sp, #4]
    9a5e:	4682      	mov	sl, r0
    9a60:	4343      	muls	r3, r0
    9a62:	0039      	movs	r1, r7
    9a64:	9804      	ldr	r0, [sp, #16]
    9a66:	9301      	str	r3, [sp, #4]
    9a68:	f7fe f9ac 	bl	7dc4 <__aeabi_uidivmod>
    9a6c:	9801      	ldr	r0, [sp, #4]
    9a6e:	040b      	lsls	r3, r1, #16
    9a70:	0431      	lsls	r1, r6, #16
    9a72:	0c09      	lsrs	r1, r1, #16
    9a74:	4319      	orrs	r1, r3
    9a76:	4288      	cmp	r0, r1
    9a78:	d90d      	bls.n	9a96 <__aeabi_ddiv+0x38a>
    9a7a:	4653      	mov	r3, sl
    9a7c:	4441      	add	r1, r8
    9a7e:	3b01      	subs	r3, #1
    9a80:	4588      	cmp	r8, r1
    9a82:	d900      	bls.n	9a86 <__aeabi_ddiv+0x37a>
    9a84:	e0e8      	b.n	9c58 <__aeabi_ddiv+0x54c>
    9a86:	4288      	cmp	r0, r1
    9a88:	d800      	bhi.n	9a8c <__aeabi_ddiv+0x380>
    9a8a:	e0e5      	b.n	9c58 <__aeabi_ddiv+0x54c>
    9a8c:	2302      	movs	r3, #2
    9a8e:	425b      	negs	r3, r3
    9a90:	469c      	mov	ip, r3
    9a92:	4441      	add	r1, r8
    9a94:	44e2      	add	sl, ip
    9a96:	9b01      	ldr	r3, [sp, #4]
    9a98:	042d      	lsls	r5, r5, #16
    9a9a:	1ace      	subs	r6, r1, r3
    9a9c:	4651      	mov	r1, sl
    9a9e:	4329      	orrs	r1, r5
    9aa0:	9d05      	ldr	r5, [sp, #20]
    9aa2:	464f      	mov	r7, r9
    9aa4:	002a      	movs	r2, r5
    9aa6:	040b      	lsls	r3, r1, #16
    9aa8:	0c08      	lsrs	r0, r1, #16
    9aaa:	0c1b      	lsrs	r3, r3, #16
    9aac:	435a      	muls	r2, r3
    9aae:	4345      	muls	r5, r0
    9ab0:	437b      	muls	r3, r7
    9ab2:	4378      	muls	r0, r7
    9ab4:	195b      	adds	r3, r3, r5
    9ab6:	0c17      	lsrs	r7, r2, #16
    9ab8:	18fb      	adds	r3, r7, r3
    9aba:	429d      	cmp	r5, r3
    9abc:	d903      	bls.n	9ac6 <__aeabi_ddiv+0x3ba>
    9abe:	2580      	movs	r5, #128	; 0x80
    9ac0:	026d      	lsls	r5, r5, #9
    9ac2:	46ac      	mov	ip, r5
    9ac4:	4460      	add	r0, ip
    9ac6:	0c1d      	lsrs	r5, r3, #16
    9ac8:	0412      	lsls	r2, r2, #16
    9aca:	041b      	lsls	r3, r3, #16
    9acc:	0c12      	lsrs	r2, r2, #16
    9ace:	1828      	adds	r0, r5, r0
    9ad0:	189b      	adds	r3, r3, r2
    9ad2:	4286      	cmp	r6, r0
    9ad4:	d200      	bcs.n	9ad8 <__aeabi_ddiv+0x3cc>
    9ad6:	e093      	b.n	9c00 <__aeabi_ddiv+0x4f4>
    9ad8:	d100      	bne.n	9adc <__aeabi_ddiv+0x3d0>
    9ada:	e08e      	b.n	9bfa <__aeabi_ddiv+0x4ee>
    9adc:	2301      	movs	r3, #1
    9ade:	4319      	orrs	r1, r3
    9ae0:	4ba0      	ldr	r3, [pc, #640]	; (9d64 <__aeabi_ddiv+0x658>)
    9ae2:	18e3      	adds	r3, r4, r3
    9ae4:	2b00      	cmp	r3, #0
    9ae6:	dc00      	bgt.n	9aea <__aeabi_ddiv+0x3de>
    9ae8:	e099      	b.n	9c1e <__aeabi_ddiv+0x512>
    9aea:	074a      	lsls	r2, r1, #29
    9aec:	d000      	beq.n	9af0 <__aeabi_ddiv+0x3e4>
    9aee:	e09e      	b.n	9c2e <__aeabi_ddiv+0x522>
    9af0:	465a      	mov	r2, fp
    9af2:	01d2      	lsls	r2, r2, #7
    9af4:	d506      	bpl.n	9b04 <__aeabi_ddiv+0x3f8>
    9af6:	465a      	mov	r2, fp
    9af8:	4b9b      	ldr	r3, [pc, #620]	; (9d68 <__aeabi_ddiv+0x65c>)
    9afa:	401a      	ands	r2, r3
    9afc:	2380      	movs	r3, #128	; 0x80
    9afe:	4693      	mov	fp, r2
    9b00:	00db      	lsls	r3, r3, #3
    9b02:	18e3      	adds	r3, r4, r3
    9b04:	4a99      	ldr	r2, [pc, #612]	; (9d6c <__aeabi_ddiv+0x660>)
    9b06:	4293      	cmp	r3, r2
    9b08:	dd68      	ble.n	9bdc <__aeabi_ddiv+0x4d0>
    9b0a:	2301      	movs	r3, #1
    9b0c:	9a02      	ldr	r2, [sp, #8]
    9b0e:	4c98      	ldr	r4, [pc, #608]	; (9d70 <__aeabi_ddiv+0x664>)
    9b10:	401a      	ands	r2, r3
    9b12:	2300      	movs	r3, #0
    9b14:	4694      	mov	ip, r2
    9b16:	4698      	mov	r8, r3
    9b18:	2200      	movs	r2, #0
    9b1a:	e6c5      	b.n	98a8 <__aeabi_ddiv+0x19c>
    9b1c:	2280      	movs	r2, #128	; 0x80
    9b1e:	464b      	mov	r3, r9
    9b20:	0312      	lsls	r2, r2, #12
    9b22:	4213      	tst	r3, r2
    9b24:	d00a      	beq.n	9b3c <__aeabi_ddiv+0x430>
    9b26:	465b      	mov	r3, fp
    9b28:	4213      	tst	r3, r2
    9b2a:	d106      	bne.n	9b3a <__aeabi_ddiv+0x42e>
    9b2c:	431a      	orrs	r2, r3
    9b2e:	0312      	lsls	r2, r2, #12
    9b30:	0b12      	lsrs	r2, r2, #12
    9b32:	46ac      	mov	ip, r5
    9b34:	4688      	mov	r8, r1
    9b36:	4c8e      	ldr	r4, [pc, #568]	; (9d70 <__aeabi_ddiv+0x664>)
    9b38:	e6b6      	b.n	98a8 <__aeabi_ddiv+0x19c>
    9b3a:	464b      	mov	r3, r9
    9b3c:	431a      	orrs	r2, r3
    9b3e:	0312      	lsls	r2, r2, #12
    9b40:	0b12      	lsrs	r2, r2, #12
    9b42:	46bc      	mov	ip, r7
    9b44:	4c8a      	ldr	r4, [pc, #552]	; (9d70 <__aeabi_ddiv+0x664>)
    9b46:	e6af      	b.n	98a8 <__aeabi_ddiv+0x19c>
    9b48:	0003      	movs	r3, r0
    9b4a:	465a      	mov	r2, fp
    9b4c:	3b28      	subs	r3, #40	; 0x28
    9b4e:	409a      	lsls	r2, r3
    9b50:	2300      	movs	r3, #0
    9b52:	4691      	mov	r9, r2
    9b54:	4698      	mov	r8, r3
    9b56:	e657      	b.n	9808 <__aeabi_ddiv+0xfc>
    9b58:	4658      	mov	r0, fp
    9b5a:	f7fe fa9b 	bl	8094 <__clzsi2>
    9b5e:	3020      	adds	r0, #32
    9b60:	e640      	b.n	97e4 <__aeabi_ddiv+0xd8>
    9b62:	0003      	movs	r3, r0
    9b64:	4652      	mov	r2, sl
    9b66:	3b28      	subs	r3, #40	; 0x28
    9b68:	409a      	lsls	r2, r3
    9b6a:	2100      	movs	r1, #0
    9b6c:	4693      	mov	fp, r2
    9b6e:	e677      	b.n	9860 <__aeabi_ddiv+0x154>
    9b70:	f7fe fa90 	bl	8094 <__clzsi2>
    9b74:	3020      	adds	r0, #32
    9b76:	e65f      	b.n	9838 <__aeabi_ddiv+0x12c>
    9b78:	4588      	cmp	r8, r1
    9b7a:	d200      	bcs.n	9b7e <__aeabi_ddiv+0x472>
    9b7c:	e6c7      	b.n	990e <__aeabi_ddiv+0x202>
    9b7e:	464b      	mov	r3, r9
    9b80:	07de      	lsls	r6, r3, #31
    9b82:	085d      	lsrs	r5, r3, #1
    9b84:	4643      	mov	r3, r8
    9b86:	085b      	lsrs	r3, r3, #1
    9b88:	431e      	orrs	r6, r3
    9b8a:	4643      	mov	r3, r8
    9b8c:	07db      	lsls	r3, r3, #31
    9b8e:	469a      	mov	sl, r3
    9b90:	e6c2      	b.n	9918 <__aeabi_ddiv+0x20c>
    9b92:	2500      	movs	r5, #0
    9b94:	4592      	cmp	sl, r2
    9b96:	d300      	bcc.n	9b9a <__aeabi_ddiv+0x48e>
    9b98:	e733      	b.n	9a02 <__aeabi_ddiv+0x2f6>
    9b9a:	9e03      	ldr	r6, [sp, #12]
    9b9c:	4659      	mov	r1, fp
    9b9e:	46b4      	mov	ip, r6
    9ba0:	44e2      	add	sl, ip
    9ba2:	45b2      	cmp	sl, r6
    9ba4:	41ad      	sbcs	r5, r5
    9ba6:	426d      	negs	r5, r5
    9ba8:	4445      	add	r5, r8
    9baa:	18eb      	adds	r3, r5, r3
    9bac:	3901      	subs	r1, #1
    9bae:	4598      	cmp	r8, r3
    9bb0:	d207      	bcs.n	9bc2 <__aeabi_ddiv+0x4b6>
    9bb2:	4298      	cmp	r0, r3
    9bb4:	d900      	bls.n	9bb8 <__aeabi_ddiv+0x4ac>
    9bb6:	e07f      	b.n	9cb8 <__aeabi_ddiv+0x5ac>
    9bb8:	d100      	bne.n	9bbc <__aeabi_ddiv+0x4b0>
    9bba:	e0bc      	b.n	9d36 <__aeabi_ddiv+0x62a>
    9bbc:	1a1d      	subs	r5, r3, r0
    9bbe:	468b      	mov	fp, r1
    9bc0:	e71f      	b.n	9a02 <__aeabi_ddiv+0x2f6>
    9bc2:	4598      	cmp	r8, r3
    9bc4:	d1fa      	bne.n	9bbc <__aeabi_ddiv+0x4b0>
    9bc6:	9d03      	ldr	r5, [sp, #12]
    9bc8:	4555      	cmp	r5, sl
    9bca:	d9f2      	bls.n	9bb2 <__aeabi_ddiv+0x4a6>
    9bcc:	4643      	mov	r3, r8
    9bce:	468b      	mov	fp, r1
    9bd0:	1a1d      	subs	r5, r3, r0
    9bd2:	e716      	b.n	9a02 <__aeabi_ddiv+0x2f6>
    9bd4:	469b      	mov	fp, r3
    9bd6:	e6ca      	b.n	996e <__aeabi_ddiv+0x262>
    9bd8:	0015      	movs	r5, r2
    9bda:	e6e7      	b.n	99ac <__aeabi_ddiv+0x2a0>
    9bdc:	465a      	mov	r2, fp
    9bde:	08c9      	lsrs	r1, r1, #3
    9be0:	0752      	lsls	r2, r2, #29
    9be2:	430a      	orrs	r2, r1
    9be4:	055b      	lsls	r3, r3, #21
    9be6:	4690      	mov	r8, r2
    9be8:	0d5c      	lsrs	r4, r3, #21
    9bea:	465a      	mov	r2, fp
    9bec:	2301      	movs	r3, #1
    9bee:	9902      	ldr	r1, [sp, #8]
    9bf0:	0252      	lsls	r2, r2, #9
    9bf2:	4019      	ands	r1, r3
    9bf4:	0b12      	lsrs	r2, r2, #12
    9bf6:	468c      	mov	ip, r1
    9bf8:	e656      	b.n	98a8 <__aeabi_ddiv+0x19c>
    9bfa:	2b00      	cmp	r3, #0
    9bfc:	d100      	bne.n	9c00 <__aeabi_ddiv+0x4f4>
    9bfe:	e76f      	b.n	9ae0 <__aeabi_ddiv+0x3d4>
    9c00:	4446      	add	r6, r8
    9c02:	1e4a      	subs	r2, r1, #1
    9c04:	45b0      	cmp	r8, r6
    9c06:	d929      	bls.n	9c5c <__aeabi_ddiv+0x550>
    9c08:	0011      	movs	r1, r2
    9c0a:	4286      	cmp	r6, r0
    9c0c:	d000      	beq.n	9c10 <__aeabi_ddiv+0x504>
    9c0e:	e765      	b.n	9adc <__aeabi_ddiv+0x3d0>
    9c10:	9a03      	ldr	r2, [sp, #12]
    9c12:	4293      	cmp	r3, r2
    9c14:	d000      	beq.n	9c18 <__aeabi_ddiv+0x50c>
    9c16:	e761      	b.n	9adc <__aeabi_ddiv+0x3d0>
    9c18:	e762      	b.n	9ae0 <__aeabi_ddiv+0x3d4>
    9c1a:	2101      	movs	r1, #1
    9c1c:	4249      	negs	r1, r1
    9c1e:	2001      	movs	r0, #1
    9c20:	1ac2      	subs	r2, r0, r3
    9c22:	2a38      	cmp	r2, #56	; 0x38
    9c24:	dd21      	ble.n	9c6a <__aeabi_ddiv+0x55e>
    9c26:	9b02      	ldr	r3, [sp, #8]
    9c28:	4003      	ands	r3, r0
    9c2a:	469c      	mov	ip, r3
    9c2c:	e638      	b.n	98a0 <__aeabi_ddiv+0x194>
    9c2e:	220f      	movs	r2, #15
    9c30:	400a      	ands	r2, r1
    9c32:	2a04      	cmp	r2, #4
    9c34:	d100      	bne.n	9c38 <__aeabi_ddiv+0x52c>
    9c36:	e75b      	b.n	9af0 <__aeabi_ddiv+0x3e4>
    9c38:	000a      	movs	r2, r1
    9c3a:	1d11      	adds	r1, r2, #4
    9c3c:	4291      	cmp	r1, r2
    9c3e:	4192      	sbcs	r2, r2
    9c40:	4252      	negs	r2, r2
    9c42:	4493      	add	fp, r2
    9c44:	e754      	b.n	9af0 <__aeabi_ddiv+0x3e4>
    9c46:	4b47      	ldr	r3, [pc, #284]	; (9d64 <__aeabi_ddiv+0x658>)
    9c48:	18e3      	adds	r3, r4, r3
    9c4a:	2b00      	cmp	r3, #0
    9c4c:	dde5      	ble.n	9c1a <__aeabi_ddiv+0x50e>
    9c4e:	2201      	movs	r2, #1
    9c50:	4252      	negs	r2, r2
    9c52:	e7f2      	b.n	9c3a <__aeabi_ddiv+0x52e>
    9c54:	001d      	movs	r5, r3
    9c56:	e6fa      	b.n	9a4e <__aeabi_ddiv+0x342>
    9c58:	469a      	mov	sl, r3
    9c5a:	e71c      	b.n	9a96 <__aeabi_ddiv+0x38a>
    9c5c:	42b0      	cmp	r0, r6
    9c5e:	d839      	bhi.n	9cd4 <__aeabi_ddiv+0x5c8>
    9c60:	d06e      	beq.n	9d40 <__aeabi_ddiv+0x634>
    9c62:	0011      	movs	r1, r2
    9c64:	e73a      	b.n	9adc <__aeabi_ddiv+0x3d0>
    9c66:	9302      	str	r3, [sp, #8]
    9c68:	e73a      	b.n	9ae0 <__aeabi_ddiv+0x3d4>
    9c6a:	2a1f      	cmp	r2, #31
    9c6c:	dc3c      	bgt.n	9ce8 <__aeabi_ddiv+0x5dc>
    9c6e:	2320      	movs	r3, #32
    9c70:	1a9b      	subs	r3, r3, r2
    9c72:	000c      	movs	r4, r1
    9c74:	4658      	mov	r0, fp
    9c76:	4099      	lsls	r1, r3
    9c78:	4098      	lsls	r0, r3
    9c7a:	1e4b      	subs	r3, r1, #1
    9c7c:	4199      	sbcs	r1, r3
    9c7e:	465b      	mov	r3, fp
    9c80:	40d4      	lsrs	r4, r2
    9c82:	40d3      	lsrs	r3, r2
    9c84:	4320      	orrs	r0, r4
    9c86:	4308      	orrs	r0, r1
    9c88:	001a      	movs	r2, r3
    9c8a:	0743      	lsls	r3, r0, #29
    9c8c:	d009      	beq.n	9ca2 <__aeabi_ddiv+0x596>
    9c8e:	230f      	movs	r3, #15
    9c90:	4003      	ands	r3, r0
    9c92:	2b04      	cmp	r3, #4
    9c94:	d005      	beq.n	9ca2 <__aeabi_ddiv+0x596>
    9c96:	0001      	movs	r1, r0
    9c98:	1d08      	adds	r0, r1, #4
    9c9a:	4288      	cmp	r0, r1
    9c9c:	419b      	sbcs	r3, r3
    9c9e:	425b      	negs	r3, r3
    9ca0:	18d2      	adds	r2, r2, r3
    9ca2:	0213      	lsls	r3, r2, #8
    9ca4:	d53a      	bpl.n	9d1c <__aeabi_ddiv+0x610>
    9ca6:	2301      	movs	r3, #1
    9ca8:	9a02      	ldr	r2, [sp, #8]
    9caa:	2401      	movs	r4, #1
    9cac:	401a      	ands	r2, r3
    9cae:	2300      	movs	r3, #0
    9cb0:	4694      	mov	ip, r2
    9cb2:	4698      	mov	r8, r3
    9cb4:	2200      	movs	r2, #0
    9cb6:	e5f7      	b.n	98a8 <__aeabi_ddiv+0x19c>
    9cb8:	2102      	movs	r1, #2
    9cba:	4249      	negs	r1, r1
    9cbc:	468c      	mov	ip, r1
    9cbe:	9d03      	ldr	r5, [sp, #12]
    9cc0:	44e3      	add	fp, ip
    9cc2:	46ac      	mov	ip, r5
    9cc4:	44e2      	add	sl, ip
    9cc6:	45aa      	cmp	sl, r5
    9cc8:	41ad      	sbcs	r5, r5
    9cca:	426d      	negs	r5, r5
    9ccc:	4445      	add	r5, r8
    9cce:	18ed      	adds	r5, r5, r3
    9cd0:	1a2d      	subs	r5, r5, r0
    9cd2:	e696      	b.n	9a02 <__aeabi_ddiv+0x2f6>
    9cd4:	1e8a      	subs	r2, r1, #2
    9cd6:	9903      	ldr	r1, [sp, #12]
    9cd8:	004d      	lsls	r5, r1, #1
    9cda:	428d      	cmp	r5, r1
    9cdc:	4189      	sbcs	r1, r1
    9cde:	4249      	negs	r1, r1
    9ce0:	4441      	add	r1, r8
    9ce2:	1876      	adds	r6, r6, r1
    9ce4:	9503      	str	r5, [sp, #12]
    9ce6:	e78f      	b.n	9c08 <__aeabi_ddiv+0x4fc>
    9ce8:	201f      	movs	r0, #31
    9cea:	4240      	negs	r0, r0
    9cec:	1ac3      	subs	r3, r0, r3
    9cee:	4658      	mov	r0, fp
    9cf0:	40d8      	lsrs	r0, r3
    9cf2:	0003      	movs	r3, r0
    9cf4:	2a20      	cmp	r2, #32
    9cf6:	d028      	beq.n	9d4a <__aeabi_ddiv+0x63e>
    9cf8:	2040      	movs	r0, #64	; 0x40
    9cfa:	465d      	mov	r5, fp
    9cfc:	1a82      	subs	r2, r0, r2
    9cfe:	4095      	lsls	r5, r2
    9d00:	4329      	orrs	r1, r5
    9d02:	1e4a      	subs	r2, r1, #1
    9d04:	4191      	sbcs	r1, r2
    9d06:	4319      	orrs	r1, r3
    9d08:	2307      	movs	r3, #7
    9d0a:	2200      	movs	r2, #0
    9d0c:	400b      	ands	r3, r1
    9d0e:	d009      	beq.n	9d24 <__aeabi_ddiv+0x618>
    9d10:	230f      	movs	r3, #15
    9d12:	2200      	movs	r2, #0
    9d14:	400b      	ands	r3, r1
    9d16:	0008      	movs	r0, r1
    9d18:	2b04      	cmp	r3, #4
    9d1a:	d1bd      	bne.n	9c98 <__aeabi_ddiv+0x58c>
    9d1c:	0001      	movs	r1, r0
    9d1e:	0753      	lsls	r3, r2, #29
    9d20:	0252      	lsls	r2, r2, #9
    9d22:	0b12      	lsrs	r2, r2, #12
    9d24:	08c9      	lsrs	r1, r1, #3
    9d26:	4319      	orrs	r1, r3
    9d28:	2301      	movs	r3, #1
    9d2a:	4688      	mov	r8, r1
    9d2c:	9902      	ldr	r1, [sp, #8]
    9d2e:	2400      	movs	r4, #0
    9d30:	4019      	ands	r1, r3
    9d32:	468c      	mov	ip, r1
    9d34:	e5b8      	b.n	98a8 <__aeabi_ddiv+0x19c>
    9d36:	4552      	cmp	r2, sl
    9d38:	d8be      	bhi.n	9cb8 <__aeabi_ddiv+0x5ac>
    9d3a:	468b      	mov	fp, r1
    9d3c:	2500      	movs	r5, #0
    9d3e:	e660      	b.n	9a02 <__aeabi_ddiv+0x2f6>
    9d40:	9d03      	ldr	r5, [sp, #12]
    9d42:	429d      	cmp	r5, r3
    9d44:	d3c6      	bcc.n	9cd4 <__aeabi_ddiv+0x5c8>
    9d46:	0011      	movs	r1, r2
    9d48:	e762      	b.n	9c10 <__aeabi_ddiv+0x504>
    9d4a:	2500      	movs	r5, #0
    9d4c:	e7d8      	b.n	9d00 <__aeabi_ddiv+0x5f4>
    9d4e:	2280      	movs	r2, #128	; 0x80
    9d50:	465b      	mov	r3, fp
    9d52:	0312      	lsls	r2, r2, #12
    9d54:	431a      	orrs	r2, r3
    9d56:	9b01      	ldr	r3, [sp, #4]
    9d58:	0312      	lsls	r2, r2, #12
    9d5a:	0b12      	lsrs	r2, r2, #12
    9d5c:	469c      	mov	ip, r3
    9d5e:	4688      	mov	r8, r1
    9d60:	4c03      	ldr	r4, [pc, #12]	; (9d70 <__aeabi_ddiv+0x664>)
    9d62:	e5a1      	b.n	98a8 <__aeabi_ddiv+0x19c>
    9d64:	000003ff 	.word	0x000003ff
    9d68:	feffffff 	.word	0xfeffffff
    9d6c:	000007fe 	.word	0x000007fe
    9d70:	000007ff 	.word	0x000007ff

00009d74 <__eqdf2>:
    9d74:	b5f0      	push	{r4, r5, r6, r7, lr}
    9d76:	464f      	mov	r7, r9
    9d78:	4646      	mov	r6, r8
    9d7a:	46d6      	mov	lr, sl
    9d7c:	005c      	lsls	r4, r3, #1
    9d7e:	b5c0      	push	{r6, r7, lr}
    9d80:	031f      	lsls	r7, r3, #12
    9d82:	0fdb      	lsrs	r3, r3, #31
    9d84:	469a      	mov	sl, r3
    9d86:	4b17      	ldr	r3, [pc, #92]	; (9de4 <__eqdf2+0x70>)
    9d88:	030e      	lsls	r6, r1, #12
    9d8a:	004d      	lsls	r5, r1, #1
    9d8c:	4684      	mov	ip, r0
    9d8e:	4680      	mov	r8, r0
    9d90:	0b36      	lsrs	r6, r6, #12
    9d92:	0d6d      	lsrs	r5, r5, #21
    9d94:	0fc9      	lsrs	r1, r1, #31
    9d96:	4691      	mov	r9, r2
    9d98:	0b3f      	lsrs	r7, r7, #12
    9d9a:	0d64      	lsrs	r4, r4, #21
    9d9c:	2001      	movs	r0, #1
    9d9e:	429d      	cmp	r5, r3
    9da0:	d008      	beq.n	9db4 <__eqdf2+0x40>
    9da2:	429c      	cmp	r4, r3
    9da4:	d001      	beq.n	9daa <__eqdf2+0x36>
    9da6:	42a5      	cmp	r5, r4
    9da8:	d00b      	beq.n	9dc2 <__eqdf2+0x4e>
    9daa:	bc1c      	pop	{r2, r3, r4}
    9dac:	4690      	mov	r8, r2
    9dae:	4699      	mov	r9, r3
    9db0:	46a2      	mov	sl, r4
    9db2:	bdf0      	pop	{r4, r5, r6, r7, pc}
    9db4:	4663      	mov	r3, ip
    9db6:	4333      	orrs	r3, r6
    9db8:	d1f7      	bne.n	9daa <__eqdf2+0x36>
    9dba:	42ac      	cmp	r4, r5
    9dbc:	d1f5      	bne.n	9daa <__eqdf2+0x36>
    9dbe:	433a      	orrs	r2, r7
    9dc0:	d1f3      	bne.n	9daa <__eqdf2+0x36>
    9dc2:	2001      	movs	r0, #1
    9dc4:	42be      	cmp	r6, r7
    9dc6:	d1f0      	bne.n	9daa <__eqdf2+0x36>
    9dc8:	45c8      	cmp	r8, r9
    9dca:	d1ee      	bne.n	9daa <__eqdf2+0x36>
    9dcc:	4551      	cmp	r1, sl
    9dce:	d007      	beq.n	9de0 <__eqdf2+0x6c>
    9dd0:	2d00      	cmp	r5, #0
    9dd2:	d1ea      	bne.n	9daa <__eqdf2+0x36>
    9dd4:	4663      	mov	r3, ip
    9dd6:	431e      	orrs	r6, r3
    9dd8:	0030      	movs	r0, r6
    9dda:	1e46      	subs	r6, r0, #1
    9ddc:	41b0      	sbcs	r0, r6
    9dde:	e7e4      	b.n	9daa <__eqdf2+0x36>
    9de0:	2000      	movs	r0, #0
    9de2:	e7e2      	b.n	9daa <__eqdf2+0x36>
    9de4:	000007ff 	.word	0x000007ff

00009de8 <__gedf2>:
    9de8:	b5f0      	push	{r4, r5, r6, r7, lr}
    9dea:	4645      	mov	r5, r8
    9dec:	46de      	mov	lr, fp
    9dee:	4657      	mov	r7, sl
    9df0:	464e      	mov	r6, r9
    9df2:	b5e0      	push	{r5, r6, r7, lr}
    9df4:	031f      	lsls	r7, r3, #12
    9df6:	0b3d      	lsrs	r5, r7, #12
    9df8:	4f2c      	ldr	r7, [pc, #176]	; (9eac <__gedf2+0xc4>)
    9dfa:	030e      	lsls	r6, r1, #12
    9dfc:	004c      	lsls	r4, r1, #1
    9dfe:	46ab      	mov	fp, r5
    9e00:	005d      	lsls	r5, r3, #1
    9e02:	4684      	mov	ip, r0
    9e04:	0b36      	lsrs	r6, r6, #12
    9e06:	0d64      	lsrs	r4, r4, #21
    9e08:	0fc9      	lsrs	r1, r1, #31
    9e0a:	4690      	mov	r8, r2
    9e0c:	0d6d      	lsrs	r5, r5, #21
    9e0e:	0fdb      	lsrs	r3, r3, #31
    9e10:	42bc      	cmp	r4, r7
    9e12:	d02a      	beq.n	9e6a <__gedf2+0x82>
    9e14:	4f25      	ldr	r7, [pc, #148]	; (9eac <__gedf2+0xc4>)
    9e16:	42bd      	cmp	r5, r7
    9e18:	d02d      	beq.n	9e76 <__gedf2+0x8e>
    9e1a:	2c00      	cmp	r4, #0
    9e1c:	d10f      	bne.n	9e3e <__gedf2+0x56>
    9e1e:	4330      	orrs	r0, r6
    9e20:	0007      	movs	r7, r0
    9e22:	4681      	mov	r9, r0
    9e24:	4278      	negs	r0, r7
    9e26:	4178      	adcs	r0, r7
    9e28:	b2c0      	uxtb	r0, r0
    9e2a:	2d00      	cmp	r5, #0
    9e2c:	d117      	bne.n	9e5e <__gedf2+0x76>
    9e2e:	465f      	mov	r7, fp
    9e30:	433a      	orrs	r2, r7
    9e32:	d114      	bne.n	9e5e <__gedf2+0x76>
    9e34:	464b      	mov	r3, r9
    9e36:	2000      	movs	r0, #0
    9e38:	2b00      	cmp	r3, #0
    9e3a:	d00a      	beq.n	9e52 <__gedf2+0x6a>
    9e3c:	e006      	b.n	9e4c <__gedf2+0x64>
    9e3e:	2d00      	cmp	r5, #0
    9e40:	d102      	bne.n	9e48 <__gedf2+0x60>
    9e42:	4658      	mov	r0, fp
    9e44:	4302      	orrs	r2, r0
    9e46:	d001      	beq.n	9e4c <__gedf2+0x64>
    9e48:	4299      	cmp	r1, r3
    9e4a:	d018      	beq.n	9e7e <__gedf2+0x96>
    9e4c:	4248      	negs	r0, r1
    9e4e:	2101      	movs	r1, #1
    9e50:	4308      	orrs	r0, r1
    9e52:	bc3c      	pop	{r2, r3, r4, r5}
    9e54:	4690      	mov	r8, r2
    9e56:	4699      	mov	r9, r3
    9e58:	46a2      	mov	sl, r4
    9e5a:	46ab      	mov	fp, r5
    9e5c:	bdf0      	pop	{r4, r5, r6, r7, pc}
    9e5e:	2800      	cmp	r0, #0
    9e60:	d0f2      	beq.n	9e48 <__gedf2+0x60>
    9e62:	2001      	movs	r0, #1
    9e64:	3b01      	subs	r3, #1
    9e66:	4318      	orrs	r0, r3
    9e68:	e7f3      	b.n	9e52 <__gedf2+0x6a>
    9e6a:	0037      	movs	r7, r6
    9e6c:	4307      	orrs	r7, r0
    9e6e:	d0d1      	beq.n	9e14 <__gedf2+0x2c>
    9e70:	2002      	movs	r0, #2
    9e72:	4240      	negs	r0, r0
    9e74:	e7ed      	b.n	9e52 <__gedf2+0x6a>
    9e76:	465f      	mov	r7, fp
    9e78:	4317      	orrs	r7, r2
    9e7a:	d0ce      	beq.n	9e1a <__gedf2+0x32>
    9e7c:	e7f8      	b.n	9e70 <__gedf2+0x88>
    9e7e:	42ac      	cmp	r4, r5
    9e80:	dce4      	bgt.n	9e4c <__gedf2+0x64>
    9e82:	da03      	bge.n	9e8c <__gedf2+0xa4>
    9e84:	1e48      	subs	r0, r1, #1
    9e86:	2101      	movs	r1, #1
    9e88:	4308      	orrs	r0, r1
    9e8a:	e7e2      	b.n	9e52 <__gedf2+0x6a>
    9e8c:	455e      	cmp	r6, fp
    9e8e:	d8dd      	bhi.n	9e4c <__gedf2+0x64>
    9e90:	d006      	beq.n	9ea0 <__gedf2+0xb8>
    9e92:	2000      	movs	r0, #0
    9e94:	455e      	cmp	r6, fp
    9e96:	d2dc      	bcs.n	9e52 <__gedf2+0x6a>
    9e98:	2301      	movs	r3, #1
    9e9a:	1e48      	subs	r0, r1, #1
    9e9c:	4318      	orrs	r0, r3
    9e9e:	e7d8      	b.n	9e52 <__gedf2+0x6a>
    9ea0:	45c4      	cmp	ip, r8
    9ea2:	d8d3      	bhi.n	9e4c <__gedf2+0x64>
    9ea4:	2000      	movs	r0, #0
    9ea6:	45c4      	cmp	ip, r8
    9ea8:	d3f6      	bcc.n	9e98 <__gedf2+0xb0>
    9eaa:	e7d2      	b.n	9e52 <__gedf2+0x6a>
    9eac:	000007ff 	.word	0x000007ff

00009eb0 <__ledf2>:
    9eb0:	b5f0      	push	{r4, r5, r6, r7, lr}
    9eb2:	464e      	mov	r6, r9
    9eb4:	4645      	mov	r5, r8
    9eb6:	46de      	mov	lr, fp
    9eb8:	4657      	mov	r7, sl
    9eba:	005c      	lsls	r4, r3, #1
    9ebc:	b5e0      	push	{r5, r6, r7, lr}
    9ebe:	031f      	lsls	r7, r3, #12
    9ec0:	0fdb      	lsrs	r3, r3, #31
    9ec2:	4699      	mov	r9, r3
    9ec4:	4b2a      	ldr	r3, [pc, #168]	; (9f70 <__ledf2+0xc0>)
    9ec6:	030e      	lsls	r6, r1, #12
    9ec8:	004d      	lsls	r5, r1, #1
    9eca:	0fc9      	lsrs	r1, r1, #31
    9ecc:	4684      	mov	ip, r0
    9ece:	0b36      	lsrs	r6, r6, #12
    9ed0:	0d6d      	lsrs	r5, r5, #21
    9ed2:	468b      	mov	fp, r1
    9ed4:	4690      	mov	r8, r2
    9ed6:	0b3f      	lsrs	r7, r7, #12
    9ed8:	0d64      	lsrs	r4, r4, #21
    9eda:	429d      	cmp	r5, r3
    9edc:	d020      	beq.n	9f20 <__ledf2+0x70>
    9ede:	4b24      	ldr	r3, [pc, #144]	; (9f70 <__ledf2+0xc0>)
    9ee0:	429c      	cmp	r4, r3
    9ee2:	d022      	beq.n	9f2a <__ledf2+0x7a>
    9ee4:	2d00      	cmp	r5, #0
    9ee6:	d112      	bne.n	9f0e <__ledf2+0x5e>
    9ee8:	4330      	orrs	r0, r6
    9eea:	4243      	negs	r3, r0
    9eec:	4143      	adcs	r3, r0
    9eee:	b2db      	uxtb	r3, r3
    9ef0:	2c00      	cmp	r4, #0
    9ef2:	d01f      	beq.n	9f34 <__ledf2+0x84>
    9ef4:	2b00      	cmp	r3, #0
    9ef6:	d00c      	beq.n	9f12 <__ledf2+0x62>
    9ef8:	464b      	mov	r3, r9
    9efa:	2001      	movs	r0, #1
    9efc:	3b01      	subs	r3, #1
    9efe:	4303      	orrs	r3, r0
    9f00:	0018      	movs	r0, r3
    9f02:	bc3c      	pop	{r2, r3, r4, r5}
    9f04:	4690      	mov	r8, r2
    9f06:	4699      	mov	r9, r3
    9f08:	46a2      	mov	sl, r4
    9f0a:	46ab      	mov	fp, r5
    9f0c:	bdf0      	pop	{r4, r5, r6, r7, pc}
    9f0e:	2c00      	cmp	r4, #0
    9f10:	d016      	beq.n	9f40 <__ledf2+0x90>
    9f12:	45cb      	cmp	fp, r9
    9f14:	d017      	beq.n	9f46 <__ledf2+0x96>
    9f16:	465b      	mov	r3, fp
    9f18:	4259      	negs	r1, r3
    9f1a:	2301      	movs	r3, #1
    9f1c:	430b      	orrs	r3, r1
    9f1e:	e7ef      	b.n	9f00 <__ledf2+0x50>
    9f20:	0031      	movs	r1, r6
    9f22:	2302      	movs	r3, #2
    9f24:	4301      	orrs	r1, r0
    9f26:	d1eb      	bne.n	9f00 <__ledf2+0x50>
    9f28:	e7d9      	b.n	9ede <__ledf2+0x2e>
    9f2a:	0039      	movs	r1, r7
    9f2c:	2302      	movs	r3, #2
    9f2e:	4311      	orrs	r1, r2
    9f30:	d1e6      	bne.n	9f00 <__ledf2+0x50>
    9f32:	e7d7      	b.n	9ee4 <__ledf2+0x34>
    9f34:	433a      	orrs	r2, r7
    9f36:	d1dd      	bne.n	9ef4 <__ledf2+0x44>
    9f38:	2300      	movs	r3, #0
    9f3a:	2800      	cmp	r0, #0
    9f3c:	d0e0      	beq.n	9f00 <__ledf2+0x50>
    9f3e:	e7ea      	b.n	9f16 <__ledf2+0x66>
    9f40:	433a      	orrs	r2, r7
    9f42:	d1e6      	bne.n	9f12 <__ledf2+0x62>
    9f44:	e7e7      	b.n	9f16 <__ledf2+0x66>
    9f46:	42a5      	cmp	r5, r4
    9f48:	dce5      	bgt.n	9f16 <__ledf2+0x66>
    9f4a:	db05      	blt.n	9f58 <__ledf2+0xa8>
    9f4c:	42be      	cmp	r6, r7
    9f4e:	d8e2      	bhi.n	9f16 <__ledf2+0x66>
    9f50:	d007      	beq.n	9f62 <__ledf2+0xb2>
    9f52:	2300      	movs	r3, #0
    9f54:	42be      	cmp	r6, r7
    9f56:	d2d3      	bcs.n	9f00 <__ledf2+0x50>
    9f58:	4659      	mov	r1, fp
    9f5a:	2301      	movs	r3, #1
    9f5c:	3901      	subs	r1, #1
    9f5e:	430b      	orrs	r3, r1
    9f60:	e7ce      	b.n	9f00 <__ledf2+0x50>
    9f62:	45c4      	cmp	ip, r8
    9f64:	d8d7      	bhi.n	9f16 <__ledf2+0x66>
    9f66:	2300      	movs	r3, #0
    9f68:	45c4      	cmp	ip, r8
    9f6a:	d3f5      	bcc.n	9f58 <__ledf2+0xa8>
    9f6c:	e7c8      	b.n	9f00 <__ledf2+0x50>
    9f6e:	46c0      	nop			; (mov r8, r8)
    9f70:	000007ff 	.word	0x000007ff

00009f74 <__aeabi_dmul>:
    9f74:	b5f0      	push	{r4, r5, r6, r7, lr}
    9f76:	4657      	mov	r7, sl
    9f78:	4645      	mov	r5, r8
    9f7a:	46de      	mov	lr, fp
    9f7c:	464e      	mov	r6, r9
    9f7e:	b5e0      	push	{r5, r6, r7, lr}
    9f80:	030c      	lsls	r4, r1, #12
    9f82:	4698      	mov	r8, r3
    9f84:	004e      	lsls	r6, r1, #1
    9f86:	0b23      	lsrs	r3, r4, #12
    9f88:	b087      	sub	sp, #28
    9f8a:	0007      	movs	r7, r0
    9f8c:	4692      	mov	sl, r2
    9f8e:	469b      	mov	fp, r3
    9f90:	0d76      	lsrs	r6, r6, #21
    9f92:	0fcd      	lsrs	r5, r1, #31
    9f94:	2e00      	cmp	r6, #0
    9f96:	d06b      	beq.n	a070 <__aeabi_dmul+0xfc>
    9f98:	4b6d      	ldr	r3, [pc, #436]	; (a150 <__aeabi_dmul+0x1dc>)
    9f9a:	429e      	cmp	r6, r3
    9f9c:	d035      	beq.n	a00a <__aeabi_dmul+0x96>
    9f9e:	2480      	movs	r4, #128	; 0x80
    9fa0:	465b      	mov	r3, fp
    9fa2:	0f42      	lsrs	r2, r0, #29
    9fa4:	0424      	lsls	r4, r4, #16
    9fa6:	00db      	lsls	r3, r3, #3
    9fa8:	4314      	orrs	r4, r2
    9faa:	431c      	orrs	r4, r3
    9fac:	00c3      	lsls	r3, r0, #3
    9fae:	4699      	mov	r9, r3
    9fb0:	4b68      	ldr	r3, [pc, #416]	; (a154 <__aeabi_dmul+0x1e0>)
    9fb2:	46a3      	mov	fp, r4
    9fb4:	469c      	mov	ip, r3
    9fb6:	2300      	movs	r3, #0
    9fb8:	2700      	movs	r7, #0
    9fba:	4466      	add	r6, ip
    9fbc:	9302      	str	r3, [sp, #8]
    9fbe:	4643      	mov	r3, r8
    9fc0:	031c      	lsls	r4, r3, #12
    9fc2:	005a      	lsls	r2, r3, #1
    9fc4:	0fdb      	lsrs	r3, r3, #31
    9fc6:	4650      	mov	r0, sl
    9fc8:	0b24      	lsrs	r4, r4, #12
    9fca:	0d52      	lsrs	r2, r2, #21
    9fcc:	4698      	mov	r8, r3
    9fce:	d100      	bne.n	9fd2 <__aeabi_dmul+0x5e>
    9fd0:	e076      	b.n	a0c0 <__aeabi_dmul+0x14c>
    9fd2:	4b5f      	ldr	r3, [pc, #380]	; (a150 <__aeabi_dmul+0x1dc>)
    9fd4:	429a      	cmp	r2, r3
    9fd6:	d06d      	beq.n	a0b4 <__aeabi_dmul+0x140>
    9fd8:	2380      	movs	r3, #128	; 0x80
    9fda:	0f41      	lsrs	r1, r0, #29
    9fdc:	041b      	lsls	r3, r3, #16
    9fde:	430b      	orrs	r3, r1
    9fe0:	495c      	ldr	r1, [pc, #368]	; (a154 <__aeabi_dmul+0x1e0>)
    9fe2:	00e4      	lsls	r4, r4, #3
    9fe4:	468c      	mov	ip, r1
    9fe6:	431c      	orrs	r4, r3
    9fe8:	00c3      	lsls	r3, r0, #3
    9fea:	2000      	movs	r0, #0
    9fec:	4462      	add	r2, ip
    9fee:	4641      	mov	r1, r8
    9ff0:	18b6      	adds	r6, r6, r2
    9ff2:	4069      	eors	r1, r5
    9ff4:	1c72      	adds	r2, r6, #1
    9ff6:	9101      	str	r1, [sp, #4]
    9ff8:	4694      	mov	ip, r2
    9ffa:	4307      	orrs	r7, r0
    9ffc:	2f0f      	cmp	r7, #15
    9ffe:	d900      	bls.n	a002 <__aeabi_dmul+0x8e>
    a000:	e0b0      	b.n	a164 <__aeabi_dmul+0x1f0>
    a002:	4a55      	ldr	r2, [pc, #340]	; (a158 <__aeabi_dmul+0x1e4>)
    a004:	00bf      	lsls	r7, r7, #2
    a006:	59d2      	ldr	r2, [r2, r7]
    a008:	4697      	mov	pc, r2
    a00a:	465b      	mov	r3, fp
    a00c:	4303      	orrs	r3, r0
    a00e:	4699      	mov	r9, r3
    a010:	d000      	beq.n	a014 <__aeabi_dmul+0xa0>
    a012:	e087      	b.n	a124 <__aeabi_dmul+0x1b0>
    a014:	2300      	movs	r3, #0
    a016:	469b      	mov	fp, r3
    a018:	3302      	adds	r3, #2
    a01a:	2708      	movs	r7, #8
    a01c:	9302      	str	r3, [sp, #8]
    a01e:	e7ce      	b.n	9fbe <__aeabi_dmul+0x4a>
    a020:	4642      	mov	r2, r8
    a022:	9201      	str	r2, [sp, #4]
    a024:	2802      	cmp	r0, #2
    a026:	d067      	beq.n	a0f8 <__aeabi_dmul+0x184>
    a028:	2803      	cmp	r0, #3
    a02a:	d100      	bne.n	a02e <__aeabi_dmul+0xba>
    a02c:	e20e      	b.n	a44c <__aeabi_dmul+0x4d8>
    a02e:	2801      	cmp	r0, #1
    a030:	d000      	beq.n	a034 <__aeabi_dmul+0xc0>
    a032:	e162      	b.n	a2fa <__aeabi_dmul+0x386>
    a034:	2300      	movs	r3, #0
    a036:	2400      	movs	r4, #0
    a038:	2200      	movs	r2, #0
    a03a:	4699      	mov	r9, r3
    a03c:	9901      	ldr	r1, [sp, #4]
    a03e:	4001      	ands	r1, r0
    a040:	b2cd      	uxtb	r5, r1
    a042:	2100      	movs	r1, #0
    a044:	0312      	lsls	r2, r2, #12
    a046:	0d0b      	lsrs	r3, r1, #20
    a048:	0b12      	lsrs	r2, r2, #12
    a04a:	051b      	lsls	r3, r3, #20
    a04c:	4313      	orrs	r3, r2
    a04e:	4a43      	ldr	r2, [pc, #268]	; (a15c <__aeabi_dmul+0x1e8>)
    a050:	0524      	lsls	r4, r4, #20
    a052:	4013      	ands	r3, r2
    a054:	431c      	orrs	r4, r3
    a056:	0064      	lsls	r4, r4, #1
    a058:	07ed      	lsls	r5, r5, #31
    a05a:	0864      	lsrs	r4, r4, #1
    a05c:	432c      	orrs	r4, r5
    a05e:	4648      	mov	r0, r9
    a060:	0021      	movs	r1, r4
    a062:	b007      	add	sp, #28
    a064:	bc3c      	pop	{r2, r3, r4, r5}
    a066:	4690      	mov	r8, r2
    a068:	4699      	mov	r9, r3
    a06a:	46a2      	mov	sl, r4
    a06c:	46ab      	mov	fp, r5
    a06e:	bdf0      	pop	{r4, r5, r6, r7, pc}
    a070:	4303      	orrs	r3, r0
    a072:	4699      	mov	r9, r3
    a074:	d04f      	beq.n	a116 <__aeabi_dmul+0x1a2>
    a076:	465b      	mov	r3, fp
    a078:	2b00      	cmp	r3, #0
    a07a:	d100      	bne.n	a07e <__aeabi_dmul+0x10a>
    a07c:	e189      	b.n	a392 <__aeabi_dmul+0x41e>
    a07e:	4658      	mov	r0, fp
    a080:	f7fe f808 	bl	8094 <__clzsi2>
    a084:	0003      	movs	r3, r0
    a086:	3b0b      	subs	r3, #11
    a088:	2b1c      	cmp	r3, #28
    a08a:	dd00      	ble.n	a08e <__aeabi_dmul+0x11a>
    a08c:	e17a      	b.n	a384 <__aeabi_dmul+0x410>
    a08e:	221d      	movs	r2, #29
    a090:	1ad3      	subs	r3, r2, r3
    a092:	003a      	movs	r2, r7
    a094:	0001      	movs	r1, r0
    a096:	465c      	mov	r4, fp
    a098:	40da      	lsrs	r2, r3
    a09a:	3908      	subs	r1, #8
    a09c:	408c      	lsls	r4, r1
    a09e:	0013      	movs	r3, r2
    a0a0:	408f      	lsls	r7, r1
    a0a2:	4323      	orrs	r3, r4
    a0a4:	469b      	mov	fp, r3
    a0a6:	46b9      	mov	r9, r7
    a0a8:	2300      	movs	r3, #0
    a0aa:	4e2d      	ldr	r6, [pc, #180]	; (a160 <__aeabi_dmul+0x1ec>)
    a0ac:	2700      	movs	r7, #0
    a0ae:	1a36      	subs	r6, r6, r0
    a0b0:	9302      	str	r3, [sp, #8]
    a0b2:	e784      	b.n	9fbe <__aeabi_dmul+0x4a>
    a0b4:	4653      	mov	r3, sl
    a0b6:	4323      	orrs	r3, r4
    a0b8:	d12a      	bne.n	a110 <__aeabi_dmul+0x19c>
    a0ba:	2400      	movs	r4, #0
    a0bc:	2002      	movs	r0, #2
    a0be:	e796      	b.n	9fee <__aeabi_dmul+0x7a>
    a0c0:	4653      	mov	r3, sl
    a0c2:	4323      	orrs	r3, r4
    a0c4:	d020      	beq.n	a108 <__aeabi_dmul+0x194>
    a0c6:	2c00      	cmp	r4, #0
    a0c8:	d100      	bne.n	a0cc <__aeabi_dmul+0x158>
    a0ca:	e157      	b.n	a37c <__aeabi_dmul+0x408>
    a0cc:	0020      	movs	r0, r4
    a0ce:	f7fd ffe1 	bl	8094 <__clzsi2>
    a0d2:	0003      	movs	r3, r0
    a0d4:	3b0b      	subs	r3, #11
    a0d6:	2b1c      	cmp	r3, #28
    a0d8:	dd00      	ble.n	a0dc <__aeabi_dmul+0x168>
    a0da:	e149      	b.n	a370 <__aeabi_dmul+0x3fc>
    a0dc:	211d      	movs	r1, #29
    a0de:	1acb      	subs	r3, r1, r3
    a0e0:	4651      	mov	r1, sl
    a0e2:	0002      	movs	r2, r0
    a0e4:	40d9      	lsrs	r1, r3
    a0e6:	4653      	mov	r3, sl
    a0e8:	3a08      	subs	r2, #8
    a0ea:	4094      	lsls	r4, r2
    a0ec:	4093      	lsls	r3, r2
    a0ee:	430c      	orrs	r4, r1
    a0f0:	4a1b      	ldr	r2, [pc, #108]	; (a160 <__aeabi_dmul+0x1ec>)
    a0f2:	1a12      	subs	r2, r2, r0
    a0f4:	2000      	movs	r0, #0
    a0f6:	e77a      	b.n	9fee <__aeabi_dmul+0x7a>
    a0f8:	2501      	movs	r5, #1
    a0fa:	9b01      	ldr	r3, [sp, #4]
    a0fc:	4c14      	ldr	r4, [pc, #80]	; (a150 <__aeabi_dmul+0x1dc>)
    a0fe:	401d      	ands	r5, r3
    a100:	2300      	movs	r3, #0
    a102:	2200      	movs	r2, #0
    a104:	4699      	mov	r9, r3
    a106:	e79c      	b.n	a042 <__aeabi_dmul+0xce>
    a108:	2400      	movs	r4, #0
    a10a:	2200      	movs	r2, #0
    a10c:	2001      	movs	r0, #1
    a10e:	e76e      	b.n	9fee <__aeabi_dmul+0x7a>
    a110:	4653      	mov	r3, sl
    a112:	2003      	movs	r0, #3
    a114:	e76b      	b.n	9fee <__aeabi_dmul+0x7a>
    a116:	2300      	movs	r3, #0
    a118:	469b      	mov	fp, r3
    a11a:	3301      	adds	r3, #1
    a11c:	2704      	movs	r7, #4
    a11e:	2600      	movs	r6, #0
    a120:	9302      	str	r3, [sp, #8]
    a122:	e74c      	b.n	9fbe <__aeabi_dmul+0x4a>
    a124:	2303      	movs	r3, #3
    a126:	4681      	mov	r9, r0
    a128:	270c      	movs	r7, #12
    a12a:	9302      	str	r3, [sp, #8]
    a12c:	e747      	b.n	9fbe <__aeabi_dmul+0x4a>
    a12e:	2280      	movs	r2, #128	; 0x80
    a130:	2300      	movs	r3, #0
    a132:	2500      	movs	r5, #0
    a134:	0312      	lsls	r2, r2, #12
    a136:	4699      	mov	r9, r3
    a138:	4c05      	ldr	r4, [pc, #20]	; (a150 <__aeabi_dmul+0x1dc>)
    a13a:	e782      	b.n	a042 <__aeabi_dmul+0xce>
    a13c:	465c      	mov	r4, fp
    a13e:	464b      	mov	r3, r9
    a140:	9802      	ldr	r0, [sp, #8]
    a142:	e76f      	b.n	a024 <__aeabi_dmul+0xb0>
    a144:	465c      	mov	r4, fp
    a146:	464b      	mov	r3, r9
    a148:	9501      	str	r5, [sp, #4]
    a14a:	9802      	ldr	r0, [sp, #8]
    a14c:	e76a      	b.n	a024 <__aeabi_dmul+0xb0>
    a14e:	46c0      	nop			; (mov r8, r8)
    a150:	000007ff 	.word	0x000007ff
    a154:	fffffc01 	.word	0xfffffc01
    a158:	0000ba6c 	.word	0x0000ba6c
    a15c:	800fffff 	.word	0x800fffff
    a160:	fffffc0d 	.word	0xfffffc0d
    a164:	464a      	mov	r2, r9
    a166:	4649      	mov	r1, r9
    a168:	0c17      	lsrs	r7, r2, #16
    a16a:	0c1a      	lsrs	r2, r3, #16
    a16c:	041b      	lsls	r3, r3, #16
    a16e:	0c1b      	lsrs	r3, r3, #16
    a170:	0408      	lsls	r0, r1, #16
    a172:	0019      	movs	r1, r3
    a174:	0c00      	lsrs	r0, r0, #16
    a176:	4341      	muls	r1, r0
    a178:	0015      	movs	r5, r2
    a17a:	4688      	mov	r8, r1
    a17c:	0019      	movs	r1, r3
    a17e:	437d      	muls	r5, r7
    a180:	4379      	muls	r1, r7
    a182:	9503      	str	r5, [sp, #12]
    a184:	4689      	mov	r9, r1
    a186:	0029      	movs	r1, r5
    a188:	0015      	movs	r5, r2
    a18a:	4345      	muls	r5, r0
    a18c:	444d      	add	r5, r9
    a18e:	9502      	str	r5, [sp, #8]
    a190:	4645      	mov	r5, r8
    a192:	0c2d      	lsrs	r5, r5, #16
    a194:	46aa      	mov	sl, r5
    a196:	9d02      	ldr	r5, [sp, #8]
    a198:	4455      	add	r5, sl
    a19a:	45a9      	cmp	r9, r5
    a19c:	d906      	bls.n	a1ac <__aeabi_dmul+0x238>
    a19e:	468a      	mov	sl, r1
    a1a0:	2180      	movs	r1, #128	; 0x80
    a1a2:	0249      	lsls	r1, r1, #9
    a1a4:	4689      	mov	r9, r1
    a1a6:	44ca      	add	sl, r9
    a1a8:	4651      	mov	r1, sl
    a1aa:	9103      	str	r1, [sp, #12]
    a1ac:	0c29      	lsrs	r1, r5, #16
    a1ae:	9104      	str	r1, [sp, #16]
    a1b0:	4641      	mov	r1, r8
    a1b2:	0409      	lsls	r1, r1, #16
    a1b4:	042d      	lsls	r5, r5, #16
    a1b6:	0c09      	lsrs	r1, r1, #16
    a1b8:	4688      	mov	r8, r1
    a1ba:	0029      	movs	r1, r5
    a1bc:	0c25      	lsrs	r5, r4, #16
    a1be:	0424      	lsls	r4, r4, #16
    a1c0:	4441      	add	r1, r8
    a1c2:	0c24      	lsrs	r4, r4, #16
    a1c4:	9105      	str	r1, [sp, #20]
    a1c6:	0021      	movs	r1, r4
    a1c8:	4341      	muls	r1, r0
    a1ca:	4688      	mov	r8, r1
    a1cc:	0021      	movs	r1, r4
    a1ce:	4379      	muls	r1, r7
    a1d0:	468a      	mov	sl, r1
    a1d2:	4368      	muls	r0, r5
    a1d4:	4641      	mov	r1, r8
    a1d6:	4450      	add	r0, sl
    a1d8:	4681      	mov	r9, r0
    a1da:	0c08      	lsrs	r0, r1, #16
    a1dc:	4448      	add	r0, r9
    a1de:	436f      	muls	r7, r5
    a1e0:	4582      	cmp	sl, r0
    a1e2:	d903      	bls.n	a1ec <__aeabi_dmul+0x278>
    a1e4:	2180      	movs	r1, #128	; 0x80
    a1e6:	0249      	lsls	r1, r1, #9
    a1e8:	4689      	mov	r9, r1
    a1ea:	444f      	add	r7, r9
    a1ec:	0c01      	lsrs	r1, r0, #16
    a1ee:	4689      	mov	r9, r1
    a1f0:	0039      	movs	r1, r7
    a1f2:	4449      	add	r1, r9
    a1f4:	9102      	str	r1, [sp, #8]
    a1f6:	4641      	mov	r1, r8
    a1f8:	040f      	lsls	r7, r1, #16
    a1fa:	9904      	ldr	r1, [sp, #16]
    a1fc:	0c3f      	lsrs	r7, r7, #16
    a1fe:	4688      	mov	r8, r1
    a200:	0400      	lsls	r0, r0, #16
    a202:	19c0      	adds	r0, r0, r7
    a204:	4480      	add	r8, r0
    a206:	4641      	mov	r1, r8
    a208:	9104      	str	r1, [sp, #16]
    a20a:	4659      	mov	r1, fp
    a20c:	0c0f      	lsrs	r7, r1, #16
    a20e:	0409      	lsls	r1, r1, #16
    a210:	0c09      	lsrs	r1, r1, #16
    a212:	4688      	mov	r8, r1
    a214:	4359      	muls	r1, r3
    a216:	468a      	mov	sl, r1
    a218:	0039      	movs	r1, r7
    a21a:	4351      	muls	r1, r2
    a21c:	4689      	mov	r9, r1
    a21e:	4641      	mov	r1, r8
    a220:	434a      	muls	r2, r1
    a222:	4651      	mov	r1, sl
    a224:	0c09      	lsrs	r1, r1, #16
    a226:	468b      	mov	fp, r1
    a228:	437b      	muls	r3, r7
    a22a:	18d2      	adds	r2, r2, r3
    a22c:	445a      	add	r2, fp
    a22e:	4293      	cmp	r3, r2
    a230:	d903      	bls.n	a23a <__aeabi_dmul+0x2c6>
    a232:	2380      	movs	r3, #128	; 0x80
    a234:	025b      	lsls	r3, r3, #9
    a236:	469b      	mov	fp, r3
    a238:	44d9      	add	r9, fp
    a23a:	4651      	mov	r1, sl
    a23c:	0409      	lsls	r1, r1, #16
    a23e:	0c09      	lsrs	r1, r1, #16
    a240:	468a      	mov	sl, r1
    a242:	4641      	mov	r1, r8
    a244:	4361      	muls	r1, r4
    a246:	437c      	muls	r4, r7
    a248:	0c13      	lsrs	r3, r2, #16
    a24a:	0412      	lsls	r2, r2, #16
    a24c:	444b      	add	r3, r9
    a24e:	4452      	add	r2, sl
    a250:	46a1      	mov	r9, r4
    a252:	468a      	mov	sl, r1
    a254:	003c      	movs	r4, r7
    a256:	4641      	mov	r1, r8
    a258:	436c      	muls	r4, r5
    a25a:	434d      	muls	r5, r1
    a25c:	4651      	mov	r1, sl
    a25e:	444d      	add	r5, r9
    a260:	0c0f      	lsrs	r7, r1, #16
    a262:	197d      	adds	r5, r7, r5
    a264:	45a9      	cmp	r9, r5
    a266:	d903      	bls.n	a270 <__aeabi_dmul+0x2fc>
    a268:	2180      	movs	r1, #128	; 0x80
    a26a:	0249      	lsls	r1, r1, #9
    a26c:	4688      	mov	r8, r1
    a26e:	4444      	add	r4, r8
    a270:	9f04      	ldr	r7, [sp, #16]
    a272:	9903      	ldr	r1, [sp, #12]
    a274:	46b8      	mov	r8, r7
    a276:	4441      	add	r1, r8
    a278:	468b      	mov	fp, r1
    a27a:	4583      	cmp	fp, r0
    a27c:	4180      	sbcs	r0, r0
    a27e:	4241      	negs	r1, r0
    a280:	4688      	mov	r8, r1
    a282:	4651      	mov	r1, sl
    a284:	0408      	lsls	r0, r1, #16
    a286:	042f      	lsls	r7, r5, #16
    a288:	0c00      	lsrs	r0, r0, #16
    a28a:	183f      	adds	r7, r7, r0
    a28c:	4658      	mov	r0, fp
    a28e:	9902      	ldr	r1, [sp, #8]
    a290:	1810      	adds	r0, r2, r0
    a292:	4689      	mov	r9, r1
    a294:	4290      	cmp	r0, r2
    a296:	4192      	sbcs	r2, r2
    a298:	444f      	add	r7, r9
    a29a:	46ba      	mov	sl, r7
    a29c:	4252      	negs	r2, r2
    a29e:	4699      	mov	r9, r3
    a2a0:	4693      	mov	fp, r2
    a2a2:	44c2      	add	sl, r8
    a2a4:	44d1      	add	r9, sl
    a2a6:	44cb      	add	fp, r9
    a2a8:	428f      	cmp	r7, r1
    a2aa:	41bf      	sbcs	r7, r7
    a2ac:	45c2      	cmp	sl, r8
    a2ae:	4189      	sbcs	r1, r1
    a2b0:	4599      	cmp	r9, r3
    a2b2:	419b      	sbcs	r3, r3
    a2b4:	4593      	cmp	fp, r2
    a2b6:	4192      	sbcs	r2, r2
    a2b8:	427f      	negs	r7, r7
    a2ba:	4249      	negs	r1, r1
    a2bc:	0c2d      	lsrs	r5, r5, #16
    a2be:	4252      	negs	r2, r2
    a2c0:	430f      	orrs	r7, r1
    a2c2:	425b      	negs	r3, r3
    a2c4:	4313      	orrs	r3, r2
    a2c6:	197f      	adds	r7, r7, r5
    a2c8:	18ff      	adds	r7, r7, r3
    a2ca:	465b      	mov	r3, fp
    a2cc:	193c      	adds	r4, r7, r4
    a2ce:	0ddb      	lsrs	r3, r3, #23
    a2d0:	9a05      	ldr	r2, [sp, #20]
    a2d2:	0264      	lsls	r4, r4, #9
    a2d4:	431c      	orrs	r4, r3
    a2d6:	0243      	lsls	r3, r0, #9
    a2d8:	4313      	orrs	r3, r2
    a2da:	1e5d      	subs	r5, r3, #1
    a2dc:	41ab      	sbcs	r3, r5
    a2de:	465a      	mov	r2, fp
    a2e0:	0dc0      	lsrs	r0, r0, #23
    a2e2:	4303      	orrs	r3, r0
    a2e4:	0252      	lsls	r2, r2, #9
    a2e6:	4313      	orrs	r3, r2
    a2e8:	01e2      	lsls	r2, r4, #7
    a2ea:	d556      	bpl.n	a39a <__aeabi_dmul+0x426>
    a2ec:	2001      	movs	r0, #1
    a2ee:	085a      	lsrs	r2, r3, #1
    a2f0:	4003      	ands	r3, r0
    a2f2:	4313      	orrs	r3, r2
    a2f4:	07e2      	lsls	r2, r4, #31
    a2f6:	4313      	orrs	r3, r2
    a2f8:	0864      	lsrs	r4, r4, #1
    a2fa:	485a      	ldr	r0, [pc, #360]	; (a464 <__aeabi_dmul+0x4f0>)
    a2fc:	4460      	add	r0, ip
    a2fe:	2800      	cmp	r0, #0
    a300:	dd4d      	ble.n	a39e <__aeabi_dmul+0x42a>
    a302:	075a      	lsls	r2, r3, #29
    a304:	d009      	beq.n	a31a <__aeabi_dmul+0x3a6>
    a306:	220f      	movs	r2, #15
    a308:	401a      	ands	r2, r3
    a30a:	2a04      	cmp	r2, #4
    a30c:	d005      	beq.n	a31a <__aeabi_dmul+0x3a6>
    a30e:	1d1a      	adds	r2, r3, #4
    a310:	429a      	cmp	r2, r3
    a312:	419b      	sbcs	r3, r3
    a314:	425b      	negs	r3, r3
    a316:	18e4      	adds	r4, r4, r3
    a318:	0013      	movs	r3, r2
    a31a:	01e2      	lsls	r2, r4, #7
    a31c:	d504      	bpl.n	a328 <__aeabi_dmul+0x3b4>
    a31e:	2080      	movs	r0, #128	; 0x80
    a320:	4a51      	ldr	r2, [pc, #324]	; (a468 <__aeabi_dmul+0x4f4>)
    a322:	00c0      	lsls	r0, r0, #3
    a324:	4014      	ands	r4, r2
    a326:	4460      	add	r0, ip
    a328:	4a50      	ldr	r2, [pc, #320]	; (a46c <__aeabi_dmul+0x4f8>)
    a32a:	4290      	cmp	r0, r2
    a32c:	dd00      	ble.n	a330 <__aeabi_dmul+0x3bc>
    a32e:	e6e3      	b.n	a0f8 <__aeabi_dmul+0x184>
    a330:	2501      	movs	r5, #1
    a332:	08db      	lsrs	r3, r3, #3
    a334:	0762      	lsls	r2, r4, #29
    a336:	431a      	orrs	r2, r3
    a338:	0264      	lsls	r4, r4, #9
    a33a:	9b01      	ldr	r3, [sp, #4]
    a33c:	4691      	mov	r9, r2
    a33e:	0b22      	lsrs	r2, r4, #12
    a340:	0544      	lsls	r4, r0, #21
    a342:	0d64      	lsrs	r4, r4, #21
    a344:	401d      	ands	r5, r3
    a346:	e67c      	b.n	a042 <__aeabi_dmul+0xce>
    a348:	2280      	movs	r2, #128	; 0x80
    a34a:	4659      	mov	r1, fp
    a34c:	0312      	lsls	r2, r2, #12
    a34e:	4211      	tst	r1, r2
    a350:	d008      	beq.n	a364 <__aeabi_dmul+0x3f0>
    a352:	4214      	tst	r4, r2
    a354:	d106      	bne.n	a364 <__aeabi_dmul+0x3f0>
    a356:	4322      	orrs	r2, r4
    a358:	0312      	lsls	r2, r2, #12
    a35a:	0b12      	lsrs	r2, r2, #12
    a35c:	4645      	mov	r5, r8
    a35e:	4699      	mov	r9, r3
    a360:	4c43      	ldr	r4, [pc, #268]	; (a470 <__aeabi_dmul+0x4fc>)
    a362:	e66e      	b.n	a042 <__aeabi_dmul+0xce>
    a364:	465b      	mov	r3, fp
    a366:	431a      	orrs	r2, r3
    a368:	0312      	lsls	r2, r2, #12
    a36a:	0b12      	lsrs	r2, r2, #12
    a36c:	4c40      	ldr	r4, [pc, #256]	; (a470 <__aeabi_dmul+0x4fc>)
    a36e:	e668      	b.n	a042 <__aeabi_dmul+0xce>
    a370:	0003      	movs	r3, r0
    a372:	4654      	mov	r4, sl
    a374:	3b28      	subs	r3, #40	; 0x28
    a376:	409c      	lsls	r4, r3
    a378:	2300      	movs	r3, #0
    a37a:	e6b9      	b.n	a0f0 <__aeabi_dmul+0x17c>
    a37c:	f7fd fe8a 	bl	8094 <__clzsi2>
    a380:	3020      	adds	r0, #32
    a382:	e6a6      	b.n	a0d2 <__aeabi_dmul+0x15e>
    a384:	0003      	movs	r3, r0
    a386:	3b28      	subs	r3, #40	; 0x28
    a388:	409f      	lsls	r7, r3
    a38a:	2300      	movs	r3, #0
    a38c:	46bb      	mov	fp, r7
    a38e:	4699      	mov	r9, r3
    a390:	e68a      	b.n	a0a8 <__aeabi_dmul+0x134>
    a392:	f7fd fe7f 	bl	8094 <__clzsi2>
    a396:	3020      	adds	r0, #32
    a398:	e674      	b.n	a084 <__aeabi_dmul+0x110>
    a39a:	46b4      	mov	ip, r6
    a39c:	e7ad      	b.n	a2fa <__aeabi_dmul+0x386>
    a39e:	2501      	movs	r5, #1
    a3a0:	1a2a      	subs	r2, r5, r0
    a3a2:	2a38      	cmp	r2, #56	; 0x38
    a3a4:	dd06      	ble.n	a3b4 <__aeabi_dmul+0x440>
    a3a6:	9b01      	ldr	r3, [sp, #4]
    a3a8:	2400      	movs	r4, #0
    a3aa:	401d      	ands	r5, r3
    a3ac:	2300      	movs	r3, #0
    a3ae:	2200      	movs	r2, #0
    a3b0:	4699      	mov	r9, r3
    a3b2:	e646      	b.n	a042 <__aeabi_dmul+0xce>
    a3b4:	2a1f      	cmp	r2, #31
    a3b6:	dc21      	bgt.n	a3fc <__aeabi_dmul+0x488>
    a3b8:	2520      	movs	r5, #32
    a3ba:	0020      	movs	r0, r4
    a3bc:	1aad      	subs	r5, r5, r2
    a3be:	001e      	movs	r6, r3
    a3c0:	40ab      	lsls	r3, r5
    a3c2:	40a8      	lsls	r0, r5
    a3c4:	40d6      	lsrs	r6, r2
    a3c6:	1e5d      	subs	r5, r3, #1
    a3c8:	41ab      	sbcs	r3, r5
    a3ca:	4330      	orrs	r0, r6
    a3cc:	4318      	orrs	r0, r3
    a3ce:	40d4      	lsrs	r4, r2
    a3d0:	0743      	lsls	r3, r0, #29
    a3d2:	d009      	beq.n	a3e8 <__aeabi_dmul+0x474>
    a3d4:	230f      	movs	r3, #15
    a3d6:	4003      	ands	r3, r0
    a3d8:	2b04      	cmp	r3, #4
    a3da:	d005      	beq.n	a3e8 <__aeabi_dmul+0x474>
    a3dc:	0003      	movs	r3, r0
    a3de:	1d18      	adds	r0, r3, #4
    a3e0:	4298      	cmp	r0, r3
    a3e2:	419b      	sbcs	r3, r3
    a3e4:	425b      	negs	r3, r3
    a3e6:	18e4      	adds	r4, r4, r3
    a3e8:	0223      	lsls	r3, r4, #8
    a3ea:	d521      	bpl.n	a430 <__aeabi_dmul+0x4bc>
    a3ec:	2501      	movs	r5, #1
    a3ee:	9b01      	ldr	r3, [sp, #4]
    a3f0:	2401      	movs	r4, #1
    a3f2:	401d      	ands	r5, r3
    a3f4:	2300      	movs	r3, #0
    a3f6:	2200      	movs	r2, #0
    a3f8:	4699      	mov	r9, r3
    a3fa:	e622      	b.n	a042 <__aeabi_dmul+0xce>
    a3fc:	251f      	movs	r5, #31
    a3fe:	0021      	movs	r1, r4
    a400:	426d      	negs	r5, r5
    a402:	1a28      	subs	r0, r5, r0
    a404:	40c1      	lsrs	r1, r0
    a406:	0008      	movs	r0, r1
    a408:	2a20      	cmp	r2, #32
    a40a:	d01d      	beq.n	a448 <__aeabi_dmul+0x4d4>
    a40c:	355f      	adds	r5, #95	; 0x5f
    a40e:	1aaa      	subs	r2, r5, r2
    a410:	4094      	lsls	r4, r2
    a412:	4323      	orrs	r3, r4
    a414:	1e5c      	subs	r4, r3, #1
    a416:	41a3      	sbcs	r3, r4
    a418:	2507      	movs	r5, #7
    a41a:	4303      	orrs	r3, r0
    a41c:	401d      	ands	r5, r3
    a41e:	2200      	movs	r2, #0
    a420:	2d00      	cmp	r5, #0
    a422:	d009      	beq.n	a438 <__aeabi_dmul+0x4c4>
    a424:	220f      	movs	r2, #15
    a426:	2400      	movs	r4, #0
    a428:	401a      	ands	r2, r3
    a42a:	0018      	movs	r0, r3
    a42c:	2a04      	cmp	r2, #4
    a42e:	d1d6      	bne.n	a3de <__aeabi_dmul+0x46a>
    a430:	0003      	movs	r3, r0
    a432:	0765      	lsls	r5, r4, #29
    a434:	0264      	lsls	r4, r4, #9
    a436:	0b22      	lsrs	r2, r4, #12
    a438:	08db      	lsrs	r3, r3, #3
    a43a:	432b      	orrs	r3, r5
    a43c:	2501      	movs	r5, #1
    a43e:	4699      	mov	r9, r3
    a440:	9b01      	ldr	r3, [sp, #4]
    a442:	2400      	movs	r4, #0
    a444:	401d      	ands	r5, r3
    a446:	e5fc      	b.n	a042 <__aeabi_dmul+0xce>
    a448:	2400      	movs	r4, #0
    a44a:	e7e2      	b.n	a412 <__aeabi_dmul+0x49e>
    a44c:	2280      	movs	r2, #128	; 0x80
    a44e:	2501      	movs	r5, #1
    a450:	0312      	lsls	r2, r2, #12
    a452:	4322      	orrs	r2, r4
    a454:	9901      	ldr	r1, [sp, #4]
    a456:	0312      	lsls	r2, r2, #12
    a458:	0b12      	lsrs	r2, r2, #12
    a45a:	400d      	ands	r5, r1
    a45c:	4699      	mov	r9, r3
    a45e:	4c04      	ldr	r4, [pc, #16]	; (a470 <__aeabi_dmul+0x4fc>)
    a460:	e5ef      	b.n	a042 <__aeabi_dmul+0xce>
    a462:	46c0      	nop			; (mov r8, r8)
    a464:	000003ff 	.word	0x000003ff
    a468:	feffffff 	.word	0xfeffffff
    a46c:	000007fe 	.word	0x000007fe
    a470:	000007ff 	.word	0x000007ff

0000a474 <__aeabi_dsub>:
    a474:	b5f0      	push	{r4, r5, r6, r7, lr}
    a476:	4646      	mov	r6, r8
    a478:	46d6      	mov	lr, sl
    a47a:	464f      	mov	r7, r9
    a47c:	030c      	lsls	r4, r1, #12
    a47e:	b5c0      	push	{r6, r7, lr}
    a480:	0fcd      	lsrs	r5, r1, #31
    a482:	004e      	lsls	r6, r1, #1
    a484:	0a61      	lsrs	r1, r4, #9
    a486:	0f44      	lsrs	r4, r0, #29
    a488:	430c      	orrs	r4, r1
    a48a:	00c1      	lsls	r1, r0, #3
    a48c:	0058      	lsls	r0, r3, #1
    a48e:	0d40      	lsrs	r0, r0, #21
    a490:	4684      	mov	ip, r0
    a492:	468a      	mov	sl, r1
    a494:	000f      	movs	r7, r1
    a496:	0319      	lsls	r1, r3, #12
    a498:	0f50      	lsrs	r0, r2, #29
    a49a:	0a49      	lsrs	r1, r1, #9
    a49c:	4301      	orrs	r1, r0
    a49e:	48c6      	ldr	r0, [pc, #792]	; (a7b8 <__aeabi_dsub+0x344>)
    a4a0:	0d76      	lsrs	r6, r6, #21
    a4a2:	46a8      	mov	r8, r5
    a4a4:	0fdb      	lsrs	r3, r3, #31
    a4a6:	00d2      	lsls	r2, r2, #3
    a4a8:	4584      	cmp	ip, r0
    a4aa:	d100      	bne.n	a4ae <__aeabi_dsub+0x3a>
    a4ac:	e0d8      	b.n	a660 <__aeabi_dsub+0x1ec>
    a4ae:	2001      	movs	r0, #1
    a4b0:	4043      	eors	r3, r0
    a4b2:	42ab      	cmp	r3, r5
    a4b4:	d100      	bne.n	a4b8 <__aeabi_dsub+0x44>
    a4b6:	e0a6      	b.n	a606 <__aeabi_dsub+0x192>
    a4b8:	4660      	mov	r0, ip
    a4ba:	1a35      	subs	r5, r6, r0
    a4bc:	2d00      	cmp	r5, #0
    a4be:	dc00      	bgt.n	a4c2 <__aeabi_dsub+0x4e>
    a4c0:	e105      	b.n	a6ce <__aeabi_dsub+0x25a>
    a4c2:	2800      	cmp	r0, #0
    a4c4:	d110      	bne.n	a4e8 <__aeabi_dsub+0x74>
    a4c6:	000b      	movs	r3, r1
    a4c8:	4313      	orrs	r3, r2
    a4ca:	d100      	bne.n	a4ce <__aeabi_dsub+0x5a>
    a4cc:	e0d7      	b.n	a67e <__aeabi_dsub+0x20a>
    a4ce:	1e6b      	subs	r3, r5, #1
    a4d0:	2b00      	cmp	r3, #0
    a4d2:	d000      	beq.n	a4d6 <__aeabi_dsub+0x62>
    a4d4:	e14b      	b.n	a76e <__aeabi_dsub+0x2fa>
    a4d6:	4653      	mov	r3, sl
    a4d8:	1a9f      	subs	r7, r3, r2
    a4da:	45ba      	cmp	sl, r7
    a4dc:	4180      	sbcs	r0, r0
    a4de:	1a64      	subs	r4, r4, r1
    a4e0:	4240      	negs	r0, r0
    a4e2:	1a24      	subs	r4, r4, r0
    a4e4:	2601      	movs	r6, #1
    a4e6:	e01e      	b.n	a526 <__aeabi_dsub+0xb2>
    a4e8:	4bb3      	ldr	r3, [pc, #716]	; (a7b8 <__aeabi_dsub+0x344>)
    a4ea:	429e      	cmp	r6, r3
    a4ec:	d048      	beq.n	a580 <__aeabi_dsub+0x10c>
    a4ee:	2380      	movs	r3, #128	; 0x80
    a4f0:	041b      	lsls	r3, r3, #16
    a4f2:	4319      	orrs	r1, r3
    a4f4:	2d38      	cmp	r5, #56	; 0x38
    a4f6:	dd00      	ble.n	a4fa <__aeabi_dsub+0x86>
    a4f8:	e119      	b.n	a72e <__aeabi_dsub+0x2ba>
    a4fa:	2d1f      	cmp	r5, #31
    a4fc:	dd00      	ble.n	a500 <__aeabi_dsub+0x8c>
    a4fe:	e14c      	b.n	a79a <__aeabi_dsub+0x326>
    a500:	2320      	movs	r3, #32
    a502:	000f      	movs	r7, r1
    a504:	1b5b      	subs	r3, r3, r5
    a506:	0010      	movs	r0, r2
    a508:	409a      	lsls	r2, r3
    a50a:	409f      	lsls	r7, r3
    a50c:	40e8      	lsrs	r0, r5
    a50e:	1e53      	subs	r3, r2, #1
    a510:	419a      	sbcs	r2, r3
    a512:	40e9      	lsrs	r1, r5
    a514:	4307      	orrs	r7, r0
    a516:	4317      	orrs	r7, r2
    a518:	4653      	mov	r3, sl
    a51a:	1bdf      	subs	r7, r3, r7
    a51c:	1a61      	subs	r1, r4, r1
    a51e:	45ba      	cmp	sl, r7
    a520:	41a4      	sbcs	r4, r4
    a522:	4264      	negs	r4, r4
    a524:	1b0c      	subs	r4, r1, r4
    a526:	0223      	lsls	r3, r4, #8
    a528:	d400      	bmi.n	a52c <__aeabi_dsub+0xb8>
    a52a:	e0c5      	b.n	a6b8 <__aeabi_dsub+0x244>
    a52c:	0264      	lsls	r4, r4, #9
    a52e:	0a65      	lsrs	r5, r4, #9
    a530:	2d00      	cmp	r5, #0
    a532:	d100      	bne.n	a536 <__aeabi_dsub+0xc2>
    a534:	e0f6      	b.n	a724 <__aeabi_dsub+0x2b0>
    a536:	0028      	movs	r0, r5
    a538:	f7fd fdac 	bl	8094 <__clzsi2>
    a53c:	0003      	movs	r3, r0
    a53e:	3b08      	subs	r3, #8
    a540:	2b1f      	cmp	r3, #31
    a542:	dd00      	ble.n	a546 <__aeabi_dsub+0xd2>
    a544:	e0e9      	b.n	a71a <__aeabi_dsub+0x2a6>
    a546:	2220      	movs	r2, #32
    a548:	003c      	movs	r4, r7
    a54a:	1ad2      	subs	r2, r2, r3
    a54c:	409d      	lsls	r5, r3
    a54e:	40d4      	lsrs	r4, r2
    a550:	409f      	lsls	r7, r3
    a552:	4325      	orrs	r5, r4
    a554:	429e      	cmp	r6, r3
    a556:	dd00      	ble.n	a55a <__aeabi_dsub+0xe6>
    a558:	e0db      	b.n	a712 <__aeabi_dsub+0x29e>
    a55a:	1b9e      	subs	r6, r3, r6
    a55c:	1c73      	adds	r3, r6, #1
    a55e:	2b1f      	cmp	r3, #31
    a560:	dd00      	ble.n	a564 <__aeabi_dsub+0xf0>
    a562:	e10a      	b.n	a77a <__aeabi_dsub+0x306>
    a564:	2220      	movs	r2, #32
    a566:	0038      	movs	r0, r7
    a568:	1ad2      	subs	r2, r2, r3
    a56a:	0029      	movs	r1, r5
    a56c:	4097      	lsls	r7, r2
    a56e:	002c      	movs	r4, r5
    a570:	4091      	lsls	r1, r2
    a572:	40d8      	lsrs	r0, r3
    a574:	1e7a      	subs	r2, r7, #1
    a576:	4197      	sbcs	r7, r2
    a578:	40dc      	lsrs	r4, r3
    a57a:	2600      	movs	r6, #0
    a57c:	4301      	orrs	r1, r0
    a57e:	430f      	orrs	r7, r1
    a580:	077b      	lsls	r3, r7, #29
    a582:	d009      	beq.n	a598 <__aeabi_dsub+0x124>
    a584:	230f      	movs	r3, #15
    a586:	403b      	ands	r3, r7
    a588:	2b04      	cmp	r3, #4
    a58a:	d005      	beq.n	a598 <__aeabi_dsub+0x124>
    a58c:	1d3b      	adds	r3, r7, #4
    a58e:	42bb      	cmp	r3, r7
    a590:	41bf      	sbcs	r7, r7
    a592:	427f      	negs	r7, r7
    a594:	19e4      	adds	r4, r4, r7
    a596:	001f      	movs	r7, r3
    a598:	0223      	lsls	r3, r4, #8
    a59a:	d525      	bpl.n	a5e8 <__aeabi_dsub+0x174>
    a59c:	4b86      	ldr	r3, [pc, #536]	; (a7b8 <__aeabi_dsub+0x344>)
    a59e:	3601      	adds	r6, #1
    a5a0:	429e      	cmp	r6, r3
    a5a2:	d100      	bne.n	a5a6 <__aeabi_dsub+0x132>
    a5a4:	e0af      	b.n	a706 <__aeabi_dsub+0x292>
    a5a6:	4b85      	ldr	r3, [pc, #532]	; (a7bc <__aeabi_dsub+0x348>)
    a5a8:	2501      	movs	r5, #1
    a5aa:	401c      	ands	r4, r3
    a5ac:	4643      	mov	r3, r8
    a5ae:	0762      	lsls	r2, r4, #29
    a5b0:	08ff      	lsrs	r7, r7, #3
    a5b2:	0264      	lsls	r4, r4, #9
    a5b4:	0576      	lsls	r6, r6, #21
    a5b6:	4317      	orrs	r7, r2
    a5b8:	0b24      	lsrs	r4, r4, #12
    a5ba:	0d76      	lsrs	r6, r6, #21
    a5bc:	401d      	ands	r5, r3
    a5be:	2100      	movs	r1, #0
    a5c0:	0324      	lsls	r4, r4, #12
    a5c2:	0b23      	lsrs	r3, r4, #12
    a5c4:	0d0c      	lsrs	r4, r1, #20
    a5c6:	4a7e      	ldr	r2, [pc, #504]	; (a7c0 <__aeabi_dsub+0x34c>)
    a5c8:	0524      	lsls	r4, r4, #20
    a5ca:	431c      	orrs	r4, r3
    a5cc:	4014      	ands	r4, r2
    a5ce:	0533      	lsls	r3, r6, #20
    a5d0:	4323      	orrs	r3, r4
    a5d2:	005b      	lsls	r3, r3, #1
    a5d4:	07ed      	lsls	r5, r5, #31
    a5d6:	085b      	lsrs	r3, r3, #1
    a5d8:	432b      	orrs	r3, r5
    a5da:	0038      	movs	r0, r7
    a5dc:	0019      	movs	r1, r3
    a5de:	bc1c      	pop	{r2, r3, r4}
    a5e0:	4690      	mov	r8, r2
    a5e2:	4699      	mov	r9, r3
    a5e4:	46a2      	mov	sl, r4
    a5e6:	bdf0      	pop	{r4, r5, r6, r7, pc}
    a5e8:	2501      	movs	r5, #1
    a5ea:	4643      	mov	r3, r8
    a5ec:	0762      	lsls	r2, r4, #29
    a5ee:	08ff      	lsrs	r7, r7, #3
    a5f0:	4317      	orrs	r7, r2
    a5f2:	08e4      	lsrs	r4, r4, #3
    a5f4:	401d      	ands	r5, r3
    a5f6:	4b70      	ldr	r3, [pc, #448]	; (a7b8 <__aeabi_dsub+0x344>)
    a5f8:	429e      	cmp	r6, r3
    a5fa:	d036      	beq.n	a66a <__aeabi_dsub+0x1f6>
    a5fc:	0324      	lsls	r4, r4, #12
    a5fe:	0576      	lsls	r6, r6, #21
    a600:	0b24      	lsrs	r4, r4, #12
    a602:	0d76      	lsrs	r6, r6, #21
    a604:	e7db      	b.n	a5be <__aeabi_dsub+0x14a>
    a606:	4663      	mov	r3, ip
    a608:	1af3      	subs	r3, r6, r3
    a60a:	2b00      	cmp	r3, #0
    a60c:	dc00      	bgt.n	a610 <__aeabi_dsub+0x19c>
    a60e:	e094      	b.n	a73a <__aeabi_dsub+0x2c6>
    a610:	4660      	mov	r0, ip
    a612:	2800      	cmp	r0, #0
    a614:	d035      	beq.n	a682 <__aeabi_dsub+0x20e>
    a616:	4868      	ldr	r0, [pc, #416]	; (a7b8 <__aeabi_dsub+0x344>)
    a618:	4286      	cmp	r6, r0
    a61a:	d0b1      	beq.n	a580 <__aeabi_dsub+0x10c>
    a61c:	2780      	movs	r7, #128	; 0x80
    a61e:	043f      	lsls	r7, r7, #16
    a620:	4339      	orrs	r1, r7
    a622:	2b38      	cmp	r3, #56	; 0x38
    a624:	dc00      	bgt.n	a628 <__aeabi_dsub+0x1b4>
    a626:	e0fd      	b.n	a824 <__aeabi_dsub+0x3b0>
    a628:	430a      	orrs	r2, r1
    a62a:	0017      	movs	r7, r2
    a62c:	2100      	movs	r1, #0
    a62e:	1e7a      	subs	r2, r7, #1
    a630:	4197      	sbcs	r7, r2
    a632:	4457      	add	r7, sl
    a634:	4557      	cmp	r7, sl
    a636:	4180      	sbcs	r0, r0
    a638:	1909      	adds	r1, r1, r4
    a63a:	4244      	negs	r4, r0
    a63c:	190c      	adds	r4, r1, r4
    a63e:	0223      	lsls	r3, r4, #8
    a640:	d53a      	bpl.n	a6b8 <__aeabi_dsub+0x244>
    a642:	4b5d      	ldr	r3, [pc, #372]	; (a7b8 <__aeabi_dsub+0x344>)
    a644:	3601      	adds	r6, #1
    a646:	429e      	cmp	r6, r3
    a648:	d100      	bne.n	a64c <__aeabi_dsub+0x1d8>
    a64a:	e14b      	b.n	a8e4 <__aeabi_dsub+0x470>
    a64c:	2201      	movs	r2, #1
    a64e:	4b5b      	ldr	r3, [pc, #364]	; (a7bc <__aeabi_dsub+0x348>)
    a650:	401c      	ands	r4, r3
    a652:	087b      	lsrs	r3, r7, #1
    a654:	4017      	ands	r7, r2
    a656:	431f      	orrs	r7, r3
    a658:	07e2      	lsls	r2, r4, #31
    a65a:	4317      	orrs	r7, r2
    a65c:	0864      	lsrs	r4, r4, #1
    a65e:	e78f      	b.n	a580 <__aeabi_dsub+0x10c>
    a660:	0008      	movs	r0, r1
    a662:	4310      	orrs	r0, r2
    a664:	d000      	beq.n	a668 <__aeabi_dsub+0x1f4>
    a666:	e724      	b.n	a4b2 <__aeabi_dsub+0x3e>
    a668:	e721      	b.n	a4ae <__aeabi_dsub+0x3a>
    a66a:	0023      	movs	r3, r4
    a66c:	433b      	orrs	r3, r7
    a66e:	d100      	bne.n	a672 <__aeabi_dsub+0x1fe>
    a670:	e1b9      	b.n	a9e6 <__aeabi_dsub+0x572>
    a672:	2280      	movs	r2, #128	; 0x80
    a674:	0312      	lsls	r2, r2, #12
    a676:	4314      	orrs	r4, r2
    a678:	0324      	lsls	r4, r4, #12
    a67a:	0b24      	lsrs	r4, r4, #12
    a67c:	e79f      	b.n	a5be <__aeabi_dsub+0x14a>
    a67e:	002e      	movs	r6, r5
    a680:	e77e      	b.n	a580 <__aeabi_dsub+0x10c>
    a682:	0008      	movs	r0, r1
    a684:	4310      	orrs	r0, r2
    a686:	d100      	bne.n	a68a <__aeabi_dsub+0x216>
    a688:	e0ca      	b.n	a820 <__aeabi_dsub+0x3ac>
    a68a:	1e58      	subs	r0, r3, #1
    a68c:	4684      	mov	ip, r0
    a68e:	2800      	cmp	r0, #0
    a690:	d000      	beq.n	a694 <__aeabi_dsub+0x220>
    a692:	e0e7      	b.n	a864 <__aeabi_dsub+0x3f0>
    a694:	4452      	add	r2, sl
    a696:	4552      	cmp	r2, sl
    a698:	4180      	sbcs	r0, r0
    a69a:	1864      	adds	r4, r4, r1
    a69c:	4240      	negs	r0, r0
    a69e:	1824      	adds	r4, r4, r0
    a6a0:	0017      	movs	r7, r2
    a6a2:	2601      	movs	r6, #1
    a6a4:	0223      	lsls	r3, r4, #8
    a6a6:	d507      	bpl.n	a6b8 <__aeabi_dsub+0x244>
    a6a8:	2602      	movs	r6, #2
    a6aa:	e7cf      	b.n	a64c <__aeabi_dsub+0x1d8>
    a6ac:	4664      	mov	r4, ip
    a6ae:	432c      	orrs	r4, r5
    a6b0:	d100      	bne.n	a6b4 <__aeabi_dsub+0x240>
    a6b2:	e1b3      	b.n	aa1c <__aeabi_dsub+0x5a8>
    a6b4:	002c      	movs	r4, r5
    a6b6:	4667      	mov	r7, ip
    a6b8:	077b      	lsls	r3, r7, #29
    a6ba:	d000      	beq.n	a6be <__aeabi_dsub+0x24a>
    a6bc:	e762      	b.n	a584 <__aeabi_dsub+0x110>
    a6be:	0763      	lsls	r3, r4, #29
    a6c0:	08ff      	lsrs	r7, r7, #3
    a6c2:	431f      	orrs	r7, r3
    a6c4:	2501      	movs	r5, #1
    a6c6:	4643      	mov	r3, r8
    a6c8:	08e4      	lsrs	r4, r4, #3
    a6ca:	401d      	ands	r5, r3
    a6cc:	e793      	b.n	a5f6 <__aeabi_dsub+0x182>
    a6ce:	2d00      	cmp	r5, #0
    a6d0:	d178      	bne.n	a7c4 <__aeabi_dsub+0x350>
    a6d2:	1c75      	adds	r5, r6, #1
    a6d4:	056d      	lsls	r5, r5, #21
    a6d6:	0d6d      	lsrs	r5, r5, #21
    a6d8:	2d01      	cmp	r5, #1
    a6da:	dc00      	bgt.n	a6de <__aeabi_dsub+0x26a>
    a6dc:	e0f2      	b.n	a8c4 <__aeabi_dsub+0x450>
    a6de:	4650      	mov	r0, sl
    a6e0:	1a80      	subs	r0, r0, r2
    a6e2:	4582      	cmp	sl, r0
    a6e4:	41bf      	sbcs	r7, r7
    a6e6:	1a65      	subs	r5, r4, r1
    a6e8:	427f      	negs	r7, r7
    a6ea:	1bed      	subs	r5, r5, r7
    a6ec:	4684      	mov	ip, r0
    a6ee:	0228      	lsls	r0, r5, #8
    a6f0:	d400      	bmi.n	a6f4 <__aeabi_dsub+0x280>
    a6f2:	e08c      	b.n	a80e <__aeabi_dsub+0x39a>
    a6f4:	4650      	mov	r0, sl
    a6f6:	1a17      	subs	r7, r2, r0
    a6f8:	42ba      	cmp	r2, r7
    a6fa:	4192      	sbcs	r2, r2
    a6fc:	1b0c      	subs	r4, r1, r4
    a6fe:	4255      	negs	r5, r2
    a700:	1b65      	subs	r5, r4, r5
    a702:	4698      	mov	r8, r3
    a704:	e714      	b.n	a530 <__aeabi_dsub+0xbc>
    a706:	2501      	movs	r5, #1
    a708:	4643      	mov	r3, r8
    a70a:	2400      	movs	r4, #0
    a70c:	401d      	ands	r5, r3
    a70e:	2700      	movs	r7, #0
    a710:	e755      	b.n	a5be <__aeabi_dsub+0x14a>
    a712:	4c2a      	ldr	r4, [pc, #168]	; (a7bc <__aeabi_dsub+0x348>)
    a714:	1af6      	subs	r6, r6, r3
    a716:	402c      	ands	r4, r5
    a718:	e732      	b.n	a580 <__aeabi_dsub+0x10c>
    a71a:	003d      	movs	r5, r7
    a71c:	3828      	subs	r0, #40	; 0x28
    a71e:	4085      	lsls	r5, r0
    a720:	2700      	movs	r7, #0
    a722:	e717      	b.n	a554 <__aeabi_dsub+0xe0>
    a724:	0038      	movs	r0, r7
    a726:	f7fd fcb5 	bl	8094 <__clzsi2>
    a72a:	3020      	adds	r0, #32
    a72c:	e706      	b.n	a53c <__aeabi_dsub+0xc8>
    a72e:	430a      	orrs	r2, r1
    a730:	0017      	movs	r7, r2
    a732:	2100      	movs	r1, #0
    a734:	1e7a      	subs	r2, r7, #1
    a736:	4197      	sbcs	r7, r2
    a738:	e6ee      	b.n	a518 <__aeabi_dsub+0xa4>
    a73a:	2b00      	cmp	r3, #0
    a73c:	d000      	beq.n	a740 <__aeabi_dsub+0x2cc>
    a73e:	e0e5      	b.n	a90c <__aeabi_dsub+0x498>
    a740:	1c73      	adds	r3, r6, #1
    a742:	469c      	mov	ip, r3
    a744:	055b      	lsls	r3, r3, #21
    a746:	0d5b      	lsrs	r3, r3, #21
    a748:	2b01      	cmp	r3, #1
    a74a:	dc00      	bgt.n	a74e <__aeabi_dsub+0x2da>
    a74c:	e09f      	b.n	a88e <__aeabi_dsub+0x41a>
    a74e:	4b1a      	ldr	r3, [pc, #104]	; (a7b8 <__aeabi_dsub+0x344>)
    a750:	459c      	cmp	ip, r3
    a752:	d100      	bne.n	a756 <__aeabi_dsub+0x2e2>
    a754:	e0c5      	b.n	a8e2 <__aeabi_dsub+0x46e>
    a756:	4452      	add	r2, sl
    a758:	4552      	cmp	r2, sl
    a75a:	4180      	sbcs	r0, r0
    a75c:	1864      	adds	r4, r4, r1
    a75e:	4240      	negs	r0, r0
    a760:	1824      	adds	r4, r4, r0
    a762:	07e7      	lsls	r7, r4, #31
    a764:	0852      	lsrs	r2, r2, #1
    a766:	4317      	orrs	r7, r2
    a768:	0864      	lsrs	r4, r4, #1
    a76a:	4666      	mov	r6, ip
    a76c:	e708      	b.n	a580 <__aeabi_dsub+0x10c>
    a76e:	4812      	ldr	r0, [pc, #72]	; (a7b8 <__aeabi_dsub+0x344>)
    a770:	4285      	cmp	r5, r0
    a772:	d100      	bne.n	a776 <__aeabi_dsub+0x302>
    a774:	e085      	b.n	a882 <__aeabi_dsub+0x40e>
    a776:	001d      	movs	r5, r3
    a778:	e6bc      	b.n	a4f4 <__aeabi_dsub+0x80>
    a77a:	0029      	movs	r1, r5
    a77c:	3e1f      	subs	r6, #31
    a77e:	40f1      	lsrs	r1, r6
    a780:	2b20      	cmp	r3, #32
    a782:	d100      	bne.n	a786 <__aeabi_dsub+0x312>
    a784:	e07f      	b.n	a886 <__aeabi_dsub+0x412>
    a786:	2240      	movs	r2, #64	; 0x40
    a788:	1ad3      	subs	r3, r2, r3
    a78a:	409d      	lsls	r5, r3
    a78c:	432f      	orrs	r7, r5
    a78e:	1e7d      	subs	r5, r7, #1
    a790:	41af      	sbcs	r7, r5
    a792:	2400      	movs	r4, #0
    a794:	430f      	orrs	r7, r1
    a796:	2600      	movs	r6, #0
    a798:	e78e      	b.n	a6b8 <__aeabi_dsub+0x244>
    a79a:	002b      	movs	r3, r5
    a79c:	000f      	movs	r7, r1
    a79e:	3b20      	subs	r3, #32
    a7a0:	40df      	lsrs	r7, r3
    a7a2:	2d20      	cmp	r5, #32
    a7a4:	d071      	beq.n	a88a <__aeabi_dsub+0x416>
    a7a6:	2340      	movs	r3, #64	; 0x40
    a7a8:	1b5d      	subs	r5, r3, r5
    a7aa:	40a9      	lsls	r1, r5
    a7ac:	430a      	orrs	r2, r1
    a7ae:	1e51      	subs	r1, r2, #1
    a7b0:	418a      	sbcs	r2, r1
    a7b2:	2100      	movs	r1, #0
    a7b4:	4317      	orrs	r7, r2
    a7b6:	e6af      	b.n	a518 <__aeabi_dsub+0xa4>
    a7b8:	000007ff 	.word	0x000007ff
    a7bc:	ff7fffff 	.word	0xff7fffff
    a7c0:	800fffff 	.word	0x800fffff
    a7c4:	2e00      	cmp	r6, #0
    a7c6:	d03e      	beq.n	a846 <__aeabi_dsub+0x3d2>
    a7c8:	4eb3      	ldr	r6, [pc, #716]	; (aa98 <__aeabi_dsub+0x624>)
    a7ca:	45b4      	cmp	ip, r6
    a7cc:	d045      	beq.n	a85a <__aeabi_dsub+0x3e6>
    a7ce:	2680      	movs	r6, #128	; 0x80
    a7d0:	0436      	lsls	r6, r6, #16
    a7d2:	426d      	negs	r5, r5
    a7d4:	4334      	orrs	r4, r6
    a7d6:	2d38      	cmp	r5, #56	; 0x38
    a7d8:	dd00      	ble.n	a7dc <__aeabi_dsub+0x368>
    a7da:	e0a8      	b.n	a92e <__aeabi_dsub+0x4ba>
    a7dc:	2d1f      	cmp	r5, #31
    a7de:	dd00      	ble.n	a7e2 <__aeabi_dsub+0x36e>
    a7e0:	e11f      	b.n	aa22 <__aeabi_dsub+0x5ae>
    a7e2:	2620      	movs	r6, #32
    a7e4:	0027      	movs	r7, r4
    a7e6:	4650      	mov	r0, sl
    a7e8:	1b76      	subs	r6, r6, r5
    a7ea:	40b7      	lsls	r7, r6
    a7ec:	40e8      	lsrs	r0, r5
    a7ee:	4307      	orrs	r7, r0
    a7f0:	4650      	mov	r0, sl
    a7f2:	40b0      	lsls	r0, r6
    a7f4:	1e46      	subs	r6, r0, #1
    a7f6:	41b0      	sbcs	r0, r6
    a7f8:	40ec      	lsrs	r4, r5
    a7fa:	4338      	orrs	r0, r7
    a7fc:	1a17      	subs	r7, r2, r0
    a7fe:	42ba      	cmp	r2, r7
    a800:	4192      	sbcs	r2, r2
    a802:	1b0c      	subs	r4, r1, r4
    a804:	4252      	negs	r2, r2
    a806:	1aa4      	subs	r4, r4, r2
    a808:	4666      	mov	r6, ip
    a80a:	4698      	mov	r8, r3
    a80c:	e68b      	b.n	a526 <__aeabi_dsub+0xb2>
    a80e:	4664      	mov	r4, ip
    a810:	4667      	mov	r7, ip
    a812:	432c      	orrs	r4, r5
    a814:	d000      	beq.n	a818 <__aeabi_dsub+0x3a4>
    a816:	e68b      	b.n	a530 <__aeabi_dsub+0xbc>
    a818:	2500      	movs	r5, #0
    a81a:	2600      	movs	r6, #0
    a81c:	2700      	movs	r7, #0
    a81e:	e6ea      	b.n	a5f6 <__aeabi_dsub+0x182>
    a820:	001e      	movs	r6, r3
    a822:	e6ad      	b.n	a580 <__aeabi_dsub+0x10c>
    a824:	2b1f      	cmp	r3, #31
    a826:	dc60      	bgt.n	a8ea <__aeabi_dsub+0x476>
    a828:	2720      	movs	r7, #32
    a82a:	1af8      	subs	r0, r7, r3
    a82c:	000f      	movs	r7, r1
    a82e:	4684      	mov	ip, r0
    a830:	4087      	lsls	r7, r0
    a832:	0010      	movs	r0, r2
    a834:	40d8      	lsrs	r0, r3
    a836:	4307      	orrs	r7, r0
    a838:	4660      	mov	r0, ip
    a83a:	4082      	lsls	r2, r0
    a83c:	1e50      	subs	r0, r2, #1
    a83e:	4182      	sbcs	r2, r0
    a840:	40d9      	lsrs	r1, r3
    a842:	4317      	orrs	r7, r2
    a844:	e6f5      	b.n	a632 <__aeabi_dsub+0x1be>
    a846:	0026      	movs	r6, r4
    a848:	4650      	mov	r0, sl
    a84a:	4306      	orrs	r6, r0
    a84c:	d005      	beq.n	a85a <__aeabi_dsub+0x3e6>
    a84e:	43ed      	mvns	r5, r5
    a850:	2d00      	cmp	r5, #0
    a852:	d0d3      	beq.n	a7fc <__aeabi_dsub+0x388>
    a854:	4e90      	ldr	r6, [pc, #576]	; (aa98 <__aeabi_dsub+0x624>)
    a856:	45b4      	cmp	ip, r6
    a858:	d1bd      	bne.n	a7d6 <__aeabi_dsub+0x362>
    a85a:	000c      	movs	r4, r1
    a85c:	0017      	movs	r7, r2
    a85e:	4666      	mov	r6, ip
    a860:	4698      	mov	r8, r3
    a862:	e68d      	b.n	a580 <__aeabi_dsub+0x10c>
    a864:	488c      	ldr	r0, [pc, #560]	; (aa98 <__aeabi_dsub+0x624>)
    a866:	4283      	cmp	r3, r0
    a868:	d00b      	beq.n	a882 <__aeabi_dsub+0x40e>
    a86a:	4663      	mov	r3, ip
    a86c:	e6d9      	b.n	a622 <__aeabi_dsub+0x1ae>
    a86e:	2d00      	cmp	r5, #0
    a870:	d000      	beq.n	a874 <__aeabi_dsub+0x400>
    a872:	e096      	b.n	a9a2 <__aeabi_dsub+0x52e>
    a874:	0008      	movs	r0, r1
    a876:	4310      	orrs	r0, r2
    a878:	d100      	bne.n	a87c <__aeabi_dsub+0x408>
    a87a:	e0e2      	b.n	aa42 <__aeabi_dsub+0x5ce>
    a87c:	000c      	movs	r4, r1
    a87e:	0017      	movs	r7, r2
    a880:	4698      	mov	r8, r3
    a882:	4e85      	ldr	r6, [pc, #532]	; (aa98 <__aeabi_dsub+0x624>)
    a884:	e67c      	b.n	a580 <__aeabi_dsub+0x10c>
    a886:	2500      	movs	r5, #0
    a888:	e780      	b.n	a78c <__aeabi_dsub+0x318>
    a88a:	2100      	movs	r1, #0
    a88c:	e78e      	b.n	a7ac <__aeabi_dsub+0x338>
    a88e:	0023      	movs	r3, r4
    a890:	4650      	mov	r0, sl
    a892:	4303      	orrs	r3, r0
    a894:	2e00      	cmp	r6, #0
    a896:	d000      	beq.n	a89a <__aeabi_dsub+0x426>
    a898:	e0a8      	b.n	a9ec <__aeabi_dsub+0x578>
    a89a:	2b00      	cmp	r3, #0
    a89c:	d100      	bne.n	a8a0 <__aeabi_dsub+0x42c>
    a89e:	e0de      	b.n	aa5e <__aeabi_dsub+0x5ea>
    a8a0:	000b      	movs	r3, r1
    a8a2:	4313      	orrs	r3, r2
    a8a4:	d100      	bne.n	a8a8 <__aeabi_dsub+0x434>
    a8a6:	e66b      	b.n	a580 <__aeabi_dsub+0x10c>
    a8a8:	4452      	add	r2, sl
    a8aa:	4552      	cmp	r2, sl
    a8ac:	4180      	sbcs	r0, r0
    a8ae:	1864      	adds	r4, r4, r1
    a8b0:	4240      	negs	r0, r0
    a8b2:	1824      	adds	r4, r4, r0
    a8b4:	0017      	movs	r7, r2
    a8b6:	0223      	lsls	r3, r4, #8
    a8b8:	d400      	bmi.n	a8bc <__aeabi_dsub+0x448>
    a8ba:	e6fd      	b.n	a6b8 <__aeabi_dsub+0x244>
    a8bc:	4b77      	ldr	r3, [pc, #476]	; (aa9c <__aeabi_dsub+0x628>)
    a8be:	4666      	mov	r6, ip
    a8c0:	401c      	ands	r4, r3
    a8c2:	e65d      	b.n	a580 <__aeabi_dsub+0x10c>
    a8c4:	0025      	movs	r5, r4
    a8c6:	4650      	mov	r0, sl
    a8c8:	4305      	orrs	r5, r0
    a8ca:	2e00      	cmp	r6, #0
    a8cc:	d1cf      	bne.n	a86e <__aeabi_dsub+0x3fa>
    a8ce:	2d00      	cmp	r5, #0
    a8d0:	d14f      	bne.n	a972 <__aeabi_dsub+0x4fe>
    a8d2:	000c      	movs	r4, r1
    a8d4:	4314      	orrs	r4, r2
    a8d6:	d100      	bne.n	a8da <__aeabi_dsub+0x466>
    a8d8:	e0a0      	b.n	aa1c <__aeabi_dsub+0x5a8>
    a8da:	000c      	movs	r4, r1
    a8dc:	0017      	movs	r7, r2
    a8de:	4698      	mov	r8, r3
    a8e0:	e64e      	b.n	a580 <__aeabi_dsub+0x10c>
    a8e2:	4666      	mov	r6, ip
    a8e4:	2400      	movs	r4, #0
    a8e6:	2700      	movs	r7, #0
    a8e8:	e685      	b.n	a5f6 <__aeabi_dsub+0x182>
    a8ea:	001f      	movs	r7, r3
    a8ec:	0008      	movs	r0, r1
    a8ee:	3f20      	subs	r7, #32
    a8f0:	40f8      	lsrs	r0, r7
    a8f2:	0007      	movs	r7, r0
    a8f4:	2b20      	cmp	r3, #32
    a8f6:	d100      	bne.n	a8fa <__aeabi_dsub+0x486>
    a8f8:	e08e      	b.n	aa18 <__aeabi_dsub+0x5a4>
    a8fa:	2040      	movs	r0, #64	; 0x40
    a8fc:	1ac3      	subs	r3, r0, r3
    a8fe:	4099      	lsls	r1, r3
    a900:	430a      	orrs	r2, r1
    a902:	1e51      	subs	r1, r2, #1
    a904:	418a      	sbcs	r2, r1
    a906:	2100      	movs	r1, #0
    a908:	4317      	orrs	r7, r2
    a90a:	e692      	b.n	a632 <__aeabi_dsub+0x1be>
    a90c:	2e00      	cmp	r6, #0
    a90e:	d114      	bne.n	a93a <__aeabi_dsub+0x4c6>
    a910:	0026      	movs	r6, r4
    a912:	4650      	mov	r0, sl
    a914:	4306      	orrs	r6, r0
    a916:	d062      	beq.n	a9de <__aeabi_dsub+0x56a>
    a918:	43db      	mvns	r3, r3
    a91a:	2b00      	cmp	r3, #0
    a91c:	d15c      	bne.n	a9d8 <__aeabi_dsub+0x564>
    a91e:	1887      	adds	r7, r0, r2
    a920:	4297      	cmp	r7, r2
    a922:	4192      	sbcs	r2, r2
    a924:	1864      	adds	r4, r4, r1
    a926:	4252      	negs	r2, r2
    a928:	18a4      	adds	r4, r4, r2
    a92a:	4666      	mov	r6, ip
    a92c:	e687      	b.n	a63e <__aeabi_dsub+0x1ca>
    a92e:	4650      	mov	r0, sl
    a930:	4320      	orrs	r0, r4
    a932:	1e44      	subs	r4, r0, #1
    a934:	41a0      	sbcs	r0, r4
    a936:	2400      	movs	r4, #0
    a938:	e760      	b.n	a7fc <__aeabi_dsub+0x388>
    a93a:	4e57      	ldr	r6, [pc, #348]	; (aa98 <__aeabi_dsub+0x624>)
    a93c:	45b4      	cmp	ip, r6
    a93e:	d04e      	beq.n	a9de <__aeabi_dsub+0x56a>
    a940:	2680      	movs	r6, #128	; 0x80
    a942:	0436      	lsls	r6, r6, #16
    a944:	425b      	negs	r3, r3
    a946:	4334      	orrs	r4, r6
    a948:	2b38      	cmp	r3, #56	; 0x38
    a94a:	dd00      	ble.n	a94e <__aeabi_dsub+0x4da>
    a94c:	e07f      	b.n	aa4e <__aeabi_dsub+0x5da>
    a94e:	2b1f      	cmp	r3, #31
    a950:	dd00      	ble.n	a954 <__aeabi_dsub+0x4e0>
    a952:	e08b      	b.n	aa6c <__aeabi_dsub+0x5f8>
    a954:	2620      	movs	r6, #32
    a956:	0027      	movs	r7, r4
    a958:	4650      	mov	r0, sl
    a95a:	1af6      	subs	r6, r6, r3
    a95c:	40b7      	lsls	r7, r6
    a95e:	40d8      	lsrs	r0, r3
    a960:	4307      	orrs	r7, r0
    a962:	4650      	mov	r0, sl
    a964:	40b0      	lsls	r0, r6
    a966:	1e46      	subs	r6, r0, #1
    a968:	41b0      	sbcs	r0, r6
    a96a:	4307      	orrs	r7, r0
    a96c:	40dc      	lsrs	r4, r3
    a96e:	18bf      	adds	r7, r7, r2
    a970:	e7d6      	b.n	a920 <__aeabi_dsub+0x4ac>
    a972:	000d      	movs	r5, r1
    a974:	4315      	orrs	r5, r2
    a976:	d100      	bne.n	a97a <__aeabi_dsub+0x506>
    a978:	e602      	b.n	a580 <__aeabi_dsub+0x10c>
    a97a:	4650      	mov	r0, sl
    a97c:	1a80      	subs	r0, r0, r2
    a97e:	4582      	cmp	sl, r0
    a980:	41bf      	sbcs	r7, r7
    a982:	1a65      	subs	r5, r4, r1
    a984:	427f      	negs	r7, r7
    a986:	1bed      	subs	r5, r5, r7
    a988:	4684      	mov	ip, r0
    a98a:	0228      	lsls	r0, r5, #8
    a98c:	d400      	bmi.n	a990 <__aeabi_dsub+0x51c>
    a98e:	e68d      	b.n	a6ac <__aeabi_dsub+0x238>
    a990:	4650      	mov	r0, sl
    a992:	1a17      	subs	r7, r2, r0
    a994:	42ba      	cmp	r2, r7
    a996:	4192      	sbcs	r2, r2
    a998:	1b0c      	subs	r4, r1, r4
    a99a:	4252      	negs	r2, r2
    a99c:	1aa4      	subs	r4, r4, r2
    a99e:	4698      	mov	r8, r3
    a9a0:	e5ee      	b.n	a580 <__aeabi_dsub+0x10c>
    a9a2:	000d      	movs	r5, r1
    a9a4:	4315      	orrs	r5, r2
    a9a6:	d100      	bne.n	a9aa <__aeabi_dsub+0x536>
    a9a8:	e76b      	b.n	a882 <__aeabi_dsub+0x40e>
    a9aa:	4650      	mov	r0, sl
    a9ac:	0767      	lsls	r7, r4, #29
    a9ae:	08c0      	lsrs	r0, r0, #3
    a9b0:	4307      	orrs	r7, r0
    a9b2:	2080      	movs	r0, #128	; 0x80
    a9b4:	08e4      	lsrs	r4, r4, #3
    a9b6:	0300      	lsls	r0, r0, #12
    a9b8:	4204      	tst	r4, r0
    a9ba:	d007      	beq.n	a9cc <__aeabi_dsub+0x558>
    a9bc:	08cd      	lsrs	r5, r1, #3
    a9be:	4205      	tst	r5, r0
    a9c0:	d104      	bne.n	a9cc <__aeabi_dsub+0x558>
    a9c2:	002c      	movs	r4, r5
    a9c4:	4698      	mov	r8, r3
    a9c6:	08d7      	lsrs	r7, r2, #3
    a9c8:	0749      	lsls	r1, r1, #29
    a9ca:	430f      	orrs	r7, r1
    a9cc:	0f7b      	lsrs	r3, r7, #29
    a9ce:	00e4      	lsls	r4, r4, #3
    a9d0:	431c      	orrs	r4, r3
    a9d2:	00ff      	lsls	r7, r7, #3
    a9d4:	4e30      	ldr	r6, [pc, #192]	; (aa98 <__aeabi_dsub+0x624>)
    a9d6:	e5d3      	b.n	a580 <__aeabi_dsub+0x10c>
    a9d8:	4e2f      	ldr	r6, [pc, #188]	; (aa98 <__aeabi_dsub+0x624>)
    a9da:	45b4      	cmp	ip, r6
    a9dc:	d1b4      	bne.n	a948 <__aeabi_dsub+0x4d4>
    a9de:	000c      	movs	r4, r1
    a9e0:	0017      	movs	r7, r2
    a9e2:	4666      	mov	r6, ip
    a9e4:	e5cc      	b.n	a580 <__aeabi_dsub+0x10c>
    a9e6:	2700      	movs	r7, #0
    a9e8:	2400      	movs	r4, #0
    a9ea:	e5e8      	b.n	a5be <__aeabi_dsub+0x14a>
    a9ec:	2b00      	cmp	r3, #0
    a9ee:	d039      	beq.n	aa64 <__aeabi_dsub+0x5f0>
    a9f0:	000b      	movs	r3, r1
    a9f2:	4313      	orrs	r3, r2
    a9f4:	d100      	bne.n	a9f8 <__aeabi_dsub+0x584>
    a9f6:	e744      	b.n	a882 <__aeabi_dsub+0x40e>
    a9f8:	08c0      	lsrs	r0, r0, #3
    a9fa:	0767      	lsls	r7, r4, #29
    a9fc:	4307      	orrs	r7, r0
    a9fe:	2080      	movs	r0, #128	; 0x80
    aa00:	08e4      	lsrs	r4, r4, #3
    aa02:	0300      	lsls	r0, r0, #12
    aa04:	4204      	tst	r4, r0
    aa06:	d0e1      	beq.n	a9cc <__aeabi_dsub+0x558>
    aa08:	08cb      	lsrs	r3, r1, #3
    aa0a:	4203      	tst	r3, r0
    aa0c:	d1de      	bne.n	a9cc <__aeabi_dsub+0x558>
    aa0e:	08d7      	lsrs	r7, r2, #3
    aa10:	0749      	lsls	r1, r1, #29
    aa12:	430f      	orrs	r7, r1
    aa14:	001c      	movs	r4, r3
    aa16:	e7d9      	b.n	a9cc <__aeabi_dsub+0x558>
    aa18:	2100      	movs	r1, #0
    aa1a:	e771      	b.n	a900 <__aeabi_dsub+0x48c>
    aa1c:	2500      	movs	r5, #0
    aa1e:	2700      	movs	r7, #0
    aa20:	e5e9      	b.n	a5f6 <__aeabi_dsub+0x182>
    aa22:	002e      	movs	r6, r5
    aa24:	0027      	movs	r7, r4
    aa26:	3e20      	subs	r6, #32
    aa28:	40f7      	lsrs	r7, r6
    aa2a:	2d20      	cmp	r5, #32
    aa2c:	d02f      	beq.n	aa8e <__aeabi_dsub+0x61a>
    aa2e:	2640      	movs	r6, #64	; 0x40
    aa30:	1b75      	subs	r5, r6, r5
    aa32:	40ac      	lsls	r4, r5
    aa34:	4650      	mov	r0, sl
    aa36:	4320      	orrs	r0, r4
    aa38:	1e44      	subs	r4, r0, #1
    aa3a:	41a0      	sbcs	r0, r4
    aa3c:	2400      	movs	r4, #0
    aa3e:	4338      	orrs	r0, r7
    aa40:	e6dc      	b.n	a7fc <__aeabi_dsub+0x388>
    aa42:	2480      	movs	r4, #128	; 0x80
    aa44:	2500      	movs	r5, #0
    aa46:	0324      	lsls	r4, r4, #12
    aa48:	4e13      	ldr	r6, [pc, #76]	; (aa98 <__aeabi_dsub+0x624>)
    aa4a:	2700      	movs	r7, #0
    aa4c:	e5d3      	b.n	a5f6 <__aeabi_dsub+0x182>
    aa4e:	4650      	mov	r0, sl
    aa50:	4320      	orrs	r0, r4
    aa52:	0007      	movs	r7, r0
    aa54:	1e78      	subs	r0, r7, #1
    aa56:	4187      	sbcs	r7, r0
    aa58:	2400      	movs	r4, #0
    aa5a:	18bf      	adds	r7, r7, r2
    aa5c:	e760      	b.n	a920 <__aeabi_dsub+0x4ac>
    aa5e:	000c      	movs	r4, r1
    aa60:	0017      	movs	r7, r2
    aa62:	e58d      	b.n	a580 <__aeabi_dsub+0x10c>
    aa64:	000c      	movs	r4, r1
    aa66:	0017      	movs	r7, r2
    aa68:	4e0b      	ldr	r6, [pc, #44]	; (aa98 <__aeabi_dsub+0x624>)
    aa6a:	e589      	b.n	a580 <__aeabi_dsub+0x10c>
    aa6c:	001e      	movs	r6, r3
    aa6e:	0027      	movs	r7, r4
    aa70:	3e20      	subs	r6, #32
    aa72:	40f7      	lsrs	r7, r6
    aa74:	2b20      	cmp	r3, #32
    aa76:	d00c      	beq.n	aa92 <__aeabi_dsub+0x61e>
    aa78:	2640      	movs	r6, #64	; 0x40
    aa7a:	1af3      	subs	r3, r6, r3
    aa7c:	409c      	lsls	r4, r3
    aa7e:	4650      	mov	r0, sl
    aa80:	4320      	orrs	r0, r4
    aa82:	1e44      	subs	r4, r0, #1
    aa84:	41a0      	sbcs	r0, r4
    aa86:	4307      	orrs	r7, r0
    aa88:	2400      	movs	r4, #0
    aa8a:	18bf      	adds	r7, r7, r2
    aa8c:	e748      	b.n	a920 <__aeabi_dsub+0x4ac>
    aa8e:	2400      	movs	r4, #0
    aa90:	e7d0      	b.n	aa34 <__aeabi_dsub+0x5c0>
    aa92:	2400      	movs	r4, #0
    aa94:	e7f3      	b.n	aa7e <__aeabi_dsub+0x60a>
    aa96:	46c0      	nop			; (mov r8, r8)
    aa98:	000007ff 	.word	0x000007ff
    aa9c:	ff7fffff 	.word	0xff7fffff

0000aaa0 <__aeabi_d2iz>:
    aaa0:	b530      	push	{r4, r5, lr}
    aaa2:	4d13      	ldr	r5, [pc, #76]	; (aaf0 <__aeabi_d2iz+0x50>)
    aaa4:	030a      	lsls	r2, r1, #12
    aaa6:	004b      	lsls	r3, r1, #1
    aaa8:	0b12      	lsrs	r2, r2, #12
    aaaa:	0d5b      	lsrs	r3, r3, #21
    aaac:	0fc9      	lsrs	r1, r1, #31
    aaae:	2400      	movs	r4, #0
    aab0:	42ab      	cmp	r3, r5
    aab2:	dd10      	ble.n	aad6 <__aeabi_d2iz+0x36>
    aab4:	4c0f      	ldr	r4, [pc, #60]	; (aaf4 <__aeabi_d2iz+0x54>)
    aab6:	42a3      	cmp	r3, r4
    aab8:	dc0f      	bgt.n	aada <__aeabi_d2iz+0x3a>
    aaba:	2480      	movs	r4, #128	; 0x80
    aabc:	4d0e      	ldr	r5, [pc, #56]	; (aaf8 <__aeabi_d2iz+0x58>)
    aabe:	0364      	lsls	r4, r4, #13
    aac0:	4322      	orrs	r2, r4
    aac2:	1aed      	subs	r5, r5, r3
    aac4:	2d1f      	cmp	r5, #31
    aac6:	dd0b      	ble.n	aae0 <__aeabi_d2iz+0x40>
    aac8:	480c      	ldr	r0, [pc, #48]	; (aafc <__aeabi_d2iz+0x5c>)
    aaca:	1ac3      	subs	r3, r0, r3
    aacc:	40da      	lsrs	r2, r3
    aace:	4254      	negs	r4, r2
    aad0:	2900      	cmp	r1, #0
    aad2:	d100      	bne.n	aad6 <__aeabi_d2iz+0x36>
    aad4:	0014      	movs	r4, r2
    aad6:	0020      	movs	r0, r4
    aad8:	bd30      	pop	{r4, r5, pc}
    aada:	4b09      	ldr	r3, [pc, #36]	; (ab00 <__aeabi_d2iz+0x60>)
    aadc:	18cc      	adds	r4, r1, r3
    aade:	e7fa      	b.n	aad6 <__aeabi_d2iz+0x36>
    aae0:	4c08      	ldr	r4, [pc, #32]	; (ab04 <__aeabi_d2iz+0x64>)
    aae2:	40e8      	lsrs	r0, r5
    aae4:	46a4      	mov	ip, r4
    aae6:	4463      	add	r3, ip
    aae8:	409a      	lsls	r2, r3
    aaea:	4302      	orrs	r2, r0
    aaec:	e7ef      	b.n	aace <__aeabi_d2iz+0x2e>
    aaee:	46c0      	nop			; (mov r8, r8)
    aaf0:	000003fe 	.word	0x000003fe
    aaf4:	0000041d 	.word	0x0000041d
    aaf8:	00000433 	.word	0x00000433
    aafc:	00000413 	.word	0x00000413
    ab00:	7fffffff 	.word	0x7fffffff
    ab04:	fffffbed 	.word	0xfffffbed

0000ab08 <__aeabi_i2d>:
    ab08:	b570      	push	{r4, r5, r6, lr}
    ab0a:	2800      	cmp	r0, #0
    ab0c:	d030      	beq.n	ab70 <__aeabi_i2d+0x68>
    ab0e:	17c3      	asrs	r3, r0, #31
    ab10:	18c4      	adds	r4, r0, r3
    ab12:	405c      	eors	r4, r3
    ab14:	0fc5      	lsrs	r5, r0, #31
    ab16:	0020      	movs	r0, r4
    ab18:	f7fd fabc 	bl	8094 <__clzsi2>
    ab1c:	4b17      	ldr	r3, [pc, #92]	; (ab7c <__aeabi_i2d+0x74>)
    ab1e:	4a18      	ldr	r2, [pc, #96]	; (ab80 <__aeabi_i2d+0x78>)
    ab20:	1a1b      	subs	r3, r3, r0
    ab22:	1ad2      	subs	r2, r2, r3
    ab24:	2a1f      	cmp	r2, #31
    ab26:	dd18      	ble.n	ab5a <__aeabi_i2d+0x52>
    ab28:	4a16      	ldr	r2, [pc, #88]	; (ab84 <__aeabi_i2d+0x7c>)
    ab2a:	1ad2      	subs	r2, r2, r3
    ab2c:	4094      	lsls	r4, r2
    ab2e:	2200      	movs	r2, #0
    ab30:	0324      	lsls	r4, r4, #12
    ab32:	055b      	lsls	r3, r3, #21
    ab34:	0b24      	lsrs	r4, r4, #12
    ab36:	0d5b      	lsrs	r3, r3, #21
    ab38:	2100      	movs	r1, #0
    ab3a:	0010      	movs	r0, r2
    ab3c:	0324      	lsls	r4, r4, #12
    ab3e:	0d0a      	lsrs	r2, r1, #20
    ab40:	0b24      	lsrs	r4, r4, #12
    ab42:	0512      	lsls	r2, r2, #20
    ab44:	4322      	orrs	r2, r4
    ab46:	4c10      	ldr	r4, [pc, #64]	; (ab88 <__aeabi_i2d+0x80>)
    ab48:	051b      	lsls	r3, r3, #20
    ab4a:	4022      	ands	r2, r4
    ab4c:	4313      	orrs	r3, r2
    ab4e:	005b      	lsls	r3, r3, #1
    ab50:	07ed      	lsls	r5, r5, #31
    ab52:	085b      	lsrs	r3, r3, #1
    ab54:	432b      	orrs	r3, r5
    ab56:	0019      	movs	r1, r3
    ab58:	bd70      	pop	{r4, r5, r6, pc}
    ab5a:	0021      	movs	r1, r4
    ab5c:	4091      	lsls	r1, r2
    ab5e:	000a      	movs	r2, r1
    ab60:	210b      	movs	r1, #11
    ab62:	1a08      	subs	r0, r1, r0
    ab64:	40c4      	lsrs	r4, r0
    ab66:	055b      	lsls	r3, r3, #21
    ab68:	0324      	lsls	r4, r4, #12
    ab6a:	0b24      	lsrs	r4, r4, #12
    ab6c:	0d5b      	lsrs	r3, r3, #21
    ab6e:	e7e3      	b.n	ab38 <__aeabi_i2d+0x30>
    ab70:	2500      	movs	r5, #0
    ab72:	2300      	movs	r3, #0
    ab74:	2400      	movs	r4, #0
    ab76:	2200      	movs	r2, #0
    ab78:	e7de      	b.n	ab38 <__aeabi_i2d+0x30>
    ab7a:	46c0      	nop			; (mov r8, r8)
    ab7c:	0000041e 	.word	0x0000041e
    ab80:	00000433 	.word	0x00000433
    ab84:	00000413 	.word	0x00000413
    ab88:	800fffff 	.word	0x800fffff

0000ab8c <__aeabi_ui2d>:
    ab8c:	b510      	push	{r4, lr}
    ab8e:	1e04      	subs	r4, r0, #0
    ab90:	d028      	beq.n	abe4 <__aeabi_ui2d+0x58>
    ab92:	f7fd fa7f 	bl	8094 <__clzsi2>
    ab96:	4b15      	ldr	r3, [pc, #84]	; (abec <__aeabi_ui2d+0x60>)
    ab98:	4a15      	ldr	r2, [pc, #84]	; (abf0 <__aeabi_ui2d+0x64>)
    ab9a:	1a1b      	subs	r3, r3, r0
    ab9c:	1ad2      	subs	r2, r2, r3
    ab9e:	2a1f      	cmp	r2, #31
    aba0:	dd15      	ble.n	abce <__aeabi_ui2d+0x42>
    aba2:	4a14      	ldr	r2, [pc, #80]	; (abf4 <__aeabi_ui2d+0x68>)
    aba4:	1ad2      	subs	r2, r2, r3
    aba6:	4094      	lsls	r4, r2
    aba8:	2200      	movs	r2, #0
    abaa:	0324      	lsls	r4, r4, #12
    abac:	055b      	lsls	r3, r3, #21
    abae:	0b24      	lsrs	r4, r4, #12
    abb0:	0d5b      	lsrs	r3, r3, #21
    abb2:	2100      	movs	r1, #0
    abb4:	0010      	movs	r0, r2
    abb6:	0324      	lsls	r4, r4, #12
    abb8:	0d0a      	lsrs	r2, r1, #20
    abba:	0b24      	lsrs	r4, r4, #12
    abbc:	0512      	lsls	r2, r2, #20
    abbe:	4322      	orrs	r2, r4
    abc0:	4c0d      	ldr	r4, [pc, #52]	; (abf8 <__aeabi_ui2d+0x6c>)
    abc2:	051b      	lsls	r3, r3, #20
    abc4:	4022      	ands	r2, r4
    abc6:	4313      	orrs	r3, r2
    abc8:	005b      	lsls	r3, r3, #1
    abca:	0859      	lsrs	r1, r3, #1
    abcc:	bd10      	pop	{r4, pc}
    abce:	0021      	movs	r1, r4
    abd0:	4091      	lsls	r1, r2
    abd2:	000a      	movs	r2, r1
    abd4:	210b      	movs	r1, #11
    abd6:	1a08      	subs	r0, r1, r0
    abd8:	40c4      	lsrs	r4, r0
    abda:	055b      	lsls	r3, r3, #21
    abdc:	0324      	lsls	r4, r4, #12
    abde:	0b24      	lsrs	r4, r4, #12
    abe0:	0d5b      	lsrs	r3, r3, #21
    abe2:	e7e6      	b.n	abb2 <__aeabi_ui2d+0x26>
    abe4:	2300      	movs	r3, #0
    abe6:	2400      	movs	r4, #0
    abe8:	2200      	movs	r2, #0
    abea:	e7e2      	b.n	abb2 <__aeabi_ui2d+0x26>
    abec:	0000041e 	.word	0x0000041e
    abf0:	00000433 	.word	0x00000433
    abf4:	00000413 	.word	0x00000413
    abf8:	800fffff 	.word	0x800fffff

0000abfc <__aeabi_f2d>:
    abfc:	0041      	lsls	r1, r0, #1
    abfe:	0e09      	lsrs	r1, r1, #24
    ac00:	1c4b      	adds	r3, r1, #1
    ac02:	b570      	push	{r4, r5, r6, lr}
    ac04:	b2db      	uxtb	r3, r3
    ac06:	0246      	lsls	r6, r0, #9
    ac08:	0a75      	lsrs	r5, r6, #9
    ac0a:	0fc4      	lsrs	r4, r0, #31
    ac0c:	2b01      	cmp	r3, #1
    ac0e:	dd14      	ble.n	ac3a <__aeabi_f2d+0x3e>
    ac10:	23e0      	movs	r3, #224	; 0xe0
    ac12:	009b      	lsls	r3, r3, #2
    ac14:	076d      	lsls	r5, r5, #29
    ac16:	0b36      	lsrs	r6, r6, #12
    ac18:	18cb      	adds	r3, r1, r3
    ac1a:	2100      	movs	r1, #0
    ac1c:	0d0a      	lsrs	r2, r1, #20
    ac1e:	0028      	movs	r0, r5
    ac20:	0512      	lsls	r2, r2, #20
    ac22:	4d1c      	ldr	r5, [pc, #112]	; (ac94 <__aeabi_f2d+0x98>)
    ac24:	4332      	orrs	r2, r6
    ac26:	055b      	lsls	r3, r3, #21
    ac28:	402a      	ands	r2, r5
    ac2a:	085b      	lsrs	r3, r3, #1
    ac2c:	4313      	orrs	r3, r2
    ac2e:	005b      	lsls	r3, r3, #1
    ac30:	07e4      	lsls	r4, r4, #31
    ac32:	085b      	lsrs	r3, r3, #1
    ac34:	4323      	orrs	r3, r4
    ac36:	0019      	movs	r1, r3
    ac38:	bd70      	pop	{r4, r5, r6, pc}
    ac3a:	2900      	cmp	r1, #0
    ac3c:	d114      	bne.n	ac68 <__aeabi_f2d+0x6c>
    ac3e:	2d00      	cmp	r5, #0
    ac40:	d01e      	beq.n	ac80 <__aeabi_f2d+0x84>
    ac42:	0028      	movs	r0, r5
    ac44:	f7fd fa26 	bl	8094 <__clzsi2>
    ac48:	280a      	cmp	r0, #10
    ac4a:	dc1c      	bgt.n	ac86 <__aeabi_f2d+0x8a>
    ac4c:	230b      	movs	r3, #11
    ac4e:	002a      	movs	r2, r5
    ac50:	1a1b      	subs	r3, r3, r0
    ac52:	40da      	lsrs	r2, r3
    ac54:	0003      	movs	r3, r0
    ac56:	3315      	adds	r3, #21
    ac58:	409d      	lsls	r5, r3
    ac5a:	4b0f      	ldr	r3, [pc, #60]	; (ac98 <__aeabi_f2d+0x9c>)
    ac5c:	0312      	lsls	r2, r2, #12
    ac5e:	1a1b      	subs	r3, r3, r0
    ac60:	055b      	lsls	r3, r3, #21
    ac62:	0b16      	lsrs	r6, r2, #12
    ac64:	0d5b      	lsrs	r3, r3, #21
    ac66:	e7d8      	b.n	ac1a <__aeabi_f2d+0x1e>
    ac68:	2d00      	cmp	r5, #0
    ac6a:	d006      	beq.n	ac7a <__aeabi_f2d+0x7e>
    ac6c:	0b32      	lsrs	r2, r6, #12
    ac6e:	2680      	movs	r6, #128	; 0x80
    ac70:	0336      	lsls	r6, r6, #12
    ac72:	076d      	lsls	r5, r5, #29
    ac74:	4316      	orrs	r6, r2
    ac76:	4b09      	ldr	r3, [pc, #36]	; (ac9c <__aeabi_f2d+0xa0>)
    ac78:	e7cf      	b.n	ac1a <__aeabi_f2d+0x1e>
    ac7a:	4b08      	ldr	r3, [pc, #32]	; (ac9c <__aeabi_f2d+0xa0>)
    ac7c:	2600      	movs	r6, #0
    ac7e:	e7cc      	b.n	ac1a <__aeabi_f2d+0x1e>
    ac80:	2300      	movs	r3, #0
    ac82:	2600      	movs	r6, #0
    ac84:	e7c9      	b.n	ac1a <__aeabi_f2d+0x1e>
    ac86:	0003      	movs	r3, r0
    ac88:	002a      	movs	r2, r5
    ac8a:	3b0b      	subs	r3, #11
    ac8c:	409a      	lsls	r2, r3
    ac8e:	2500      	movs	r5, #0
    ac90:	e7e3      	b.n	ac5a <__aeabi_f2d+0x5e>
    ac92:	46c0      	nop			; (mov r8, r8)
    ac94:	800fffff 	.word	0x800fffff
    ac98:	00000389 	.word	0x00000389
    ac9c:	000007ff 	.word	0x000007ff

0000aca0 <__aeabi_d2f>:
    aca0:	b5f0      	push	{r4, r5, r6, r7, lr}
    aca2:	004c      	lsls	r4, r1, #1
    aca4:	0d64      	lsrs	r4, r4, #21
    aca6:	030b      	lsls	r3, r1, #12
    aca8:	1c62      	adds	r2, r4, #1
    acaa:	0f45      	lsrs	r5, r0, #29
    acac:	0a5b      	lsrs	r3, r3, #9
    acae:	0552      	lsls	r2, r2, #21
    acb0:	432b      	orrs	r3, r5
    acb2:	0fc9      	lsrs	r1, r1, #31
    acb4:	00c5      	lsls	r5, r0, #3
    acb6:	0d52      	lsrs	r2, r2, #21
    acb8:	2a01      	cmp	r2, #1
    acba:	dd28      	ble.n	ad0e <__aeabi_d2f+0x6e>
    acbc:	4a3a      	ldr	r2, [pc, #232]	; (ada8 <__aeabi_d2f+0x108>)
    acbe:	18a6      	adds	r6, r4, r2
    acc0:	2efe      	cmp	r6, #254	; 0xfe
    acc2:	dc1b      	bgt.n	acfc <__aeabi_d2f+0x5c>
    acc4:	2e00      	cmp	r6, #0
    acc6:	dd3e      	ble.n	ad46 <__aeabi_d2f+0xa6>
    acc8:	0180      	lsls	r0, r0, #6
    acca:	0002      	movs	r2, r0
    accc:	1e50      	subs	r0, r2, #1
    acce:	4182      	sbcs	r2, r0
    acd0:	0f6d      	lsrs	r5, r5, #29
    acd2:	432a      	orrs	r2, r5
    acd4:	00db      	lsls	r3, r3, #3
    acd6:	4313      	orrs	r3, r2
    acd8:	075a      	lsls	r2, r3, #29
    acda:	d004      	beq.n	ace6 <__aeabi_d2f+0x46>
    acdc:	220f      	movs	r2, #15
    acde:	401a      	ands	r2, r3
    ace0:	2a04      	cmp	r2, #4
    ace2:	d000      	beq.n	ace6 <__aeabi_d2f+0x46>
    ace4:	3304      	adds	r3, #4
    ace6:	2280      	movs	r2, #128	; 0x80
    ace8:	04d2      	lsls	r2, r2, #19
    acea:	401a      	ands	r2, r3
    acec:	d05a      	beq.n	ada4 <__aeabi_d2f+0x104>
    acee:	3601      	adds	r6, #1
    acf0:	2eff      	cmp	r6, #255	; 0xff
    acf2:	d003      	beq.n	acfc <__aeabi_d2f+0x5c>
    acf4:	019b      	lsls	r3, r3, #6
    acf6:	0a5b      	lsrs	r3, r3, #9
    acf8:	b2f4      	uxtb	r4, r6
    acfa:	e001      	b.n	ad00 <__aeabi_d2f+0x60>
    acfc:	24ff      	movs	r4, #255	; 0xff
    acfe:	2300      	movs	r3, #0
    ad00:	0258      	lsls	r0, r3, #9
    ad02:	05e4      	lsls	r4, r4, #23
    ad04:	0a40      	lsrs	r0, r0, #9
    ad06:	07c9      	lsls	r1, r1, #31
    ad08:	4320      	orrs	r0, r4
    ad0a:	4308      	orrs	r0, r1
    ad0c:	bdf0      	pop	{r4, r5, r6, r7, pc}
    ad0e:	2c00      	cmp	r4, #0
    ad10:	d007      	beq.n	ad22 <__aeabi_d2f+0x82>
    ad12:	431d      	orrs	r5, r3
    ad14:	d0f2      	beq.n	acfc <__aeabi_d2f+0x5c>
    ad16:	2080      	movs	r0, #128	; 0x80
    ad18:	00db      	lsls	r3, r3, #3
    ad1a:	0480      	lsls	r0, r0, #18
    ad1c:	4303      	orrs	r3, r0
    ad1e:	26ff      	movs	r6, #255	; 0xff
    ad20:	e7da      	b.n	acd8 <__aeabi_d2f+0x38>
    ad22:	432b      	orrs	r3, r5
    ad24:	d003      	beq.n	ad2e <__aeabi_d2f+0x8e>
    ad26:	2305      	movs	r3, #5
    ad28:	08db      	lsrs	r3, r3, #3
    ad2a:	2cff      	cmp	r4, #255	; 0xff
    ad2c:	d003      	beq.n	ad36 <__aeabi_d2f+0x96>
    ad2e:	025b      	lsls	r3, r3, #9
    ad30:	0a5b      	lsrs	r3, r3, #9
    ad32:	b2e4      	uxtb	r4, r4
    ad34:	e7e4      	b.n	ad00 <__aeabi_d2f+0x60>
    ad36:	2b00      	cmp	r3, #0
    ad38:	d032      	beq.n	ada0 <__aeabi_d2f+0x100>
    ad3a:	2080      	movs	r0, #128	; 0x80
    ad3c:	03c0      	lsls	r0, r0, #15
    ad3e:	4303      	orrs	r3, r0
    ad40:	025b      	lsls	r3, r3, #9
    ad42:	0a5b      	lsrs	r3, r3, #9
    ad44:	e7dc      	b.n	ad00 <__aeabi_d2f+0x60>
    ad46:	0032      	movs	r2, r6
    ad48:	3217      	adds	r2, #23
    ad4a:	db14      	blt.n	ad76 <__aeabi_d2f+0xd6>
    ad4c:	2280      	movs	r2, #128	; 0x80
    ad4e:	271e      	movs	r7, #30
    ad50:	0412      	lsls	r2, r2, #16
    ad52:	4313      	orrs	r3, r2
    ad54:	1bbf      	subs	r7, r7, r6
    ad56:	2f1f      	cmp	r7, #31
    ad58:	dc0f      	bgt.n	ad7a <__aeabi_d2f+0xda>
    ad5a:	4a14      	ldr	r2, [pc, #80]	; (adac <__aeabi_d2f+0x10c>)
    ad5c:	4694      	mov	ip, r2
    ad5e:	4464      	add	r4, ip
    ad60:	002a      	movs	r2, r5
    ad62:	40a5      	lsls	r5, r4
    ad64:	002e      	movs	r6, r5
    ad66:	40a3      	lsls	r3, r4
    ad68:	1e75      	subs	r5, r6, #1
    ad6a:	41ae      	sbcs	r6, r5
    ad6c:	40fa      	lsrs	r2, r7
    ad6e:	4333      	orrs	r3, r6
    ad70:	4313      	orrs	r3, r2
    ad72:	2600      	movs	r6, #0
    ad74:	e7b0      	b.n	acd8 <__aeabi_d2f+0x38>
    ad76:	2400      	movs	r4, #0
    ad78:	e7d5      	b.n	ad26 <__aeabi_d2f+0x86>
    ad7a:	2202      	movs	r2, #2
    ad7c:	4252      	negs	r2, r2
    ad7e:	1b96      	subs	r6, r2, r6
    ad80:	001a      	movs	r2, r3
    ad82:	40f2      	lsrs	r2, r6
    ad84:	2f20      	cmp	r7, #32
    ad86:	d009      	beq.n	ad9c <__aeabi_d2f+0xfc>
    ad88:	4809      	ldr	r0, [pc, #36]	; (adb0 <__aeabi_d2f+0x110>)
    ad8a:	4684      	mov	ip, r0
    ad8c:	4464      	add	r4, ip
    ad8e:	40a3      	lsls	r3, r4
    ad90:	432b      	orrs	r3, r5
    ad92:	1e5d      	subs	r5, r3, #1
    ad94:	41ab      	sbcs	r3, r5
    ad96:	2600      	movs	r6, #0
    ad98:	4313      	orrs	r3, r2
    ad9a:	e79d      	b.n	acd8 <__aeabi_d2f+0x38>
    ad9c:	2300      	movs	r3, #0
    ad9e:	e7f7      	b.n	ad90 <__aeabi_d2f+0xf0>
    ada0:	2300      	movs	r3, #0
    ada2:	e7ad      	b.n	ad00 <__aeabi_d2f+0x60>
    ada4:	0034      	movs	r4, r6
    ada6:	e7bf      	b.n	ad28 <__aeabi_d2f+0x88>
    ada8:	fffffc80 	.word	0xfffffc80
    adac:	fffffc82 	.word	0xfffffc82
    adb0:	fffffca2 	.word	0xfffffca2

0000adb4 <__clzdi2>:
    adb4:	b510      	push	{r4, lr}
    adb6:	2900      	cmp	r1, #0
    adb8:	d103      	bne.n	adc2 <__clzdi2+0xe>
    adba:	f7fd f96b 	bl	8094 <__clzsi2>
    adbe:	3020      	adds	r0, #32
    adc0:	e002      	b.n	adc8 <__clzdi2+0x14>
    adc2:	1c08      	adds	r0, r1, #0
    adc4:	f7fd f966 	bl	8094 <__clzsi2>
    adc8:	bd10      	pop	{r4, pc}
    adca:	46c0      	nop			; (mov r8, r8)

0000adcc <__libc_init_array>:
    adcc:	b570      	push	{r4, r5, r6, lr}
    adce:	2600      	movs	r6, #0
    add0:	4d0c      	ldr	r5, [pc, #48]	; (ae04 <__libc_init_array+0x38>)
    add2:	4c0d      	ldr	r4, [pc, #52]	; (ae08 <__libc_init_array+0x3c>)
    add4:	1b64      	subs	r4, r4, r5
    add6:	10a4      	asrs	r4, r4, #2
    add8:	42a6      	cmp	r6, r4
    adda:	d109      	bne.n	adf0 <__libc_init_array+0x24>
    addc:	2600      	movs	r6, #0
    adde:	f000 fe7f 	bl	bae0 <_init>
    ade2:	4d0a      	ldr	r5, [pc, #40]	; (ae0c <__libc_init_array+0x40>)
    ade4:	4c0a      	ldr	r4, [pc, #40]	; (ae10 <__libc_init_array+0x44>)
    ade6:	1b64      	subs	r4, r4, r5
    ade8:	10a4      	asrs	r4, r4, #2
    adea:	42a6      	cmp	r6, r4
    adec:	d105      	bne.n	adfa <__libc_init_array+0x2e>
    adee:	bd70      	pop	{r4, r5, r6, pc}
    adf0:	00b3      	lsls	r3, r6, #2
    adf2:	58eb      	ldr	r3, [r5, r3]
    adf4:	4798      	blx	r3
    adf6:	3601      	adds	r6, #1
    adf8:	e7ee      	b.n	add8 <__libc_init_array+0xc>
    adfa:	00b3      	lsls	r3, r6, #2
    adfc:	58eb      	ldr	r3, [r5, r3]
    adfe:	4798      	blx	r3
    ae00:	3601      	adds	r6, #1
    ae02:	e7f2      	b.n	adea <__libc_init_array+0x1e>
    ae04:	0000baec 	.word	0x0000baec
    ae08:	0000baec 	.word	0x0000baec
    ae0c:	0000baec 	.word	0x0000baec
    ae10:	0000baf0 	.word	0x0000baf0

0000ae14 <memcpy>:
    ae14:	2300      	movs	r3, #0
    ae16:	b510      	push	{r4, lr}
    ae18:	429a      	cmp	r2, r3
    ae1a:	d100      	bne.n	ae1e <memcpy+0xa>
    ae1c:	bd10      	pop	{r4, pc}
    ae1e:	5ccc      	ldrb	r4, [r1, r3]
    ae20:	54c4      	strb	r4, [r0, r3]
    ae22:	3301      	adds	r3, #1
    ae24:	e7f8      	b.n	ae18 <memcpy+0x4>

0000ae26 <memset>:
    ae26:	0003      	movs	r3, r0
    ae28:	1882      	adds	r2, r0, r2
    ae2a:	4293      	cmp	r3, r2
    ae2c:	d100      	bne.n	ae30 <memset+0xa>
    ae2e:	4770      	bx	lr
    ae30:	7019      	strb	r1, [r3, #0]
    ae32:	3301      	adds	r3, #1
    ae34:	e7f9      	b.n	ae2a <memset+0x4>
	...

0000ae38 <sniprintf>:
    ae38:	b40c      	push	{r2, r3}
    ae3a:	b530      	push	{r4, r5, lr}
    ae3c:	4b16      	ldr	r3, [pc, #88]	; (ae98 <sniprintf+0x60>)
    ae3e:	b09d      	sub	sp, #116	; 0x74
    ae40:	1e0c      	subs	r4, r1, #0
    ae42:	681d      	ldr	r5, [r3, #0]
    ae44:	da08      	bge.n	ae58 <sniprintf+0x20>
    ae46:	238b      	movs	r3, #139	; 0x8b
    ae48:	2001      	movs	r0, #1
    ae4a:	602b      	str	r3, [r5, #0]
    ae4c:	4240      	negs	r0, r0
    ae4e:	b01d      	add	sp, #116	; 0x74
    ae50:	bc30      	pop	{r4, r5}
    ae52:	bc08      	pop	{r3}
    ae54:	b002      	add	sp, #8
    ae56:	4718      	bx	r3
    ae58:	2382      	movs	r3, #130	; 0x82
    ae5a:	a902      	add	r1, sp, #8
    ae5c:	009b      	lsls	r3, r3, #2
    ae5e:	818b      	strh	r3, [r1, #12]
    ae60:	2300      	movs	r3, #0
    ae62:	9002      	str	r0, [sp, #8]
    ae64:	6108      	str	r0, [r1, #16]
    ae66:	429c      	cmp	r4, r3
    ae68:	d000      	beq.n	ae6c <sniprintf+0x34>
    ae6a:	1e63      	subs	r3, r4, #1
    ae6c:	608b      	str	r3, [r1, #8]
    ae6e:	614b      	str	r3, [r1, #20]
    ae70:	2301      	movs	r3, #1
    ae72:	425b      	negs	r3, r3
    ae74:	81cb      	strh	r3, [r1, #14]
    ae76:	9a20      	ldr	r2, [sp, #128]	; 0x80
    ae78:	ab21      	add	r3, sp, #132	; 0x84
    ae7a:	0028      	movs	r0, r5
    ae7c:	9301      	str	r3, [sp, #4]
    ae7e:	f000 f899 	bl	afb4 <_svfiprintf_r>
    ae82:	1c43      	adds	r3, r0, #1
    ae84:	da01      	bge.n	ae8a <sniprintf+0x52>
    ae86:	238b      	movs	r3, #139	; 0x8b
    ae88:	602b      	str	r3, [r5, #0]
    ae8a:	2c00      	cmp	r4, #0
    ae8c:	d0df      	beq.n	ae4e <sniprintf+0x16>
    ae8e:	2300      	movs	r3, #0
    ae90:	9a02      	ldr	r2, [sp, #8]
    ae92:	7013      	strb	r3, [r2, #0]
    ae94:	e7db      	b.n	ae4e <sniprintf+0x16>
    ae96:	46c0      	nop			; (mov r8, r8)
    ae98:	200000c8 	.word	0x200000c8

0000ae9c <siprintf>:
    ae9c:	b40e      	push	{r1, r2, r3}
    ae9e:	b510      	push	{r4, lr}
    aea0:	b09d      	sub	sp, #116	; 0x74
    aea2:	a902      	add	r1, sp, #8
    aea4:	9002      	str	r0, [sp, #8]
    aea6:	6108      	str	r0, [r1, #16]
    aea8:	480b      	ldr	r0, [pc, #44]	; (aed8 <siprintf+0x3c>)
    aeaa:	2482      	movs	r4, #130	; 0x82
    aeac:	6088      	str	r0, [r1, #8]
    aeae:	6148      	str	r0, [r1, #20]
    aeb0:	2001      	movs	r0, #1
    aeb2:	4240      	negs	r0, r0
    aeb4:	ab1f      	add	r3, sp, #124	; 0x7c
    aeb6:	81c8      	strh	r0, [r1, #14]
    aeb8:	4808      	ldr	r0, [pc, #32]	; (aedc <siprintf+0x40>)
    aeba:	cb04      	ldmia	r3!, {r2}
    aebc:	00a4      	lsls	r4, r4, #2
    aebe:	6800      	ldr	r0, [r0, #0]
    aec0:	9301      	str	r3, [sp, #4]
    aec2:	818c      	strh	r4, [r1, #12]
    aec4:	f000 f876 	bl	afb4 <_svfiprintf_r>
    aec8:	2300      	movs	r3, #0
    aeca:	9a02      	ldr	r2, [sp, #8]
    aecc:	7013      	strb	r3, [r2, #0]
    aece:	b01d      	add	sp, #116	; 0x74
    aed0:	bc10      	pop	{r4}
    aed2:	bc08      	pop	{r3}
    aed4:	b003      	add	sp, #12
    aed6:	4718      	bx	r3
    aed8:	7fffffff 	.word	0x7fffffff
    aedc:	200000c8 	.word	0x200000c8

0000aee0 <strcpy>:
    aee0:	1c03      	adds	r3, r0, #0
    aee2:	780a      	ldrb	r2, [r1, #0]
    aee4:	3101      	adds	r1, #1
    aee6:	701a      	strb	r2, [r3, #0]
    aee8:	3301      	adds	r3, #1
    aeea:	2a00      	cmp	r2, #0
    aeec:	d1f9      	bne.n	aee2 <strcpy+0x2>
    aeee:	4770      	bx	lr

0000aef0 <__ssputs_r>:
    aef0:	b5f0      	push	{r4, r5, r6, r7, lr}
    aef2:	688e      	ldr	r6, [r1, #8]
    aef4:	b085      	sub	sp, #20
    aef6:	0007      	movs	r7, r0
    aef8:	000c      	movs	r4, r1
    aefa:	9203      	str	r2, [sp, #12]
    aefc:	9301      	str	r3, [sp, #4]
    aefe:	429e      	cmp	r6, r3
    af00:	d839      	bhi.n	af76 <__ssputs_r+0x86>
    af02:	2390      	movs	r3, #144	; 0x90
    af04:	898a      	ldrh	r2, [r1, #12]
    af06:	00db      	lsls	r3, r3, #3
    af08:	421a      	tst	r2, r3
    af0a:	d034      	beq.n	af76 <__ssputs_r+0x86>
    af0c:	2503      	movs	r5, #3
    af0e:	6909      	ldr	r1, [r1, #16]
    af10:	6823      	ldr	r3, [r4, #0]
    af12:	1a5b      	subs	r3, r3, r1
    af14:	9302      	str	r3, [sp, #8]
    af16:	6963      	ldr	r3, [r4, #20]
    af18:	9802      	ldr	r0, [sp, #8]
    af1a:	435d      	muls	r5, r3
    af1c:	0feb      	lsrs	r3, r5, #31
    af1e:	195d      	adds	r5, r3, r5
    af20:	9b01      	ldr	r3, [sp, #4]
    af22:	106d      	asrs	r5, r5, #1
    af24:	3301      	adds	r3, #1
    af26:	181b      	adds	r3, r3, r0
    af28:	42ab      	cmp	r3, r5
    af2a:	d900      	bls.n	af2e <__ssputs_r+0x3e>
    af2c:	001d      	movs	r5, r3
    af2e:	0553      	lsls	r3, r2, #21
    af30:	d532      	bpl.n	af98 <__ssputs_r+0xa8>
    af32:	0029      	movs	r1, r5
    af34:	0038      	movs	r0, r7
    af36:	f000 fb31 	bl	b59c <_malloc_r>
    af3a:	1e06      	subs	r6, r0, #0
    af3c:	d109      	bne.n	af52 <__ssputs_r+0x62>
    af3e:	230c      	movs	r3, #12
    af40:	603b      	str	r3, [r7, #0]
    af42:	2340      	movs	r3, #64	; 0x40
    af44:	2001      	movs	r0, #1
    af46:	89a2      	ldrh	r2, [r4, #12]
    af48:	4240      	negs	r0, r0
    af4a:	4313      	orrs	r3, r2
    af4c:	81a3      	strh	r3, [r4, #12]
    af4e:	b005      	add	sp, #20
    af50:	bdf0      	pop	{r4, r5, r6, r7, pc}
    af52:	9a02      	ldr	r2, [sp, #8]
    af54:	6921      	ldr	r1, [r4, #16]
    af56:	f7ff ff5d 	bl	ae14 <memcpy>
    af5a:	89a3      	ldrh	r3, [r4, #12]
    af5c:	4a14      	ldr	r2, [pc, #80]	; (afb0 <__ssputs_r+0xc0>)
    af5e:	401a      	ands	r2, r3
    af60:	2380      	movs	r3, #128	; 0x80
    af62:	4313      	orrs	r3, r2
    af64:	81a3      	strh	r3, [r4, #12]
    af66:	9b02      	ldr	r3, [sp, #8]
    af68:	6126      	str	r6, [r4, #16]
    af6a:	18f6      	adds	r6, r6, r3
    af6c:	6026      	str	r6, [r4, #0]
    af6e:	6165      	str	r5, [r4, #20]
    af70:	9e01      	ldr	r6, [sp, #4]
    af72:	1aed      	subs	r5, r5, r3
    af74:	60a5      	str	r5, [r4, #8]
    af76:	9b01      	ldr	r3, [sp, #4]
    af78:	42b3      	cmp	r3, r6
    af7a:	d200      	bcs.n	af7e <__ssputs_r+0x8e>
    af7c:	001e      	movs	r6, r3
    af7e:	0032      	movs	r2, r6
    af80:	9903      	ldr	r1, [sp, #12]
    af82:	6820      	ldr	r0, [r4, #0]
    af84:	f000 faad 	bl	b4e2 <memmove>
    af88:	68a3      	ldr	r3, [r4, #8]
    af8a:	2000      	movs	r0, #0
    af8c:	1b9b      	subs	r3, r3, r6
    af8e:	60a3      	str	r3, [r4, #8]
    af90:	6823      	ldr	r3, [r4, #0]
    af92:	199e      	adds	r6, r3, r6
    af94:	6026      	str	r6, [r4, #0]
    af96:	e7da      	b.n	af4e <__ssputs_r+0x5e>
    af98:	002a      	movs	r2, r5
    af9a:	0038      	movs	r0, r7
    af9c:	f000 fb5c 	bl	b658 <_realloc_r>
    afa0:	1e06      	subs	r6, r0, #0
    afa2:	d1e0      	bne.n	af66 <__ssputs_r+0x76>
    afa4:	6921      	ldr	r1, [r4, #16]
    afa6:	0038      	movs	r0, r7
    afa8:	f000 faae 	bl	b508 <_free_r>
    afac:	e7c7      	b.n	af3e <__ssputs_r+0x4e>
    afae:	46c0      	nop			; (mov r8, r8)
    afb0:	fffffb7f 	.word	0xfffffb7f

0000afb4 <_svfiprintf_r>:
    afb4:	b5f0      	push	{r4, r5, r6, r7, lr}
    afb6:	b09f      	sub	sp, #124	; 0x7c
    afb8:	9002      	str	r0, [sp, #8]
    afba:	9305      	str	r3, [sp, #20]
    afbc:	898b      	ldrh	r3, [r1, #12]
    afbe:	000f      	movs	r7, r1
    afc0:	0016      	movs	r6, r2
    afc2:	061b      	lsls	r3, r3, #24
    afc4:	d511      	bpl.n	afea <_svfiprintf_r+0x36>
    afc6:	690b      	ldr	r3, [r1, #16]
    afc8:	2b00      	cmp	r3, #0
    afca:	d10e      	bne.n	afea <_svfiprintf_r+0x36>
    afcc:	2140      	movs	r1, #64	; 0x40
    afce:	f000 fae5 	bl	b59c <_malloc_r>
    afd2:	6038      	str	r0, [r7, #0]
    afd4:	6138      	str	r0, [r7, #16]
    afd6:	2800      	cmp	r0, #0
    afd8:	d105      	bne.n	afe6 <_svfiprintf_r+0x32>
    afda:	230c      	movs	r3, #12
    afdc:	9a02      	ldr	r2, [sp, #8]
    afde:	3801      	subs	r0, #1
    afe0:	6013      	str	r3, [r2, #0]
    afe2:	b01f      	add	sp, #124	; 0x7c
    afe4:	bdf0      	pop	{r4, r5, r6, r7, pc}
    afe6:	2340      	movs	r3, #64	; 0x40
    afe8:	617b      	str	r3, [r7, #20]
    afea:	2300      	movs	r3, #0
    afec:	ad06      	add	r5, sp, #24
    afee:	616b      	str	r3, [r5, #20]
    aff0:	3320      	adds	r3, #32
    aff2:	766b      	strb	r3, [r5, #25]
    aff4:	3310      	adds	r3, #16
    aff6:	76ab      	strb	r3, [r5, #26]
    aff8:	0034      	movs	r4, r6
    affa:	7823      	ldrb	r3, [r4, #0]
    affc:	2b00      	cmp	r3, #0
    affe:	d147      	bne.n	b090 <_svfiprintf_r+0xdc>
    b000:	1ba3      	subs	r3, r4, r6
    b002:	9304      	str	r3, [sp, #16]
    b004:	d00d      	beq.n	b022 <_svfiprintf_r+0x6e>
    b006:	1ba3      	subs	r3, r4, r6
    b008:	0032      	movs	r2, r6
    b00a:	0039      	movs	r1, r7
    b00c:	9802      	ldr	r0, [sp, #8]
    b00e:	f7ff ff6f 	bl	aef0 <__ssputs_r>
    b012:	1c43      	adds	r3, r0, #1
    b014:	d100      	bne.n	b018 <_svfiprintf_r+0x64>
    b016:	e0b5      	b.n	b184 <_svfiprintf_r+0x1d0>
    b018:	696a      	ldr	r2, [r5, #20]
    b01a:	9b04      	ldr	r3, [sp, #16]
    b01c:	4694      	mov	ip, r2
    b01e:	4463      	add	r3, ip
    b020:	616b      	str	r3, [r5, #20]
    b022:	7823      	ldrb	r3, [r4, #0]
    b024:	2b00      	cmp	r3, #0
    b026:	d100      	bne.n	b02a <_svfiprintf_r+0x76>
    b028:	e0ac      	b.n	b184 <_svfiprintf_r+0x1d0>
    b02a:	2201      	movs	r2, #1
    b02c:	2300      	movs	r3, #0
    b02e:	4252      	negs	r2, r2
    b030:	606a      	str	r2, [r5, #4]
    b032:	a902      	add	r1, sp, #8
    b034:	3254      	adds	r2, #84	; 0x54
    b036:	1852      	adds	r2, r2, r1
    b038:	3401      	adds	r4, #1
    b03a:	602b      	str	r3, [r5, #0]
    b03c:	60eb      	str	r3, [r5, #12]
    b03e:	60ab      	str	r3, [r5, #8]
    b040:	7013      	strb	r3, [r2, #0]
    b042:	65ab      	str	r3, [r5, #88]	; 0x58
    b044:	4e58      	ldr	r6, [pc, #352]	; (b1a8 <_svfiprintf_r+0x1f4>)
    b046:	2205      	movs	r2, #5
    b048:	7821      	ldrb	r1, [r4, #0]
    b04a:	0030      	movs	r0, r6
    b04c:	f000 fa3e 	bl	b4cc <memchr>
    b050:	1c62      	adds	r2, r4, #1
    b052:	2800      	cmp	r0, #0
    b054:	d120      	bne.n	b098 <_svfiprintf_r+0xe4>
    b056:	6829      	ldr	r1, [r5, #0]
    b058:	06cb      	lsls	r3, r1, #27
    b05a:	d504      	bpl.n	b066 <_svfiprintf_r+0xb2>
    b05c:	2353      	movs	r3, #83	; 0x53
    b05e:	ae02      	add	r6, sp, #8
    b060:	3020      	adds	r0, #32
    b062:	199b      	adds	r3, r3, r6
    b064:	7018      	strb	r0, [r3, #0]
    b066:	070b      	lsls	r3, r1, #28
    b068:	d504      	bpl.n	b074 <_svfiprintf_r+0xc0>
    b06a:	2353      	movs	r3, #83	; 0x53
    b06c:	202b      	movs	r0, #43	; 0x2b
    b06e:	ae02      	add	r6, sp, #8
    b070:	199b      	adds	r3, r3, r6
    b072:	7018      	strb	r0, [r3, #0]
    b074:	7823      	ldrb	r3, [r4, #0]
    b076:	2b2a      	cmp	r3, #42	; 0x2a
    b078:	d016      	beq.n	b0a8 <_svfiprintf_r+0xf4>
    b07a:	2000      	movs	r0, #0
    b07c:	210a      	movs	r1, #10
    b07e:	9b09      	ldr	r3, [sp, #36]	; 0x24
    b080:	7822      	ldrb	r2, [r4, #0]
    b082:	3a30      	subs	r2, #48	; 0x30
    b084:	2a09      	cmp	r2, #9
    b086:	d955      	bls.n	b134 <_svfiprintf_r+0x180>
    b088:	2800      	cmp	r0, #0
    b08a:	d015      	beq.n	b0b8 <_svfiprintf_r+0x104>
    b08c:	9309      	str	r3, [sp, #36]	; 0x24
    b08e:	e013      	b.n	b0b8 <_svfiprintf_r+0x104>
    b090:	2b25      	cmp	r3, #37	; 0x25
    b092:	d0b5      	beq.n	b000 <_svfiprintf_r+0x4c>
    b094:	3401      	adds	r4, #1
    b096:	e7b0      	b.n	affa <_svfiprintf_r+0x46>
    b098:	2301      	movs	r3, #1
    b09a:	1b80      	subs	r0, r0, r6
    b09c:	4083      	lsls	r3, r0
    b09e:	6829      	ldr	r1, [r5, #0]
    b0a0:	0014      	movs	r4, r2
    b0a2:	430b      	orrs	r3, r1
    b0a4:	602b      	str	r3, [r5, #0]
    b0a6:	e7cd      	b.n	b044 <_svfiprintf_r+0x90>
    b0a8:	9b05      	ldr	r3, [sp, #20]
    b0aa:	1d18      	adds	r0, r3, #4
    b0ac:	681b      	ldr	r3, [r3, #0]
    b0ae:	9005      	str	r0, [sp, #20]
    b0b0:	2b00      	cmp	r3, #0
    b0b2:	db39      	blt.n	b128 <_svfiprintf_r+0x174>
    b0b4:	9309      	str	r3, [sp, #36]	; 0x24
    b0b6:	0014      	movs	r4, r2
    b0b8:	7823      	ldrb	r3, [r4, #0]
    b0ba:	2b2e      	cmp	r3, #46	; 0x2e
    b0bc:	d10b      	bne.n	b0d6 <_svfiprintf_r+0x122>
    b0be:	7863      	ldrb	r3, [r4, #1]
    b0c0:	1c62      	adds	r2, r4, #1
    b0c2:	2b2a      	cmp	r3, #42	; 0x2a
    b0c4:	d13e      	bne.n	b144 <_svfiprintf_r+0x190>
    b0c6:	9b05      	ldr	r3, [sp, #20]
    b0c8:	3402      	adds	r4, #2
    b0ca:	1d1a      	adds	r2, r3, #4
    b0cc:	681b      	ldr	r3, [r3, #0]
    b0ce:	9205      	str	r2, [sp, #20]
    b0d0:	2b00      	cmp	r3, #0
    b0d2:	db34      	blt.n	b13e <_svfiprintf_r+0x18a>
    b0d4:	9307      	str	r3, [sp, #28]
    b0d6:	4e35      	ldr	r6, [pc, #212]	; (b1ac <_svfiprintf_r+0x1f8>)
    b0d8:	7821      	ldrb	r1, [r4, #0]
    b0da:	2203      	movs	r2, #3
    b0dc:	0030      	movs	r0, r6
    b0de:	f000 f9f5 	bl	b4cc <memchr>
    b0e2:	2800      	cmp	r0, #0
    b0e4:	d006      	beq.n	b0f4 <_svfiprintf_r+0x140>
    b0e6:	2340      	movs	r3, #64	; 0x40
    b0e8:	1b80      	subs	r0, r0, r6
    b0ea:	4083      	lsls	r3, r0
    b0ec:	682a      	ldr	r2, [r5, #0]
    b0ee:	3401      	adds	r4, #1
    b0f0:	4313      	orrs	r3, r2
    b0f2:	602b      	str	r3, [r5, #0]
    b0f4:	7821      	ldrb	r1, [r4, #0]
    b0f6:	2206      	movs	r2, #6
    b0f8:	482d      	ldr	r0, [pc, #180]	; (b1b0 <_svfiprintf_r+0x1fc>)
    b0fa:	1c66      	adds	r6, r4, #1
    b0fc:	7629      	strb	r1, [r5, #24]
    b0fe:	f000 f9e5 	bl	b4cc <memchr>
    b102:	2800      	cmp	r0, #0
    b104:	d046      	beq.n	b194 <_svfiprintf_r+0x1e0>
    b106:	4b2b      	ldr	r3, [pc, #172]	; (b1b4 <_svfiprintf_r+0x200>)
    b108:	2b00      	cmp	r3, #0
    b10a:	d12f      	bne.n	b16c <_svfiprintf_r+0x1b8>
    b10c:	6829      	ldr	r1, [r5, #0]
    b10e:	9b05      	ldr	r3, [sp, #20]
    b110:	2207      	movs	r2, #7
    b112:	05c9      	lsls	r1, r1, #23
    b114:	d528      	bpl.n	b168 <_svfiprintf_r+0x1b4>
    b116:	189b      	adds	r3, r3, r2
    b118:	4393      	bics	r3, r2
    b11a:	3308      	adds	r3, #8
    b11c:	9305      	str	r3, [sp, #20]
    b11e:	696b      	ldr	r3, [r5, #20]
    b120:	9a03      	ldr	r2, [sp, #12]
    b122:	189b      	adds	r3, r3, r2
    b124:	616b      	str	r3, [r5, #20]
    b126:	e767      	b.n	aff8 <_svfiprintf_r+0x44>
    b128:	425b      	negs	r3, r3
    b12a:	60eb      	str	r3, [r5, #12]
    b12c:	2302      	movs	r3, #2
    b12e:	430b      	orrs	r3, r1
    b130:	602b      	str	r3, [r5, #0]
    b132:	e7c0      	b.n	b0b6 <_svfiprintf_r+0x102>
    b134:	434b      	muls	r3, r1
    b136:	3401      	adds	r4, #1
    b138:	189b      	adds	r3, r3, r2
    b13a:	2001      	movs	r0, #1
    b13c:	e7a0      	b.n	b080 <_svfiprintf_r+0xcc>
    b13e:	2301      	movs	r3, #1
    b140:	425b      	negs	r3, r3
    b142:	e7c7      	b.n	b0d4 <_svfiprintf_r+0x120>
    b144:	2300      	movs	r3, #0
    b146:	0014      	movs	r4, r2
    b148:	200a      	movs	r0, #10
    b14a:	001a      	movs	r2, r3
    b14c:	606b      	str	r3, [r5, #4]
    b14e:	7821      	ldrb	r1, [r4, #0]
    b150:	3930      	subs	r1, #48	; 0x30
    b152:	2909      	cmp	r1, #9
    b154:	d903      	bls.n	b15e <_svfiprintf_r+0x1aa>
    b156:	2b00      	cmp	r3, #0
    b158:	d0bd      	beq.n	b0d6 <_svfiprintf_r+0x122>
    b15a:	9207      	str	r2, [sp, #28]
    b15c:	e7bb      	b.n	b0d6 <_svfiprintf_r+0x122>
    b15e:	4342      	muls	r2, r0
    b160:	3401      	adds	r4, #1
    b162:	1852      	adds	r2, r2, r1
    b164:	2301      	movs	r3, #1
    b166:	e7f2      	b.n	b14e <_svfiprintf_r+0x19a>
    b168:	3307      	adds	r3, #7
    b16a:	e7d5      	b.n	b118 <_svfiprintf_r+0x164>
    b16c:	ab05      	add	r3, sp, #20
    b16e:	9300      	str	r3, [sp, #0]
    b170:	003a      	movs	r2, r7
    b172:	4b11      	ldr	r3, [pc, #68]	; (b1b8 <_svfiprintf_r+0x204>)
    b174:	0029      	movs	r1, r5
    b176:	9802      	ldr	r0, [sp, #8]
    b178:	e000      	b.n	b17c <_svfiprintf_r+0x1c8>
    b17a:	bf00      	nop
    b17c:	9003      	str	r0, [sp, #12]
    b17e:	9b03      	ldr	r3, [sp, #12]
    b180:	3301      	adds	r3, #1
    b182:	d1cc      	bne.n	b11e <_svfiprintf_r+0x16a>
    b184:	89bb      	ldrh	r3, [r7, #12]
    b186:	980b      	ldr	r0, [sp, #44]	; 0x2c
    b188:	065b      	lsls	r3, r3, #25
    b18a:	d400      	bmi.n	b18e <_svfiprintf_r+0x1da>
    b18c:	e729      	b.n	afe2 <_svfiprintf_r+0x2e>
    b18e:	2001      	movs	r0, #1
    b190:	4240      	negs	r0, r0
    b192:	e726      	b.n	afe2 <_svfiprintf_r+0x2e>
    b194:	ab05      	add	r3, sp, #20
    b196:	9300      	str	r3, [sp, #0]
    b198:	003a      	movs	r2, r7
    b19a:	4b07      	ldr	r3, [pc, #28]	; (b1b8 <_svfiprintf_r+0x204>)
    b19c:	0029      	movs	r1, r5
    b19e:	9802      	ldr	r0, [sp, #8]
    b1a0:	f000 f87a 	bl	b298 <_printf_i>
    b1a4:	e7ea      	b.n	b17c <_svfiprintf_r+0x1c8>
    b1a6:	46c0      	nop			; (mov r8, r8)
    b1a8:	0000baac 	.word	0x0000baac
    b1ac:	0000bab2 	.word	0x0000bab2
    b1b0:	0000bab6 	.word	0x0000bab6
    b1b4:	00000000 	.word	0x00000000
    b1b8:	0000aef1 	.word	0x0000aef1

0000b1bc <_printf_common>:
    b1bc:	b5f7      	push	{r0, r1, r2, r4, r5, r6, r7, lr}
    b1be:	0015      	movs	r5, r2
    b1c0:	9301      	str	r3, [sp, #4]
    b1c2:	688a      	ldr	r2, [r1, #8]
    b1c4:	690b      	ldr	r3, [r1, #16]
    b1c6:	9000      	str	r0, [sp, #0]
    b1c8:	000c      	movs	r4, r1
    b1ca:	4293      	cmp	r3, r2
    b1cc:	da00      	bge.n	b1d0 <_printf_common+0x14>
    b1ce:	0013      	movs	r3, r2
    b1d0:	0022      	movs	r2, r4
    b1d2:	602b      	str	r3, [r5, #0]
    b1d4:	3243      	adds	r2, #67	; 0x43
    b1d6:	7812      	ldrb	r2, [r2, #0]
    b1d8:	2a00      	cmp	r2, #0
    b1da:	d001      	beq.n	b1e0 <_printf_common+0x24>
    b1dc:	3301      	adds	r3, #1
    b1de:	602b      	str	r3, [r5, #0]
    b1e0:	6823      	ldr	r3, [r4, #0]
    b1e2:	069b      	lsls	r3, r3, #26
    b1e4:	d502      	bpl.n	b1ec <_printf_common+0x30>
    b1e6:	682b      	ldr	r3, [r5, #0]
    b1e8:	3302      	adds	r3, #2
    b1ea:	602b      	str	r3, [r5, #0]
    b1ec:	2706      	movs	r7, #6
    b1ee:	6823      	ldr	r3, [r4, #0]
    b1f0:	401f      	ands	r7, r3
    b1f2:	d027      	beq.n	b244 <_printf_common+0x88>
    b1f4:	0023      	movs	r3, r4
    b1f6:	3343      	adds	r3, #67	; 0x43
    b1f8:	781b      	ldrb	r3, [r3, #0]
    b1fa:	1e5a      	subs	r2, r3, #1
    b1fc:	4193      	sbcs	r3, r2
    b1fe:	6822      	ldr	r2, [r4, #0]
    b200:	0692      	lsls	r2, r2, #26
    b202:	d430      	bmi.n	b266 <_printf_common+0xaa>
    b204:	0022      	movs	r2, r4
    b206:	9901      	ldr	r1, [sp, #4]
    b208:	3243      	adds	r2, #67	; 0x43
    b20a:	9800      	ldr	r0, [sp, #0]
    b20c:	9e08      	ldr	r6, [sp, #32]
    b20e:	47b0      	blx	r6
    b210:	1c43      	adds	r3, r0, #1
    b212:	d025      	beq.n	b260 <_printf_common+0xa4>
    b214:	2306      	movs	r3, #6
    b216:	6820      	ldr	r0, [r4, #0]
    b218:	682a      	ldr	r2, [r5, #0]
    b21a:	68e1      	ldr	r1, [r4, #12]
    b21c:	4003      	ands	r3, r0
    b21e:	2500      	movs	r5, #0
    b220:	2b04      	cmp	r3, #4
    b222:	d103      	bne.n	b22c <_printf_common+0x70>
    b224:	1a8d      	subs	r5, r1, r2
    b226:	43eb      	mvns	r3, r5
    b228:	17db      	asrs	r3, r3, #31
    b22a:	401d      	ands	r5, r3
    b22c:	68a3      	ldr	r3, [r4, #8]
    b22e:	6922      	ldr	r2, [r4, #16]
    b230:	4293      	cmp	r3, r2
    b232:	dd01      	ble.n	b238 <_printf_common+0x7c>
    b234:	1a9b      	subs	r3, r3, r2
    b236:	18ed      	adds	r5, r5, r3
    b238:	2700      	movs	r7, #0
    b23a:	42bd      	cmp	r5, r7
    b23c:	d120      	bne.n	b280 <_printf_common+0xc4>
    b23e:	2000      	movs	r0, #0
    b240:	e010      	b.n	b264 <_printf_common+0xa8>
    b242:	3701      	adds	r7, #1
    b244:	68e3      	ldr	r3, [r4, #12]
    b246:	682a      	ldr	r2, [r5, #0]
    b248:	1a9b      	subs	r3, r3, r2
    b24a:	429f      	cmp	r7, r3
    b24c:	dad2      	bge.n	b1f4 <_printf_common+0x38>
    b24e:	0022      	movs	r2, r4
    b250:	2301      	movs	r3, #1
    b252:	3219      	adds	r2, #25
    b254:	9901      	ldr	r1, [sp, #4]
    b256:	9800      	ldr	r0, [sp, #0]
    b258:	9e08      	ldr	r6, [sp, #32]
    b25a:	47b0      	blx	r6
    b25c:	1c43      	adds	r3, r0, #1
    b25e:	d1f0      	bne.n	b242 <_printf_common+0x86>
    b260:	2001      	movs	r0, #1
    b262:	4240      	negs	r0, r0
    b264:	bdfe      	pop	{r1, r2, r3, r4, r5, r6, r7, pc}
    b266:	2030      	movs	r0, #48	; 0x30
    b268:	18e1      	adds	r1, r4, r3
    b26a:	3143      	adds	r1, #67	; 0x43
    b26c:	7008      	strb	r0, [r1, #0]
    b26e:	0021      	movs	r1, r4
    b270:	1c5a      	adds	r2, r3, #1
    b272:	3145      	adds	r1, #69	; 0x45
    b274:	7809      	ldrb	r1, [r1, #0]
    b276:	18a2      	adds	r2, r4, r2
    b278:	3243      	adds	r2, #67	; 0x43
    b27a:	3302      	adds	r3, #2
    b27c:	7011      	strb	r1, [r2, #0]
    b27e:	e7c1      	b.n	b204 <_printf_common+0x48>
    b280:	0022      	movs	r2, r4
    b282:	2301      	movs	r3, #1
    b284:	321a      	adds	r2, #26
    b286:	9901      	ldr	r1, [sp, #4]
    b288:	9800      	ldr	r0, [sp, #0]
    b28a:	9e08      	ldr	r6, [sp, #32]
    b28c:	47b0      	blx	r6
    b28e:	1c43      	adds	r3, r0, #1
    b290:	d0e6      	beq.n	b260 <_printf_common+0xa4>
    b292:	3701      	adds	r7, #1
    b294:	e7d1      	b.n	b23a <_printf_common+0x7e>
	...

0000b298 <_printf_i>:
    b298:	b5f0      	push	{r4, r5, r6, r7, lr}
    b29a:	b08b      	sub	sp, #44	; 0x2c
    b29c:	9206      	str	r2, [sp, #24]
    b29e:	000a      	movs	r2, r1
    b2a0:	3243      	adds	r2, #67	; 0x43
    b2a2:	9307      	str	r3, [sp, #28]
    b2a4:	9005      	str	r0, [sp, #20]
    b2a6:	9204      	str	r2, [sp, #16]
    b2a8:	7e0a      	ldrb	r2, [r1, #24]
    b2aa:	000c      	movs	r4, r1
    b2ac:	9b10      	ldr	r3, [sp, #64]	; 0x40
    b2ae:	2a6e      	cmp	r2, #110	; 0x6e
    b2b0:	d100      	bne.n	b2b4 <_printf_i+0x1c>
    b2b2:	e08f      	b.n	b3d4 <_printf_i+0x13c>
    b2b4:	d817      	bhi.n	b2e6 <_printf_i+0x4e>
    b2b6:	2a63      	cmp	r2, #99	; 0x63
    b2b8:	d02c      	beq.n	b314 <_printf_i+0x7c>
    b2ba:	d808      	bhi.n	b2ce <_printf_i+0x36>
    b2bc:	2a00      	cmp	r2, #0
    b2be:	d100      	bne.n	b2c2 <_printf_i+0x2a>
    b2c0:	e099      	b.n	b3f6 <_printf_i+0x15e>
    b2c2:	2a58      	cmp	r2, #88	; 0x58
    b2c4:	d054      	beq.n	b370 <_printf_i+0xd8>
    b2c6:	0026      	movs	r6, r4
    b2c8:	3642      	adds	r6, #66	; 0x42
    b2ca:	7032      	strb	r2, [r6, #0]
    b2cc:	e029      	b.n	b322 <_printf_i+0x8a>
    b2ce:	2a64      	cmp	r2, #100	; 0x64
    b2d0:	d001      	beq.n	b2d6 <_printf_i+0x3e>
    b2d2:	2a69      	cmp	r2, #105	; 0x69
    b2d4:	d1f7      	bne.n	b2c6 <_printf_i+0x2e>
    b2d6:	6821      	ldr	r1, [r4, #0]
    b2d8:	681a      	ldr	r2, [r3, #0]
    b2da:	0608      	lsls	r0, r1, #24
    b2dc:	d523      	bpl.n	b326 <_printf_i+0x8e>
    b2de:	1d11      	adds	r1, r2, #4
    b2e0:	6019      	str	r1, [r3, #0]
    b2e2:	6815      	ldr	r5, [r2, #0]
    b2e4:	e025      	b.n	b332 <_printf_i+0x9a>
    b2e6:	2a73      	cmp	r2, #115	; 0x73
    b2e8:	d100      	bne.n	b2ec <_printf_i+0x54>
    b2ea:	e088      	b.n	b3fe <_printf_i+0x166>
    b2ec:	d808      	bhi.n	b300 <_printf_i+0x68>
    b2ee:	2a6f      	cmp	r2, #111	; 0x6f
    b2f0:	d029      	beq.n	b346 <_printf_i+0xae>
    b2f2:	2a70      	cmp	r2, #112	; 0x70
    b2f4:	d1e7      	bne.n	b2c6 <_printf_i+0x2e>
    b2f6:	2220      	movs	r2, #32
    b2f8:	6809      	ldr	r1, [r1, #0]
    b2fa:	430a      	orrs	r2, r1
    b2fc:	6022      	str	r2, [r4, #0]
    b2fe:	e003      	b.n	b308 <_printf_i+0x70>
    b300:	2a75      	cmp	r2, #117	; 0x75
    b302:	d020      	beq.n	b346 <_printf_i+0xae>
    b304:	2a78      	cmp	r2, #120	; 0x78
    b306:	d1de      	bne.n	b2c6 <_printf_i+0x2e>
    b308:	0022      	movs	r2, r4
    b30a:	2178      	movs	r1, #120	; 0x78
    b30c:	3245      	adds	r2, #69	; 0x45
    b30e:	7011      	strb	r1, [r2, #0]
    b310:	4a6c      	ldr	r2, [pc, #432]	; (b4c4 <_printf_i+0x22c>)
    b312:	e030      	b.n	b376 <_printf_i+0xde>
    b314:	000e      	movs	r6, r1
    b316:	681a      	ldr	r2, [r3, #0]
    b318:	3642      	adds	r6, #66	; 0x42
    b31a:	1d11      	adds	r1, r2, #4
    b31c:	6019      	str	r1, [r3, #0]
    b31e:	6813      	ldr	r3, [r2, #0]
    b320:	7033      	strb	r3, [r6, #0]
    b322:	2301      	movs	r3, #1
    b324:	e079      	b.n	b41a <_printf_i+0x182>
    b326:	0649      	lsls	r1, r1, #25
    b328:	d5d9      	bpl.n	b2de <_printf_i+0x46>
    b32a:	1d11      	adds	r1, r2, #4
    b32c:	6019      	str	r1, [r3, #0]
    b32e:	2300      	movs	r3, #0
    b330:	5ed5      	ldrsh	r5, [r2, r3]
    b332:	2d00      	cmp	r5, #0
    b334:	da03      	bge.n	b33e <_printf_i+0xa6>
    b336:	232d      	movs	r3, #45	; 0x2d
    b338:	9a04      	ldr	r2, [sp, #16]
    b33a:	426d      	negs	r5, r5
    b33c:	7013      	strb	r3, [r2, #0]
    b33e:	4b62      	ldr	r3, [pc, #392]	; (b4c8 <_printf_i+0x230>)
    b340:	270a      	movs	r7, #10
    b342:	9303      	str	r3, [sp, #12]
    b344:	e02f      	b.n	b3a6 <_printf_i+0x10e>
    b346:	6820      	ldr	r0, [r4, #0]
    b348:	6819      	ldr	r1, [r3, #0]
    b34a:	0605      	lsls	r5, r0, #24
    b34c:	d503      	bpl.n	b356 <_printf_i+0xbe>
    b34e:	1d08      	adds	r0, r1, #4
    b350:	6018      	str	r0, [r3, #0]
    b352:	680d      	ldr	r5, [r1, #0]
    b354:	e005      	b.n	b362 <_printf_i+0xca>
    b356:	0640      	lsls	r0, r0, #25
    b358:	d5f9      	bpl.n	b34e <_printf_i+0xb6>
    b35a:	680d      	ldr	r5, [r1, #0]
    b35c:	1d08      	adds	r0, r1, #4
    b35e:	6018      	str	r0, [r3, #0]
    b360:	b2ad      	uxth	r5, r5
    b362:	4b59      	ldr	r3, [pc, #356]	; (b4c8 <_printf_i+0x230>)
    b364:	2708      	movs	r7, #8
    b366:	9303      	str	r3, [sp, #12]
    b368:	2a6f      	cmp	r2, #111	; 0x6f
    b36a:	d018      	beq.n	b39e <_printf_i+0x106>
    b36c:	270a      	movs	r7, #10
    b36e:	e016      	b.n	b39e <_printf_i+0x106>
    b370:	3145      	adds	r1, #69	; 0x45
    b372:	700a      	strb	r2, [r1, #0]
    b374:	4a54      	ldr	r2, [pc, #336]	; (b4c8 <_printf_i+0x230>)
    b376:	9203      	str	r2, [sp, #12]
    b378:	681a      	ldr	r2, [r3, #0]
    b37a:	6821      	ldr	r1, [r4, #0]
    b37c:	1d10      	adds	r0, r2, #4
    b37e:	6018      	str	r0, [r3, #0]
    b380:	6815      	ldr	r5, [r2, #0]
    b382:	0608      	lsls	r0, r1, #24
    b384:	d522      	bpl.n	b3cc <_printf_i+0x134>
    b386:	07cb      	lsls	r3, r1, #31
    b388:	d502      	bpl.n	b390 <_printf_i+0xf8>
    b38a:	2320      	movs	r3, #32
    b38c:	4319      	orrs	r1, r3
    b38e:	6021      	str	r1, [r4, #0]
    b390:	2710      	movs	r7, #16
    b392:	2d00      	cmp	r5, #0
    b394:	d103      	bne.n	b39e <_printf_i+0x106>
    b396:	2320      	movs	r3, #32
    b398:	6822      	ldr	r2, [r4, #0]
    b39a:	439a      	bics	r2, r3
    b39c:	6022      	str	r2, [r4, #0]
    b39e:	0023      	movs	r3, r4
    b3a0:	2200      	movs	r2, #0
    b3a2:	3343      	adds	r3, #67	; 0x43
    b3a4:	701a      	strb	r2, [r3, #0]
    b3a6:	6863      	ldr	r3, [r4, #4]
    b3a8:	60a3      	str	r3, [r4, #8]
    b3aa:	2b00      	cmp	r3, #0
    b3ac:	db5c      	blt.n	b468 <_printf_i+0x1d0>
    b3ae:	2204      	movs	r2, #4
    b3b0:	6821      	ldr	r1, [r4, #0]
    b3b2:	4391      	bics	r1, r2
    b3b4:	6021      	str	r1, [r4, #0]
    b3b6:	2d00      	cmp	r5, #0
    b3b8:	d158      	bne.n	b46c <_printf_i+0x1d4>
    b3ba:	9e04      	ldr	r6, [sp, #16]
    b3bc:	2b00      	cmp	r3, #0
    b3be:	d064      	beq.n	b48a <_printf_i+0x1f2>
    b3c0:	0026      	movs	r6, r4
    b3c2:	9b03      	ldr	r3, [sp, #12]
    b3c4:	3642      	adds	r6, #66	; 0x42
    b3c6:	781b      	ldrb	r3, [r3, #0]
    b3c8:	7033      	strb	r3, [r6, #0]
    b3ca:	e05e      	b.n	b48a <_printf_i+0x1f2>
    b3cc:	0648      	lsls	r0, r1, #25
    b3ce:	d5da      	bpl.n	b386 <_printf_i+0xee>
    b3d0:	b2ad      	uxth	r5, r5
    b3d2:	e7d8      	b.n	b386 <_printf_i+0xee>
    b3d4:	6809      	ldr	r1, [r1, #0]
    b3d6:	681a      	ldr	r2, [r3, #0]
    b3d8:	0608      	lsls	r0, r1, #24
    b3da:	d505      	bpl.n	b3e8 <_printf_i+0x150>
    b3dc:	1d11      	adds	r1, r2, #4
    b3de:	6019      	str	r1, [r3, #0]
    b3e0:	6813      	ldr	r3, [r2, #0]
    b3e2:	6962      	ldr	r2, [r4, #20]
    b3e4:	601a      	str	r2, [r3, #0]
    b3e6:	e006      	b.n	b3f6 <_printf_i+0x15e>
    b3e8:	0649      	lsls	r1, r1, #25
    b3ea:	d5f7      	bpl.n	b3dc <_printf_i+0x144>
    b3ec:	1d11      	adds	r1, r2, #4
    b3ee:	6019      	str	r1, [r3, #0]
    b3f0:	6813      	ldr	r3, [r2, #0]
    b3f2:	8aa2      	ldrh	r2, [r4, #20]
    b3f4:	801a      	strh	r2, [r3, #0]
    b3f6:	2300      	movs	r3, #0
    b3f8:	9e04      	ldr	r6, [sp, #16]
    b3fa:	6123      	str	r3, [r4, #16]
    b3fc:	e054      	b.n	b4a8 <_printf_i+0x210>
    b3fe:	681a      	ldr	r2, [r3, #0]
    b400:	1d11      	adds	r1, r2, #4
    b402:	6019      	str	r1, [r3, #0]
    b404:	6816      	ldr	r6, [r2, #0]
    b406:	2100      	movs	r1, #0
    b408:	6862      	ldr	r2, [r4, #4]
    b40a:	0030      	movs	r0, r6
    b40c:	f000 f85e 	bl	b4cc <memchr>
    b410:	2800      	cmp	r0, #0
    b412:	d001      	beq.n	b418 <_printf_i+0x180>
    b414:	1b80      	subs	r0, r0, r6
    b416:	6060      	str	r0, [r4, #4]
    b418:	6863      	ldr	r3, [r4, #4]
    b41a:	6123      	str	r3, [r4, #16]
    b41c:	2300      	movs	r3, #0
    b41e:	9a04      	ldr	r2, [sp, #16]
    b420:	7013      	strb	r3, [r2, #0]
    b422:	e041      	b.n	b4a8 <_printf_i+0x210>
    b424:	6923      	ldr	r3, [r4, #16]
    b426:	0032      	movs	r2, r6
    b428:	9906      	ldr	r1, [sp, #24]
    b42a:	9805      	ldr	r0, [sp, #20]
    b42c:	9d07      	ldr	r5, [sp, #28]
    b42e:	47a8      	blx	r5
    b430:	1c43      	adds	r3, r0, #1
    b432:	d043      	beq.n	b4bc <_printf_i+0x224>
    b434:	6823      	ldr	r3, [r4, #0]
    b436:	2500      	movs	r5, #0
    b438:	079b      	lsls	r3, r3, #30
    b43a:	d40f      	bmi.n	b45c <_printf_i+0x1c4>
    b43c:	9b09      	ldr	r3, [sp, #36]	; 0x24
    b43e:	68e0      	ldr	r0, [r4, #12]
    b440:	4298      	cmp	r0, r3
    b442:	da3d      	bge.n	b4c0 <_printf_i+0x228>
    b444:	0018      	movs	r0, r3
    b446:	e03b      	b.n	b4c0 <_printf_i+0x228>
    b448:	0022      	movs	r2, r4
    b44a:	2301      	movs	r3, #1
    b44c:	3219      	adds	r2, #25
    b44e:	9906      	ldr	r1, [sp, #24]
    b450:	9805      	ldr	r0, [sp, #20]
    b452:	9e07      	ldr	r6, [sp, #28]
    b454:	47b0      	blx	r6
    b456:	1c43      	adds	r3, r0, #1
    b458:	d030      	beq.n	b4bc <_printf_i+0x224>
    b45a:	3501      	adds	r5, #1
    b45c:	68e3      	ldr	r3, [r4, #12]
    b45e:	9a09      	ldr	r2, [sp, #36]	; 0x24
    b460:	1a9b      	subs	r3, r3, r2
    b462:	429d      	cmp	r5, r3
    b464:	dbf0      	blt.n	b448 <_printf_i+0x1b0>
    b466:	e7e9      	b.n	b43c <_printf_i+0x1a4>
    b468:	2d00      	cmp	r5, #0
    b46a:	d0a9      	beq.n	b3c0 <_printf_i+0x128>
    b46c:	9e04      	ldr	r6, [sp, #16]
    b46e:	0028      	movs	r0, r5
    b470:	0039      	movs	r1, r7
    b472:	f7fc fca7 	bl	7dc4 <__aeabi_uidivmod>
    b476:	9b03      	ldr	r3, [sp, #12]
    b478:	3e01      	subs	r6, #1
    b47a:	5c5b      	ldrb	r3, [r3, r1]
    b47c:	0028      	movs	r0, r5
    b47e:	7033      	strb	r3, [r6, #0]
    b480:	0039      	movs	r1, r7
    b482:	f7fc fc19 	bl	7cb8 <__udivsi3>
    b486:	1e05      	subs	r5, r0, #0
    b488:	d1f1      	bne.n	b46e <_printf_i+0x1d6>
    b48a:	2f08      	cmp	r7, #8
    b48c:	d109      	bne.n	b4a2 <_printf_i+0x20a>
    b48e:	6823      	ldr	r3, [r4, #0]
    b490:	07db      	lsls	r3, r3, #31
    b492:	d506      	bpl.n	b4a2 <_printf_i+0x20a>
    b494:	6863      	ldr	r3, [r4, #4]
    b496:	6922      	ldr	r2, [r4, #16]
    b498:	4293      	cmp	r3, r2
    b49a:	dc02      	bgt.n	b4a2 <_printf_i+0x20a>
    b49c:	2330      	movs	r3, #48	; 0x30
    b49e:	3e01      	subs	r6, #1
    b4a0:	7033      	strb	r3, [r6, #0]
    b4a2:	9b04      	ldr	r3, [sp, #16]
    b4a4:	1b9b      	subs	r3, r3, r6
    b4a6:	6123      	str	r3, [r4, #16]
    b4a8:	9b07      	ldr	r3, [sp, #28]
    b4aa:	aa09      	add	r2, sp, #36	; 0x24
    b4ac:	9300      	str	r3, [sp, #0]
    b4ae:	0021      	movs	r1, r4
    b4b0:	9b06      	ldr	r3, [sp, #24]
    b4b2:	9805      	ldr	r0, [sp, #20]
    b4b4:	f7ff fe82 	bl	b1bc <_printf_common>
    b4b8:	1c43      	adds	r3, r0, #1
    b4ba:	d1b3      	bne.n	b424 <_printf_i+0x18c>
    b4bc:	2001      	movs	r0, #1
    b4be:	4240      	negs	r0, r0
    b4c0:	b00b      	add	sp, #44	; 0x2c
    b4c2:	bdf0      	pop	{r4, r5, r6, r7, pc}
    b4c4:	0000bace 	.word	0x0000bace
    b4c8:	0000babd 	.word	0x0000babd

0000b4cc <memchr>:
    b4cc:	b2c9      	uxtb	r1, r1
    b4ce:	1882      	adds	r2, r0, r2
    b4d0:	4290      	cmp	r0, r2
    b4d2:	d101      	bne.n	b4d8 <memchr+0xc>
    b4d4:	2000      	movs	r0, #0
    b4d6:	4770      	bx	lr
    b4d8:	7803      	ldrb	r3, [r0, #0]
    b4da:	428b      	cmp	r3, r1
    b4dc:	d0fb      	beq.n	b4d6 <memchr+0xa>
    b4de:	3001      	adds	r0, #1
    b4e0:	e7f6      	b.n	b4d0 <memchr+0x4>

0000b4e2 <memmove>:
    b4e2:	b510      	push	{r4, lr}
    b4e4:	4288      	cmp	r0, r1
    b4e6:	d902      	bls.n	b4ee <memmove+0xc>
    b4e8:	188b      	adds	r3, r1, r2
    b4ea:	4298      	cmp	r0, r3
    b4ec:	d308      	bcc.n	b500 <memmove+0x1e>
    b4ee:	2300      	movs	r3, #0
    b4f0:	429a      	cmp	r2, r3
    b4f2:	d007      	beq.n	b504 <memmove+0x22>
    b4f4:	5ccc      	ldrb	r4, [r1, r3]
    b4f6:	54c4      	strb	r4, [r0, r3]
    b4f8:	3301      	adds	r3, #1
    b4fa:	e7f9      	b.n	b4f0 <memmove+0xe>
    b4fc:	5c8b      	ldrb	r3, [r1, r2]
    b4fe:	5483      	strb	r3, [r0, r2]
    b500:	3a01      	subs	r2, #1
    b502:	d2fb      	bcs.n	b4fc <memmove+0x1a>
    b504:	bd10      	pop	{r4, pc}
	...

0000b508 <_free_r>:
    b508:	b570      	push	{r4, r5, r6, lr}
    b50a:	0005      	movs	r5, r0
    b50c:	2900      	cmp	r1, #0
    b50e:	d010      	beq.n	b532 <_free_r+0x2a>
    b510:	1f0c      	subs	r4, r1, #4
    b512:	6823      	ldr	r3, [r4, #0]
    b514:	2b00      	cmp	r3, #0
    b516:	da00      	bge.n	b51a <_free_r+0x12>
    b518:	18e4      	adds	r4, r4, r3
    b51a:	0028      	movs	r0, r5
    b51c:	f000 f8d4 	bl	b6c8 <__malloc_lock>
    b520:	4a1d      	ldr	r2, [pc, #116]	; (b598 <_free_r+0x90>)
    b522:	6813      	ldr	r3, [r2, #0]
    b524:	2b00      	cmp	r3, #0
    b526:	d105      	bne.n	b534 <_free_r+0x2c>
    b528:	6063      	str	r3, [r4, #4]
    b52a:	6014      	str	r4, [r2, #0]
    b52c:	0028      	movs	r0, r5
    b52e:	f000 f8cc 	bl	b6ca <__malloc_unlock>
    b532:	bd70      	pop	{r4, r5, r6, pc}
    b534:	42a3      	cmp	r3, r4
    b536:	d909      	bls.n	b54c <_free_r+0x44>
    b538:	6821      	ldr	r1, [r4, #0]
    b53a:	1860      	adds	r0, r4, r1
    b53c:	4283      	cmp	r3, r0
    b53e:	d1f3      	bne.n	b528 <_free_r+0x20>
    b540:	6818      	ldr	r0, [r3, #0]
    b542:	685b      	ldr	r3, [r3, #4]
    b544:	1841      	adds	r1, r0, r1
    b546:	6021      	str	r1, [r4, #0]
    b548:	e7ee      	b.n	b528 <_free_r+0x20>
    b54a:	0013      	movs	r3, r2
    b54c:	685a      	ldr	r2, [r3, #4]
    b54e:	2a00      	cmp	r2, #0
    b550:	d001      	beq.n	b556 <_free_r+0x4e>
    b552:	42a2      	cmp	r2, r4
    b554:	d9f9      	bls.n	b54a <_free_r+0x42>
    b556:	6819      	ldr	r1, [r3, #0]
    b558:	1858      	adds	r0, r3, r1
    b55a:	42a0      	cmp	r0, r4
    b55c:	d10b      	bne.n	b576 <_free_r+0x6e>
    b55e:	6820      	ldr	r0, [r4, #0]
    b560:	1809      	adds	r1, r1, r0
    b562:	1858      	adds	r0, r3, r1
    b564:	6019      	str	r1, [r3, #0]
    b566:	4282      	cmp	r2, r0
    b568:	d1e0      	bne.n	b52c <_free_r+0x24>
    b56a:	6810      	ldr	r0, [r2, #0]
    b56c:	6852      	ldr	r2, [r2, #4]
    b56e:	1841      	adds	r1, r0, r1
    b570:	6019      	str	r1, [r3, #0]
    b572:	605a      	str	r2, [r3, #4]
    b574:	e7da      	b.n	b52c <_free_r+0x24>
    b576:	42a0      	cmp	r0, r4
    b578:	d902      	bls.n	b580 <_free_r+0x78>
    b57a:	230c      	movs	r3, #12
    b57c:	602b      	str	r3, [r5, #0]
    b57e:	e7d5      	b.n	b52c <_free_r+0x24>
    b580:	6821      	ldr	r1, [r4, #0]
    b582:	1860      	adds	r0, r4, r1
    b584:	4282      	cmp	r2, r0
    b586:	d103      	bne.n	b590 <_free_r+0x88>
    b588:	6810      	ldr	r0, [r2, #0]
    b58a:	6852      	ldr	r2, [r2, #4]
    b58c:	1841      	adds	r1, r0, r1
    b58e:	6021      	str	r1, [r4, #0]
    b590:	6062      	str	r2, [r4, #4]
    b592:	605c      	str	r4, [r3, #4]
    b594:	e7ca      	b.n	b52c <_free_r+0x24>
    b596:	46c0      	nop			; (mov r8, r8)
    b598:	20003b5c 	.word	0x20003b5c

0000b59c <_malloc_r>:
    b59c:	2303      	movs	r3, #3
    b59e:	b570      	push	{r4, r5, r6, lr}
    b5a0:	1ccd      	adds	r5, r1, #3
    b5a2:	439d      	bics	r5, r3
    b5a4:	3508      	adds	r5, #8
    b5a6:	0006      	movs	r6, r0
    b5a8:	2d0c      	cmp	r5, #12
    b5aa:	d21e      	bcs.n	b5ea <_malloc_r+0x4e>
    b5ac:	250c      	movs	r5, #12
    b5ae:	42a9      	cmp	r1, r5
    b5b0:	d81d      	bhi.n	b5ee <_malloc_r+0x52>
    b5b2:	0030      	movs	r0, r6
    b5b4:	f000 f888 	bl	b6c8 <__malloc_lock>
    b5b8:	4a25      	ldr	r2, [pc, #148]	; (b650 <_malloc_r+0xb4>)
    b5ba:	6814      	ldr	r4, [r2, #0]
    b5bc:	0021      	movs	r1, r4
    b5be:	2900      	cmp	r1, #0
    b5c0:	d119      	bne.n	b5f6 <_malloc_r+0x5a>
    b5c2:	4c24      	ldr	r4, [pc, #144]	; (b654 <_malloc_r+0xb8>)
    b5c4:	6823      	ldr	r3, [r4, #0]
    b5c6:	2b00      	cmp	r3, #0
    b5c8:	d103      	bne.n	b5d2 <_malloc_r+0x36>
    b5ca:	0030      	movs	r0, r6
    b5cc:	f000 f86a 	bl	b6a4 <_sbrk_r>
    b5d0:	6020      	str	r0, [r4, #0]
    b5d2:	0029      	movs	r1, r5
    b5d4:	0030      	movs	r0, r6
    b5d6:	f000 f865 	bl	b6a4 <_sbrk_r>
    b5da:	1c43      	adds	r3, r0, #1
    b5dc:	d12c      	bne.n	b638 <_malloc_r+0x9c>
    b5de:	230c      	movs	r3, #12
    b5e0:	0030      	movs	r0, r6
    b5e2:	6033      	str	r3, [r6, #0]
    b5e4:	f000 f871 	bl	b6ca <__malloc_unlock>
    b5e8:	e003      	b.n	b5f2 <_malloc_r+0x56>
    b5ea:	2d00      	cmp	r5, #0
    b5ec:	dadf      	bge.n	b5ae <_malloc_r+0x12>
    b5ee:	230c      	movs	r3, #12
    b5f0:	6033      	str	r3, [r6, #0]
    b5f2:	2000      	movs	r0, #0
    b5f4:	bd70      	pop	{r4, r5, r6, pc}
    b5f6:	680b      	ldr	r3, [r1, #0]
    b5f8:	1b5b      	subs	r3, r3, r5
    b5fa:	d41a      	bmi.n	b632 <_malloc_r+0x96>
    b5fc:	2b0b      	cmp	r3, #11
    b5fe:	d903      	bls.n	b608 <_malloc_r+0x6c>
    b600:	600b      	str	r3, [r1, #0]
    b602:	18cc      	adds	r4, r1, r3
    b604:	6025      	str	r5, [r4, #0]
    b606:	e003      	b.n	b610 <_malloc_r+0x74>
    b608:	428c      	cmp	r4, r1
    b60a:	d10e      	bne.n	b62a <_malloc_r+0x8e>
    b60c:	6863      	ldr	r3, [r4, #4]
    b60e:	6013      	str	r3, [r2, #0]
    b610:	0030      	movs	r0, r6
    b612:	f000 f85a 	bl	b6ca <__malloc_unlock>
    b616:	0020      	movs	r0, r4
    b618:	2207      	movs	r2, #7
    b61a:	300b      	adds	r0, #11
    b61c:	1d23      	adds	r3, r4, #4
    b61e:	4390      	bics	r0, r2
    b620:	1ac3      	subs	r3, r0, r3
    b622:	d0e7      	beq.n	b5f4 <_malloc_r+0x58>
    b624:	425a      	negs	r2, r3
    b626:	50e2      	str	r2, [r4, r3]
    b628:	e7e4      	b.n	b5f4 <_malloc_r+0x58>
    b62a:	684b      	ldr	r3, [r1, #4]
    b62c:	6063      	str	r3, [r4, #4]
    b62e:	000c      	movs	r4, r1
    b630:	e7ee      	b.n	b610 <_malloc_r+0x74>
    b632:	000c      	movs	r4, r1
    b634:	6849      	ldr	r1, [r1, #4]
    b636:	e7c2      	b.n	b5be <_malloc_r+0x22>
    b638:	2303      	movs	r3, #3
    b63a:	1cc4      	adds	r4, r0, #3
    b63c:	439c      	bics	r4, r3
    b63e:	42a0      	cmp	r0, r4
    b640:	d0e0      	beq.n	b604 <_malloc_r+0x68>
    b642:	1a21      	subs	r1, r4, r0
    b644:	0030      	movs	r0, r6
    b646:	f000 f82d 	bl	b6a4 <_sbrk_r>
    b64a:	1c43      	adds	r3, r0, #1
    b64c:	d1da      	bne.n	b604 <_malloc_r+0x68>
    b64e:	e7c6      	b.n	b5de <_malloc_r+0x42>
    b650:	20003b5c 	.word	0x20003b5c
    b654:	20003b60 	.word	0x20003b60

0000b658 <_realloc_r>:
    b658:	b5f8      	push	{r3, r4, r5, r6, r7, lr}
    b65a:	0007      	movs	r7, r0
    b65c:	000d      	movs	r5, r1
    b65e:	0016      	movs	r6, r2
    b660:	2900      	cmp	r1, #0
    b662:	d105      	bne.n	b670 <_realloc_r+0x18>
    b664:	0011      	movs	r1, r2
    b666:	f7ff ff99 	bl	b59c <_malloc_r>
    b66a:	0004      	movs	r4, r0
    b66c:	0020      	movs	r0, r4
    b66e:	bdf8      	pop	{r3, r4, r5, r6, r7, pc}
    b670:	2a00      	cmp	r2, #0
    b672:	d103      	bne.n	b67c <_realloc_r+0x24>
    b674:	f7ff ff48 	bl	b508 <_free_r>
    b678:	0034      	movs	r4, r6
    b67a:	e7f7      	b.n	b66c <_realloc_r+0x14>
    b67c:	f000 f826 	bl	b6cc <_malloc_usable_size_r>
    b680:	002c      	movs	r4, r5
    b682:	4286      	cmp	r6, r0
    b684:	d9f2      	bls.n	b66c <_realloc_r+0x14>
    b686:	0031      	movs	r1, r6
    b688:	0038      	movs	r0, r7
    b68a:	f7ff ff87 	bl	b59c <_malloc_r>
    b68e:	1e04      	subs	r4, r0, #0
    b690:	d0ec      	beq.n	b66c <_realloc_r+0x14>
    b692:	0029      	movs	r1, r5
    b694:	0032      	movs	r2, r6
    b696:	f7ff fbbd 	bl	ae14 <memcpy>
    b69a:	0029      	movs	r1, r5
    b69c:	0038      	movs	r0, r7
    b69e:	f7ff ff33 	bl	b508 <_free_r>
    b6a2:	e7e3      	b.n	b66c <_realloc_r+0x14>

0000b6a4 <_sbrk_r>:
    b6a4:	2300      	movs	r3, #0
    b6a6:	b570      	push	{r4, r5, r6, lr}
    b6a8:	4c06      	ldr	r4, [pc, #24]	; (b6c4 <_sbrk_r+0x20>)
    b6aa:	0005      	movs	r5, r0
    b6ac:	0008      	movs	r0, r1
    b6ae:	6023      	str	r3, [r4, #0]
    b6b0:	f7fc fa6a 	bl	7b88 <_sbrk>
    b6b4:	1c43      	adds	r3, r0, #1
    b6b6:	d103      	bne.n	b6c0 <_sbrk_r+0x1c>
    b6b8:	6823      	ldr	r3, [r4, #0]
    b6ba:	2b00      	cmp	r3, #0
    b6bc:	d000      	beq.n	b6c0 <_sbrk_r+0x1c>
    b6be:	602b      	str	r3, [r5, #0]
    b6c0:	bd70      	pop	{r4, r5, r6, pc}
    b6c2:	46c0      	nop			; (mov r8, r8)
    b6c4:	20003f98 	.word	0x20003f98

0000b6c8 <__malloc_lock>:
    b6c8:	4770      	bx	lr

0000b6ca <__malloc_unlock>:
    b6ca:	4770      	bx	lr

0000b6cc <_malloc_usable_size_r>:
    b6cc:	1f0b      	subs	r3, r1, #4
    b6ce:	681b      	ldr	r3, [r3, #0]
    b6d0:	1f18      	subs	r0, r3, #4
    b6d2:	2b00      	cmp	r3, #0
    b6d4:	da01      	bge.n	b6da <_malloc_usable_size_r+0xe>
    b6d6:	580b      	ldr	r3, [r1, r0]
    b6d8:	18c0      	adds	r0, r0, r3
    b6da:	4770      	bx	lr
    b6dc:	00000002 	.word	0x00000002
    b6e0:	00000003 	.word	0x00000003
    b6e4:	00000028 	.word	0x00000028
    b6e8:	00000029 	.word	0x00000029
    b6ec:	00000004 	.word	0x00000004
    b6f0:	00000005 	.word	0x00000005
    b6f4:	00000006 	.word	0x00000006
    b6f8:	00000007 	.word	0x00000007
    b6fc:	0000ffff 	.word	0x0000ffff
    b700:	0000ffff 	.word	0x0000ffff
    b704:	00000022 	.word	0x00000022
    b708:	00000023 	.word	0x00000023
    b70c:	0000ffff 	.word	0x0000ffff
    b710:	0000ffff 	.word	0x0000ffff
    b714:	0000ffff 	.word	0x0000ffff
    b718:	0000ffff 	.word	0x0000ffff
    b71c:	00000008 	.word	0x00000008
    b720:	00000009 	.word	0x00000009
    b724:	0000000a 	.word	0x0000000a
    b728:	0000000b 	.word	0x0000000b

0000b72c <_usb_device_irq_bits>:
    b72c:	00080004 00800070 01000001 0c030200              ....p.........

0000b73a <_usb_endpoint_irq_bits>:
    b73a:	60100c03                                ...`

0000b73e <sht75_crc_table>:
    b73e:	53623100 97a6f5c4 eadb88b9 2e1f4c7d     .1bS........}L..
    b74e:	10217243 d4e5b687 a998cbfa 6d5c0f3e     Cr!.........>.\m
    b75e:	d5e4b786 11207342 6c5d0e3f a899cafb     ....Bs .?.]l....
    b76e:	96a7f4c5 52633001 2f1e4d7c ebda89b8     .....0cR|M./....
    b77e:	6e5f0c3d aa9bc8f9 d7e6b584 13227140     =._n........@q".
    b78e:	2d1c4f7e e9d88bba 94a5f6c7 50613203     ~O.-.........2aP
    b79e:	e8d98abb 2c1d4e7f 51603302 95a4f7c6     .....N.,.3`Q....
    b7ae:	ab9ac9f8 6f5e0d3c 12237041 d6e7b485     ....<.^oAp#.....
    b7be:	29184b7a eddc8fbe 90a1f2c3 54653607     zK.).........6eT
    b7ce:	6a5b0839 ae9fccfd d3e2b180 17267544     9.[j........Du&.
    b7de:	af9ecdfc 6b5a0938 16277445 d2e3b081     ....8.ZkEt'.....
    b7ee:	ecdd8ebf 28194a7b 55643706 91a0f3c2     ....{J.(.7dU....
    b7fe:	14257647 d0e1b283 ad9ccffe 69580b3a     Gv%.........:.Xi
    b80e:	57663504 93a2f1c0 eedf8cbd 2a1b4879     .5fW........yH.*
    b81e:	92a3f0c1 56673405 2b1a4978 efde8dbc     .....4gVxI.+....
    b82e:	d1e0b382 15247746 68590a3b ac9dceff     ....Fw$.;.Yh....
    b83e:	20776f4c 74736f43 6e655620 616c6974     Low Cost Ventila
    b84e:	00726f74 4f525245 003a5352 574f4c46     tor.ERRORS:.FLOW
    b85e:	45525000 4e532053 4f4d0053 41462054     .PRES SNS.MOT FA
    b86e:	4d004c49 5420544f 00504d45 54544553     IL.MOT TEMP.SETT
    b87e:	414f4c20 20500044 45534952 4e455600      LOAD.P RISE.VEN
    b88e:	4e4f3a54 4e455600 464f3a54 3a560046     T:ON.VENT:OFF.V:
    b89e:	6c6d6925 3a454900 252e6925 00313a69     %iml.IE:%i.%i:1.
    b8ae:	20544553 3a4d5042 53006925 50205445     SET BPM:%i.SET P
    b8be:	3a504545 6d636925 00303248 20544553     EEP:%icmH20.SET 
    b8ce:	3a504950 6d636925 00303248 20544553     PIP:%icmH20.SET 
    b8de:	3a453a49 2e692520 313a6925 43444100     I:E: %i.%i:1.ADC
    b8ee:	43004854 52544e4f 48004c4f 4900494d     TH.CONTROL.HMI.I
    b8fe:	53004332 45455243 49545f4e 4353004d     2C.SCREEN_TIM.SC
    b90e:	4e454552 4748435f 43324900 4d49545f     REEN_CHG.I2C_TIM
    b91e:	54554f45 4e4f4d00 524f5449 4e455300     EOUT.MONITOR.SEN
    b92e:	00524f53 41444954 4600564c 53574f4c     SOR.TIDALV.FLOWS
    b93e:	4c444900 6d540045 54005172 5320726d     .IDLE.TmrQ.Tmr S
    b94e:	00006376 08000000 0c004200 10004200     vc.......B...B..
    b95e:	14004200 18004200 1c004200 88404200     .B...B...B...B@.
    b96e:	88100000 88220000 87640000 88220000     ......"...d...".
    b97e:	88060000 88220000 87640000 88100000     ......"...d.....
    b98e:	88100000 88060000 87640000 876c0000     ..........d...l.
    b99e:	876c0000 876c0000 88280000 88100000     ..l...l...(.....
    b9ae:	88100000 87e40000 88c80000 87e40000     ................
    b9be:	88060000 87e40000 88c80000 88100000     ................
    b9ce:	88100000 88060000 88c80000 876c0000     ..............l.
    b9de:	876c0000 876c0000 88d20000 8bc00000     ..l...l.........
    b9ee:	8b100000 8b100000 8b0e0000 8bb20000     ................
    b9fe:	8bb20000 8ba80000 8b0e0000 8bb20000     ................
    ba0e:	8ba80000 8bb20000 8b0e0000 8bb80000     ................
    ba1e:	8bb80000 8bb80000 8c480000 99040000     ..........H.....
    ba2e:	98e60000 98a00000 97be0000 98a00000     ................
    ba3e:	98d80000 98a00000 97be0000 98e60000     ................
    ba4e:	98e60000 98d80000 97be0000 97b60000     ................
    ba5e:	97b60000 97b60000 9b1c0000 a1640000     ..............d.
    ba6e:	a0240000 a0240000 a0200000 a13c0000     ..$...$... ...<.
    ba7e:	a13c0000 a12e0000 a0200000 a13c0000     ..<....... ...<.
    ba8e:	a12e0000 a13c0000 a0200000 a1440000     ......<... ...D.
    ba9e:	a1440000 a1440000 a3480000 2d230000     ..D...D...H...#-
    baae:	00202b30 004c6c68 45676665 30004746     0+ .hlL.efgEFG.0
    babe:	34333231 38373635 43424139 00464544     123456789ABCDEF.
    bace:	33323130 37363534 62613938 66656463     0123456789abcdef
	...

0000bae0 <_init>:
    bae0:	b5f8      	push	{r3, r4, r5, r6, r7, lr}
    bae2:	46c0      	nop			; (mov r8, r8)
    bae4:	bcf8      	pop	{r3, r4, r5, r6, r7}
    bae6:	bc08      	pop	{r3}
    bae8:	469e      	mov	lr, r3
    baea:	4770      	bx	lr

0000baec <__init_array_start>:
    baec:	000000dd 	.word	0x000000dd

0000baf0 <_fini>:
    baf0:	b5f8      	push	{r3, r4, r5, r6, r7, lr}
    baf2:	46c0      	nop			; (mov r8, r8)
    baf4:	bcf8      	pop	{r3, r4, r5, r6, r7}
    baf6:	bc08      	pop	{r3}
    baf8:	469e      	mov	lr, r3
    bafa:	4770      	bx	lr

0000bafc <__fini_array_start>:
    bafc:	000000b5 	.word	0x000000b5

Disassembly of section .relocate:

20000000 <portable_delay_cycles>:
20000000:	f3bf 8f5f 	dmb	sy
20000004:	3801      	subs	r0, #1
20000006:	2800      	cmp	r0, #0
20000008:	d1fa      	bne.n	20000000 <portable_delay_cycles>
2000000a:	4770      	bx	lr

2000000c <udi_api_cdc_comm>:
2000000c:	01ed 0000 0139 0000 0195 0000 014d 0000     ....9.......M...
2000001c:	0000 0000                                   ....

20000020 <udi_api_cdc_data>:
20000020:	0471 0000 0155 0000 0149 0000 014d 0000     q...U...I...M...
20000030:	035d 0000                                   ]...

20000034 <udc_config>:
20000034:	008c 2000 0040 2000 00a0 2000               ... @.. ... 

20000040 <udc_config_fs>:
20000040:	0048 2000 00ac 2000                         H.. ... 

20000048 <udc_desc_fs>:
20000048:	0209 0043 0102 c000 0932 0004 0100 0202     ..C.....2.......
20000058:	0001 2405 1000 0401 0224 0502 0624 0100     ...$....$...$...
20000068:	2405 0301 0701 8305 4003 1000 0409 0001     .$.......@......
20000078:	0a02 0000 0700 8105 4002 0000 0507 0202     .........@......
20000088:	0040 0000                                   @...

2000008c <udc_device_desc>:
2000008c:	0112 0201 0002 4000 03eb 2404 0100 0000     .......@...$....
2000009c:	0100 0000                                   ....

200000a0 <udc_device_lpm>:
200000a0:	0f05 000c 0701 0210 0002 0000               ............

200000ac <udi_apis>:
200000ac:	000c 2000 0020 2000                         ...  .. 

200000b4 <udc_string_desc_languageid>:
200000b4:	0304 0409                                   ....

200000b8 <uxCriticalNesting>:
200000b8:	aaaa aaaa                                   ....

200000bc <flow_request_to_send.15101>:
200000bc:	8484                                             .

200000bd <flow_request_to_send.15105>:
200000bd:	fe84                                             .

200000be <cursor_set.15214>:
200000be:	45fe fe00                                        .E.

200000c1 <on_screen_buffer.15177>:
200000c1:	41fe                                        .A

200000c3 <settings_changed>:
200000c3:	0101                                             .

200000c4 <display_main_page>:
200000c4:	0101                                             .

200000c5 <rising.15116>:
200000c5:	0101                                             .

200000c6 <g_interrupt_enabled>:
200000c6:	0001                                        ..

200000c8 <_impure_ptr>:
200000c8:	00cc 2000                                   ... 

200000cc <impure_data>:
	...
