
LCV.elf:     file format elf32-littlearm

Sections:
Idx Name          Size      VMA       LMA       File off  Algn
  0 .text         00009018  00000000  00000000  00010000  2**4
                  CONTENTS, ALLOC, LOAD, READONLY, CODE
  1 .ARM.exidx    00000008  00009018  00009018  00019018  2**2
                  CONTENTS, ALLOC, LOAD, READONLY, DATA
  2 .relocate     00000080  20000000  00009020  00020000  2**2
                  CONTENTS, ALLOC, LOAD, CODE
  3 .bss          000053b4  20000080  000090a0  00020080  2**2
                  ALLOC
  4 .stack        00002004  20005434  0000e454  00020080  2**0
                  ALLOC
  5 .ARM.attributes 00000028  00000000  00000000  00020080  2**0
                  CONTENTS, READONLY
  6 .comment      00000059  00000000  00000000  000200a8  2**0
                  CONTENTS, READONLY
  7 .debug_frame  00000874  00000000  00000000  00020104  2**2
                  CONTENTS, READONLY, DEBUGGING

Disassembly of section .text:

00000000 <exception_table>:
       0:	38 74 00 20 bd 52 00 00 29 54 00 00 27 54 00 00     8t. .R..)T..'T..
	...
      2c:	15 0e 00 00 00 00 00 00 00 00 00 00 e1 0e 00 00     ................
      3c:	25 0f 00 00 b9 52 00 00 b9 52 00 00 29 40 00 00     %....R...R..)@..
      4c:	b9 52 00 00 b9 52 00 00 b9 52 00 00 b9 52 00 00     .R...R...R...R..
      5c:	b9 52 00 00 b9 52 00 00 35 48 00 00 45 48 00 00     .R...R..5H..EH..
      6c:	55 48 00 00 65 48 00 00 75 48 00 00 85 48 00 00     UH..eH..uH...H..
      7c:	b9 52 00 00 b9 52 00 00 b9 52 00 00 b9 52 00 00     .R...R...R...R..
      8c:	b9 52 00 00 b9 52 00 00 00 00 00 00 00 00 00 00     .R...R..........
      9c:	d9 04 00 00 b9 52 00 00 1d 07 00 00 b9 52 00 00     .....R.......R..
      ac:	b9 52 00 00 00 00 00 00                             .R......

000000b4 <__do_global_dtors_aux>:
      b4:	b510      	push	{r4, lr}
      b6:	4c06      	ldr	r4, [pc, #24]	; (d0 <__do_global_dtors_aux+0x1c>)
      b8:	7823      	ldrb	r3, [r4, #0]
      ba:	2b00      	cmp	r3, #0
      bc:	d107      	bne.n	ce <__do_global_dtors_aux+0x1a>
      be:	4b05      	ldr	r3, [pc, #20]	; (d4 <__do_global_dtors_aux+0x20>)
      c0:	2b00      	cmp	r3, #0
      c2:	d002      	beq.n	ca <__do_global_dtors_aux+0x16>
      c4:	4804      	ldr	r0, [pc, #16]	; (d8 <__do_global_dtors_aux+0x24>)
      c6:	e000      	b.n	ca <__do_global_dtors_aux+0x16>
      c8:	bf00      	nop
      ca:	2301      	movs	r3, #1
      cc:	7023      	strb	r3, [r4, #0]
      ce:	bd10      	pop	{r4, pc}
      d0:	20000080 	.word	0x20000080
      d4:	00000000 	.word	0x00000000
      d8:	00009020 	.word	0x00009020

000000dc <frame_dummy>:
      dc:	4b08      	ldr	r3, [pc, #32]	; (100 <frame_dummy+0x24>)
      de:	b510      	push	{r4, lr}
      e0:	2b00      	cmp	r3, #0
      e2:	d003      	beq.n	ec <frame_dummy+0x10>
      e4:	4907      	ldr	r1, [pc, #28]	; (104 <frame_dummy+0x28>)
      e6:	4808      	ldr	r0, [pc, #32]	; (108 <frame_dummy+0x2c>)
      e8:	e000      	b.n	ec <frame_dummy+0x10>
      ea:	bf00      	nop
      ec:	4807      	ldr	r0, [pc, #28]	; (10c <frame_dummy+0x30>)
      ee:	6803      	ldr	r3, [r0, #0]
      f0:	2b00      	cmp	r3, #0
      f2:	d100      	bne.n	f6 <frame_dummy+0x1a>
      f4:	bd10      	pop	{r4, pc}
      f6:	4b06      	ldr	r3, [pc, #24]	; (110 <frame_dummy+0x34>)
      f8:	2b00      	cmp	r3, #0
      fa:	d0fb      	beq.n	f4 <frame_dummy+0x18>
      fc:	4798      	blx	r3
      fe:	e7f9      	b.n	f4 <frame_dummy+0x18>
     100:	00000000 	.word	0x00000000
     104:	20000084 	.word	0x20000084
     108:	00009020 	.word	0x00009020
     10c:	00009020 	.word	0x00009020
     110:	00000000 	.word	0x00000000

00000114 <adc_is_syncing>:
     114:	6803      	ldr	r3, [r0, #0]
     116:	7e58      	ldrb	r0, [r3, #25]
     118:	09c0      	lsrs	r0, r0, #7
     11a:	4770      	bx	lr

0000011c <_adc_configure_ain_pin>:
     11c:	b530      	push	{r4, r5, lr}
     11e:	b097      	sub	sp, #92	; 0x5c
     120:	ad02      	add	r5, sp, #8
     122:	0004      	movs	r4, r0
     124:	2250      	movs	r2, #80	; 0x50
     126:	490a      	ldr	r1, [pc, #40]	; (150 <_adc_configure_ain_pin+0x34>)
     128:	0028      	movs	r0, r5
     12a:	4b0a      	ldr	r3, [pc, #40]	; (154 <_adc_configure_ain_pin+0x38>)
     12c:	4798      	blx	r3
     12e:	2c13      	cmp	r4, #19
     130:	d80b      	bhi.n	14a <_adc_configure_ain_pin+0x2e>
     132:	2300      	movs	r3, #0
     134:	00a4      	lsls	r4, r4, #2
     136:	a901      	add	r1, sp, #4
     138:	5960      	ldr	r0, [r4, r5]
     13a:	704b      	strb	r3, [r1, #1]
     13c:	70cb      	strb	r3, [r1, #3]
     13e:	708b      	strb	r3, [r1, #2]
     140:	3301      	adds	r3, #1
     142:	700b      	strb	r3, [r1, #0]
     144:	b2c0      	uxtb	r0, r0
     146:	4b04      	ldr	r3, [pc, #16]	; (158 <_adc_configure_ain_pin+0x3c>)
     148:	4798      	blx	r3
     14a:	b017      	add	sp, #92	; 0x5c
     14c:	bd30      	pop	{r4, r5, pc}
     14e:	46c0      	nop			; (mov r8, r8)
     150:	00008c14 	.word	0x00008c14
     154:	0000834d 	.word	0x0000834d
     158:	0000525d 	.word	0x0000525d

0000015c <adc_get_config_defaults>:
     15c:	22c0      	movs	r2, #192	; 0xc0
     15e:	0152      	lsls	r2, r2, #5
     160:	81c2      	strh	r2, [r0, #14]
     162:	0002      	movs	r2, r0
     164:	2300      	movs	r3, #0
     166:	322a      	adds	r2, #42	; 0x2a
     168:	7003      	strb	r3, [r0, #0]
     16a:	7043      	strb	r3, [r0, #1]
     16c:	8043      	strh	r3, [r0, #2]
     16e:	7103      	strb	r3, [r0, #4]
     170:	7603      	strb	r3, [r0, #24]
     172:	6203      	str	r3, [r0, #32]
     174:	61c3      	str	r3, [r0, #28]
     176:	6083      	str	r3, [r0, #8]
     178:	7303      	strb	r3, [r0, #12]
     17a:	7403      	strb	r3, [r0, #16]
     17c:	7443      	strb	r3, [r0, #17]
     17e:	7483      	strb	r3, [r0, #18]
     180:	74c3      	strb	r3, [r0, #19]
     182:	7503      	strb	r3, [r0, #20]
     184:	7013      	strb	r3, [r2, #0]
     186:	1d42      	adds	r2, r0, #5
     188:	7543      	strb	r3, [r0, #21]
     18a:	7583      	strb	r3, [r0, #22]
     18c:	77d3      	strb	r3, [r2, #31]
     18e:	84c3      	strh	r3, [r0, #38]	; 0x26
     190:	8503      	strh	r3, [r0, #40]	; 0x28
     192:	75c3      	strb	r3, [r0, #23]
     194:	3226      	adds	r2, #38	; 0x26
     196:	302c      	adds	r0, #44	; 0x2c
     198:	7013      	strb	r3, [r2, #0]
     19a:	7003      	strb	r3, [r0, #0]
     19c:	4770      	bx	lr
	...

000001a0 <adc_init>:
     1a0:	2380      	movs	r3, #128	; 0x80
     1a2:	b5f0      	push	{r4, r5, r6, r7, lr}
     1a4:	0014      	movs	r4, r2
     1a6:	4ab8      	ldr	r2, [pc, #736]	; (488 <adc_init+0x2e8>)
     1a8:	6001      	str	r1, [r0, #0]
     1aa:	0006      	movs	r6, r0
     1ac:	6a10      	ldr	r0, [r2, #32]
     1ae:	025b      	lsls	r3, r3, #9
     1b0:	4303      	orrs	r3, r0
     1b2:	6213      	str	r3, [r2, #32]
     1b4:	780b      	ldrb	r3, [r1, #0]
     1b6:	b087      	sub	sp, #28
     1b8:	2005      	movs	r0, #5
     1ba:	07db      	lsls	r3, r3, #31
     1bc:	d500      	bpl.n	1c0 <adc_init+0x20>
     1be:	e0ff      	b.n	3c0 <adc_init+0x220>
     1c0:	780b      	ldrb	r3, [r1, #0]
     1c2:	3017      	adds	r0, #23
     1c4:	079b      	lsls	r3, r3, #30
     1c6:	d500      	bpl.n	1ca <adc_init+0x2a>
     1c8:	e0fa      	b.n	3c0 <adc_init+0x220>
     1ca:	7863      	ldrb	r3, [r4, #1]
     1cc:	7133      	strb	r3, [r6, #4]
     1ce:	2b00      	cmp	r3, #0
     1d0:	d104      	bne.n	1dc <adc_init+0x3c>
     1d2:	4aae      	ldr	r2, [pc, #696]	; (48c <adc_init+0x2ec>)
     1d4:	3304      	adds	r3, #4
     1d6:	6c11      	ldr	r1, [r2, #64]	; 0x40
     1d8:	430b      	orrs	r3, r1
     1da:	6413      	str	r3, [r2, #64]	; 0x40
     1dc:	4aac      	ldr	r2, [pc, #688]	; (490 <adc_init+0x2f0>)
     1de:	2300      	movs	r3, #0
     1e0:	6016      	str	r6, [r2, #0]
     1e2:	0022      	movs	r2, r4
     1e4:	322a      	adds	r2, #42	; 0x2a
     1e6:	8333      	strh	r3, [r6, #24]
     1e8:	60b3      	str	r3, [r6, #8]
     1ea:	60f3      	str	r3, [r6, #12]
     1ec:	6133      	str	r3, [r6, #16]
     1ee:	76b3      	strb	r3, [r6, #26]
     1f0:	76f3      	strb	r3, [r6, #27]
     1f2:	7733      	strb	r3, [r6, #28]
     1f4:	9202      	str	r2, [sp, #8]
     1f6:	7812      	ldrb	r2, [r2, #0]
     1f8:	429a      	cmp	r2, r3
     1fa:	d103      	bne.n	204 <adc_init+0x64>
     1fc:	7d22      	ldrb	r2, [r4, #20]
     1fe:	429a      	cmp	r2, r3
     200:	d100      	bne.n	204 <adc_init+0x64>
     202:	3301      	adds	r3, #1
     204:	7773      	strb	r3, [r6, #29]
     206:	7823      	ldrb	r3, [r4, #0]
     208:	a905      	add	r1, sp, #20
     20a:	700b      	strb	r3, [r1, #0]
     20c:	201e      	movs	r0, #30
     20e:	4ba1      	ldr	r3, [pc, #644]	; (494 <adc_init+0x2f4>)
     210:	6837      	ldr	r7, [r6, #0]
     212:	4798      	blx	r3
     214:	4ba0      	ldr	r3, [pc, #640]	; (498 <adc_init+0x2f8>)
     216:	201e      	movs	r0, #30
     218:	4798      	blx	r3
     21a:	0023      	movs	r3, r4
     21c:	332c      	adds	r3, #44	; 0x2c
     21e:	781b      	ldrb	r3, [r3, #0]
     220:	7b22      	ldrb	r2, [r4, #12]
     222:	9201      	str	r2, [sp, #4]
     224:	2b00      	cmp	r3, #0
     226:	d033      	beq.n	290 <adc_init+0xf0>
     228:	0022      	movs	r2, r4
     22a:	322b      	adds	r2, #43	; 0x2b
     22c:	7815      	ldrb	r5, [r2, #0]
     22e:	9a01      	ldr	r2, [sp, #4]
     230:	1955      	adds	r5, r2, r5
     232:	b2ed      	uxtb	r5, r5
     234:	195b      	adds	r3, r3, r5
     236:	b2db      	uxtb	r3, r3
     238:	9303      	str	r3, [sp, #12]
     23a:	9b01      	ldr	r3, [sp, #4]
     23c:	1ae8      	subs	r0, r5, r3
     23e:	9b03      	ldr	r3, [sp, #12]
     240:	b2c0      	uxtb	r0, r0
     242:	42ab      	cmp	r3, r5
     244:	d81b      	bhi.n	27e <adc_init+0xde>
     246:	89e0      	ldrh	r0, [r4, #14]
     248:	4b94      	ldr	r3, [pc, #592]	; (49c <adc_init+0x2fc>)
     24a:	4798      	blx	r3
     24c:	7d63      	ldrb	r3, [r4, #21]
     24e:	009b      	lsls	r3, r3, #2
     250:	b2db      	uxtb	r3, r3
     252:	703b      	strb	r3, [r7, #0]
     254:	7da3      	ldrb	r3, [r4, #22]
     256:	7862      	ldrb	r2, [r4, #1]
     258:	01db      	lsls	r3, r3, #7
     25a:	4313      	orrs	r3, r2
     25c:	b2db      	uxtb	r3, r3
     25e:	707b      	strb	r3, [r7, #1]
     260:	7925      	ldrb	r5, [r4, #4]
     262:	2d30      	cmp	r5, #48	; 0x30
     264:	d100      	bne.n	268 <adc_init+0xc8>
     266:	e0b8      	b.n	3da <adc_init+0x23a>
     268:	d818      	bhi.n	29c <adc_init+0xfc>
     26a:	2d10      	cmp	r5, #16
     26c:	d100      	bne.n	270 <adc_init+0xd0>
     26e:	e0b1      	b.n	3d4 <adc_init+0x234>
     270:	2d20      	cmp	r5, #32
     272:	d100      	bne.n	276 <adc_init+0xd6>
     274:	e0b1      	b.n	3da <adc_init+0x23a>
     276:	2d00      	cmp	r5, #0
     278:	d11a      	bne.n	2b0 <adc_init+0x110>
     27a:	002b      	movs	r3, r5
     27c:	e0ab      	b.n	3d6 <adc_init+0x236>
     27e:	230f      	movs	r3, #15
     280:	4018      	ands	r0, r3
     282:	7b23      	ldrb	r3, [r4, #12]
     284:	3501      	adds	r5, #1
     286:	18c0      	adds	r0, r0, r3
     288:	4b84      	ldr	r3, [pc, #528]	; (49c <adc_init+0x2fc>)
     28a:	4798      	blx	r3
     28c:	b2ed      	uxtb	r5, r5
     28e:	e7d4      	b.n	23a <adc_init+0x9a>
     290:	9801      	ldr	r0, [sp, #4]
     292:	4d82      	ldr	r5, [pc, #520]	; (49c <adc_init+0x2fc>)
     294:	47a8      	blx	r5
     296:	89e0      	ldrh	r0, [r4, #14]
     298:	47a8      	blx	r5
     29a:	e7d7      	b.n	24c <adc_init+0xac>
     29c:	2d32      	cmp	r5, #50	; 0x32
     29e:	d009      	beq.n	2b4 <adc_init+0x114>
     2a0:	d200      	bcs.n	2a4 <adc_init+0x104>
     2a2:	e09c      	b.n	3de <adc_init+0x23e>
     2a4:	2d33      	cmp	r5, #51	; 0x33
     2a6:	d100      	bne.n	2aa <adc_init+0x10a>
     2a8:	e090      	b.n	3cc <adc_init+0x22c>
     2aa:	2d34      	cmp	r5, #52	; 0x34
     2ac:	d100      	bne.n	2b0 <adc_init+0x110>
     2ae:	e089      	b.n	3c4 <adc_init+0x224>
     2b0:	2017      	movs	r0, #23
     2b2:	e085      	b.n	3c0 <adc_init+0x220>
     2b4:	2304      	movs	r3, #4
     2b6:	2510      	movs	r5, #16
     2b8:	2202      	movs	r2, #2
     2ba:	2170      	movs	r1, #112	; 0x70
     2bc:	0112      	lsls	r2, r2, #4
     2be:	400a      	ands	r2, r1
     2c0:	4313      	orrs	r3, r2
     2c2:	70bb      	strb	r3, [r7, #2]
     2c4:	7de3      	ldrb	r3, [r4, #23]
     2c6:	2b3f      	cmp	r3, #63	; 0x3f
     2c8:	d8f2      	bhi.n	2b0 <adc_init+0x110>
     2ca:	70fb      	strb	r3, [r7, #3]
     2cc:	0030      	movs	r0, r6
     2ce:	4b74      	ldr	r3, [pc, #464]	; (4a0 <adc_init+0x300>)
     2d0:	4798      	blx	r3
     2d2:	2800      	cmp	r0, #0
     2d4:	d1fa      	bne.n	2cc <adc_init+0x12c>
     2d6:	8862      	ldrh	r2, [r4, #2]
     2d8:	7ce3      	ldrb	r3, [r4, #19]
     2da:	4313      	orrs	r3, r2
     2dc:	1d62      	adds	r2, r4, #5
     2de:	9203      	str	r2, [sp, #12]
     2e0:	7fd2      	ldrb	r2, [r2, #31]
     2e2:	00d2      	lsls	r2, r2, #3
     2e4:	4313      	orrs	r3, r2
     2e6:	7d22      	ldrb	r2, [r4, #20]
     2e8:	0092      	lsls	r2, r2, #2
     2ea:	4313      	orrs	r3, r2
     2ec:	7ca2      	ldrb	r2, [r4, #18]
     2ee:	0052      	lsls	r2, r2, #1
     2f0:	4313      	orrs	r3, r2
     2f2:	432b      	orrs	r3, r5
     2f4:	80bb      	strh	r3, [r7, #4]
     2f6:	7e23      	ldrb	r3, [r4, #24]
     2f8:	2b00      	cmp	r3, #0
     2fa:	d007      	beq.n	30c <adc_init+0x16c>
     2fc:	2d10      	cmp	r5, #16
     2fe:	d100      	bne.n	302 <adc_init+0x162>
     300:	e0b3      	b.n	46a <adc_init+0x2ca>
     302:	d900      	bls.n	306 <adc_init+0x166>
     304:	e06d      	b.n	3e2 <adc_init+0x242>
     306:	2d00      	cmp	r5, #0
     308:	d100      	bne.n	30c <adc_init+0x16c>
     30a:	e09f      	b.n	44c <adc_init+0x2ac>
     30c:	0030      	movs	r0, r6
     30e:	4b64      	ldr	r3, [pc, #400]	; (4a0 <adc_init+0x300>)
     310:	4798      	blx	r3
     312:	2800      	cmp	r0, #0
     314:	d1fa      	bne.n	30c <adc_init+0x16c>
     316:	7e23      	ldrb	r3, [r4, #24]
     318:	723b      	strb	r3, [r7, #8]
     31a:	0030      	movs	r0, r6
     31c:	4b60      	ldr	r3, [pc, #384]	; (4a0 <adc_init+0x300>)
     31e:	4798      	blx	r3
     320:	2800      	cmp	r0, #0
     322:	d1fa      	bne.n	31a <adc_init+0x17a>
     324:	8ba3      	ldrh	r3, [r4, #28]
     326:	83bb      	strh	r3, [r7, #28]
     328:	0030      	movs	r0, r6
     32a:	4b5d      	ldr	r3, [pc, #372]	; (4a0 <adc_init+0x300>)
     32c:	4798      	blx	r3
     32e:	2800      	cmp	r0, #0
     330:	d1fa      	bne.n	328 <adc_init+0x188>
     332:	8c23      	ldrh	r3, [r4, #32]
     334:	843b      	strh	r3, [r7, #32]
     336:	0023      	movs	r3, r4
     338:	332c      	adds	r3, #44	; 0x2c
     33a:	781d      	ldrb	r5, [r3, #0]
     33c:	2d00      	cmp	r5, #0
     33e:	d003      	beq.n	348 <adc_init+0x1a8>
     340:	3d01      	subs	r5, #1
     342:	b2ed      	uxtb	r5, r5
     344:	2d0f      	cmp	r5, #15
     346:	d8b3      	bhi.n	2b0 <adc_init+0x110>
     348:	0023      	movs	r3, r4
     34a:	332b      	adds	r3, #43	; 0x2b
     34c:	9301      	str	r3, [sp, #4]
     34e:	781b      	ldrb	r3, [r3, #0]
     350:	2b0f      	cmp	r3, #15
     352:	d8ad      	bhi.n	2b0 <adc_init+0x110>
     354:	0030      	movs	r0, r6
     356:	4b52      	ldr	r3, [pc, #328]	; (4a0 <adc_init+0x300>)
     358:	4798      	blx	r3
     35a:	2800      	cmp	r0, #0
     35c:	d1fa      	bne.n	354 <adc_init+0x1b4>
     35e:	7b22      	ldrb	r2, [r4, #12]
     360:	89e3      	ldrh	r3, [r4, #14]
     362:	042d      	lsls	r5, r5, #16
     364:	4313      	orrs	r3, r2
     366:	68a2      	ldr	r2, [r4, #8]
     368:	4313      	orrs	r3, r2
     36a:	9a01      	ldr	r2, [sp, #4]
     36c:	7812      	ldrb	r2, [r2, #0]
     36e:	0512      	lsls	r2, r2, #20
     370:	4313      	orrs	r3, r2
     372:	431d      	orrs	r5, r3
     374:	9b02      	ldr	r3, [sp, #8]
     376:	613d      	str	r5, [r7, #16]
     378:	781b      	ldrb	r3, [r3, #0]
     37a:	753b      	strb	r3, [r7, #20]
     37c:	230f      	movs	r3, #15
     37e:	75bb      	strb	r3, [r7, #22]
     380:	9b03      	ldr	r3, [sp, #12]
     382:	7fdb      	ldrb	r3, [r3, #31]
     384:	2b00      	cmp	r3, #0
     386:	d00c      	beq.n	3a2 <adc_init+0x202>
     388:	8ce3      	ldrh	r3, [r4, #38]	; 0x26
     38a:	4946      	ldr	r1, [pc, #280]	; (4a4 <adc_init+0x304>)
     38c:	428b      	cmp	r3, r1
     38e:	d88f      	bhi.n	2b0 <adc_init+0x110>
     390:	84bb      	strh	r3, [r7, #36]	; 0x24
     392:	2380      	movs	r3, #128	; 0x80
     394:	8d22      	ldrh	r2, [r4, #40]	; 0x28
     396:	011b      	lsls	r3, r3, #4
     398:	18d3      	adds	r3, r2, r3
     39a:	b29b      	uxth	r3, r3
     39c:	428b      	cmp	r3, r1
     39e:	d887      	bhi.n	2b0 <adc_init+0x110>
     3a0:	84fa      	strh	r2, [r7, #38]	; 0x26
     3a2:	22e0      	movs	r2, #224	; 0xe0
     3a4:	4b40      	ldr	r3, [pc, #256]	; (4a8 <adc_init+0x308>)
     3a6:	2000      	movs	r0, #0
     3a8:	6819      	ldr	r1, [r3, #0]
     3aa:	00d2      	lsls	r2, r2, #3
     3ac:	014b      	lsls	r3, r1, #5
     3ae:	0019      	movs	r1, r3
     3b0:	401a      	ands	r2, r3
     3b2:	4b3e      	ldr	r3, [pc, #248]	; (4ac <adc_init+0x30c>)
     3b4:	681b      	ldr	r3, [r3, #0]
     3b6:	0edb      	lsrs	r3, r3, #27
     3b8:	430b      	orrs	r3, r1
     3ba:	b2db      	uxtb	r3, r3
     3bc:	4313      	orrs	r3, r2
     3be:	853b      	strh	r3, [r7, #40]	; 0x28
     3c0:	b007      	add	sp, #28
     3c2:	bdf0      	pop	{r4, r5, r6, r7, pc}
     3c4:	7c62      	ldrb	r2, [r4, #17]
     3c6:	7c23      	ldrb	r3, [r4, #16]
     3c8:	2510      	movs	r5, #16
     3ca:	e776      	b.n	2ba <adc_init+0x11a>
     3cc:	2306      	movs	r3, #6
     3ce:	2510      	movs	r5, #16
     3d0:	2201      	movs	r2, #1
     3d2:	e772      	b.n	2ba <adc_init+0x11a>
     3d4:	2308      	movs	r3, #8
     3d6:	2200      	movs	r2, #0
     3d8:	e76f      	b.n	2ba <adc_init+0x11a>
     3da:	2300      	movs	r3, #0
     3dc:	e7fb      	b.n	3d6 <adc_init+0x236>
     3de:	2302      	movs	r3, #2
     3e0:	e7f5      	b.n	3ce <adc_init+0x22e>
     3e2:	2d20      	cmp	r5, #32
     3e4:	d018      	beq.n	418 <adc_init+0x278>
     3e6:	2d30      	cmp	r5, #48	; 0x30
     3e8:	d000      	beq.n	3ec <adc_init+0x24c>
     3ea:	e78f      	b.n	30c <adc_init+0x16c>
     3ec:	7ce3      	ldrb	r3, [r4, #19]
     3ee:	69e2      	ldr	r2, [r4, #28]
     3f0:	2b00      	cmp	r3, #0
     3f2:	d009      	beq.n	408 <adc_init+0x268>
     3f4:	0013      	movs	r3, r2
     3f6:	3380      	adds	r3, #128	; 0x80
     3f8:	2bff      	cmp	r3, #255	; 0xff
     3fa:	d900      	bls.n	3fe <adc_init+0x25e>
     3fc:	e758      	b.n	2b0 <adc_init+0x110>
     3fe:	6a23      	ldr	r3, [r4, #32]
     400:	3380      	adds	r3, #128	; 0x80
     402:	2bff      	cmp	r3, #255	; 0xff
     404:	d900      	bls.n	408 <adc_init+0x268>
     406:	e753      	b.n	2b0 <adc_init+0x110>
     408:	2aff      	cmp	r2, #255	; 0xff
     40a:	dd00      	ble.n	40e <adc_init+0x26e>
     40c:	e750      	b.n	2b0 <adc_init+0x110>
     40e:	6a23      	ldr	r3, [r4, #32]
     410:	2bff      	cmp	r3, #255	; 0xff
     412:	dd00      	ble.n	416 <adc_init+0x276>
     414:	e74c      	b.n	2b0 <adc_init+0x110>
     416:	e779      	b.n	30c <adc_init+0x16c>
     418:	7ce2      	ldrb	r2, [r4, #19]
     41a:	69e1      	ldr	r1, [r4, #28]
     41c:	4b24      	ldr	r3, [pc, #144]	; (4b0 <adc_init+0x310>)
     41e:	2a00      	cmp	r2, #0
     420:	d00c      	beq.n	43c <adc_init+0x29c>
     422:	2280      	movs	r2, #128	; 0x80
     424:	0092      	lsls	r2, r2, #2
     426:	188a      	adds	r2, r1, r2
     428:	429a      	cmp	r2, r3
     42a:	d900      	bls.n	42e <adc_init+0x28e>
     42c:	e740      	b.n	2b0 <adc_init+0x110>
     42e:	2080      	movs	r0, #128	; 0x80
     430:	6a22      	ldr	r2, [r4, #32]
     432:	0080      	lsls	r0, r0, #2
     434:	1812      	adds	r2, r2, r0
     436:	429a      	cmp	r2, r3
     438:	d900      	bls.n	43c <adc_init+0x29c>
     43a:	e739      	b.n	2b0 <adc_init+0x110>
     43c:	4299      	cmp	r1, r3
     43e:	dd00      	ble.n	442 <adc_init+0x2a2>
     440:	e736      	b.n	2b0 <adc_init+0x110>
     442:	6a22      	ldr	r2, [r4, #32]
     444:	429a      	cmp	r2, r3
     446:	dd00      	ble.n	44a <adc_init+0x2aa>
     448:	e732      	b.n	2b0 <adc_init+0x110>
     44a:	e75f      	b.n	30c <adc_init+0x16c>
     44c:	7ce2      	ldrb	r2, [r4, #19]
     44e:	69e1      	ldr	r1, [r4, #28]
     450:	4b14      	ldr	r3, [pc, #80]	; (4a4 <adc_init+0x304>)
     452:	2a00      	cmp	r2, #0
     454:	d0f2      	beq.n	43c <adc_init+0x29c>
     456:	2280      	movs	r2, #128	; 0x80
     458:	0112      	lsls	r2, r2, #4
     45a:	188a      	adds	r2, r1, r2
     45c:	429a      	cmp	r2, r3
     45e:	d900      	bls.n	462 <adc_init+0x2c2>
     460:	e726      	b.n	2b0 <adc_init+0x110>
     462:	2080      	movs	r0, #128	; 0x80
     464:	6a22      	ldr	r2, [r4, #32]
     466:	0100      	lsls	r0, r0, #4
     468:	e7e4      	b.n	434 <adc_init+0x294>
     46a:	7ce2      	ldrb	r2, [r4, #19]
     46c:	69e1      	ldr	r1, [r4, #28]
     46e:	4b11      	ldr	r3, [pc, #68]	; (4b4 <adc_init+0x314>)
     470:	2a00      	cmp	r2, #0
     472:	d0e3      	beq.n	43c <adc_init+0x29c>
     474:	2280      	movs	r2, #128	; 0x80
     476:	0212      	lsls	r2, r2, #8
     478:	188a      	adds	r2, r1, r2
     47a:	429a      	cmp	r2, r3
     47c:	d900      	bls.n	480 <adc_init+0x2e0>
     47e:	e717      	b.n	2b0 <adc_init+0x110>
     480:	2080      	movs	r0, #128	; 0x80
     482:	6a22      	ldr	r2, [r4, #32]
     484:	0200      	lsls	r0, r0, #8
     486:	e7d5      	b.n	434 <adc_init+0x294>
     488:	40000400 	.word	0x40000400
     48c:	40000800 	.word	0x40000800
     490:	200053c8 	.word	0x200053c8
     494:	00005159 	.word	0x00005159
     498:	000050d1 	.word	0x000050d1
     49c:	0000011d 	.word	0x0000011d
     4a0:	00000115 	.word	0x00000115
     4a4:	00000fff 	.word	0x00000fff
     4a8:	00806024 	.word	0x00806024
     4ac:	00806020 	.word	0x00806020
     4b0:	000003ff 	.word	0x000003ff
     4b4:	0000ffff 	.word	0x0000ffff

000004b8 <adc_start_conversion>:
     4b8:	6803      	ldr	r3, [r0, #0]
     4ba:	7e5a      	ldrb	r2, [r3, #25]
     4bc:	b252      	sxtb	r2, r2
     4be:	2a00      	cmp	r2, #0
     4c0:	dbfb      	blt.n	4ba <adc_start_conversion+0x2>
     4c2:	2202      	movs	r2, #2
     4c4:	7b19      	ldrb	r1, [r3, #12]
     4c6:	430a      	orrs	r2, r1
     4c8:	731a      	strb	r2, [r3, #12]
     4ca:	6802      	ldr	r2, [r0, #0]
     4cc:	7e53      	ldrb	r3, [r2, #25]
     4ce:	b25b      	sxtb	r3, r3
     4d0:	2b00      	cmp	r3, #0
     4d2:	dbfb      	blt.n	4cc <adc_start_conversion+0x14>
     4d4:	4770      	bx	lr
	...

000004d8 <ADC_Handler>:
     4d8:	b570      	push	{r4, r5, r6, lr}
     4da:	4b28      	ldr	r3, [pc, #160]	; (57c <ADC_Handler+0xa4>)
     4dc:	681c      	ldr	r4, [r3, #0]
     4de:	6823      	ldr	r3, [r4, #0]
     4e0:	7e1a      	ldrb	r2, [r3, #24]
     4e2:	7ddd      	ldrb	r5, [r3, #23]
     4e4:	4015      	ands	r5, r2
     4e6:	2201      	movs	r2, #1
     4e8:	4215      	tst	r5, r2
     4ea:	d028      	beq.n	53e <ADC_Handler+0x66>
     4ec:	761a      	strb	r2, [r3, #24]
     4ee:	6821      	ldr	r1, [r4, #0]
     4f0:	7e4b      	ldrb	r3, [r1, #25]
     4f2:	b25b      	sxtb	r3, r3
     4f4:	2b00      	cmp	r3, #0
     4f6:	dbfb      	blt.n	4f0 <ADC_Handler+0x18>
     4f8:	6962      	ldr	r2, [r4, #20]
     4fa:	1c93      	adds	r3, r2, #2
     4fc:	6163      	str	r3, [r4, #20]
     4fe:	8b4b      	ldrh	r3, [r1, #26]
     500:	b29b      	uxth	r3, r3
     502:	8013      	strh	r3, [r2, #0]
     504:	8b23      	ldrh	r3, [r4, #24]
     506:	3b01      	subs	r3, #1
     508:	b29b      	uxth	r3, r3
     50a:	8323      	strh	r3, [r4, #24]
     50c:	2b00      	cmp	r3, #0
     50e:	d110      	bne.n	532 <ADC_Handler+0x5a>
     510:	2201      	movs	r2, #1
     512:	6821      	ldr	r1, [r4, #0]
     514:	758a      	strb	r2, [r1, #22]
     516:	7f21      	ldrb	r1, [r4, #28]
     518:	2905      	cmp	r1, #5
     51a:	d110      	bne.n	53e <ADC_Handler+0x66>
     51c:	7723      	strb	r3, [r4, #28]
     51e:	7ee3      	ldrb	r3, [r4, #27]
     520:	4213      	tst	r3, r2
     522:	d00c      	beq.n	53e <ADC_Handler+0x66>
     524:	7ea3      	ldrb	r3, [r4, #26]
     526:	4213      	tst	r3, r2
     528:	d009      	beq.n	53e <ADC_Handler+0x66>
     52a:	0020      	movs	r0, r4
     52c:	68a3      	ldr	r3, [r4, #8]
     52e:	4798      	blx	r3
     530:	e005      	b.n	53e <ADC_Handler+0x66>
     532:	7f63      	ldrb	r3, [r4, #29]
     534:	2b00      	cmp	r3, #0
     536:	d002      	beq.n	53e <ADC_Handler+0x66>
     538:	0020      	movs	r0, r4
     53a:	4b11      	ldr	r3, [pc, #68]	; (580 <ADC_Handler+0xa8>)
     53c:	4798      	blx	r3
     53e:	2304      	movs	r3, #4
     540:	421d      	tst	r5, r3
     542:	d00b      	beq.n	55c <ADC_Handler+0x84>
     544:	6822      	ldr	r2, [r4, #0]
     546:	7613      	strb	r3, [r2, #24]
     548:	7ee2      	ldrb	r2, [r4, #27]
     54a:	3b02      	subs	r3, #2
     54c:	421a      	tst	r2, r3
     54e:	d005      	beq.n	55c <ADC_Handler+0x84>
     550:	7ea2      	ldrb	r2, [r4, #26]
     552:	421a      	tst	r2, r3
     554:	d002      	beq.n	55c <ADC_Handler+0x84>
     556:	0020      	movs	r0, r4
     558:	68e3      	ldr	r3, [r4, #12]
     55a:	4798      	blx	r3
     55c:	2302      	movs	r3, #2
     55e:	421d      	tst	r5, r3
     560:	d00b      	beq.n	57a <ADC_Handler+0xa2>
     562:	6822      	ldr	r2, [r4, #0]
     564:	7613      	strb	r3, [r2, #24]
     566:	7ee2      	ldrb	r2, [r4, #27]
     568:	18db      	adds	r3, r3, r3
     56a:	421a      	tst	r2, r3
     56c:	d005      	beq.n	57a <ADC_Handler+0xa2>
     56e:	7ea2      	ldrb	r2, [r4, #26]
     570:	421a      	tst	r2, r3
     572:	d002      	beq.n	57a <ADC_Handler+0xa2>
     574:	6923      	ldr	r3, [r4, #16]
     576:	0020      	movs	r0, r4
     578:	4798      	blx	r3
     57a:	bd70      	pop	{r4, r5, r6, pc}
     57c:	200053c8 	.word	0x200053c8
     580:	000004b9 	.word	0x000004b9

00000584 <adc_register_callback>:
     584:	1c93      	adds	r3, r2, #2
     586:	009b      	lsls	r3, r3, #2
     588:	5019      	str	r1, [r3, r0]
     58a:	2301      	movs	r3, #1
     58c:	4093      	lsls	r3, r2
     58e:	001a      	movs	r2, r3
     590:	7e83      	ldrb	r3, [r0, #26]
     592:	4313      	orrs	r3, r2
     594:	7683      	strb	r3, [r0, #26]
     596:	4770      	bx	lr

00000598 <adc_read_buffer_job>:
     598:	b570      	push	{r4, r5, r6, lr}
     59a:	8b03      	ldrh	r3, [r0, #24]
     59c:	2405      	movs	r4, #5
     59e:	b29b      	uxth	r3, r3
     5a0:	2b00      	cmp	r3, #0
     5a2:	d10e      	bne.n	5c2 <adc_read_buffer_job+0x2a>
     5a4:	7f05      	ldrb	r5, [r0, #28]
     5a6:	42a5      	cmp	r5, r4
     5a8:	d00b      	beq.n	5c2 <adc_read_buffer_job+0x2a>
     5aa:	7704      	strb	r4, [r0, #28]
     5ac:	8302      	strh	r2, [r0, #24]
     5ae:	2201      	movs	r2, #1
     5b0:	6141      	str	r1, [r0, #20]
     5b2:	6801      	ldr	r1, [r0, #0]
     5b4:	001c      	movs	r4, r3
     5b6:	75ca      	strb	r2, [r1, #23]
     5b8:	7f42      	ldrb	r2, [r0, #29]
     5ba:	2a00      	cmp	r2, #0
     5bc:	d001      	beq.n	5c2 <adc_read_buffer_job+0x2a>
     5be:	4b02      	ldr	r3, [pc, #8]	; (5c8 <adc_read_buffer_job+0x30>)
     5c0:	4798      	blx	r3
     5c2:	0020      	movs	r0, r4
     5c4:	bd70      	pop	{r4, r5, r6, pc}
     5c6:	46c0      	nop			; (mov r8, r8)
     5c8:	000004b9 	.word	0x000004b9

000005cc <adc_get_job_status>:
     5cc:	2317      	movs	r3, #23
     5ce:	2900      	cmp	r1, #0
     5d0:	d101      	bne.n	5d6 <adc_get_job_status+0xa>
     5d2:	7f03      	ldrb	r3, [r0, #28]
     5d4:	b2db      	uxtb	r3, r3
     5d6:	0018      	movs	r0, r3
     5d8:	4770      	bx	lr

000005da <dac_is_syncing>:
     5da:	6803      	ldr	r3, [r0, #0]
     5dc:	79d8      	ldrb	r0, [r3, #7]
     5de:	09c0      	lsrs	r0, r0, #7
     5e0:	4770      	bx	lr

000005e2 <dac_get_config_defaults>:
     5e2:	2300      	movs	r3, #0
     5e4:	2201      	movs	r2, #1
     5e6:	7003      	strb	r3, [r0, #0]
     5e8:	7042      	strb	r2, [r0, #1]
     5ea:	7083      	strb	r3, [r0, #2]
     5ec:	7103      	strb	r3, [r0, #4]
     5ee:	7143      	strb	r3, [r0, #5]
     5f0:	70c3      	strb	r3, [r0, #3]
     5f2:	7183      	strb	r3, [r0, #6]
     5f4:	4770      	bx	lr
	...

000005f8 <dac_init>:
     5f8:	2380      	movs	r3, #128	; 0x80
     5fa:	b5f7      	push	{r0, r1, r2, r4, r5, r6, r7, lr}
     5fc:	2702      	movs	r7, #2
     5fe:	0015      	movs	r5, r2
     600:	4a25      	ldr	r2, [pc, #148]	; (698 <dac_init+0xa0>)
     602:	6001      	str	r1, [r0, #0]
     604:	0004      	movs	r4, r0
     606:	6a10      	ldr	r0, [r2, #32]
     608:	02db      	lsls	r3, r3, #11
     60a:	4303      	orrs	r3, r0
     60c:	6213      	str	r3, [r2, #32]
     60e:	780b      	ldrb	r3, [r1, #0]
     610:	201c      	movs	r0, #28
     612:	423b      	tst	r3, r7
     614:	d13f      	bne.n	696 <dac_init+0x9e>
     616:	2301      	movs	r3, #1
     618:	780e      	ldrb	r6, [r1, #0]
     61a:	3817      	subs	r0, #23
     61c:	401e      	ands	r6, r3
     61e:	d13a      	bne.n	696 <dac_init+0x9e>
     620:	466a      	mov	r2, sp
     622:	78eb      	ldrb	r3, [r5, #3]
     624:	4669      	mov	r1, sp
     626:	7013      	strb	r3, [r2, #0]
     628:	301c      	adds	r0, #28
     62a:	4b1c      	ldr	r3, [pc, #112]	; (69c <dac_init+0xa4>)
     62c:	4798      	blx	r3
     62e:	2021      	movs	r0, #33	; 0x21
     630:	4b1b      	ldr	r3, [pc, #108]	; (6a0 <dac_init+0xa8>)
     632:	4798      	blx	r3
     634:	2301      	movs	r3, #1
     636:	a901      	add	r1, sp, #4
     638:	700b      	strb	r3, [r1, #0]
     63a:	0038      	movs	r0, r7
     63c:	4b19      	ldr	r3, [pc, #100]	; (6a4 <dac_init+0xac>)
     63e:	704e      	strb	r6, [r1, #1]
     640:	70ce      	strb	r6, [r1, #3]
     642:	708e      	strb	r6, [r1, #2]
     644:	4798      	blx	r3
     646:	786b      	ldrb	r3, [r5, #1]
     648:	71a6      	strb	r6, [r4, #6]
     64a:	7123      	strb	r3, [r4, #4]
     64c:	79ab      	ldrb	r3, [r5, #6]
     64e:	6827      	ldr	r7, [r4, #0]
     650:	1e5a      	subs	r2, r3, #1
     652:	4193      	sbcs	r3, r2
     654:	78aa      	ldrb	r2, [r5, #2]
     656:	009b      	lsls	r3, r3, #2
     658:	782e      	ldrb	r6, [r5, #0]
     65a:	2a00      	cmp	r2, #0
     65c:	d001      	beq.n	662 <dac_init+0x6a>
     65e:	2204      	movs	r2, #4
     660:	4316      	orrs	r6, r2
     662:	792a      	ldrb	r2, [r5, #4]
     664:	2a00      	cmp	r2, #0
     666:	d001      	beq.n	66c <dac_init+0x74>
     668:	2210      	movs	r2, #16
     66a:	4316      	orrs	r6, r2
     66c:	796a      	ldrb	r2, [r5, #5]
     66e:	2a00      	cmp	r2, #0
     670:	d001      	beq.n	676 <dac_init+0x7e>
     672:	2208      	movs	r2, #8
     674:	4316      	orrs	r6, r2
     676:	b2db      	uxtb	r3, r3
     678:	703b      	strb	r3, [r7, #0]
     67a:	0020      	movs	r0, r4
     67c:	4b0a      	ldr	r3, [pc, #40]	; (6a8 <dac_init+0xb0>)
     67e:	4798      	blx	r3
     680:	2800      	cmp	r0, #0
     682:	d1fa      	bne.n	67a <dac_init+0x82>
     684:	b2f6      	uxtb	r6, r6
     686:	707e      	strb	r6, [r7, #1]
     688:	782b      	ldrb	r3, [r5, #0]
     68a:	6160      	str	r0, [r4, #20]
     68c:	7163      	strb	r3, [r4, #5]
     68e:	4b07      	ldr	r3, [pc, #28]	; (6ac <dac_init+0xb4>)
     690:	61a0      	str	r0, [r4, #24]
     692:	61e0      	str	r0, [r4, #28]
     694:	601c      	str	r4, [r3, #0]
     696:	bdfe      	pop	{r1, r2, r3, r4, r5, r6, r7, pc}
     698:	40000400 	.word	0x40000400
     69c:	00005159 	.word	0x00005159
     6a0:	000050d1 	.word	0x000050d1
     6a4:	0000525d 	.word	0x0000525d
     6a8:	000005db 	.word	0x000005db
     6ac:	200053cc 	.word	0x200053cc

000006b0 <dac_enable>:
     6b0:	b570      	push	{r4, r5, r6, lr}
     6b2:	0004      	movs	r4, r0
     6b4:	6805      	ldr	r5, [r0, #0]
     6b6:	7902      	ldrb	r2, [r0, #4]
     6b8:	786b      	ldrb	r3, [r5, #1]
     6ba:	4313      	orrs	r3, r2
     6bc:	706b      	strb	r3, [r5, #1]
     6be:	0020      	movs	r0, r4
     6c0:	4b08      	ldr	r3, [pc, #32]	; (6e4 <dac_enable+0x34>)
     6c2:	4798      	blx	r3
     6c4:	2800      	cmp	r0, #0
     6c6:	d1fa      	bne.n	6be <dac_enable+0xe>
     6c8:	2302      	movs	r3, #2
     6ca:	782a      	ldrb	r2, [r5, #0]
     6cc:	4313      	orrs	r3, r2
     6ce:	702b      	strb	r3, [r5, #0]
     6d0:	7963      	ldrb	r3, [r4, #5]
     6d2:	2b00      	cmp	r3, #0
     6d4:	d104      	bne.n	6e0 <dac_enable+0x30>
     6d6:	4a04      	ldr	r2, [pc, #16]	; (6e8 <dac_enable+0x38>)
     6d8:	3304      	adds	r3, #4
     6da:	6c11      	ldr	r1, [r2, #64]	; 0x40
     6dc:	430b      	orrs	r3, r1
     6de:	6413      	str	r3, [r2, #64]	; 0x40
     6e0:	bd70      	pop	{r4, r5, r6, pc}
     6e2:	46c0      	nop			; (mov r8, r8)
     6e4:	000005db 	.word	0x000005db
     6e8:	40000800 	.word	0x40000800

000006ec <dac_chan_get_config_defaults>:
     6ec:	4770      	bx	lr

000006ee <dac_chan_set_config>:
     6ee:	4770      	bx	lr

000006f0 <dac_chan_enable>:
     6f0:	4770      	bx	lr
	...

000006f4 <dac_chan_write>:
     6f4:	b570      	push	{r4, r5, r6, lr}
     6f6:	0004      	movs	r4, r0
     6f8:	0016      	movs	r6, r2
     6fa:	6805      	ldr	r5, [r0, #0]
     6fc:	0020      	movs	r0, r4
     6fe:	4b06      	ldr	r3, [pc, #24]	; (718 <dac_chan_write+0x24>)
     700:	4798      	blx	r3
     702:	2800      	cmp	r0, #0
     704:	d1fa      	bne.n	6fc <dac_chan_write+0x8>
     706:	79a3      	ldrb	r3, [r4, #6]
     708:	2b00      	cmp	r3, #0
     70a:	d002      	beq.n	712 <dac_chan_write+0x1e>
     70c:	81ae      	strh	r6, [r5, #12]
     70e:	2000      	movs	r0, #0
     710:	bd70      	pop	{r4, r5, r6, pc}
     712:	812e      	strh	r6, [r5, #8]
     714:	e7fb      	b.n	70e <dac_chan_write+0x1a>
     716:	46c0      	nop			; (mov r8, r8)
     718:	000005db 	.word	0x000005db

0000071c <DAC_Handler>:
     71c:	b570      	push	{r4, r5, r6, lr}
     71e:	4b1e      	ldr	r3, [pc, #120]	; (798 <DAC_Handler+0x7c>)
     720:	681c      	ldr	r4, [r3, #0]
     722:	2301      	movs	r3, #1
     724:	6825      	ldr	r5, [r4, #0]
     726:	79aa      	ldrb	r2, [r5, #6]
     728:	421a      	tst	r2, r3
     72a:	d006      	beq.n	73a <DAC_Handler+0x1e>
     72c:	71ab      	strb	r3, [r5, #6]
     72e:	7c63      	ldrb	r3, [r4, #17]
     730:	2b00      	cmp	r3, #0
     732:	d002      	beq.n	73a <DAC_Handler+0x1e>
     734:	2000      	movs	r0, #0
     736:	69a3      	ldr	r3, [r4, #24]
     738:	4798      	blx	r3
     73a:	2202      	movs	r2, #2
     73c:	79ab      	ldrb	r3, [r5, #6]
     73e:	4213      	tst	r3, r2
     740:	d029      	beq.n	796 <DAC_Handler+0x7a>
     742:	71aa      	strb	r2, [r5, #6]
     744:	89a3      	ldrh	r3, [r4, #12]
     746:	2b00      	cmp	r3, #0
     748:	d01f      	beq.n	78a <DAC_Handler+0x6e>
     74a:	89e3      	ldrh	r3, [r4, #14]
     74c:	b29b      	uxth	r3, r3
     74e:	1c59      	adds	r1, r3, #1
     750:	b289      	uxth	r1, r1
     752:	81e1      	strh	r1, [r4, #14]
     754:	68a1      	ldr	r1, [r4, #8]
     756:	005b      	lsls	r3, r3, #1
     758:	18cb      	adds	r3, r1, r3
     75a:	881b      	ldrh	r3, [r3, #0]
     75c:	b29b      	uxth	r3, r3
     75e:	81ab      	strh	r3, [r5, #12]
     760:	89a3      	ldrh	r3, [r4, #12]
     762:	3b01      	subs	r3, #1
     764:	b29b      	uxth	r3, r3
     766:	81a3      	strh	r3, [r4, #12]
     768:	89a0      	ldrh	r0, [r4, #12]
     76a:	b280      	uxth	r0, r0
     76c:	2800      	cmp	r0, #0
     76e:	d10c      	bne.n	78a <DAC_Handler+0x6e>
     770:	1c63      	adds	r3, r4, #1
     772:	77d8      	strb	r0, [r3, #31]
     774:	712a      	strb	r2, [r5, #4]
     776:	71aa      	strb	r2, [r5, #6]
     778:	2280      	movs	r2, #128	; 0x80
     77a:	4b08      	ldr	r3, [pc, #32]	; (79c <DAC_Handler+0x80>)
     77c:	0492      	lsls	r2, r2, #18
     77e:	67da      	str	r2, [r3, #124]	; 0x7c
     780:	7ca3      	ldrb	r3, [r4, #18]
     782:	2b00      	cmp	r3, #0
     784:	d001      	beq.n	78a <DAC_Handler+0x6e>
     786:	69e3      	ldr	r3, [r4, #28]
     788:	4798      	blx	r3
     78a:	7c23      	ldrb	r3, [r4, #16]
     78c:	2b00      	cmp	r3, #0
     78e:	d002      	beq.n	796 <DAC_Handler+0x7a>
     790:	6963      	ldr	r3, [r4, #20]
     792:	2000      	movs	r0, #0
     794:	4798      	blx	r3
     796:	bd70      	pop	{r4, r5, r6, pc}
     798:	200053cc 	.word	0x200053cc
     79c:	e000e104 	.word	0xe000e104

000007a0 <i2c_master_init>:
     7a0:	b5f0      	push	{r4, r5, r6, r7, lr}
     7a2:	0007      	movs	r7, r0
     7a4:	b08b      	sub	sp, #44	; 0x2c
     7a6:	6039      	str	r1, [r7, #0]
     7a8:	0008      	movs	r0, r1
     7aa:	4b9b      	ldr	r3, [pc, #620]	; (a18 <i2c_master_init+0x278>)
     7ac:	0014      	movs	r4, r2
     7ae:	000e      	movs	r6, r1
     7b0:	4798      	blx	r3
     7b2:	2501      	movs	r5, #1
     7b4:	1c83      	adds	r3, r0, #2
     7b6:	409d      	lsls	r5, r3
     7b8:	002b      	movs	r3, r5
     7ba:	4a98      	ldr	r2, [pc, #608]	; (a1c <i2c_master_init+0x27c>)
     7bc:	3014      	adds	r0, #20
     7be:	6a11      	ldr	r1, [r2, #32]
     7c0:	b2c5      	uxtb	r5, r0
     7c2:	430b      	orrs	r3, r1
     7c4:	6213      	str	r3, [r2, #32]
     7c6:	7b23      	ldrb	r3, [r4, #12]
     7c8:	aa08      	add	r2, sp, #32
     7ca:	7013      	strb	r3, [r2, #0]
     7cc:	0011      	movs	r1, r2
     7ce:	0028      	movs	r0, r5
     7d0:	4b93      	ldr	r3, [pc, #588]	; (a20 <i2c_master_init+0x280>)
     7d2:	4798      	blx	r3
     7d4:	0028      	movs	r0, r5
     7d6:	4b93      	ldr	r3, [pc, #588]	; (a24 <i2c_master_init+0x284>)
     7d8:	4798      	blx	r3
     7da:	4b93      	ldr	r3, [pc, #588]	; (a28 <i2c_master_init+0x288>)
     7dc:	7b20      	ldrb	r0, [r4, #12]
     7de:	2100      	movs	r1, #0
     7e0:	4798      	blx	r3
     7e2:	6833      	ldr	r3, [r6, #0]
     7e4:	201c      	movs	r0, #28
     7e6:	079b      	lsls	r3, r3, #30
     7e8:	d500      	bpl.n	7ec <i2c_master_init+0x4c>
     7ea:	e109      	b.n	a00 <i2c_master_init+0x260>
     7ec:	2301      	movs	r3, #1
     7ee:	6835      	ldr	r5, [r6, #0]
     7f0:	3817      	subs	r0, #23
     7f2:	401d      	ands	r5, r3
     7f4:	d000      	beq.n	7f8 <i2c_master_init+0x58>
     7f6:	e103      	b.n	a00 <i2c_master_init+0x260>
     7f8:	4b87      	ldr	r3, [pc, #540]	; (a18 <i2c_master_init+0x278>)
     7fa:	6838      	ldr	r0, [r7, #0]
     7fc:	4798      	blx	r3
     7fe:	498b      	ldr	r1, [pc, #556]	; (a2c <i2c_master_init+0x28c>)
     800:	4b8b      	ldr	r3, [pc, #556]	; (a30 <i2c_master_init+0x290>)
     802:	9004      	str	r0, [sp, #16]
     804:	4798      	blx	r3
     806:	9b04      	ldr	r3, [sp, #16]
     808:	763d      	strb	r5, [r7, #24]
     80a:	009a      	lsls	r2, r3, #2
     80c:	4b89      	ldr	r3, [pc, #548]	; (a34 <i2c_master_init+0x294>)
     80e:	767d      	strb	r5, [r7, #25]
     810:	50d7      	str	r7, [r2, r3]
     812:	1dbb      	adds	r3, r7, #6
     814:	837d      	strh	r5, [r7, #26]
     816:	83bd      	strh	r5, [r7, #28]
     818:	77dd      	strb	r5, [r3, #31]
     81a:	2314      	movs	r3, #20
     81c:	623d      	str	r5, [r7, #32]
     81e:	6033      	str	r3, [r6, #0]
     820:	683b      	ldr	r3, [r7, #0]
     822:	ae09      	add	r6, sp, #36	; 0x24
     824:	9304      	str	r3, [sp, #16]
     826:	0018      	movs	r0, r3
     828:	4b7b      	ldr	r3, [pc, #492]	; (a18 <i2c_master_init+0x278>)
     82a:	4798      	blx	r3
     82c:	2380      	movs	r3, #128	; 0x80
     82e:	9000      	str	r0, [sp, #0]
     830:	69e0      	ldr	r0, [r4, #28]
     832:	7033      	strb	r3, [r6, #0]
     834:	3b7f      	subs	r3, #127	; 0x7f
     836:	7075      	strb	r5, [r6, #1]
     838:	70f5      	strb	r5, [r6, #3]
     83a:	70b3      	strb	r3, [r6, #2]
     83c:	6a25      	ldr	r5, [r4, #32]
     83e:	2800      	cmp	r0, #0
     840:	d103      	bne.n	84a <i2c_master_init+0xaa>
     842:	0001      	movs	r1, r0
     844:	4b7c      	ldr	r3, [pc, #496]	; (a38 <i2c_master_init+0x298>)
     846:	9804      	ldr	r0, [sp, #16]
     848:	4798      	blx	r3
     84a:	2302      	movs	r3, #2
     84c:	7030      	strb	r0, [r6, #0]
     84e:	0c00      	lsrs	r0, r0, #16
     850:	7073      	strb	r3, [r6, #1]
     852:	b2c0      	uxtb	r0, r0
     854:	0031      	movs	r1, r6
     856:	4b79      	ldr	r3, [pc, #484]	; (a3c <i2c_master_init+0x29c>)
     858:	4798      	blx	r3
     85a:	2d00      	cmp	r5, #0
     85c:	d104      	bne.n	868 <i2c_master_init+0xc8>
     85e:	2101      	movs	r1, #1
     860:	9804      	ldr	r0, [sp, #16]
     862:	4b75      	ldr	r3, [pc, #468]	; (a38 <i2c_master_init+0x298>)
     864:	4798      	blx	r3
     866:	0005      	movs	r5, r0
     868:	2302      	movs	r3, #2
     86a:	7035      	strb	r5, [r6, #0]
     86c:	0c2d      	lsrs	r5, r5, #16
     86e:	7073      	strb	r3, [r6, #1]
     870:	b2e8      	uxtb	r0, r5
     872:	4b72      	ldr	r3, [pc, #456]	; (a3c <i2c_master_init+0x29c>)
     874:	0031      	movs	r1, r6
     876:	4798      	blx	r3
     878:	8aa3      	ldrh	r3, [r4, #20]
     87a:	80fb      	strh	r3, [r7, #6]
     87c:	8ae3      	ldrh	r3, [r4, #22]
     87e:	813b      	strh	r3, [r7, #8]
     880:	7e22      	ldrb	r2, [r4, #24]
     882:	2380      	movs	r3, #128	; 0x80
     884:	2a00      	cmp	r2, #0
     886:	d106      	bne.n	896 <i2c_master_init+0xf6>
     888:	4b6d      	ldr	r3, [pc, #436]	; (a40 <i2c_master_init+0x2a0>)
     88a:	3202      	adds	r2, #2
     88c:	789b      	ldrb	r3, [r3, #2]
     88e:	4013      	ands	r3, r2
     890:	1e5f      	subs	r7, r3, #1
     892:	41bb      	sbcs	r3, r7
     894:	01db      	lsls	r3, r3, #7
     896:	68a2      	ldr	r2, [r4, #8]
     898:	6927      	ldr	r7, [r4, #16]
     89a:	4317      	orrs	r7, r2
     89c:	431f      	orrs	r7, r3
     89e:	1d63      	adds	r3, r4, #5
     8a0:	7fdb      	ldrb	r3, [r3, #31]
     8a2:	2b00      	cmp	r3, #0
     8a4:	d002      	beq.n	8ac <i2c_master_init+0x10c>
     8a6:	2380      	movs	r3, #128	; 0x80
     8a8:	05db      	lsls	r3, r3, #23
     8aa:	431f      	orrs	r7, r3
     8ac:	6aa3      	ldr	r3, [r4, #40]	; 0x28
     8ae:	431f      	orrs	r7, r3
     8b0:	0023      	movs	r3, r4
     8b2:	332c      	adds	r3, #44	; 0x2c
     8b4:	781b      	ldrb	r3, [r3, #0]
     8b6:	2b00      	cmp	r3, #0
     8b8:	d103      	bne.n	8c2 <i2c_master_init+0x122>
     8ba:	2380      	movs	r3, #128	; 0x80
     8bc:	049b      	lsls	r3, r3, #18
     8be:	429a      	cmp	r2, r3
     8c0:	d102      	bne.n	8c8 <i2c_master_init+0x128>
     8c2:	2380      	movs	r3, #128	; 0x80
     8c4:	051b      	lsls	r3, r3, #20
     8c6:	431f      	orrs	r7, r3
     8c8:	0023      	movs	r3, r4
     8ca:	332d      	adds	r3, #45	; 0x2d
     8cc:	781b      	ldrb	r3, [r3, #0]
     8ce:	2b00      	cmp	r3, #0
     8d0:	d002      	beq.n	8d8 <i2c_master_init+0x138>
     8d2:	2380      	movs	r3, #128	; 0x80
     8d4:	041b      	lsls	r3, r3, #16
     8d6:	431f      	orrs	r7, r3
     8d8:	0023      	movs	r3, r4
     8da:	332e      	adds	r3, #46	; 0x2e
     8dc:	781b      	ldrb	r3, [r3, #0]
     8de:	2b00      	cmp	r3, #0
     8e0:	d002      	beq.n	8e8 <i2c_master_init+0x148>
     8e2:	2380      	movs	r3, #128	; 0x80
     8e4:	03db      	lsls	r3, r3, #15
     8e6:	431f      	orrs	r7, r3
     8e8:	9b04      	ldr	r3, [sp, #16]
     8ea:	9800      	ldr	r0, [sp, #0]
     8ec:	681b      	ldr	r3, [r3, #0]
     8ee:	25fa      	movs	r5, #250	; 0xfa
     8f0:	431f      	orrs	r7, r3
     8f2:	9b04      	ldr	r3, [sp, #16]
     8f4:	9a04      	ldr	r2, [sp, #16]
     8f6:	601f      	str	r7, [r3, #0]
     8f8:	2380      	movs	r3, #128	; 0x80
     8fa:	3014      	adds	r0, #20
     8fc:	005b      	lsls	r3, r3, #1
     8fe:	6053      	str	r3, [r2, #4]
     900:	b2c0      	uxtb	r0, r0
     902:	4b50      	ldr	r3, [pc, #320]	; (a44 <i2c_master_init+0x2a4>)
     904:	4798      	blx	r3
     906:	6823      	ldr	r3, [r4, #0]
     908:	00ad      	lsls	r5, r5, #2
     90a:	435d      	muls	r5, r3
     90c:	6863      	ldr	r3, [r4, #4]
     90e:	0007      	movs	r7, r0
     910:	9305      	str	r3, [sp, #20]
     912:	4b4d      	ldr	r3, [pc, #308]	; (a48 <i2c_master_init+0x2a8>)
     914:	4798      	blx	r3
     916:	4b4c      	ldr	r3, [pc, #304]	; (a48 <i2c_master_init+0x2a8>)
     918:	9000      	str	r0, [sp, #0]
     91a:	9101      	str	r1, [sp, #4]
     91c:	0068      	lsls	r0, r5, #1
     91e:	4798      	blx	r3
     920:	9002      	str	r0, [sp, #8]
     922:	9103      	str	r1, [sp, #12]
     924:	4b48      	ldr	r3, [pc, #288]	; (a48 <i2c_master_init+0x2a8>)
     926:	8e20      	ldrh	r0, [r4, #48]	; 0x30
     928:	4798      	blx	r3
     92a:	4e48      	ldr	r6, [pc, #288]	; (a4c <i2c_master_init+0x2ac>)
     92c:	9006      	str	r0, [sp, #24]
     92e:	9107      	str	r1, [sp, #28]
     930:	9800      	ldr	r0, [sp, #0]
     932:	9901      	ldr	r1, [sp, #4]
     934:	4a46      	ldr	r2, [pc, #280]	; (a50 <i2c_master_init+0x2b0>)
     936:	4b47      	ldr	r3, [pc, #284]	; (a54 <i2c_master_init+0x2b4>)
     938:	47b0      	blx	r6
     93a:	0002      	movs	r2, r0
     93c:	000b      	movs	r3, r1
     93e:	9806      	ldr	r0, [sp, #24]
     940:	9907      	ldr	r1, [sp, #28]
     942:	47b0      	blx	r6
     944:	4e44      	ldr	r6, [pc, #272]	; (a58 <i2c_master_init+0x2b8>)
     946:	2200      	movs	r2, #0
     948:	4b44      	ldr	r3, [pc, #272]	; (a5c <i2c_master_init+0x2bc>)
     94a:	47b0      	blx	r6
     94c:	4b3e      	ldr	r3, [pc, #248]	; (a48 <i2c_master_init+0x2a8>)
     94e:	9006      	str	r0, [sp, #24]
     950:	9107      	str	r1, [sp, #28]
     952:	0028      	movs	r0, r5
     954:	4798      	blx	r3
     956:	4d3d      	ldr	r5, [pc, #244]	; (a4c <i2c_master_init+0x2ac>)
     958:	0002      	movs	r2, r0
     95a:	000b      	movs	r3, r1
     95c:	9806      	ldr	r0, [sp, #24]
     95e:	9907      	ldr	r1, [sp, #28]
     960:	47a8      	blx	r5
     962:	4d3f      	ldr	r5, [pc, #252]	; (a60 <i2c_master_init+0x2c0>)
     964:	0002      	movs	r2, r0
     966:	000b      	movs	r3, r1
     968:	9800      	ldr	r0, [sp, #0]
     96a:	9901      	ldr	r1, [sp, #4]
     96c:	47a8      	blx	r5
     96e:	9a02      	ldr	r2, [sp, #8]
     970:	9b03      	ldr	r3, [sp, #12]
     972:	47b0      	blx	r6
     974:	2200      	movs	r2, #0
     976:	4b3b      	ldr	r3, [pc, #236]	; (a64 <i2c_master_init+0x2c4>)
     978:	47a8      	blx	r5
     97a:	9a02      	ldr	r2, [sp, #8]
     97c:	9b03      	ldr	r3, [sp, #12]
     97e:	4e3a      	ldr	r6, [pc, #232]	; (a68 <i2c_master_init+0x2c8>)
     980:	47b0      	blx	r6
     982:	4b3a      	ldr	r3, [pc, #232]	; (a6c <i2c_master_init+0x2cc>)
     984:	4798      	blx	r3
     986:	2380      	movs	r3, #128	; 0x80
     988:	9002      	str	r0, [sp, #8]
     98a:	68a2      	ldr	r2, [r4, #8]
     98c:	049b      	lsls	r3, r3, #18
     98e:	429a      	cmp	r2, r3
     990:	d13e      	bne.n	a10 <i2c_master_init+0x270>
     992:	23fa      	movs	r3, #250	; 0xfa
     994:	9c05      	ldr	r4, [sp, #20]
     996:	009b      	lsls	r3, r3, #2
     998:	435c      	muls	r4, r3
     99a:	9a00      	ldr	r2, [sp, #0]
     99c:	9b01      	ldr	r3, [sp, #4]
     99e:	4e2e      	ldr	r6, [pc, #184]	; (a58 <i2c_master_init+0x2b8>)
     9a0:	0010      	movs	r0, r2
     9a2:	0019      	movs	r1, r3
     9a4:	47b0      	blx	r6
     9a6:	4b28      	ldr	r3, [pc, #160]	; (a48 <i2c_master_init+0x2a8>)
     9a8:	9000      	str	r0, [sp, #0]
     9aa:	9101      	str	r1, [sp, #4]
     9ac:	0020      	movs	r0, r4
     9ae:	4798      	blx	r3
     9b0:	2200      	movs	r2, #0
     9b2:	4b2f      	ldr	r3, [pc, #188]	; (a70 <i2c_master_init+0x2d0>)
     9b4:	4e25      	ldr	r6, [pc, #148]	; (a4c <i2c_master_init+0x2ac>)
     9b6:	47b0      	blx	r6
     9b8:	4e2b      	ldr	r6, [pc, #172]	; (a68 <i2c_master_init+0x2c8>)
     9ba:	0002      	movs	r2, r0
     9bc:	000b      	movs	r3, r1
     9be:	9800      	ldr	r0, [sp, #0]
     9c0:	9901      	ldr	r1, [sp, #4]
     9c2:	47b0      	blx	r6
     9c4:	2200      	movs	r2, #0
     9c6:	4b27      	ldr	r3, [pc, #156]	; (a64 <i2c_master_init+0x2c4>)
     9c8:	47a8      	blx	r5
     9ca:	4b28      	ldr	r3, [pc, #160]	; (a6c <i2c_master_init+0x2cc>)
     9cc:	4798      	blx	r3
     9ce:	4b29      	ldr	r3, [pc, #164]	; (a74 <i2c_master_init+0x2d4>)
     9d0:	1e06      	subs	r6, r0, #0
     9d2:	d017      	beq.n	a04 <i2c_master_init+0x264>
     9d4:	0021      	movs	r1, r4
     9d6:	0038      	movs	r0, r7
     9d8:	4798      	blx	r3
     9da:	3802      	subs	r0, #2
     9dc:	1b83      	subs	r3, r0, r6
     9de:	9a02      	ldr	r2, [sp, #8]
     9e0:	2040      	movs	r0, #64	; 0x40
     9e2:	2aff      	cmp	r2, #255	; 0xff
     9e4:	d80c      	bhi.n	a00 <i2c_master_init+0x260>
     9e6:	2bff      	cmp	r3, #255	; 0xff
     9e8:	d80a      	bhi.n	a00 <i2c_master_init+0x260>
     9ea:	20ff      	movs	r0, #255	; 0xff
     9ec:	0015      	movs	r5, r2
     9ee:	0400      	lsls	r0, r0, #16
     9f0:	041b      	lsls	r3, r3, #16
     9f2:	4003      	ands	r3, r0
     9f4:	2000      	movs	r0, #0
     9f6:	0636      	lsls	r6, r6, #24
     9f8:	4335      	orrs	r5, r6
     9fa:	9a04      	ldr	r2, [sp, #16]
     9fc:	432b      	orrs	r3, r5
     9fe:	60d3      	str	r3, [r2, #12]
     a00:	b00b      	add	sp, #44	; 0x2c
     a02:	bdf0      	pop	{r4, r5, r6, r7, pc}
     a04:	0061      	lsls	r1, r4, #1
     a06:	1e48      	subs	r0, r1, #1
     a08:	19c0      	adds	r0, r0, r7
     a0a:	4798      	blx	r3
     a0c:	1e43      	subs	r3, r0, #1
     a0e:	e7e6      	b.n	9de <i2c_master_init+0x23e>
     a10:	2600      	movs	r6, #0
     a12:	0033      	movs	r3, r6
     a14:	e7e3      	b.n	9de <i2c_master_init+0x23e>
     a16:	46c0      	nop			; (mov r8, r8)
     a18:	0000479d 	.word	0x0000479d
     a1c:	40000400 	.word	0x40000400
     a20:	00005159 	.word	0x00005159
     a24:	000050d1 	.word	0x000050d1
     a28:	000045fd 	.word	0x000045fd
     a2c:	00000c09 	.word	0x00000c09
     a30:	000047d1 	.word	0x000047d1
     a34:	20005418 	.word	0x20005418
     a38:	00004641 	.word	0x00004641
     a3c:	0000525d 	.word	0x0000525d
     a40:	41002000 	.word	0x41002000
     a44:	000051a5 	.word	0x000051a5
     a48:	00008089 	.word	0x00008089
     a4c:	00007471 	.word	0x00007471
     a50:	e826d695 	.word	0xe826d695
     a54:	3e112e0b 	.word	0x3e112e0b
     a58:	000065e9 	.word	0x000065e9
     a5c:	40240000 	.word	0x40240000
     a60:	00007971 	.word	0x00007971
     a64:	3ff00000 	.word	0x3ff00000
     a68:	00006c09 	.word	0x00006c09
     a6c:	00007f9d 	.word	0x00007f9d
     a70:	40080000 	.word	0x40080000
     a74:	00005441 	.word	0x00005441

00000a78 <_i2c_master_wait_for_bus>:
     a78:	b570      	push	{r4, r5, r6, lr}
     a7a:	2200      	movs	r2, #0
     a7c:	2601      	movs	r6, #1
     a7e:	2402      	movs	r4, #2
     a80:	6801      	ldr	r1, [r0, #0]
     a82:	7e0b      	ldrb	r3, [r1, #24]
     a84:	4033      	ands	r3, r6
     a86:	d102      	bne.n	a8e <_i2c_master_wait_for_bus+0x16>
     a88:	7e0d      	ldrb	r5, [r1, #24]
     a8a:	4225      	tst	r5, r4
     a8c:	d001      	beq.n	a92 <_i2c_master_wait_for_bus+0x1a>
     a8e:	2000      	movs	r0, #0
     a90:	e005      	b.n	a9e <_i2c_master_wait_for_bus+0x26>
     a92:	3201      	adds	r2, #1
     a94:	8903      	ldrh	r3, [r0, #8]
     a96:	b292      	uxth	r2, r2
     a98:	4293      	cmp	r3, r2
     a9a:	d8f2      	bhi.n	a82 <_i2c_master_wait_for_bus+0xa>
     a9c:	2012      	movs	r0, #18
     a9e:	bd70      	pop	{r4, r5, r6, pc}

00000aa0 <_i2c_master_send_hs_master_code>:
     aa0:	2380      	movs	r3, #128	; 0x80
     aa2:	b510      	push	{r4, lr}
     aa4:	6804      	ldr	r4, [r0, #0]
     aa6:	02db      	lsls	r3, r3, #11
     aa8:	6862      	ldr	r2, [r4, #4]
     aaa:	4313      	orrs	r3, r2
     aac:	6063      	str	r3, [r4, #4]
     aae:	6261      	str	r1, [r4, #36]	; 0x24
     ab0:	4b02      	ldr	r3, [pc, #8]	; (abc <_i2c_master_send_hs_master_code+0x1c>)
     ab2:	4798      	blx	r3
     ab4:	2301      	movs	r3, #1
     ab6:	7623      	strb	r3, [r4, #24]
     ab8:	bd10      	pop	{r4, pc}
     aba:	46c0      	nop			; (mov r8, r8)
     abc:	00000a79 	.word	0x00000a79

00000ac0 <_i2c_master_wait_for_sync>:
     ac0:	2307      	movs	r3, #7
     ac2:	6801      	ldr	r1, [r0, #0]
     ac4:	69ca      	ldr	r2, [r1, #28]
     ac6:	421a      	tst	r2, r3
     ac8:	d1fc      	bne.n	ac4 <_i2c_master_wait_for_sync+0x4>
     aca:	4770      	bx	lr

00000acc <_i2c_master_read>:
     acc:	b5f8      	push	{r3, r4, r5, r6, r7, lr}
     ace:	6805      	ldr	r5, [r0, #0]
     ad0:	0004      	movs	r4, r0
     ad2:	682a      	ldr	r2, [r5, #0]
     ad4:	8b46      	ldrh	r6, [r0, #26]
     ad6:	8b83      	ldrh	r3, [r0, #28]
     ad8:	1af6      	subs	r6, r6, r3
     ada:	8b83      	ldrh	r3, [r0, #28]
     adc:	b2b6      	uxth	r6, r6
     ade:	3b01      	subs	r3, #1
     ae0:	b29b      	uxth	r3, r3
     ae2:	8383      	strh	r3, [r0, #28]
     ae4:	7ac3      	ldrb	r3, [r0, #11]
     ae6:	0112      	lsls	r2, r2, #4
     ae8:	d50a      	bpl.n	b00 <_i2c_master_read+0x34>
     aea:	2b00      	cmp	r3, #0
     aec:	d00d      	beq.n	b0a <_i2c_master_read+0x3e>
     aee:	8b83      	ldrh	r3, [r0, #28]
     af0:	2b01      	cmp	r3, #1
     af2:	d10a      	bne.n	b0a <_i2c_master_read+0x3e>
     af4:	2380      	movs	r3, #128	; 0x80
     af6:	686a      	ldr	r2, [r5, #4]
     af8:	02db      	lsls	r3, r3, #11
     afa:	4313      	orrs	r3, r2
     afc:	606b      	str	r3, [r5, #4]
     afe:	e004      	b.n	b0a <_i2c_master_read+0x3e>
     b00:	2b00      	cmp	r3, #0
     b02:	d002      	beq.n	b0a <_i2c_master_read+0x3e>
     b04:	8b83      	ldrh	r3, [r0, #28]
     b06:	2b00      	cmp	r3, #0
     b08:	d0f4      	beq.n	af4 <_i2c_master_read+0x28>
     b0a:	8ba3      	ldrh	r3, [r4, #28]
     b0c:	4f0a      	ldr	r7, [pc, #40]	; (b38 <_i2c_master_read+0x6c>)
     b0e:	2b00      	cmp	r3, #0
     b10:	d109      	bne.n	b26 <_i2c_master_read+0x5a>
     b12:	7aa3      	ldrb	r3, [r4, #10]
     b14:	2b00      	cmp	r3, #0
     b16:	d006      	beq.n	b26 <_i2c_master_read+0x5a>
     b18:	0020      	movs	r0, r4
     b1a:	47b8      	blx	r7
     b1c:	23c0      	movs	r3, #192	; 0xc0
     b1e:	686a      	ldr	r2, [r5, #4]
     b20:	029b      	lsls	r3, r3, #10
     b22:	4313      	orrs	r3, r2
     b24:	606b      	str	r3, [r5, #4]
     b26:	0020      	movs	r0, r4
     b28:	47b8      	blx	r7
     b2a:	6a23      	ldr	r3, [r4, #32]
     b2c:	3528      	adds	r5, #40	; 0x28
     b2e:	199e      	adds	r6, r3, r6
     b30:	782b      	ldrb	r3, [r5, #0]
     b32:	b2db      	uxtb	r3, r3
     b34:	7033      	strb	r3, [r6, #0]
     b36:	bdf8      	pop	{r3, r4, r5, r6, r7, pc}
     b38:	00000ac1 	.word	0x00000ac1

00000b3c <_i2c_master_write>:
     b3c:	b570      	push	{r4, r5, r6, lr}
     b3e:	6806      	ldr	r6, [r0, #0]
     b40:	0004      	movs	r4, r0
     b42:	8b73      	ldrh	r3, [r6, #26]
     b44:	075b      	lsls	r3, r3, #29
     b46:	d503      	bpl.n	b50 <_i2c_master_write+0x14>
     b48:	231e      	movs	r3, #30
     b4a:	3406      	adds	r4, #6
     b4c:	77e3      	strb	r3, [r4, #31]
     b4e:	bd70      	pop	{r4, r5, r6, pc}
     b50:	8b45      	ldrh	r5, [r0, #26]
     b52:	8b83      	ldrh	r3, [r0, #28]
     b54:	3628      	adds	r6, #40	; 0x28
     b56:	1aed      	subs	r5, r5, r3
     b58:	8b83      	ldrh	r3, [r0, #28]
     b5a:	b2ad      	uxth	r5, r5
     b5c:	3b01      	subs	r3, #1
     b5e:	b29b      	uxth	r3, r3
     b60:	8383      	strh	r3, [r0, #28]
     b62:	4b04      	ldr	r3, [pc, #16]	; (b74 <_i2c_master_write+0x38>)
     b64:	4798      	blx	r3
     b66:	6a23      	ldr	r3, [r4, #32]
     b68:	195d      	adds	r5, r3, r5
     b6a:	782b      	ldrb	r3, [r5, #0]
     b6c:	b2db      	uxtb	r3, r3
     b6e:	7033      	strb	r3, [r6, #0]
     b70:	e7ed      	b.n	b4e <_i2c_master_write+0x12>
     b72:	46c0      	nop			; (mov r8, r8)
     b74:	00000ac1 	.word	0x00000ac1

00000b78 <_i2c_master_write_packet>:
     b78:	b570      	push	{r4, r5, r6, lr}
     b7a:	7a4b      	ldrb	r3, [r1, #9]
     b7c:	0005      	movs	r5, r0
     b7e:	000e      	movs	r6, r1
     b80:	6804      	ldr	r4, [r0, #0]
     b82:	2b00      	cmp	r3, #0
     b84:	d002      	beq.n	b8c <_i2c_master_write_packet+0x14>
     b86:	7a89      	ldrb	r1, [r1, #10]
     b88:	4b0f      	ldr	r3, [pc, #60]	; (bc8 <_i2c_master_write_packet+0x50>)
     b8a:	4798      	blx	r3
     b8c:	6863      	ldr	r3, [r4, #4]
     b8e:	4a0f      	ldr	r2, [pc, #60]	; (bcc <_i2c_master_write_packet+0x54>)
     b90:	4013      	ands	r3, r2
     b92:	2200      	movs	r2, #0
     b94:	6063      	str	r3, [r4, #4]
     b96:	6873      	ldr	r3, [r6, #4]
     b98:	622b      	str	r3, [r5, #32]
     b9a:	8873      	ldrh	r3, [r6, #2]
     b9c:	83ab      	strh	r3, [r5, #28]
     b9e:	1d6b      	adds	r3, r5, #5
     ba0:	77da      	strb	r2, [r3, #31]
     ba2:	2305      	movs	r3, #5
     ba4:	3506      	adds	r5, #6
     ba6:	77eb      	strb	r3, [r5, #31]
     ba8:	3b02      	subs	r3, #2
     baa:	75a3      	strb	r3, [r4, #22]
     bac:	7a72      	ldrb	r2, [r6, #9]
     bae:	8833      	ldrh	r3, [r6, #0]
     bb0:	7a31      	ldrb	r1, [r6, #8]
     bb2:	005b      	lsls	r3, r3, #1
     bb4:	0392      	lsls	r2, r2, #14
     bb6:	4313      	orrs	r3, r2
     bb8:	2900      	cmp	r1, #0
     bba:	d002      	beq.n	bc2 <_i2c_master_write_packet+0x4a>
     bbc:	2280      	movs	r2, #128	; 0x80
     bbe:	0212      	lsls	r2, r2, #8
     bc0:	4313      	orrs	r3, r2
     bc2:	2000      	movs	r0, #0
     bc4:	6263      	str	r3, [r4, #36]	; 0x24
     bc6:	bd70      	pop	{r4, r5, r6, pc}
     bc8:	00000aa1 	.word	0x00000aa1
     bcc:	fffbffff 	.word	0xfffbffff

00000bd0 <i2c_master_register_callback>:
     bd0:	1c93      	adds	r3, r2, #2
     bd2:	009b      	lsls	r3, r3, #2
     bd4:	18c3      	adds	r3, r0, r3
     bd6:	6059      	str	r1, [r3, #4]
     bd8:	2301      	movs	r3, #1
     bda:	4093      	lsls	r3, r2
     bdc:	7e01      	ldrb	r1, [r0, #24]
     bde:	430b      	orrs	r3, r1
     be0:	b2db      	uxtb	r3, r3
     be2:	7603      	strb	r3, [r0, #24]
     be4:	4770      	bx	lr
	...

00000be8 <i2c_master_write_packet_job>:
     be8:	b510      	push	{r4, lr}
     bea:	8b82      	ldrh	r2, [r0, #28]
     bec:	0003      	movs	r3, r0
     bee:	2005      	movs	r0, #5
     bf0:	2a00      	cmp	r2, #0
     bf2:	d105      	bne.n	c00 <i2c_master_write_packet_job+0x18>
     bf4:	3201      	adds	r2, #1
     bf6:	729a      	strb	r2, [r3, #10]
     bf8:	72da      	strb	r2, [r3, #11]
     bfa:	0018      	movs	r0, r3
     bfc:	4b01      	ldr	r3, [pc, #4]	; (c04 <i2c_master_write_packet_job+0x1c>)
     bfe:	4798      	blx	r3
     c00:	bd10      	pop	{r4, pc}
     c02:	46c0      	nop			; (mov r8, r8)
     c04:	00000b79 	.word	0x00000b79

00000c08 <_i2c_master_interrupt_handler>:
     c08:	b5f8      	push	{r3, r4, r5, r6, r7, lr}
     c0a:	4b5e      	ldr	r3, [pc, #376]	; (d84 <_i2c_master_interrupt_handler+0x17c>)
     c0c:	0080      	lsls	r0, r0, #2
     c0e:	58c4      	ldr	r4, [r0, r3]
     c10:	6825      	ldr	r5, [r4, #0]
     c12:	1da6      	adds	r6, r4, #6
     c14:	682b      	ldr	r3, [r5, #0]
     c16:	7e62      	ldrb	r2, [r4, #25]
     c18:	7e27      	ldrb	r7, [r4, #24]
     c1a:	011b      	lsls	r3, r3, #4
     c1c:	4017      	ands	r7, r2
     c1e:	8b62      	ldrh	r2, [r4, #26]
     c20:	0fdb      	lsrs	r3, r3, #31
     c22:	2a00      	cmp	r2, #0
     c24:	d12e      	bne.n	c84 <_i2c_master_interrupt_handler+0x7c>
     c26:	8ba2      	ldrh	r2, [r4, #28]
     c28:	2a00      	cmp	r2, #0
     c2a:	d02b      	beq.n	c84 <_i2c_master_interrupt_handler+0x7c>
     c2c:	2301      	movs	r3, #1
     c2e:	7e2a      	ldrb	r2, [r5, #24]
     c30:	421a      	tst	r2, r3
     c32:	d006      	beq.n	c42 <_i2c_master_interrupt_handler+0x3a>
     c34:	2202      	movs	r2, #2
     c36:	762b      	strb	r3, [r5, #24]
     c38:	8b6b      	ldrh	r3, [r5, #26]
     c3a:	4013      	ands	r3, r2
     c3c:	d010      	beq.n	c60 <_i2c_master_interrupt_handler+0x58>
     c3e:	2341      	movs	r3, #65	; 0x41
     c40:	77f3      	strb	r3, [r6, #31]
     c42:	8ba3      	ldrh	r3, [r4, #28]
     c44:	b29b      	uxth	r3, r3
     c46:	8363      	strh	r3, [r4, #26]
     c48:	7ff3      	ldrb	r3, [r6, #31]
     c4a:	2b05      	cmp	r3, #5
     c4c:	d13c      	bne.n	cc8 <_i2c_master_interrupt_handler+0xc0>
     c4e:	1d63      	adds	r3, r4, #5
     c50:	7fdb      	ldrb	r3, [r3, #31]
     c52:	0020      	movs	r0, r4
     c54:	2b00      	cmp	r3, #0
     c56:	d000      	beq.n	c5a <_i2c_master_interrupt_handler+0x52>
     c58:	e08a      	b.n	d70 <_i2c_master_interrupt_handler+0x168>
     c5a:	4b4b      	ldr	r3, [pc, #300]	; (d88 <_i2c_master_interrupt_handler+0x180>)
     c5c:	4798      	blx	r3
     c5e:	e033      	b.n	cc8 <_i2c_master_interrupt_handler+0xc0>
     c60:	8b6a      	ldrh	r2, [r5, #26]
     c62:	0752      	lsls	r2, r2, #29
     c64:	d5ed      	bpl.n	c42 <_i2c_master_interrupt_handler+0x3a>
     c66:	2218      	movs	r2, #24
     c68:	77f2      	strb	r2, [r6, #31]
     c6a:	83a3      	strh	r3, [r4, #28]
     c6c:	7aa3      	ldrb	r3, [r4, #10]
     c6e:	2b00      	cmp	r3, #0
     c70:	d0e7      	beq.n	c42 <_i2c_master_interrupt_handler+0x3a>
     c72:	4b46      	ldr	r3, [pc, #280]	; (d8c <_i2c_master_interrupt_handler+0x184>)
     c74:	0020      	movs	r0, r4
     c76:	4798      	blx	r3
     c78:	23c0      	movs	r3, #192	; 0xc0
     c7a:	686a      	ldr	r2, [r5, #4]
     c7c:	029b      	lsls	r3, r3, #10
     c7e:	4313      	orrs	r3, r2
     c80:	606b      	str	r3, [r5, #4]
     c82:	e7de      	b.n	c42 <_i2c_master_interrupt_handler+0x3a>
     c84:	8b62      	ldrh	r2, [r4, #26]
     c86:	2a00      	cmp	r2, #0
     c88:	d05f      	beq.n	d4a <_i2c_master_interrupt_handler+0x142>
     c8a:	8ba2      	ldrh	r2, [r4, #28]
     c8c:	2a00      	cmp	r2, #0
     c8e:	d15c      	bne.n	d4a <_i2c_master_interrupt_handler+0x142>
     c90:	7ff2      	ldrb	r2, [r6, #31]
     c92:	2a05      	cmp	r2, #5
     c94:	d159      	bne.n	d4a <_i2c_master_interrupt_handler+0x142>
     c96:	1d62      	adds	r2, r4, #5
     c98:	7fd2      	ldrb	r2, [r2, #31]
     c9a:	b2d2      	uxtb	r2, r2
     c9c:	2a00      	cmp	r2, #0
     c9e:	d154      	bne.n	d4a <_i2c_master_interrupt_handler+0x142>
     ca0:	2303      	movs	r3, #3
     ca2:	752b      	strb	r3, [r5, #20]
     ca4:	8362      	strh	r2, [r4, #26]
     ca6:	77f2      	strb	r2, [r6, #31]
     ca8:	7aa3      	ldrb	r3, [r4, #10]
     caa:	2b00      	cmp	r3, #0
     cac:	d04a      	beq.n	d44 <_i2c_master_interrupt_handler+0x13c>
     cae:	4b37      	ldr	r3, [pc, #220]	; (d8c <_i2c_master_interrupt_handler+0x184>)
     cb0:	0020      	movs	r0, r4
     cb2:	4798      	blx	r3
     cb4:	23c0      	movs	r3, #192	; 0xc0
     cb6:	686a      	ldr	r2, [r5, #4]
     cb8:	029b      	lsls	r3, r3, #10
     cba:	4313      	orrs	r3, r2
     cbc:	606b      	str	r3, [r5, #4]
     cbe:	07fb      	lsls	r3, r7, #31
     cc0:	d502      	bpl.n	cc8 <_i2c_master_interrupt_handler+0xc0>
     cc2:	68e3      	ldr	r3, [r4, #12]
     cc4:	0020      	movs	r0, r4
     cc6:	4798      	blx	r3
     cc8:	8b63      	ldrh	r3, [r4, #26]
     cca:	2b00      	cmp	r3, #0
     ccc:	d01b      	beq.n	d06 <_i2c_master_interrupt_handler+0xfe>
     cce:	8ba3      	ldrh	r3, [r4, #28]
     cd0:	2b00      	cmp	r3, #0
     cd2:	d118      	bne.n	d06 <_i2c_master_interrupt_handler+0xfe>
     cd4:	7ff3      	ldrb	r3, [r6, #31]
     cd6:	2b05      	cmp	r3, #5
     cd8:	d115      	bne.n	d06 <_i2c_master_interrupt_handler+0xfe>
     cda:	1d63      	adds	r3, r4, #5
     cdc:	7fda      	ldrb	r2, [r3, #31]
     cde:	2a01      	cmp	r2, #1
     ce0:	d111      	bne.n	d06 <_i2c_master_interrupt_handler+0xfe>
     ce2:	7e29      	ldrb	r1, [r5, #24]
     ce4:	3201      	adds	r2, #1
     ce6:	4211      	tst	r1, r2
     ce8:	d000      	beq.n	cec <_i2c_master_interrupt_handler+0xe4>
     cea:	762a      	strb	r2, [r5, #24]
     cec:	2203      	movs	r2, #3
     cee:	752a      	strb	r2, [r5, #20]
     cf0:	2200      	movs	r2, #0
     cf2:	8362      	strh	r2, [r4, #26]
     cf4:	77f2      	strb	r2, [r6, #31]
     cf6:	07ba      	lsls	r2, r7, #30
     cf8:	d53c      	bpl.n	d74 <_i2c_master_interrupt_handler+0x16c>
     cfa:	7fda      	ldrb	r2, [r3, #31]
     cfc:	2a01      	cmp	r2, #1
     cfe:	d139      	bne.n	d74 <_i2c_master_interrupt_handler+0x16c>
     d00:	6923      	ldr	r3, [r4, #16]
     d02:	0020      	movs	r0, r4
     d04:	4798      	blx	r3
     d06:	7ff3      	ldrb	r3, [r6, #31]
     d08:	2b05      	cmp	r3, #5
     d0a:	d01a      	beq.n	d42 <_i2c_master_interrupt_handler+0x13a>
     d0c:	7ff3      	ldrb	r3, [r6, #31]
     d0e:	2b00      	cmp	r3, #0
     d10:	d017      	beq.n	d42 <_i2c_master_interrupt_handler+0x13a>
     d12:	2303      	movs	r3, #3
     d14:	752b      	strb	r3, [r5, #20]
     d16:	2300      	movs	r3, #0
     d18:	8363      	strh	r3, [r4, #26]
     d1a:	83a3      	strh	r3, [r4, #28]
     d1c:	7ff3      	ldrb	r3, [r6, #31]
     d1e:	2b41      	cmp	r3, #65	; 0x41
     d20:	d00a      	beq.n	d38 <_i2c_master_interrupt_handler+0x130>
     d22:	7aa3      	ldrb	r3, [r4, #10]
     d24:	2b00      	cmp	r3, #0
     d26:	d007      	beq.n	d38 <_i2c_master_interrupt_handler+0x130>
     d28:	4b18      	ldr	r3, [pc, #96]	; (d8c <_i2c_master_interrupt_handler+0x184>)
     d2a:	0020      	movs	r0, r4
     d2c:	4798      	blx	r3
     d2e:	23e0      	movs	r3, #224	; 0xe0
     d30:	686a      	ldr	r2, [r5, #4]
     d32:	02db      	lsls	r3, r3, #11
     d34:	4313      	orrs	r3, r2
     d36:	606b      	str	r3, [r5, #4]
     d38:	077b      	lsls	r3, r7, #29
     d3a:	d502      	bpl.n	d42 <_i2c_master_interrupt_handler+0x13a>
     d3c:	6963      	ldr	r3, [r4, #20]
     d3e:	0020      	movs	r0, r4
     d40:	4798      	blx	r3
     d42:	bdf8      	pop	{r3, r4, r5, r6, r7, pc}
     d44:	2301      	movs	r3, #1
     d46:	762b      	strb	r3, [r5, #24]
     d48:	e7b9      	b.n	cbe <_i2c_master_interrupt_handler+0xb6>
     d4a:	8b62      	ldrh	r2, [r4, #26]
     d4c:	2a00      	cmp	r2, #0
     d4e:	d0bb      	beq.n	cc8 <_i2c_master_interrupt_handler+0xc0>
     d50:	8ba2      	ldrh	r2, [r4, #28]
     d52:	2a00      	cmp	r2, #0
     d54:	d0b8      	beq.n	cc8 <_i2c_master_interrupt_handler+0xc0>
     d56:	8b6a      	ldrh	r2, [r5, #26]
     d58:	0692      	lsls	r2, r2, #26
     d5a:	d500      	bpl.n	d5e <_i2c_master_interrupt_handler+0x156>
     d5c:	e777      	b.n	c4e <_i2c_master_interrupt_handler+0x46>
     d5e:	2b00      	cmp	r3, #0
     d60:	d003      	beq.n	d6a <_i2c_master_interrupt_handler+0x162>
     d62:	8ba3      	ldrh	r3, [r4, #28]
     d64:	2b01      	cmp	r3, #1
     d66:	d100      	bne.n	d6a <_i2c_master_interrupt_handler+0x162>
     d68:	e771      	b.n	c4e <_i2c_master_interrupt_handler+0x46>
     d6a:	2341      	movs	r3, #65	; 0x41
     d6c:	77f3      	strb	r3, [r6, #31]
     d6e:	e7ab      	b.n	cc8 <_i2c_master_interrupt_handler+0xc0>
     d70:	4b07      	ldr	r3, [pc, #28]	; (d90 <_i2c_master_interrupt_handler+0x188>)
     d72:	e773      	b.n	c5c <_i2c_master_interrupt_handler+0x54>
     d74:	07fa      	lsls	r2, r7, #31
     d76:	d5c6      	bpl.n	d06 <_i2c_master_interrupt_handler+0xfe>
     d78:	7fdb      	ldrb	r3, [r3, #31]
     d7a:	2b00      	cmp	r3, #0
     d7c:	d1c3      	bne.n	d06 <_i2c_master_interrupt_handler+0xfe>
     d7e:	68e3      	ldr	r3, [r4, #12]
     d80:	e7bf      	b.n	d02 <_i2c_master_interrupt_handler+0xfa>
     d82:	46c0      	nop			; (mov r8, r8)
     d84:	20005418 	.word	0x20005418
     d88:	00000b3d 	.word	0x00000b3d
     d8c:	00000ac1 	.word	0x00000ac1
     d90:	00000acd 	.word	0x00000acd

00000d94 <prvTaskExitError>:
     d94:	2300      	movs	r3, #0
     d96:	b082      	sub	sp, #8
     d98:	9301      	str	r3, [sp, #4]
     d9a:	4b06      	ldr	r3, [pc, #24]	; (db4 <prvTaskExitError+0x20>)
     d9c:	681b      	ldr	r3, [r3, #0]
     d9e:	3301      	adds	r3, #1
     da0:	d001      	beq.n	da6 <prvTaskExitError+0x12>
     da2:	b672      	cpsid	i
     da4:	e7fe      	b.n	da4 <prvTaskExitError+0x10>
     da6:	b672      	cpsid	i
     da8:	9b01      	ldr	r3, [sp, #4]
     daa:	2b00      	cmp	r3, #0
     dac:	d0fc      	beq.n	da8 <prvTaskExitError+0x14>
     dae:	b002      	add	sp, #8
     db0:	4770      	bx	lr
     db2:	46c0      	nop			; (mov r8, r8)
     db4:	2000000c 	.word	0x2000000c
	...

00000dc0 <vPortStartFirstTask>:
     dc0:	4a0b      	ldr	r2, [pc, #44]	; (df0 <pxCurrentTCBConst2>)
     dc2:	6813      	ldr	r3, [r2, #0]
     dc4:	6818      	ldr	r0, [r3, #0]
     dc6:	3020      	adds	r0, #32
     dc8:	f380 8809 	msr	PSP, r0
     dcc:	2002      	movs	r0, #2
     dce:	f380 8814 	msr	CONTROL, r0
     dd2:	f3bf 8f6f 	isb	sy
     dd6:	bc3f      	pop	{r0, r1, r2, r3, r4, r5}
     dd8:	46ae      	mov	lr, r5
     dda:	bc08      	pop	{r3}
     ddc:	bc04      	pop	{r2}
     dde:	b662      	cpsie	i
     de0:	4718      	bx	r3
     de2:	46c0      	nop			; (mov r8, r8)
     de4:	46c0      	nop			; (mov r8, r8)
     de6:	46c0      	nop			; (mov r8, r8)
     de8:	46c0      	nop			; (mov r8, r8)
     dea:	46c0      	nop			; (mov r8, r8)
     dec:	46c0      	nop			; (mov r8, r8)
     dee:	46c0      	nop			; (mov r8, r8)

00000df0 <pxCurrentTCBConst2>:
     df0:	20005240 	.word	0x20005240

00000df4 <pxPortInitialiseStack>:
     df4:	b510      	push	{r4, lr}
     df6:	2480      	movs	r4, #128	; 0x80
     df8:	1f03      	subs	r3, r0, #4
     dfa:	0464      	lsls	r4, r4, #17
     dfc:	601c      	str	r4, [r3, #0]
     dfe:	3b04      	subs	r3, #4
     e00:	6019      	str	r1, [r3, #0]
     e02:	4903      	ldr	r1, [pc, #12]	; (e10 <pxPortInitialiseStack+0x1c>)
     e04:	3b04      	subs	r3, #4
     e06:	6019      	str	r1, [r3, #0]
     e08:	3b14      	subs	r3, #20
     e0a:	3840      	subs	r0, #64	; 0x40
     e0c:	601a      	str	r2, [r3, #0]
     e0e:	bd10      	pop	{r4, pc}
     e10:	00000d95 	.word	0x00000d95

00000e14 <SVC_Handler>:
     e14:	4770      	bx	lr
	...

00000e18 <xPortStartScheduler>:
     e18:	22ff      	movs	r2, #255	; 0xff
     e1a:	b510      	push	{r4, lr}
     e1c:	4b0e      	ldr	r3, [pc, #56]	; (e58 <xPortStartScheduler+0x40>)
     e1e:	0412      	lsls	r2, r2, #16
     e20:	6819      	ldr	r1, [r3, #0]
     e22:	2400      	movs	r4, #0
     e24:	430a      	orrs	r2, r1
     e26:	601a      	str	r2, [r3, #0]
     e28:	22ff      	movs	r2, #255	; 0xff
     e2a:	6819      	ldr	r1, [r3, #0]
     e2c:	0612      	lsls	r2, r2, #24
     e2e:	430a      	orrs	r2, r1
     e30:	601a      	str	r2, [r3, #0]
     e32:	4b0a      	ldr	r3, [pc, #40]	; (e5c <xPortStartScheduler+0x44>)
     e34:	4a0a      	ldr	r2, [pc, #40]	; (e60 <xPortStartScheduler+0x48>)
     e36:	601c      	str	r4, [r3, #0]
     e38:	490a      	ldr	r1, [pc, #40]	; (e64 <xPortStartScheduler+0x4c>)
     e3a:	6014      	str	r4, [r2, #0]
     e3c:	4a0a      	ldr	r2, [pc, #40]	; (e68 <xPortStartScheduler+0x50>)
     e3e:	6011      	str	r1, [r2, #0]
     e40:	2207      	movs	r2, #7
     e42:	601a      	str	r2, [r3, #0]
     e44:	4b09      	ldr	r3, [pc, #36]	; (e6c <xPortStartScheduler+0x54>)
     e46:	601c      	str	r4, [r3, #0]
     e48:	4b09      	ldr	r3, [pc, #36]	; (e70 <xPortStartScheduler+0x58>)
     e4a:	4798      	blx	r3
     e4c:	4b09      	ldr	r3, [pc, #36]	; (e74 <xPortStartScheduler+0x5c>)
     e4e:	4798      	blx	r3
     e50:	4b09      	ldr	r3, [pc, #36]	; (e78 <xPortStartScheduler+0x60>)
     e52:	4798      	blx	r3
     e54:	0020      	movs	r0, r4
     e56:	bd10      	pop	{r4, pc}
     e58:	e000ed20 	.word	0xe000ed20
     e5c:	e000e010 	.word	0xe000e010
     e60:	e000e018 	.word	0xe000e018
     e64:	0000bb7f 	.word	0x0000bb7f
     e68:	e000e014 	.word	0xe000e014
     e6c:	2000000c 	.word	0x2000000c
     e70:	00000dc1 	.word	0x00000dc1
     e74:	0000382d 	.word	0x0000382d
     e78:	00000d95 	.word	0x00000d95

00000e7c <vPortYield>:
     e7c:	2280      	movs	r2, #128	; 0x80
     e7e:	4b04      	ldr	r3, [pc, #16]	; (e90 <vPortYield+0x14>)
     e80:	0552      	lsls	r2, r2, #21
     e82:	601a      	str	r2, [r3, #0]
     e84:	f3bf 8f4f 	dsb	sy
     e88:	f3bf 8f6f 	isb	sy
     e8c:	4770      	bx	lr
     e8e:	46c0      	nop			; (mov r8, r8)
     e90:	e000ed04 	.word	0xe000ed04

00000e94 <vPortEnterCritical>:
     e94:	b672      	cpsid	i
     e96:	4a04      	ldr	r2, [pc, #16]	; (ea8 <vPortEnterCritical+0x14>)
     e98:	6813      	ldr	r3, [r2, #0]
     e9a:	3301      	adds	r3, #1
     e9c:	6013      	str	r3, [r2, #0]
     e9e:	f3bf 8f4f 	dsb	sy
     ea2:	f3bf 8f6f 	isb	sy
     ea6:	4770      	bx	lr
     ea8:	2000000c 	.word	0x2000000c

00000eac <vPortExitCritical>:
     eac:	4a05      	ldr	r2, [pc, #20]	; (ec4 <vPortExitCritical+0x18>)
     eae:	6813      	ldr	r3, [r2, #0]
     eb0:	2b00      	cmp	r3, #0
     eb2:	d101      	bne.n	eb8 <vPortExitCritical+0xc>
     eb4:	b672      	cpsid	i
     eb6:	e7fe      	b.n	eb6 <vPortExitCritical+0xa>
     eb8:	3b01      	subs	r3, #1
     eba:	6013      	str	r3, [r2, #0]
     ebc:	2b00      	cmp	r3, #0
     ebe:	d100      	bne.n	ec2 <vPortExitCritical+0x16>
     ec0:	b662      	cpsie	i
     ec2:	4770      	bx	lr
     ec4:	2000000c 	.word	0x2000000c

00000ec8 <ulSetInterruptMaskFromISR>:
     ec8:	f3ef 8010 	mrs	r0, PRIMASK
     ecc:	b672      	cpsid	i
     ece:	4770      	bx	lr

00000ed0 <vClearInterruptMaskFromISR>:
     ed0:	f380 8810 	msr	PRIMASK, r0
     ed4:	4770      	bx	lr
	...

00000ee0 <PendSV_Handler>:
     ee0:	f3ef 8009 	mrs	r0, PSP
     ee4:	4b0e      	ldr	r3, [pc, #56]	; (f20 <pxCurrentTCBConst>)
     ee6:	681a      	ldr	r2, [r3, #0]
     ee8:	3820      	subs	r0, #32
     eea:	6010      	str	r0, [r2, #0]
     eec:	c0f0      	stmia	r0!, {r4, r5, r6, r7}
     eee:	4644      	mov	r4, r8
     ef0:	464d      	mov	r5, r9
     ef2:	4656      	mov	r6, sl
     ef4:	465f      	mov	r7, fp
     ef6:	c0f0      	stmia	r0!, {r4, r5, r6, r7}
     ef8:	b508      	push	{r3, lr}
     efa:	b672      	cpsid	i
     efc:	f002 fc96 	bl	382c <vTaskSwitchContext>
     f00:	b662      	cpsie	i
     f02:	bc0c      	pop	{r2, r3}
     f04:	6811      	ldr	r1, [r2, #0]
     f06:	6808      	ldr	r0, [r1, #0]
     f08:	3010      	adds	r0, #16
     f0a:	c8f0      	ldmia	r0!, {r4, r5, r6, r7}
     f0c:	46a0      	mov	r8, r4
     f0e:	46a9      	mov	r9, r5
     f10:	46b2      	mov	sl, r6
     f12:	46bb      	mov	fp, r7
     f14:	f380 8809 	msr	PSP, r0
     f18:	3820      	subs	r0, #32
     f1a:	c8f0      	ldmia	r0!, {r4, r5, r6, r7}
     f1c:	4718      	bx	r3
     f1e:	46c0      	nop			; (mov r8, r8)

00000f20 <pxCurrentTCBConst>:
     f20:	20005240 	.word	0x20005240

00000f24 <SysTick_Handler>:
     f24:	b510      	push	{r4, lr}
     f26:	4b07      	ldr	r3, [pc, #28]	; (f44 <SysTick_Handler+0x20>)
     f28:	4798      	blx	r3
     f2a:	4b07      	ldr	r3, [pc, #28]	; (f48 <SysTick_Handler+0x24>)
     f2c:	0004      	movs	r4, r0
     f2e:	4798      	blx	r3
     f30:	2800      	cmp	r0, #0
     f32:	d003      	beq.n	f3c <SysTick_Handler+0x18>
     f34:	2280      	movs	r2, #128	; 0x80
     f36:	4b05      	ldr	r3, [pc, #20]	; (f4c <SysTick_Handler+0x28>)
     f38:	0552      	lsls	r2, r2, #21
     f3a:	601a      	str	r2, [r3, #0]
     f3c:	0020      	movs	r0, r4
     f3e:	4b04      	ldr	r3, [pc, #16]	; (f50 <SysTick_Handler+0x2c>)
     f40:	4798      	blx	r3
     f42:	bd10      	pop	{r4, pc}
     f44:	00000ec9 	.word	0x00000ec9
     f48:	00003569 	.word	0x00003569
     f4c:	e000ed04 	.word	0xe000ed04
     f50:	00000ed1 	.word	0x00000ed1

00000f54 <prvInsertBlockIntoFreeList>:
     f54:	b510      	push	{r4, lr}
     f56:	4b10      	ldr	r3, [pc, #64]	; (f98 <prvInsertBlockIntoFreeList+0x44>)
     f58:	681a      	ldr	r2, [r3, #0]
     f5a:	4282      	cmp	r2, r0
     f5c:	d319      	bcc.n	f92 <prvInsertBlockIntoFreeList+0x3e>
     f5e:	685c      	ldr	r4, [r3, #4]
     f60:	1919      	adds	r1, r3, r4
     f62:	4288      	cmp	r0, r1
     f64:	d103      	bne.n	f6e <prvInsertBlockIntoFreeList+0x1a>
     f66:	6841      	ldr	r1, [r0, #4]
     f68:	0018      	movs	r0, r3
     f6a:	1909      	adds	r1, r1, r4
     f6c:	6059      	str	r1, [r3, #4]
     f6e:	6841      	ldr	r1, [r0, #4]
     f70:	1844      	adds	r4, r0, r1
     f72:	42a2      	cmp	r2, r4
     f74:	d108      	bne.n	f88 <prvInsertBlockIntoFreeList+0x34>
     f76:	4c09      	ldr	r4, [pc, #36]	; (f9c <prvInsertBlockIntoFreeList+0x48>)
     f78:	6824      	ldr	r4, [r4, #0]
     f7a:	42a2      	cmp	r2, r4
     f7c:	d004      	beq.n	f88 <prvInsertBlockIntoFreeList+0x34>
     f7e:	6852      	ldr	r2, [r2, #4]
     f80:	1852      	adds	r2, r2, r1
     f82:	6042      	str	r2, [r0, #4]
     f84:	681a      	ldr	r2, [r3, #0]
     f86:	6812      	ldr	r2, [r2, #0]
     f88:	6002      	str	r2, [r0, #0]
     f8a:	4298      	cmp	r0, r3
     f8c:	d000      	beq.n	f90 <prvInsertBlockIntoFreeList+0x3c>
     f8e:	6018      	str	r0, [r3, #0]
     f90:	bd10      	pop	{r4, pc}
     f92:	0013      	movs	r3, r2
     f94:	e7e0      	b.n	f58 <prvInsertBlockIntoFreeList+0x4>
     f96:	46c0      	nop			; (mov r8, r8)
     f98:	20004ecc 	.word	0x20004ecc
     f9c:	2000009c 	.word	0x2000009c

00000fa0 <pvPortMalloc>:
     fa0:	b5f7      	push	{r0, r1, r2, r4, r5, r6, r7, lr}
     fa2:	4b3a      	ldr	r3, [pc, #232]	; (108c <pvPortMalloc+0xec>)
     fa4:	0004      	movs	r4, r0
     fa6:	4798      	blx	r3
     fa8:	4a39      	ldr	r2, [pc, #228]	; (1090 <pvPortMalloc+0xf0>)
     faa:	483a      	ldr	r0, [pc, #232]	; (1094 <pvPortMalloc+0xf4>)
     fac:	6813      	ldr	r3, [r2, #0]
     fae:	2b00      	cmp	r3, #0
     fb0:	d11d      	bne.n	fee <pvPortMalloc+0x4e>
     fb2:	4939      	ldr	r1, [pc, #228]	; (1098 <pvPortMalloc+0xf8>)
     fb4:	3307      	adds	r3, #7
     fb6:	4219      	tst	r1, r3
     fb8:	d035      	beq.n	1026 <pvPortMalloc+0x86>
     fba:	18cd      	adds	r5, r1, r3
     fbc:	439d      	bics	r5, r3
     fbe:	4b37      	ldr	r3, [pc, #220]	; (109c <pvPortMalloc+0xfc>)
     fc0:	18c9      	adds	r1, r1, r3
     fc2:	1b4b      	subs	r3, r1, r5
     fc4:	0029      	movs	r1, r5
     fc6:	2500      	movs	r5, #0
     fc8:	4e35      	ldr	r6, [pc, #212]	; (10a0 <pvPortMalloc+0x100>)
     fca:	18cb      	adds	r3, r1, r3
     fcc:	6075      	str	r5, [r6, #4]
     fce:	6031      	str	r1, [r6, #0]
     fd0:	2607      	movs	r6, #7
     fd2:	3b08      	subs	r3, #8
     fd4:	43b3      	bics	r3, r6
     fd6:	601d      	str	r5, [r3, #0]
     fd8:	605d      	str	r5, [r3, #4]
     fda:	1a5d      	subs	r5, r3, r1
     fdc:	6013      	str	r3, [r2, #0]
     fde:	c128      	stmia	r1!, {r3, r5}
     fe0:	4b30      	ldr	r3, [pc, #192]	; (10a4 <pvPortMalloc+0x104>)
     fe2:	601d      	str	r5, [r3, #0]
     fe4:	4b30      	ldr	r3, [pc, #192]	; (10a8 <pvPortMalloc+0x108>)
     fe6:	601d      	str	r5, [r3, #0]
     fe8:	2380      	movs	r3, #128	; 0x80
     fea:	061b      	lsls	r3, r3, #24
     fec:	6003      	str	r3, [r0, #0]
     fee:	6806      	ldr	r6, [r0, #0]
     ff0:	4234      	tst	r4, r6
     ff2:	d116      	bne.n	1022 <pvPortMalloc+0x82>
     ff4:	2c00      	cmp	r4, #0
     ff6:	d014      	beq.n	1022 <pvPortMalloc+0x82>
     ff8:	0023      	movs	r3, r4
     ffa:	2107      	movs	r1, #7
     ffc:	3308      	adds	r3, #8
     ffe:	420b      	tst	r3, r1
    1000:	d001      	beq.n	1006 <pvPortMalloc+0x66>
    1002:	438b      	bics	r3, r1
    1004:	3308      	adds	r3, #8
    1006:	2b00      	cmp	r3, #0
    1008:	d00b      	beq.n	1022 <pvPortMalloc+0x82>
    100a:	4f27      	ldr	r7, [pc, #156]	; (10a8 <pvPortMalloc+0x108>)
    100c:	683d      	ldr	r5, [r7, #0]
    100e:	42ab      	cmp	r3, r5
    1010:	d807      	bhi.n	1022 <pvPortMalloc+0x82>
    1012:	4923      	ldr	r1, [pc, #140]	; (10a0 <pvPortMalloc+0x100>)
    1014:	680c      	ldr	r4, [r1, #0]
    1016:	6860      	ldr	r0, [r4, #4]
    1018:	4283      	cmp	r3, r0
    101a:	d806      	bhi.n	102a <pvPortMalloc+0x8a>
    101c:	6812      	ldr	r2, [r2, #0]
    101e:	4294      	cmp	r4, r2
    1020:	d109      	bne.n	1036 <pvPortMalloc+0x96>
    1022:	2500      	movs	r5, #0
    1024:	e026      	b.n	1074 <pvPortMalloc+0xd4>
    1026:	4b1d      	ldr	r3, [pc, #116]	; (109c <pvPortMalloc+0xfc>)
    1028:	e7cd      	b.n	fc6 <pvPortMalloc+0x26>
    102a:	6820      	ldr	r0, [r4, #0]
    102c:	2800      	cmp	r0, #0
    102e:	d0f5      	beq.n	101c <pvPortMalloc+0x7c>
    1030:	0021      	movs	r1, r4
    1032:	0004      	movs	r4, r0
    1034:	e7ef      	b.n	1016 <pvPortMalloc+0x76>
    1036:	680a      	ldr	r2, [r1, #0]
    1038:	9201      	str	r2, [sp, #4]
    103a:	6822      	ldr	r2, [r4, #0]
    103c:	600a      	str	r2, [r1, #0]
    103e:	6862      	ldr	r2, [r4, #4]
    1040:	1ad2      	subs	r2, r2, r3
    1042:	2a10      	cmp	r2, #16
    1044:	d908      	bls.n	1058 <pvPortMalloc+0xb8>
    1046:	18e0      	adds	r0, r4, r3
    1048:	0741      	lsls	r1, r0, #29
    104a:	d001      	beq.n	1050 <pvPortMalloc+0xb0>
    104c:	b672      	cpsid	i
    104e:	e7fe      	b.n	104e <pvPortMalloc+0xae>
    1050:	6042      	str	r2, [r0, #4]
    1052:	6063      	str	r3, [r4, #4]
    1054:	4b15      	ldr	r3, [pc, #84]	; (10ac <pvPortMalloc+0x10c>)
    1056:	4798      	blx	r3
    1058:	4a12      	ldr	r2, [pc, #72]	; (10a4 <pvPortMalloc+0x104>)
    105a:	6863      	ldr	r3, [r4, #4]
    105c:	6811      	ldr	r1, [r2, #0]
    105e:	1aed      	subs	r5, r5, r3
    1060:	603d      	str	r5, [r7, #0]
    1062:	428d      	cmp	r5, r1
    1064:	d200      	bcs.n	1068 <pvPortMalloc+0xc8>
    1066:	6015      	str	r5, [r2, #0]
    1068:	431e      	orrs	r6, r3
    106a:	2300      	movs	r3, #0
    106c:	9d01      	ldr	r5, [sp, #4]
    106e:	6066      	str	r6, [r4, #4]
    1070:	3508      	adds	r5, #8
    1072:	6023      	str	r3, [r4, #0]
    1074:	4b0e      	ldr	r3, [pc, #56]	; (10b0 <pvPortMalloc+0x110>)
    1076:	4798      	blx	r3
    1078:	2d00      	cmp	r5, #0
    107a:	d101      	bne.n	1080 <pvPortMalloc+0xe0>
    107c:	4b0d      	ldr	r3, [pc, #52]	; (10b4 <pvPortMalloc+0x114>)
    107e:	4798      	blx	r3
    1080:	076b      	lsls	r3, r5, #29
    1082:	d001      	beq.n	1088 <pvPortMalloc+0xe8>
    1084:	b672      	cpsid	i
    1086:	e7fe      	b.n	1086 <pvPortMalloc+0xe6>
    1088:	0028      	movs	r0, r5
    108a:	bdfe      	pop	{r1, r2, r3, r4, r5, r6, r7, pc}
    108c:	0000354d 	.word	0x0000354d
    1090:	2000009c 	.word	0x2000009c
    1094:	20004ec0 	.word	0x20004ec0
    1098:	200000a0 	.word	0x200000a0
    109c:	00004e20 	.word	0x00004e20
    10a0:	20004ecc 	.word	0x20004ecc
    10a4:	20004ec8 	.word	0x20004ec8
    10a8:	20004ec4 	.word	0x20004ec4
    10ac:	00000f55 	.word	0x00000f55
    10b0:	00003685 	.word	0x00003685
    10b4:	00005411 	.word	0x00005411

000010b8 <vPortFree>:
    10b8:	b510      	push	{r4, lr}
    10ba:	2800      	cmp	r0, #0
    10bc:	d01b      	beq.n	10f6 <vPortFree+0x3e>
    10be:	4a0e      	ldr	r2, [pc, #56]	; (10f8 <vPortFree+0x40>)
    10c0:	3808      	subs	r0, #8
    10c2:	6843      	ldr	r3, [r0, #4]
    10c4:	6812      	ldr	r2, [r2, #0]
    10c6:	0004      	movs	r4, r0
    10c8:	421a      	tst	r2, r3
    10ca:	d101      	bne.n	10d0 <vPortFree+0x18>
    10cc:	b672      	cpsid	i
    10ce:	e7fe      	b.n	10ce <vPortFree+0x16>
    10d0:	6801      	ldr	r1, [r0, #0]
    10d2:	2900      	cmp	r1, #0
    10d4:	d001      	beq.n	10da <vPortFree+0x22>
    10d6:	b672      	cpsid	i
    10d8:	e7fe      	b.n	10d8 <vPortFree+0x20>
    10da:	4393      	bics	r3, r2
    10dc:	6043      	str	r3, [r0, #4]
    10de:	4b07      	ldr	r3, [pc, #28]	; (10fc <vPortFree+0x44>)
    10e0:	4798      	blx	r3
    10e2:	4a07      	ldr	r2, [pc, #28]	; (1100 <vPortFree+0x48>)
    10e4:	6863      	ldr	r3, [r4, #4]
    10e6:	6811      	ldr	r1, [r2, #0]
    10e8:	0020      	movs	r0, r4
    10ea:	185b      	adds	r3, r3, r1
    10ec:	6013      	str	r3, [r2, #0]
    10ee:	4b05      	ldr	r3, [pc, #20]	; (1104 <vPortFree+0x4c>)
    10f0:	4798      	blx	r3
    10f2:	4b05      	ldr	r3, [pc, #20]	; (1108 <vPortFree+0x50>)
    10f4:	4798      	blx	r3
    10f6:	bd10      	pop	{r4, pc}
    10f8:	20004ec0 	.word	0x20004ec0
    10fc:	0000354d 	.word	0x0000354d
    1100:	20004ec4 	.word	0x20004ec4
    1104:	00000f55 	.word	0x00000f55
    1108:	00003685 	.word	0x00003685

0000110c <adc_cb>:
    110c:	b510      	push	{r4, lr}
    110e:	2100      	movs	r1, #0
    1110:	4b0d      	ldr	r3, [pc, #52]	; (1148 <adc_cb+0x3c>)
    1112:	4798      	blx	r3
    1114:	2800      	cmp	r0, #0
    1116:	d116      	bne.n	1146 <adc_cb+0x3a>
    1118:	4b0c      	ldr	r3, [pc, #48]	; (114c <adc_cb+0x40>)
    111a:	490d      	ldr	r1, [pc, #52]	; (1150 <adc_cb+0x44>)
    111c:	881a      	ldrh	r2, [r3, #0]
    111e:	b292      	uxth	r2, r2
    1120:	800a      	strh	r2, [r1, #0]
    1122:	885a      	ldrh	r2, [r3, #2]
    1124:	490b      	ldr	r1, [pc, #44]	; (1154 <adc_cb+0x48>)
    1126:	b292      	uxth	r2, r2
    1128:	800a      	strh	r2, [r1, #0]
    112a:	8899      	ldrh	r1, [r3, #4]
    112c:	4a0a      	ldr	r2, [pc, #40]	; (1158 <adc_cb+0x4c>)
    112e:	b289      	uxth	r1, r1
    1130:	8011      	strh	r1, [r2, #0]
    1132:	88d9      	ldrh	r1, [r3, #6]
    1134:	b289      	uxth	r1, r1
    1136:	8051      	strh	r1, [r2, #2]
    1138:	8919      	ldrh	r1, [r3, #8]
    113a:	b289      	uxth	r1, r1
    113c:	8091      	strh	r1, [r2, #4]
    113e:	8a1b      	ldrh	r3, [r3, #16]
    1140:	4a06      	ldr	r2, [pc, #24]	; (115c <adc_cb+0x50>)
    1142:	b29b      	uxth	r3, r3
    1144:	8013      	strh	r3, [r2, #0]
    1146:	bd10      	pop	{r4, pc}
    1148:	000005cd 	.word	0x000005cd
    114c:	20004ed4 	.word	0x20004ed4
    1150:	20004f0a 	.word	0x20004f0a
    1154:	20004f0c 	.word	0x20004f0c
    1158:	20004f0e 	.word	0x20004f0e
    115c:	20004f08 	.word	0x20004f08

00001160 <adc_request_update>:
    1160:	b510      	push	{r4, lr}
    1162:	4b05      	ldr	r3, [pc, #20]	; (1178 <adc_request_update+0x18>)
    1164:	781b      	ldrb	r3, [r3, #0]
    1166:	2b00      	cmp	r3, #0
    1168:	d004      	beq.n	1174 <adc_request_update+0x14>
    116a:	2209      	movs	r2, #9
    116c:	4903      	ldr	r1, [pc, #12]	; (117c <adc_request_update+0x1c>)
    116e:	4804      	ldr	r0, [pc, #16]	; (1180 <adc_request_update+0x20>)
    1170:	4b04      	ldr	r3, [pc, #16]	; (1184 <adc_request_update+0x24>)
    1172:	4798      	blx	r3
    1174:	bd10      	pop	{r4, pc}
    1176:	46c0      	nop			; (mov r8, r8)
    1178:	20004f14 	.word	0x20004f14
    117c:	20004ed4 	.word	0x20004ed4
    1180:	20004ee8 	.word	0x20004ee8
    1184:	00000599 	.word	0x00000599

00001188 <adc_interface_init>:
    1188:	b510      	push	{r4, lr}
    118a:	b08c      	sub	sp, #48	; 0x30
    118c:	4668      	mov	r0, sp
    118e:	4b22      	ldr	r3, [pc, #136]	; (1218 <adc_interface_init+0x90>)
    1190:	4798      	blx	r3
    1192:	466a      	mov	r2, sp
    1194:	2302      	movs	r3, #2
    1196:	7313      	strb	r3, [r2, #12]
    1198:	23c0      	movs	r3, #192	; 0xc0
    119a:	015b      	lsls	r3, r3, #5
    119c:	81d3      	strh	r3, [r2, #14]
    119e:	2300      	movs	r3, #0
    11a0:	4669      	mov	r1, sp
    11a2:	74d3      	strb	r3, [r2, #19]
    11a4:	2201      	movs	r2, #1
    11a6:	700a      	strb	r2, [r1, #0]
    11a8:	22c0      	movs	r2, #192	; 0xc0
    11aa:	00d2      	lsls	r2, r2, #3
    11ac:	804a      	strh	r2, [r1, #2]
    11ae:	2203      	movs	r2, #3
    11b0:	704a      	strb	r2, [r1, #1]
    11b2:	3228      	adds	r2, #40	; 0x28
    11b4:	446a      	add	r2, sp
    11b6:	7013      	strb	r3, [r2, #0]
    11b8:	2209      	movs	r2, #9
    11ba:	4c18      	ldr	r4, [pc, #96]	; (121c <adc_interface_init+0x94>)
    11bc:	710b      	strb	r3, [r1, #4]
    11be:	9302      	str	r3, [sp, #8]
    11c0:	ab0b      	add	r3, sp, #44	; 0x2c
    11c2:	701a      	strb	r2, [r3, #0]
    11c4:	4916      	ldr	r1, [pc, #88]	; (1220 <adc_interface_init+0x98>)
    11c6:	4b17      	ldr	r3, [pc, #92]	; (1224 <adc_interface_init+0x9c>)
    11c8:	466a      	mov	r2, sp
    11ca:	0020      	movs	r0, r4
    11cc:	4798      	blx	r3
    11ce:	6823      	ldr	r3, [r4, #0]
    11d0:	7e5a      	ldrb	r2, [r3, #25]
    11d2:	b252      	sxtb	r2, r2
    11d4:	2a00      	cmp	r2, #0
    11d6:	dbfb      	blt.n	11d0 <adc_interface_init+0x48>
    11d8:	2180      	movs	r1, #128	; 0x80
    11da:	4a13      	ldr	r2, [pc, #76]	; (1228 <adc_interface_init+0xa0>)
    11dc:	0409      	lsls	r1, r1, #16
    11de:	6011      	str	r1, [r2, #0]
    11e0:	220f      	movs	r2, #15
    11e2:	759a      	strb	r2, [r3, #22]
    11e4:	761a      	strb	r2, [r3, #24]
    11e6:	7819      	ldrb	r1, [r3, #0]
    11e8:	3a0d      	subs	r2, #13
    11ea:	430a      	orrs	r2, r1
    11ec:	701a      	strb	r2, [r3, #0]
    11ee:	6822      	ldr	r2, [r4, #0]
    11f0:	7e53      	ldrb	r3, [r2, #25]
    11f2:	b25b      	sxtb	r3, r3
    11f4:	2b00      	cmp	r3, #0
    11f6:	dbfb      	blt.n	11f0 <adc_interface_init+0x68>
    11f8:	490c      	ldr	r1, [pc, #48]	; (122c <adc_interface_init+0xa4>)
    11fa:	0020      	movs	r0, r4
    11fc:	2200      	movs	r2, #0
    11fe:	4b0c      	ldr	r3, [pc, #48]	; (1230 <adc_interface_init+0xa8>)
    1200:	4798      	blx	r3
    1202:	2201      	movs	r2, #1
    1204:	7ee3      	ldrb	r3, [r4, #27]
    1206:	4313      	orrs	r3, r2
    1208:	76e3      	strb	r3, [r4, #27]
    120a:	4b0a      	ldr	r3, [pc, #40]	; (1234 <adc_interface_init+0xac>)
    120c:	701a      	strb	r2, [r3, #0]
    120e:	4b0a      	ldr	r3, [pc, #40]	; (1238 <adc_interface_init+0xb0>)
    1210:	4798      	blx	r3
    1212:	b00c      	add	sp, #48	; 0x30
    1214:	bd10      	pop	{r4, pc}
    1216:	46c0      	nop			; (mov r8, r8)
    1218:	0000015d 	.word	0x0000015d
    121c:	20004ee8 	.word	0x20004ee8
    1220:	42004000 	.word	0x42004000
    1224:	000001a1 	.word	0x000001a1
    1228:	e000e100 	.word	0xe000e100
    122c:	0000110d 	.word	0x0000110d
    1230:	00000585 	.word	0x00000585
    1234:	20004f14 	.word	0x20004f14
    1238:	00001161 	.word	0x00001161

0000123c <get_pressure_sensor_cmH2O>:
    123c:	b5f8      	push	{r3, r4, r5, r6, r7, lr}
    123e:	2802      	cmp	r0, #2
    1240:	d825      	bhi.n	128e <get_pressure_sensor_cmH2O+0x52>
    1242:	4b14      	ldr	r3, [pc, #80]	; (1294 <get_pressure_sensor_cmH2O+0x58>)
    1244:	0040      	lsls	r0, r0, #1
    1246:	5ac0      	ldrh	r0, [r0, r3]
    1248:	4b13      	ldr	r3, [pc, #76]	; (1298 <get_pressure_sensor_cmH2O+0x5c>)
    124a:	b280      	uxth	r0, r0
    124c:	4798      	blx	r3
    124e:	2200      	movs	r2, #0
    1250:	4b12      	ldr	r3, [pc, #72]	; (129c <get_pressure_sensor_cmH2O+0x60>)
    1252:	4c13      	ldr	r4, [pc, #76]	; (12a0 <get_pressure_sensor_cmH2O+0x64>)
    1254:	47a0      	blx	r4
    1256:	4c13      	ldr	r4, [pc, #76]	; (12a4 <get_pressure_sensor_cmH2O+0x68>)
    1258:	4a13      	ldr	r2, [pc, #76]	; (12a8 <get_pressure_sensor_cmH2O+0x6c>)
    125a:	4b14      	ldr	r3, [pc, #80]	; (12ac <get_pressure_sensor_cmH2O+0x70>)
    125c:	47a0      	blx	r4
    125e:	4a14      	ldr	r2, [pc, #80]	; (12b0 <get_pressure_sensor_cmH2O+0x74>)
    1260:	4b14      	ldr	r3, [pc, #80]	; (12b4 <get_pressure_sensor_cmH2O+0x78>)
    1262:	47a0      	blx	r4
    1264:	4d14      	ldr	r5, [pc, #80]	; (12b8 <get_pressure_sensor_cmH2O+0x7c>)
    1266:	47a8      	blx	r5
    1268:	4e14      	ldr	r6, [pc, #80]	; (12bc <get_pressure_sensor_cmH2O+0x80>)
    126a:	47b0      	blx	r6
    126c:	2200      	movs	r2, #0
    126e:	4b14      	ldr	r3, [pc, #80]	; (12c0 <get_pressure_sensor_cmH2O+0x84>)
    1270:	4f14      	ldr	r7, [pc, #80]	; (12c4 <get_pressure_sensor_cmH2O+0x88>)
    1272:	47b8      	blx	r7
    1274:	2200      	movs	r2, #0
    1276:	4b14      	ldr	r3, [pc, #80]	; (12c8 <get_pressure_sensor_cmH2O+0x8c>)
    1278:	47a0      	blx	r4
    127a:	2200      	movs	r2, #0
    127c:	4b13      	ldr	r3, [pc, #76]	; (12cc <get_pressure_sensor_cmH2O+0x90>)
    127e:	47a0      	blx	r4
    1280:	47a8      	blx	r5
    1282:	47b0      	blx	r6
    1284:	4a12      	ldr	r2, [pc, #72]	; (12d0 <get_pressure_sensor_cmH2O+0x94>)
    1286:	4b13      	ldr	r3, [pc, #76]	; (12d4 <get_pressure_sensor_cmH2O+0x98>)
    1288:	47a0      	blx	r4
    128a:	47a8      	blx	r5
    128c:	bdf8      	pop	{r3, r4, r5, r6, r7, pc}
    128e:	2000      	movs	r0, #0
    1290:	e7fc      	b.n	128c <get_pressure_sensor_cmH2O+0x50>
    1292:	46c0      	nop			; (mov r8, r8)
    1294:	20004f0e 	.word	0x20004f0e
    1298:	00008005 	.word	0x00008005
    129c:	40affe00 	.word	0x40affe00
    12a0:	00006c09 	.word	0x00006c09
    12a4:	00007471 	.word	0x00007471
    12a8:	66666666 	.word	0x66666666
    12ac:	400a6666 	.word	0x400a6666
    12b0:	8f5c28f6 	.word	0x8f5c28f6
    12b4:	3ff8f5c2 	.word	0x3ff8f5c2
    12b8:	0000819d 	.word	0x0000819d
    12bc:	000080f9 	.word	0x000080f9
    12c0:	3fe00000 	.word	0x3fe00000
    12c4:	00007971 	.word	0x00007971
    12c8:	40140000 	.word	0x40140000
    12cc:	3fd00000 	.word	0x3fd00000
    12d0:	e353f7cf 	.word	0xe353f7cf
    12d4:	405193a5 	.word	0x405193a5

000012d8 <get_pressure_sensor_cmH2O_voted>:
    12d8:	b5f0      	push	{r4, r5, r6, r7, lr}
    12da:	2500      	movs	r5, #0
    12dc:	b089      	sub	sp, #36	; 0x24
    12de:	b2e8      	uxtb	r0, r5
    12e0:	4b4d      	ldr	r3, [pc, #308]	; (1418 <get_pressure_sensor_cmH2O_voted+0x140>)
    12e2:	4798      	blx	r3
    12e4:	ac05      	add	r4, sp, #20
    12e6:	00ab      	lsls	r3, r5, #2
    12e8:	3501      	adds	r5, #1
    12ea:	5118      	str	r0, [r3, r4]
    12ec:	2d03      	cmp	r5, #3
    12ee:	d1f6      	bne.n	12de <get_pressure_sensor_cmH2O_voted+0x6>
    12f0:	4d4a      	ldr	r5, [pc, #296]	; (141c <get_pressure_sensor_cmH2O_voted+0x144>)
    12f2:	9805      	ldr	r0, [sp, #20]
    12f4:	47a8      	blx	r5
    12f6:	4e4a      	ldr	r6, [pc, #296]	; (1420 <get_pressure_sensor_cmH2O_voted+0x148>)
    12f8:	4a4a      	ldr	r2, [pc, #296]	; (1424 <get_pressure_sensor_cmH2O_voted+0x14c>)
    12fa:	4b4b      	ldr	r3, [pc, #300]	; (1428 <get_pressure_sensor_cmH2O_voted+0x150>)
    12fc:	47b0      	blx	r6
    12fe:	2200      	movs	r2, #0
    1300:	4f4a      	ldr	r7, [pc, #296]	; (142c <get_pressure_sensor_cmH2O_voted+0x154>)
    1302:	2300      	movs	r3, #0
    1304:	47b8      	blx	r7
    1306:	4b4a      	ldr	r3, [pc, #296]	; (1430 <get_pressure_sensor_cmH2O_voted+0x158>)
    1308:	4798      	blx	r3
    130a:	47a8      	blx	r5
    130c:	9000      	str	r0, [sp, #0]
    130e:	9101      	str	r1, [sp, #4]
    1310:	6860      	ldr	r0, [r4, #4]
    1312:	47a8      	blx	r5
    1314:	4a43      	ldr	r2, [pc, #268]	; (1424 <get_pressure_sensor_cmH2O_voted+0x14c>)
    1316:	4b44      	ldr	r3, [pc, #272]	; (1428 <get_pressure_sensor_cmH2O_voted+0x150>)
    1318:	47b0      	blx	r6
    131a:	0002      	movs	r2, r0
    131c:	000b      	movs	r3, r1
    131e:	9800      	ldr	r0, [sp, #0]
    1320:	9901      	ldr	r1, [sp, #4]
    1322:	47b8      	blx	r7
    1324:	9000      	str	r0, [sp, #0]
    1326:	9101      	str	r1, [sp, #4]
    1328:	68a0      	ldr	r0, [r4, #8]
    132a:	47a8      	blx	r5
    132c:	4a3d      	ldr	r2, [pc, #244]	; (1424 <get_pressure_sensor_cmH2O_voted+0x14c>)
    132e:	4b3e      	ldr	r3, [pc, #248]	; (1428 <get_pressure_sensor_cmH2O_voted+0x150>)
    1330:	47b0      	blx	r6
    1332:	4b3f      	ldr	r3, [pc, #252]	; (1430 <get_pressure_sensor_cmH2O_voted+0x158>)
    1334:	0006      	movs	r6, r0
    1336:	000f      	movs	r7, r1
    1338:	9800      	ldr	r0, [sp, #0]
    133a:	9901      	ldr	r1, [sp, #4]
    133c:	4798      	blx	r3
    133e:	47a8      	blx	r5
    1340:	4d3a      	ldr	r5, [pc, #232]	; (142c <get_pressure_sensor_cmH2O_voted+0x154>)
    1342:	0002      	movs	r2, r0
    1344:	000b      	movs	r3, r1
    1346:	0030      	movs	r0, r6
    1348:	0039      	movs	r1, r7
    134a:	47a8      	blx	r5
    134c:	4b38      	ldr	r3, [pc, #224]	; (1430 <get_pressure_sensor_cmH2O_voted+0x158>)
    134e:	4798      	blx	r3
    1350:	2300      	movs	r3, #0
    1352:	2600      	movs	r6, #0
    1354:	001d      	movs	r5, r3
    1356:	1c07      	adds	r7, r0, #0
    1358:	9300      	str	r3, [sp, #0]
    135a:	9403      	str	r4, [sp, #12]
    135c:	9a03      	ldr	r2, [sp, #12]
    135e:	00ab      	lsls	r3, r5, #2
    1360:	5899      	ldr	r1, [r3, r2]
    1362:	1c38      	adds	r0, r7, #0
    1364:	4b33      	ldr	r3, [pc, #204]	; (1434 <get_pressure_sensor_cmH2O_voted+0x15c>)
    1366:	4798      	blx	r3
    1368:	4b33      	ldr	r3, [pc, #204]	; (1438 <get_pressure_sensor_cmH2O_voted+0x160>)
    136a:	4798      	blx	r3
    136c:	17c3      	asrs	r3, r0, #31
    136e:	18c0      	adds	r0, r0, r3
    1370:	4058      	eors	r0, r3
    1372:	4b32      	ldr	r3, [pc, #200]	; (143c <get_pressure_sensor_cmH2O_voted+0x164>)
    1374:	4798      	blx	r3
    1376:	1c31      	adds	r1, r6, #0
    1378:	4b31      	ldr	r3, [pc, #196]	; (1440 <get_pressure_sensor_cmH2O_voted+0x168>)
    137a:	1c04      	adds	r4, r0, #0
    137c:	4798      	blx	r3
    137e:	2800      	cmp	r0, #0
    1380:	d002      	beq.n	1388 <get_pressure_sensor_cmH2O_voted+0xb0>
    1382:	b2eb      	uxtb	r3, r5
    1384:	9300      	str	r3, [sp, #0]
    1386:	1c26      	adds	r6, r4, #0
    1388:	3501      	adds	r5, #1
    138a:	2d03      	cmp	r5, #3
    138c:	d1e6      	bne.n	135c <get_pressure_sensor_cmH2O_voted+0x84>
    138e:	2400      	movs	r4, #0
    1390:	2500      	movs	r5, #0
    1392:	9b00      	ldr	r3, [sp, #0]
    1394:	42ab      	cmp	r3, r5
    1396:	d016      	beq.n	13c6 <get_pressure_sensor_cmH2O_voted+0xee>
    1398:	aa05      	add	r2, sp, #20
    139a:	00ab      	lsls	r3, r5, #2
    139c:	58d0      	ldr	r0, [r2, r3]
    139e:	4b1f      	ldr	r3, [pc, #124]	; (141c <get_pressure_sensor_cmH2O_voted+0x144>)
    13a0:	4798      	blx	r3
    13a2:	2200      	movs	r2, #0
    13a4:	4b27      	ldr	r3, [pc, #156]	; (1444 <get_pressure_sensor_cmH2O_voted+0x16c>)
    13a6:	4e1e      	ldr	r6, [pc, #120]	; (1420 <get_pressure_sensor_cmH2O_voted+0x148>)
    13a8:	47b0      	blx	r6
    13aa:	4b1c      	ldr	r3, [pc, #112]	; (141c <get_pressure_sensor_cmH2O_voted+0x144>)
    13ac:	0006      	movs	r6, r0
    13ae:	1c20      	adds	r0, r4, #0
    13b0:	000f      	movs	r7, r1
    13b2:	4798      	blx	r3
    13b4:	4c1d      	ldr	r4, [pc, #116]	; (142c <get_pressure_sensor_cmH2O_voted+0x154>)
    13b6:	0002      	movs	r2, r0
    13b8:	000b      	movs	r3, r1
    13ba:	0030      	movs	r0, r6
    13bc:	0039      	movs	r1, r7
    13be:	47a0      	blx	r4
    13c0:	4b1b      	ldr	r3, [pc, #108]	; (1430 <get_pressure_sensor_cmH2O_voted+0x158>)
    13c2:	4798      	blx	r3
    13c4:	1c04      	adds	r4, r0, #0
    13c6:	3501      	adds	r5, #1
    13c8:	2d03      	cmp	r5, #3
    13ca:	d1e2      	bne.n	1392 <get_pressure_sensor_cmH2O_voted+0xba>
    13cc:	9b00      	ldr	r3, [sp, #0]
    13ce:	9a03      	ldr	r2, [sp, #12]
    13d0:	009b      	lsls	r3, r3, #2
    13d2:	58d0      	ldr	r0, [r2, r3]
    13d4:	1c21      	adds	r1, r4, #0
    13d6:	4b17      	ldr	r3, [pc, #92]	; (1434 <get_pressure_sensor_cmH2O_voted+0x15c>)
    13d8:	4798      	blx	r3
    13da:	4b17      	ldr	r3, [pc, #92]	; (1438 <get_pressure_sensor_cmH2O_voted+0x160>)
    13dc:	4798      	blx	r3
    13de:	17c3      	asrs	r3, r0, #31
    13e0:	18c0      	adds	r0, r0, r3
    13e2:	4058      	eors	r0, r3
    13e4:	4b18      	ldr	r3, [pc, #96]	; (1448 <get_pressure_sensor_cmH2O_voted+0x170>)
    13e6:	4798      	blx	r3
    13e8:	4b0c      	ldr	r3, [pc, #48]	; (141c <get_pressure_sensor_cmH2O_voted+0x144>)
    13ea:	0006      	movs	r6, r0
    13ec:	1c20      	adds	r0, r4, #0
    13ee:	000f      	movs	r7, r1
    13f0:	4798      	blx	r3
    13f2:	4a16      	ldr	r2, [pc, #88]	; (144c <get_pressure_sensor_cmH2O_voted+0x174>)
    13f4:	4b16      	ldr	r3, [pc, #88]	; (1450 <get_pressure_sensor_cmH2O_voted+0x178>)
    13f6:	4d0a      	ldr	r5, [pc, #40]	; (1420 <get_pressure_sensor_cmH2O_voted+0x148>)
    13f8:	47a8      	blx	r5
    13fa:	4d16      	ldr	r5, [pc, #88]	; (1454 <get_pressure_sensor_cmH2O_voted+0x17c>)
    13fc:	000b      	movs	r3, r1
    13fe:	0002      	movs	r2, r0
    1400:	0039      	movs	r1, r7
    1402:	0030      	movs	r0, r6
    1404:	47a8      	blx	r5
    1406:	4b14      	ldr	r3, [pc, #80]	; (1458 <get_pressure_sensor_cmH2O_voted+0x180>)
    1408:	1e01      	subs	r1, r0, #0
    140a:	d000      	beq.n	140e <get_pressure_sensor_cmH2O_voted+0x136>
    140c:	2101      	movs	r1, #1
    140e:	2002      	movs	r0, #2
    1410:	4798      	blx	r3
    1412:	1c20      	adds	r0, r4, #0
    1414:	b009      	add	sp, #36	; 0x24
    1416:	bdf0      	pop	{r4, r5, r6, r7, pc}
    1418:	0000123d 	.word	0x0000123d
    141c:	000080f9 	.word	0x000080f9
    1420:	00007471 	.word	0x00007471
    1424:	5a31a4be 	.word	0x5a31a4be
    1428:	3fd55547 	.word	0x3fd55547
    142c:	000065e9 	.word	0x000065e9
    1430:	0000819d 	.word	0x0000819d
    1434:	000061d1 	.word	0x000061d1
    1438:	00006509 	.word	0x00006509
    143c:	00006549 	.word	0x00006549
    1440:	00005621 	.word	0x00005621
    1444:	3fe00000 	.word	0x3fe00000
    1448:	00008005 	.word	0x00008005
    144c:	9999999a 	.word	0x9999999a
    1450:	3fc99999 	.word	0x3fc99999
    1454:	000055ad 	.word	0x000055ad
    1458:	00001511 	.word	0x00001511

0000145c <get_input_potentiometer_portion>:
    145c:	b510      	push	{r4, lr}
    145e:	4b06      	ldr	r3, [pc, #24]	; (1478 <get_input_potentiometer_portion+0x1c>)
    1460:	8818      	ldrh	r0, [r3, #0]
    1462:	4b06      	ldr	r3, [pc, #24]	; (147c <get_input_potentiometer_portion+0x20>)
    1464:	b280      	uxth	r0, r0
    1466:	4798      	blx	r3
    1468:	2200      	movs	r2, #0
    146a:	4b05      	ldr	r3, [pc, #20]	; (1480 <get_input_potentiometer_portion+0x24>)
    146c:	4c05      	ldr	r4, [pc, #20]	; (1484 <get_input_potentiometer_portion+0x28>)
    146e:	47a0      	blx	r4
    1470:	4b05      	ldr	r3, [pc, #20]	; (1488 <get_input_potentiometer_portion+0x2c>)
    1472:	4798      	blx	r3
    1474:	bd10      	pop	{r4, pc}
    1476:	46c0      	nop			; (mov r8, r8)
    1478:	20004f0c 	.word	0x20004f0c
    147c:	00008005 	.word	0x00008005
    1480:	40affe00 	.word	0x40affe00
    1484:	00006c09 	.word	0x00006c09
    1488:	0000819d 	.word	0x0000819d

0000148c <get_motor_temp_celsius>:
    148c:	2000      	movs	r0, #0
    148e:	4770      	bx	lr

00001490 <get_flow_slm>:
    1490:	b570      	push	{r4, r5, r6, lr}
    1492:	4b10      	ldr	r3, [pc, #64]	; (14d4 <get_flow_slm+0x44>)
    1494:	8818      	ldrh	r0, [r3, #0]
    1496:	4b10      	ldr	r3, [pc, #64]	; (14d8 <get_flow_slm+0x48>)
    1498:	b280      	uxth	r0, r0
    149a:	4798      	blx	r3
    149c:	4c0f      	ldr	r4, [pc, #60]	; (14dc <get_flow_slm+0x4c>)
    149e:	2200      	movs	r2, #0
    14a0:	4b0f      	ldr	r3, [pc, #60]	; (14e0 <get_flow_slm+0x50>)
    14a2:	47a0      	blx	r4
    14a4:	4c0f      	ldr	r4, [pc, #60]	; (14e4 <get_flow_slm+0x54>)
    14a6:	4a10      	ldr	r2, [pc, #64]	; (14e8 <get_flow_slm+0x58>)
    14a8:	4b10      	ldr	r3, [pc, #64]	; (14ec <get_flow_slm+0x5c>)
    14aa:	47a0      	blx	r4
    14ac:	4a10      	ldr	r2, [pc, #64]	; (14f0 <get_flow_slm+0x60>)
    14ae:	4b11      	ldr	r3, [pc, #68]	; (14f4 <get_flow_slm+0x64>)
    14b0:	47a0      	blx	r4
    14b2:	4d11      	ldr	r5, [pc, #68]	; (14f8 <get_flow_slm+0x68>)
    14b4:	47a8      	blx	r5
    14b6:	4b11      	ldr	r3, [pc, #68]	; (14fc <get_flow_slm+0x6c>)
    14b8:	4798      	blx	r3
    14ba:	4e11      	ldr	r6, [pc, #68]	; (1500 <get_flow_slm+0x70>)
    14bc:	2200      	movs	r2, #0
    14be:	4b11      	ldr	r3, [pc, #68]	; (1504 <get_flow_slm+0x74>)
    14c0:	47b0      	blx	r6
    14c2:	2200      	movs	r2, #0
    14c4:	4b10      	ldr	r3, [pc, #64]	; (1508 <get_flow_slm+0x78>)
    14c6:	47a0      	blx	r4
    14c8:	2200      	movs	r2, #0
    14ca:	4b10      	ldr	r3, [pc, #64]	; (150c <get_flow_slm+0x7c>)
    14cc:	47a0      	blx	r4
    14ce:	47a8      	blx	r5
    14d0:	bd70      	pop	{r4, r5, r6, pc}
    14d2:	46c0      	nop			; (mov r8, r8)
    14d4:	20004f08 	.word	0x20004f08
    14d8:	00008005 	.word	0x00008005
    14dc:	00006c09 	.word	0x00006c09
    14e0:	40affe00 	.word	0x40affe00
    14e4:	00007471 	.word	0x00007471
    14e8:	66666666 	.word	0x66666666
    14ec:	400a6666 	.word	0x400a6666
    14f0:	8f5c28f6 	.word	0x8f5c28f6
    14f4:	3ff8f5c2 	.word	0x3ff8f5c2
    14f8:	0000819d 	.word	0x0000819d
    14fc:	000080f9 	.word	0x000080f9
    1500:	00007971 	.word	0x00007971
    1504:	40040000 	.word	0x40040000
    1508:	406f4000 	.word	0x406f4000
    150c:	3fe00000 	.word	0x3fe00000

00001510 <set_alarm>:
    1510:	281f      	cmp	r0, #31
    1512:	d807      	bhi.n	1524 <set_alarm+0x14>
    1514:	4a06      	ldr	r2, [pc, #24]	; (1530 <set_alarm+0x20>)
    1516:	2301      	movs	r3, #1
    1518:	2900      	cmp	r1, #0
    151a:	d004      	beq.n	1526 <set_alarm+0x16>
    151c:	4083      	lsls	r3, r0
    151e:	6811      	ldr	r1, [r2, #0]
    1520:	430b      	orrs	r3, r1
    1522:	6013      	str	r3, [r2, #0]
    1524:	4770      	bx	lr
    1526:	4083      	lsls	r3, r0
    1528:	6811      	ldr	r1, [r2, #0]
    152a:	4399      	bics	r1, r3
    152c:	6011      	str	r1, [r2, #0]
    152e:	e7f9      	b.n	1524 <set_alarm+0x14>
    1530:	20004f18 	.word	0x20004f18

00001534 <check_alarm>:
    1534:	2300      	movs	r3, #0
    1536:	281f      	cmp	r0, #31
    1538:	d807      	bhi.n	154a <check_alarm+0x16>
    153a:	2201      	movs	r2, #1
    153c:	4082      	lsls	r2, r0
    153e:	4b04      	ldr	r3, [pc, #16]	; (1550 <check_alarm+0x1c>)
    1540:	681b      	ldr	r3, [r3, #0]
    1542:	4013      	ands	r3, r2
    1544:	1e58      	subs	r0, r3, #1
    1546:	4183      	sbcs	r3, r0
    1548:	b2db      	uxtb	r3, r3
    154a:	0018      	movs	r0, r3
    154c:	4770      	bx	lr
    154e:	46c0      	nop			; (mov r8, r8)
    1550:	20004f18 	.word	0x20004f18

00001554 <any_alarms_set>:
    1554:	4b02      	ldr	r3, [pc, #8]	; (1560 <any_alarms_set+0xc>)
    1556:	6818      	ldr	r0, [r3, #0]
    1558:	1e43      	subs	r3, r0, #1
    155a:	4198      	sbcs	r0, r3
    155c:	b2c0      	uxtb	r0, r0
    155e:	4770      	bx	lr
    1560:	20004f18 	.word	0x20004f18

00001564 <calculate_lcv_control_params>:
    1564:	b5f0      	push	{r4, r5, r6, r7, lr}
    1566:	0007      	movs	r7, r0
    1568:	b085      	sub	sp, #20
    156a:	4e3c      	ldr	r6, [pc, #240]	; (165c <calculate_lcv_control_params+0xf8>)
    156c:	6900      	ldr	r0, [r0, #16]
    156e:	000c      	movs	r4, r1
    1570:	47b0      	blx	r6
    1572:	4d3b      	ldr	r5, [pc, #236]	; (1660 <calculate_lcv_control_params+0xfc>)
    1574:	0002      	movs	r2, r0
    1576:	000b      	movs	r3, r1
    1578:	2000      	movs	r0, #0
    157a:	493a      	ldr	r1, [pc, #232]	; (1664 <calculate_lcv_control_params+0x100>)
    157c:	47a8      	blx	r5
    157e:	4b3a      	ldr	r3, [pc, #232]	; (1668 <calculate_lcv_control_params+0x104>)
    1580:	4798      	blx	r3
    1582:	6822      	ldr	r2, [r4, #0]
    1584:	68a3      	ldr	r3, [r4, #8]
    1586:	1c05      	adds	r5, r0, #0
    1588:	1898      	adds	r0, r3, r2
    158a:	4b38      	ldr	r3, [pc, #224]	; (166c <calculate_lcv_control_params+0x108>)
    158c:	4798      	blx	r3
    158e:	4b38      	ldr	r3, [pc, #224]	; (1670 <calculate_lcv_control_params+0x10c>)
    1590:	1c01      	adds	r1, r0, #0
    1592:	1c28      	adds	r0, r5, #0
    1594:	4798      	blx	r3
    1596:	2100      	movs	r1, #0
    1598:	4b36      	ldr	r3, [pc, #216]	; (1674 <calculate_lcv_control_params+0x110>)
    159a:	1c05      	adds	r5, r0, #0
    159c:	4798      	blx	r3
    159e:	4b36      	ldr	r3, [pc, #216]	; (1678 <calculate_lcv_control_params+0x114>)
    15a0:	1e01      	subs	r1, r0, #0
    15a2:	d000      	beq.n	15a6 <calculate_lcv_control_params+0x42>
    15a4:	2101      	movs	r1, #1
    15a6:	2006      	movs	r0, #6
    15a8:	4798      	blx	r3
    15aa:	7878      	ldrb	r0, [r7, #1]
    15ac:	280a      	cmp	r0, #10
    15ae:	d927      	bls.n	1600 <calculate_lcv_control_params+0x9c>
    15b0:	47b0      	blx	r6
    15b2:	4a32      	ldr	r2, [pc, #200]	; (167c <calculate_lcv_control_params+0x118>)
    15b4:	4b32      	ldr	r3, [pc, #200]	; (1680 <calculate_lcv_control_params+0x11c>)
    15b6:	4e33      	ldr	r6, [pc, #204]	; (1684 <calculate_lcv_control_params+0x120>)
    15b8:	47b0      	blx	r6
    15ba:	4f33      	ldr	r7, [pc, #204]	; (1688 <calculate_lcv_control_params+0x124>)
    15bc:	9000      	str	r0, [sp, #0]
    15be:	9101      	str	r1, [sp, #4]
    15c0:	1c28      	adds	r0, r5, #0
    15c2:	47b8      	blx	r7
    15c4:	2200      	movs	r2, #0
    15c6:	9002      	str	r0, [sp, #8]
    15c8:	9103      	str	r1, [sp, #12]
    15ca:	9800      	ldr	r0, [sp, #0]
    15cc:	9901      	ldr	r1, [sp, #4]
    15ce:	4b2f      	ldr	r3, [pc, #188]	; (168c <calculate_lcv_control_params+0x128>)
    15d0:	4d2f      	ldr	r5, [pc, #188]	; (1690 <calculate_lcv_control_params+0x12c>)
    15d2:	47a8      	blx	r5
    15d4:	4d22      	ldr	r5, [pc, #136]	; (1660 <calculate_lcv_control_params+0xfc>)
    15d6:	0002      	movs	r2, r0
    15d8:	000b      	movs	r3, r1
    15da:	9802      	ldr	r0, [sp, #8]
    15dc:	9903      	ldr	r1, [sp, #12]
    15de:	47a8      	blx	r5
    15e0:	4b21      	ldr	r3, [pc, #132]	; (1668 <calculate_lcv_control_params+0x104>)
    15e2:	4798      	blx	r3
    15e4:	1c05      	adds	r5, r0, #0
    15e6:	47b8      	blx	r7
    15e8:	9a00      	ldr	r2, [sp, #0]
    15ea:	9b01      	ldr	r3, [sp, #4]
    15ec:	47b0      	blx	r6
    15ee:	4b29      	ldr	r3, [pc, #164]	; (1694 <calculate_lcv_control_params+0x130>)
    15f0:	4798      	blx	r3
    15f2:	4b29      	ldr	r3, [pc, #164]	; (1698 <calculate_lcv_control_params+0x134>)
    15f4:	60e0      	str	r0, [r4, #12]
    15f6:	1c28      	adds	r0, r5, #0
    15f8:	4798      	blx	r3
    15fa:	6060      	str	r0, [r4, #4]
    15fc:	b005      	add	sp, #20
    15fe:	bdf0      	pop	{r4, r5, r6, r7, pc}
    1600:	47b0      	blx	r6
    1602:	4a1e      	ldr	r2, [pc, #120]	; (167c <calculate_lcv_control_params+0x118>)
    1604:	4b1e      	ldr	r3, [pc, #120]	; (1680 <calculate_lcv_control_params+0x11c>)
    1606:	4e1f      	ldr	r6, [pc, #124]	; (1684 <calculate_lcv_control_params+0x120>)
    1608:	47b0      	blx	r6
    160a:	4e15      	ldr	r6, [pc, #84]	; (1660 <calculate_lcv_control_params+0xfc>)
    160c:	0002      	movs	r2, r0
    160e:	000b      	movs	r3, r1
    1610:	2000      	movs	r0, #0
    1612:	491e      	ldr	r1, [pc, #120]	; (168c <calculate_lcv_control_params+0x128>)
    1614:	47b0      	blx	r6
    1616:	4b14      	ldr	r3, [pc, #80]	; (1668 <calculate_lcv_control_params+0x104>)
    1618:	4798      	blx	r3
    161a:	4f1b      	ldr	r7, [pc, #108]	; (1688 <calculate_lcv_control_params+0x124>)
    161c:	1c06      	adds	r6, r0, #0
    161e:	1c28      	adds	r0, r5, #0
    1620:	47b8      	blx	r7
    1622:	9000      	str	r0, [sp, #0]
    1624:	9101      	str	r1, [sp, #4]
    1626:	1c30      	adds	r0, r6, #0
    1628:	47b8      	blx	r7
    162a:	2200      	movs	r2, #0
    162c:	4b17      	ldr	r3, [pc, #92]	; (168c <calculate_lcv_control_params+0x128>)
    162e:	4d18      	ldr	r5, [pc, #96]	; (1690 <calculate_lcv_control_params+0x12c>)
    1630:	47a8      	blx	r5
    1632:	4d0b      	ldr	r5, [pc, #44]	; (1660 <calculate_lcv_control_params+0xfc>)
    1634:	0002      	movs	r2, r0
    1636:	000b      	movs	r3, r1
    1638:	9800      	ldr	r0, [sp, #0]
    163a:	9901      	ldr	r1, [sp, #4]
    163c:	47a8      	blx	r5
    163e:	4b0a      	ldr	r3, [pc, #40]	; (1668 <calculate_lcv_control_params+0x104>)
    1640:	4798      	blx	r3
    1642:	4b16      	ldr	r3, [pc, #88]	; (169c <calculate_lcv_control_params+0x138>)
    1644:	1c01      	adds	r1, r0, #0
    1646:	1c07      	adds	r7, r0, #0
    1648:	1c30      	adds	r0, r6, #0
    164a:	4798      	blx	r3
    164c:	4d12      	ldr	r5, [pc, #72]	; (1698 <calculate_lcv_control_params+0x134>)
    164e:	47a8      	blx	r5
    1650:	6060      	str	r0, [r4, #4]
    1652:	1c38      	adds	r0, r7, #0
    1654:	47a8      	blx	r5
    1656:	60e0      	str	r0, [r4, #12]
    1658:	e7d0      	b.n	15fc <calculate_lcv_control_params+0x98>
    165a:	46c0      	nop			; (mov r8, r8)
    165c:	00008005 	.word	0x00008005
    1660:	00006c09 	.word	0x00006c09
    1664:	40ed4c00 	.word	0x40ed4c00
    1668:	0000819d 	.word	0x0000819d
    166c:	00006549 	.word	0x00006549
    1670:	000061d1 	.word	0x000061d1
    1674:	000055f9 	.word	0x000055f9
    1678:	00001511 	.word	0x00001511
    167c:	9999999a 	.word	0x9999999a
    1680:	3fb99999 	.word	0x3fb99999
    1684:	00007471 	.word	0x00007471
    1688:	000080f9 	.word	0x000080f9
    168c:	3ff00000 	.word	0x3ff00000
    1690:	000065e9 	.word	0x000065e9
    1694:	00007f9d 	.word	0x00007f9d
    1698:	00006509 	.word	0x00006509
    169c:	00005f91 	.word	0x00005f91

000016a0 <run_controller>:
    16a0:	b5f0      	push	{r4, r5, r6, r7, lr}
    16a2:	4b85      	ldr	r3, [pc, #532]	; (18b8 <run_controller+0x218>)
    16a4:	b089      	sub	sp, #36	; 0x24
    16a6:	9201      	str	r2, [sp, #4]
    16a8:	0007      	movs	r7, r0
    16aa:	000c      	movs	r4, r1
    16ac:	4798      	blx	r3
    16ae:	4b83      	ldr	r3, [pc, #524]	; (18bc <run_controller+0x21c>)
    16b0:	781a      	ldrb	r2, [r3, #0]
    16b2:	4b83      	ldr	r3, [pc, #524]	; (18c0 <run_controller+0x220>)
    16b4:	2a00      	cmp	r2, #0
    16b6:	d103      	bne.n	16c0 <run_controller+0x20>
    16b8:	7d3a      	ldrb	r2, [r7, #20]
    16ba:	07d2      	lsls	r2, r2, #31
    16bc:	d500      	bpl.n	16c0 <run_controller+0x20>
    16be:	6018      	str	r0, [r3, #0]
    16c0:	681b      	ldr	r3, [r3, #0]
    16c2:	6826      	ldr	r6, [r4, #0]
    16c4:	9302      	str	r3, [sp, #8]
    16c6:	1ac5      	subs	r5, r0, r3
    16c8:	42b5      	cmp	r5, r6
    16ca:	da1d      	bge.n	1708 <run_controller+0x68>
    16cc:	68bb      	ldr	r3, [r7, #8]
    16ce:	6123      	str	r3, [r4, #16]
    16d0:	68ba      	ldr	r2, [r7, #8]
    16d2:	9303      	str	r3, [sp, #12]
    16d4:	68fb      	ldr	r3, [r7, #12]
    16d6:	1a98      	subs	r0, r3, r2
    16d8:	4b7a      	ldr	r3, [pc, #488]	; (18c4 <run_controller+0x224>)
    16da:	4798      	blx	r3
    16dc:	4b79      	ldr	r3, [pc, #484]	; (18c4 <run_controller+0x224>)
    16de:	9004      	str	r0, [sp, #16]
    16e0:	0028      	movs	r0, r5
    16e2:	4798      	blx	r3
    16e4:	4b77      	ldr	r3, [pc, #476]	; (18c4 <run_controller+0x224>)
    16e6:	1c05      	adds	r5, r0, #0
    16e8:	0030      	movs	r0, r6
    16ea:	4798      	blx	r3
    16ec:	4b76      	ldr	r3, [pc, #472]	; (18c8 <run_controller+0x228>)
    16ee:	1c01      	adds	r1, r0, #0
    16f0:	1c28      	adds	r0, r5, #0
    16f2:	4798      	blx	r3
    16f4:	4b75      	ldr	r3, [pc, #468]	; (18cc <run_controller+0x22c>)
    16f6:	1c01      	adds	r1, r0, #0
    16f8:	9804      	ldr	r0, [sp, #16]
    16fa:	4798      	blx	r3
    16fc:	4b74      	ldr	r3, [pc, #464]	; (18d0 <run_controller+0x230>)
    16fe:	4798      	blx	r3
    1700:	9b03      	ldr	r3, [sp, #12]
    1702:	18c0      	adds	r0, r0, r3
    1704:	6120      	str	r0, [r4, #16]
    1706:	e006      	b.n	1716 <run_controller+0x76>
    1708:	6863      	ldr	r3, [r4, #4]
    170a:	18f0      	adds	r0, r6, r3
    170c:	4285      	cmp	r5, r0
    170e:	db00      	blt.n	1712 <run_controller+0x72>
    1710:	e0a0      	b.n	1854 <run_controller+0x1b4>
    1712:	68fb      	ldr	r3, [r7, #12]
    1714:	6123      	str	r3, [r4, #16]
    1716:	9a02      	ldr	r2, [sp, #8]
    1718:	4b69      	ldr	r3, [pc, #420]	; (18c0 <run_controller+0x220>)
    171a:	6960      	ldr	r0, [r4, #20]
    171c:	601a      	str	r2, [r3, #0]
    171e:	6923      	ldr	r3, [r4, #16]
    1720:	9303      	str	r3, [sp, #12]
    1722:	1a18      	subs	r0, r3, r0
    1724:	4b67      	ldr	r3, [pc, #412]	; (18c4 <run_controller+0x224>)
    1726:	4798      	blx	r3
    1728:	4b6a      	ldr	r3, [pc, #424]	; (18d4 <run_controller+0x234>)
    172a:	9002      	str	r0, [sp, #8]
    172c:	6819      	ldr	r1, [r3, #0]
    172e:	4b6a      	ldr	r3, [pc, #424]	; (18d8 <run_controller+0x238>)
    1730:	4798      	blx	r3
    1732:	4b66      	ldr	r3, [pc, #408]	; (18cc <run_controller+0x22c>)
    1734:	4969      	ldr	r1, [pc, #420]	; (18dc <run_controller+0x23c>)
    1736:	4798      	blx	r3
    1738:	4d69      	ldr	r5, [pc, #420]	; (18e0 <run_controller+0x240>)
    173a:	47a8      	blx	r5
    173c:	4c69      	ldr	r4, [pc, #420]	; (18e4 <run_controller+0x244>)
    173e:	9004      	str	r0, [sp, #16]
    1740:	9105      	str	r1, [sp, #20]
    1742:	6820      	ldr	r0, [r4, #0]
    1744:	47a8      	blx	r5
    1746:	2280      	movs	r2, #128	; 0x80
    1748:	4d67      	ldr	r5, [pc, #412]	; (18e8 <run_controller+0x248>)
    174a:	05d2      	lsls	r2, r2, #23
    174c:	4b67      	ldr	r3, [pc, #412]	; (18ec <run_controller+0x24c>)
    174e:	47a8      	blx	r5
    1750:	4d67      	ldr	r5, [pc, #412]	; (18f0 <run_controller+0x250>)
    1752:	0002      	movs	r2, r0
    1754:	000b      	movs	r3, r1
    1756:	9804      	ldr	r0, [sp, #16]
    1758:	9905      	ldr	r1, [sp, #20]
    175a:	47a8      	blx	r5
    175c:	4b65      	ldr	r3, [pc, #404]	; (18f4 <run_controller+0x254>)
    175e:	4798      	blx	r3
    1760:	4d5b      	ldr	r5, [pc, #364]	; (18d0 <run_controller+0x230>)
    1762:	9004      	str	r0, [sp, #16]
    1764:	6020      	str	r0, [r4, #0]
    1766:	9802      	ldr	r0, [sp, #8]
    1768:	47a8      	blx	r5
    176a:	17c3      	asrs	r3, r0, #31
    176c:	18c0      	adds	r0, r0, r3
    176e:	4058      	eors	r0, r3
    1770:	4b54      	ldr	r3, [pc, #336]	; (18c4 <run_controller+0x224>)
    1772:	4798      	blx	r3
    1774:	9b01      	ldr	r3, [sp, #4]
    1776:	6959      	ldr	r1, [r3, #20]
    1778:	4b5f      	ldr	r3, [pc, #380]	; (18f8 <run_controller+0x258>)
    177a:	4798      	blx	r3
    177c:	4e5f      	ldr	r6, [pc, #380]	; (18fc <run_controller+0x25c>)
    177e:	2800      	cmp	r0, #0
    1780:	d100      	bne.n	1784 <run_controller+0xe4>
    1782:	e096      	b.n	18b2 <run_controller+0x212>
    1784:	6831      	ldr	r1, [r6, #0]
    1786:	4b5e      	ldr	r3, [pc, #376]	; (1900 <run_controller+0x260>)
    1788:	9802      	ldr	r0, [sp, #8]
    178a:	4798      	blx	r3
    178c:	9b01      	ldr	r3, [sp, #4]
    178e:	6030      	str	r0, [r6, #0]
    1790:	689b      	ldr	r3, [r3, #8]
    1792:	1c04      	adds	r4, r0, #0
    1794:	9306      	str	r3, [sp, #24]
    1796:	9b01      	ldr	r3, [sp, #4]
    1798:	9906      	ldr	r1, [sp, #24]
    179a:	691b      	ldr	r3, [r3, #16]
    179c:	9307      	str	r3, [sp, #28]
    179e:	4b4b      	ldr	r3, [pc, #300]	; (18cc <run_controller+0x22c>)
    17a0:	4798      	blx	r3
    17a2:	47a8      	blx	r5
    17a4:	17c3      	asrs	r3, r0, #31
    17a6:	18c0      	adds	r0, r0, r3
    17a8:	4058      	eors	r0, r3
    17aa:	4b46      	ldr	r3, [pc, #280]	; (18c4 <run_controller+0x224>)
    17ac:	4798      	blx	r3
    17ae:	9907      	ldr	r1, [sp, #28]
    17b0:	4b54      	ldr	r3, [pc, #336]	; (1904 <run_controller+0x264>)
    17b2:	4798      	blx	r3
    17b4:	2800      	cmp	r0, #0
    17b6:	d010      	beq.n	17da <run_controller+0x13a>
    17b8:	1c20      	adds	r0, r4, #0
    17ba:	47a8      	blx	r5
    17bc:	17c3      	asrs	r3, r0, #31
    17be:	18c0      	adds	r0, r0, r3
    17c0:	4058      	eors	r0, r3
    17c2:	4b40      	ldr	r3, [pc, #256]	; (18c4 <run_controller+0x224>)
    17c4:	4798      	blx	r3
    17c6:	4d40      	ldr	r5, [pc, #256]	; (18c8 <run_controller+0x228>)
    17c8:	1c01      	adds	r1, r0, #0
    17ca:	1c20      	adds	r0, r4, #0
    17cc:	47a8      	blx	r5
    17ce:	9907      	ldr	r1, [sp, #28]
    17d0:	4b3e      	ldr	r3, [pc, #248]	; (18cc <run_controller+0x22c>)
    17d2:	4798      	blx	r3
    17d4:	9906      	ldr	r1, [sp, #24]
    17d6:	47a8      	blx	r5
    17d8:	6030      	str	r0, [r6, #0]
    17da:	4b3a      	ldr	r3, [pc, #232]	; (18c4 <run_controller+0x224>)
    17dc:	9803      	ldr	r0, [sp, #12]
    17de:	4798      	blx	r3
    17e0:	9b01      	ldr	r3, [sp, #4]
    17e2:	4c3a      	ldr	r4, [pc, #232]	; (18cc <run_controller+0x22c>)
    17e4:	6819      	ldr	r1, [r3, #0]
    17e6:	47a0      	blx	r4
    17e8:	9b01      	ldr	r3, [sp, #4]
    17ea:	1c06      	adds	r6, r0, #0
    17ec:	6859      	ldr	r1, [r3, #4]
    17ee:	9802      	ldr	r0, [sp, #8]
    17f0:	47a0      	blx	r4
    17f2:	4d43      	ldr	r5, [pc, #268]	; (1900 <run_controller+0x260>)
    17f4:	1c01      	adds	r1, r0, #0
    17f6:	1c30      	adds	r0, r6, #0
    17f8:	47a8      	blx	r5
    17fa:	4b40      	ldr	r3, [pc, #256]	; (18fc <run_controller+0x25c>)
    17fc:	1c06      	adds	r6, r0, #0
    17fe:	6819      	ldr	r1, [r3, #0]
    1800:	9b01      	ldr	r3, [sp, #4]
    1802:	6898      	ldr	r0, [r3, #8]
    1804:	47a0      	blx	r4
    1806:	1c01      	adds	r1, r0, #0
    1808:	1c30      	adds	r0, r6, #0
    180a:	47a8      	blx	r5
    180c:	9b01      	ldr	r3, [sp, #4]
    180e:	1c06      	adds	r6, r0, #0
    1810:	68d9      	ldr	r1, [r3, #12]
    1812:	9804      	ldr	r0, [sp, #16]
    1814:	47a0      	blx	r4
    1816:	1c01      	adds	r1, r0, #0
    1818:	1c30      	adds	r0, r6, #0
    181a:	47a8      	blx	r5
    181c:	9b01      	ldr	r3, [sp, #4]
    181e:	4d39      	ldr	r5, [pc, #228]	; (1904 <run_controller+0x264>)
    1820:	699e      	ldr	r6, [r3, #24]
    1822:	1c04      	adds	r4, r0, #0
    1824:	1c31      	adds	r1, r6, #0
    1826:	47a8      	blx	r5
    1828:	2800      	cmp	r0, #0
    182a:	d000      	beq.n	182e <run_controller+0x18e>
    182c:	1c34      	adds	r4, r6, #0
    182e:	9b01      	ldr	r3, [sp, #4]
    1830:	1c21      	adds	r1, r4, #0
    1832:	69de      	ldr	r6, [r3, #28]
    1834:	1c30      	adds	r0, r6, #0
    1836:	47a8      	blx	r5
    1838:	2800      	cmp	r0, #0
    183a:	d000      	beq.n	183e <run_controller+0x19e>
    183c:	1c34      	adds	r4, r6, #0
    183e:	4b25      	ldr	r3, [pc, #148]	; (18d4 <run_controller+0x234>)
    1840:	9a02      	ldr	r2, [sp, #8]
    1842:	1c20      	adds	r0, r4, #0
    1844:	601a      	str	r2, [r3, #0]
    1846:	2201      	movs	r2, #1
    1848:	7d3b      	ldrb	r3, [r7, #20]
    184a:	4013      	ands	r3, r2
    184c:	4a1b      	ldr	r2, [pc, #108]	; (18bc <run_controller+0x21c>)
    184e:	7013      	strb	r3, [r2, #0]
    1850:	b009      	add	sp, #36	; 0x24
    1852:	bdf0      	pop	{r4, r5, r6, r7, pc}
    1854:	68a6      	ldr	r6, [r4, #8]
    1856:	1983      	adds	r3, r0, r6
    1858:	429d      	cmp	r5, r3
    185a:	da1f      	bge.n	189c <run_controller+0x1fc>
    185c:	68fb      	ldr	r3, [r7, #12]
    185e:	1a28      	subs	r0, r5, r0
    1860:	9303      	str	r3, [sp, #12]
    1862:	4d18      	ldr	r5, [pc, #96]	; (18c4 <run_controller+0x224>)
    1864:	6123      	str	r3, [r4, #16]
    1866:	47a8      	blx	r5
    1868:	9004      	str	r0, [sp, #16]
    186a:	0030      	movs	r0, r6
    186c:	47a8      	blx	r5
    186e:	4b16      	ldr	r3, [pc, #88]	; (18c8 <run_controller+0x228>)
    1870:	1c01      	adds	r1, r0, #0
    1872:	9804      	ldr	r0, [sp, #16]
    1874:	4798      	blx	r3
    1876:	68fa      	ldr	r2, [r7, #12]
    1878:	68bb      	ldr	r3, [r7, #8]
    187a:	1c06      	adds	r6, r0, #0
    187c:	1a98      	subs	r0, r3, r2
    187e:	47a8      	blx	r5
    1880:	4b12      	ldr	r3, [pc, #72]	; (18cc <run_controller+0x22c>)
    1882:	1c01      	adds	r1, r0, #0
    1884:	1c30      	adds	r0, r6, #0
    1886:	4798      	blx	r3
    1888:	1c06      	adds	r6, r0, #0
    188a:	9803      	ldr	r0, [sp, #12]
    188c:	47a8      	blx	r5
    188e:	4b1c      	ldr	r3, [pc, #112]	; (1900 <run_controller+0x260>)
    1890:	1c01      	adds	r1, r0, #0
    1892:	1c30      	adds	r0, r6, #0
    1894:	4798      	blx	r3
    1896:	4b0e      	ldr	r3, [pc, #56]	; (18d0 <run_controller+0x230>)
    1898:	4798      	blx	r3
    189a:	e733      	b.n	1704 <run_controller+0x64>
    189c:	68e2      	ldr	r2, [r4, #12]
    189e:	189b      	adds	r3, r3, r2
    18a0:	68ba      	ldr	r2, [r7, #8]
    18a2:	6122      	str	r2, [r4, #16]
    18a4:	429d      	cmp	r5, r3
    18a6:	da00      	bge.n	18aa <run_controller+0x20a>
    18a8:	e735      	b.n	1716 <run_controller+0x76>
    18aa:	9a02      	ldr	r2, [sp, #8]
    18ac:	18d3      	adds	r3, r2, r3
    18ae:	9302      	str	r3, [sp, #8]
    18b0:	e731      	b.n	1716 <run_controller+0x76>
    18b2:	2300      	movs	r3, #0
    18b4:	6033      	str	r3, [r6, #0]
    18b6:	e790      	b.n	17da <run_controller+0x13a>
    18b8:	0000355d 	.word	0x0000355d
    18bc:	20004f2c 	.word	0x20004f2c
    18c0:	20004f28 	.word	0x20004f28
    18c4:	00006549 	.word	0x00006549
    18c8:	00005bb1 	.word	0x00005bb1
    18cc:	00005f91 	.word	0x00005f91
    18d0:	00006509 	.word	0x00006509
    18d4:	20004f24 	.word	0x20004f24
    18d8:	000061d1 	.word	0x000061d1
    18dc:	3f333333 	.word	0x3f333333
    18e0:	000080f9 	.word	0x000080f9
    18e4:	20004f1c 	.word	0x20004f1c
    18e8:	00007471 	.word	0x00007471
    18ec:	3fd33333 	.word	0x3fd33333
    18f0:	000065e9 	.word	0x000065e9
    18f4:	0000819d 	.word	0x0000819d
    18f8:	000055f9 	.word	0x000055f9
    18fc:	20004f20 	.word	0x20004f20
    1900:	0000588d 	.word	0x0000588d
    1904:	00005621 	.word	0x00005621

00001908 <crc_8>:
    1908:	b510      	push	{r4, lr}
    190a:	1e03      	subs	r3, r0, #0
    190c:	d004      	beq.n	1918 <crc_8+0x10>
    190e:	1841      	adds	r1, r0, r1
    1910:	2000      	movs	r0, #0
    1912:	4a04      	ldr	r2, [pc, #16]	; (1924 <crc_8+0x1c>)
    1914:	428b      	cmp	r3, r1
    1916:	d100      	bne.n	191a <crc_8+0x12>
    1918:	bd10      	pop	{r4, pc}
    191a:	781c      	ldrb	r4, [r3, #0]
    191c:	3301      	adds	r3, #1
    191e:	4060      	eors	r0, r4
    1920:	5c10      	ldrb	r0, [r2, r0]
    1922:	e7f7      	b.n	1914 <crc_8+0xc>
    1924:	00008c64 	.word	0x00008c64

00001928 <dummy_spi_cb>:
    1928:	4770      	bx	lr
	...

0000192c <parameter_load_cb>:
    192c:	b570      	push	{r4, r5, r6, lr}
    192e:	0004      	movs	r4, r0
    1930:	b086      	sub	sp, #24
    1932:	2916      	cmp	r1, #22
    1934:	d127      	bne.n	1986 <parameter_load_cb+0x5a>
    1936:	7d45      	ldrb	r5, [r0, #21]
    1938:	3904      	subs	r1, #4
    193a:	3003      	adds	r0, #3
    193c:	4b13      	ldr	r3, [pc, #76]	; (198c <parameter_load_cb+0x60>)
    193e:	4798      	blx	r3
    1940:	4285      	cmp	r5, r0
    1942:	d120      	bne.n	1986 <parameter_load_cb+0x5a>
    1944:	2101      	movs	r1, #1
    1946:	ad01      	add	r5, sp, #4
    1948:	782b      	ldrb	r3, [r5, #0]
    194a:	78e2      	ldrb	r2, [r4, #3]
    194c:	438b      	bics	r3, r1
    194e:	400a      	ands	r2, r1
    1950:	4313      	orrs	r3, r2
    1952:	702b      	strb	r3, [r5, #0]
    1954:	7923      	ldrb	r3, [r4, #4]
    1956:	4e0e      	ldr	r6, [pc, #56]	; (1990 <parameter_load_cb+0x64>)
    1958:	1d61      	adds	r1, r4, #5
    195a:	2204      	movs	r2, #4
    195c:	a802      	add	r0, sp, #8
    195e:	706b      	strb	r3, [r5, #1]
    1960:	47b0      	blx	r6
    1962:	0021      	movs	r1, r4
    1964:	2204      	movs	r2, #4
    1966:	3109      	adds	r1, #9
    1968:	a803      	add	r0, sp, #12
    196a:	47b0      	blx	r6
    196c:	0021      	movs	r1, r4
    196e:	2204      	movs	r2, #4
    1970:	310d      	adds	r1, #13
    1972:	a804      	add	r0, sp, #16
    1974:	47b0      	blx	r6
    1976:	0021      	movs	r1, r4
    1978:	2204      	movs	r2, #4
    197a:	3111      	adds	r1, #17
    197c:	a805      	add	r0, sp, #20
    197e:	47b0      	blx	r6
    1980:	0028      	movs	r0, r5
    1982:	4b04      	ldr	r3, [pc, #16]	; (1994 <parameter_load_cb+0x68>)
    1984:	4798      	blx	r3
    1986:	b006      	add	sp, #24
    1988:	bd70      	pop	{r4, r5, r6, pc}
    198a:	46c0      	nop			; (mov r8, r8)
    198c:	00001909 	.word	0x00001909
    1990:	0000834d 	.word	0x0000834d
    1994:	000022b5 	.word	0x000022b5

00001998 <fram_init>:
    1998:	b573      	push	{r0, r1, r4, r5, r6, lr}
    199a:	4b0f      	ldr	r3, [pc, #60]	; (19d8 <fram_init+0x40>)
    199c:	4798      	blx	r3
    199e:	2400      	movs	r4, #0
    19a0:	200b      	movs	r0, #11
    19a2:	2501      	movs	r5, #1
    19a4:	4e0d      	ldr	r6, [pc, #52]	; (19dc <fram_init+0x44>)
    19a6:	a901      	add	r1, sp, #4
    19a8:	4b0d      	ldr	r3, [pc, #52]	; (19e0 <fram_init+0x48>)
    19aa:	704d      	strb	r5, [r1, #1]
    19ac:	708c      	strb	r4, [r1, #2]
    19ae:	700d      	strb	r5, [r1, #0]
    19b0:	7030      	strb	r0, [r6, #0]
    19b2:	7074      	strb	r4, [r6, #1]
    19b4:	70b4      	strb	r4, [r6, #2]
    19b6:	4798      	blx	r3
    19b8:	7832      	ldrb	r2, [r6, #0]
    19ba:	0953      	lsrs	r3, r2, #5
    19bc:	09d1      	lsrs	r1, r2, #7
    19be:	42a1      	cmp	r1, r4
    19c0:	d107      	bne.n	19d2 <fram_init+0x3a>
    19c2:	211f      	movs	r1, #31
    19c4:	400a      	ands	r2, r1
    19c6:	4095      	lsls	r5, r2
    19c8:	4a06      	ldr	r2, [pc, #24]	; (19e4 <fram_init+0x4c>)
    19ca:	01db      	lsls	r3, r3, #7
    19cc:	189b      	adds	r3, r3, r2
    19ce:	619d      	str	r5, [r3, #24]
    19d0:	bd73      	pop	{r0, r1, r4, r5, r6, pc}
    19d2:	61a4      	str	r4, [r4, #24]
    19d4:	deff      	udf	#255	; 0xff
    19d6:	46c0      	nop			; (mov r8, r8)
    19d8:	00001ff5 	.word	0x00001ff5
    19dc:	20004f2d 	.word	0x20004f2d
    19e0:	00004899 	.word	0x00004899
    19e4:	41004400 	.word	0x41004400

000019e8 <fram_load_parameters_asynch>:
    19e8:	2203      	movs	r2, #3
    19ea:	2100      	movs	r1, #0
    19ec:	b510      	push	{r4, lr}
    19ee:	b08a      	sub	sp, #40	; 0x28
    19f0:	ab04      	add	r3, sp, #16
    19f2:	701a      	strb	r2, [r3, #0]
    19f4:	7059      	strb	r1, [r3, #1]
    19f6:	7099      	strb	r1, [r3, #2]
    19f8:	9301      	str	r3, [sp, #4]
    19fa:	2316      	movs	r3, #22
    19fc:	9302      	str	r3, [sp, #8]
    19fe:	4b07      	ldr	r3, [pc, #28]	; (1a1c <fram_load_parameters_asynch+0x34>)
    1a00:	4907      	ldr	r1, [pc, #28]	; (1a20 <fram_load_parameters_asynch+0x38>)
    1a02:	9303      	str	r3, [sp, #12]
    1a04:	4668      	mov	r0, sp
    1a06:	4b07      	ldr	r3, [pc, #28]	; (1a24 <fram_load_parameters_asynch+0x3c>)
    1a08:	4798      	blx	r3
    1a0a:	9800      	ldr	r0, [sp, #0]
    1a0c:	9901      	ldr	r1, [sp, #4]
    1a0e:	9a02      	ldr	r2, [sp, #8]
    1a10:	9b03      	ldr	r3, [sp, #12]
    1a12:	4c05      	ldr	r4, [pc, #20]	; (1a28 <fram_load_parameters_asynch+0x40>)
    1a14:	47a0      	blx	r4
    1a16:	b00a      	add	sp, #40	; 0x28
    1a18:	bd10      	pop	{r4, pc}
    1a1a:	46c0      	nop			; (mov r8, r8)
    1a1c:	0000192d 	.word	0x0000192d
    1a20:	20004f2d 	.word	0x20004f2d
    1a24:	0000834d 	.word	0x0000834d
    1a28:	000020a5 	.word	0x000020a5

00001a2c <fram_save_parameters_asynch>:
    1a2c:	b5f0      	push	{r4, r5, r6, r7, lr}
    1a2e:	b08b      	sub	sp, #44	; 0x2c
    1a30:	466a      	mov	r2, sp
    1a32:	2306      	movs	r3, #6
    1a34:	7013      	strb	r3, [r2, #0]
    1a36:	2301      	movs	r3, #1
    1a38:	ac04      	add	r4, sp, #16
    1a3a:	9306      	str	r3, [sp, #24]
    1a3c:	4b2d      	ldr	r3, [pc, #180]	; (1af4 <fram_save_parameters_asynch+0xc8>)
    1a3e:	0006      	movs	r6, r0
    1a40:	4f2d      	ldr	r7, [pc, #180]	; (1af8 <fram_save_parameters_asynch+0xcc>)
    1a42:	9205      	str	r2, [sp, #20]
    1a44:	492d      	ldr	r1, [pc, #180]	; (1afc <fram_save_parameters_asynch+0xd0>)
    1a46:	2203      	movs	r2, #3
    1a48:	0020      	movs	r0, r4
    1a4a:	9307      	str	r3, [sp, #28]
    1a4c:	47b8      	blx	r7
    1a4e:	6861      	ldr	r1, [r4, #4]
    1a50:	68a2      	ldr	r2, [r4, #8]
    1a52:	68e3      	ldr	r3, [r4, #12]
    1a54:	9804      	ldr	r0, [sp, #16]
    1a56:	4d2a      	ldr	r5, [pc, #168]	; (1b00 <fram_save_parameters_asynch+0xd4>)
    1a58:	47a8      	blx	r5
    1a5a:	4b2a      	ldr	r3, [pc, #168]	; (1b04 <fram_save_parameters_asynch+0xd8>)
    1a5c:	2000      	movs	r0, #0
    1a5e:	4798      	blx	r3
    1a60:	4d29      	ldr	r5, [pc, #164]	; (1b08 <fram_save_parameters_asynch+0xdc>)
    1a62:	2232      	movs	r2, #50	; 0x32
    1a64:	2300      	movs	r3, #0
    1a66:	2100      	movs	r1, #0
    1a68:	47a8      	blx	r5
    1a6a:	2300      	movs	r3, #0
    1a6c:	4a27      	ldr	r2, [pc, #156]	; (1b0c <fram_save_parameters_asynch+0xe0>)
    1a6e:	4d28      	ldr	r5, [pc, #160]	; (1b10 <fram_save_parameters_asynch+0xe4>)
    1a70:	1880      	adds	r0, r0, r2
    1a72:	4159      	adcs	r1, r3
    1a74:	4a27      	ldr	r2, [pc, #156]	; (1b14 <fram_save_parameters_asynch+0xe8>)
    1a76:	2300      	movs	r3, #0
    1a78:	47a8      	blx	r5
    1a7a:	4b27      	ldr	r3, [pc, #156]	; (1b18 <fram_save_parameters_asynch+0xec>)
    1a7c:	4798      	blx	r3
    1a7e:	2302      	movs	r3, #2
    1a80:	7023      	strb	r3, [r4, #0]
    1a82:	2300      	movs	r3, #0
    1a84:	7063      	strb	r3, [r4, #1]
    1a86:	2300      	movs	r3, #0
    1a88:	2504      	movs	r5, #4
    1a8a:	2015      	movs	r0, #21
    1a8c:	70a3      	strb	r3, [r4, #2]
    1a8e:	7833      	ldrb	r3, [r6, #0]
    1a90:	1d31      	adds	r1, r6, #4
    1a92:	07db      	lsls	r3, r3, #31
    1a94:	0fdb      	lsrs	r3, r3, #31
    1a96:	70e3      	strb	r3, [r4, #3]
    1a98:	7873      	ldrb	r3, [r6, #1]
    1a9a:	002a      	movs	r2, r5
    1a9c:	4468      	add	r0, sp
    1a9e:	7123      	strb	r3, [r4, #4]
    1aa0:	47b8      	blx	r7
    1aa2:	0031      	movs	r1, r6
    1aa4:	2019      	movs	r0, #25
    1aa6:	002a      	movs	r2, r5
    1aa8:	3108      	adds	r1, #8
    1aaa:	4468      	add	r0, sp
    1aac:	47b8      	blx	r7
    1aae:	0031      	movs	r1, r6
    1ab0:	201d      	movs	r0, #29
    1ab2:	002a      	movs	r2, r5
    1ab4:	310c      	adds	r1, #12
    1ab6:	4468      	add	r0, sp
    1ab8:	47b8      	blx	r7
    1aba:	0031      	movs	r1, r6
    1abc:	2021      	movs	r0, #33	; 0x21
    1abe:	002a      	movs	r2, r5
    1ac0:	3110      	adds	r1, #16
    1ac2:	4468      	add	r0, sp
    1ac4:	47b8      	blx	r7
    1ac6:	2013      	movs	r0, #19
    1ac8:	2112      	movs	r1, #18
    1aca:	4468      	add	r0, sp
    1acc:	4b13      	ldr	r3, [pc, #76]	; (1b1c <fram_save_parameters_asynch+0xf0>)
    1ace:	4798      	blx	r3
    1ad0:	2316      	movs	r3, #22
    1ad2:	9302      	str	r3, [sp, #8]
    1ad4:	4b07      	ldr	r3, [pc, #28]	; (1af4 <fram_save_parameters_asynch+0xc8>)
    1ad6:	7560      	strb	r0, [r4, #21]
    1ad8:	2203      	movs	r2, #3
    1ada:	4908      	ldr	r1, [pc, #32]	; (1afc <fram_save_parameters_asynch+0xd0>)
    1adc:	4668      	mov	r0, sp
    1ade:	9401      	str	r4, [sp, #4]
    1ae0:	9303      	str	r3, [sp, #12]
    1ae2:	47b8      	blx	r7
    1ae4:	9800      	ldr	r0, [sp, #0]
    1ae6:	9901      	ldr	r1, [sp, #4]
    1ae8:	9a02      	ldr	r2, [sp, #8]
    1aea:	9b03      	ldr	r3, [sp, #12]
    1aec:	4c04      	ldr	r4, [pc, #16]	; (1b00 <fram_save_parameters_asynch+0xd4>)
    1aee:	47a0      	blx	r4
    1af0:	b00b      	add	sp, #44	; 0x2c
    1af2:	bdf0      	pop	{r4, r5, r6, r7, pc}
    1af4:	00001929 	.word	0x00001929
    1af8:	0000834d 	.word	0x0000834d
    1afc:	20004f2d 	.word	0x20004f2d
    1b00:	000020a5 	.word	0x000020a5
    1b04:	00005049 	.word	0x00005049
    1b08:	00005689 	.word	0x00005689
    1b0c:	006acfbf 	.word	0x006acfbf
    1b10:	00005649 	.word	0x00005649
    1b14:	006acfc0 	.word	0x006acfc0
    1b18:	20000001 	.word	0x20000001
    1b1c:	00001909 	.word	0x00001909

00001b20 <send_buffer>:
    1b20:	b5f0      	push	{r4, r5, r6, r7, lr}
    1b22:	b085      	sub	sp, #20
    1b24:	2800      	cmp	r0, #0
    1b26:	d15f      	bne.n	1be8 <send_buffer+0xc8>
    1b28:	4e32      	ldr	r6, [pc, #200]	; (1bf4 <send_buffer+0xd4>)
    1b2a:	4c33      	ldr	r4, [pc, #204]	; (1bf8 <send_buffer+0xd8>)
    1b2c:	4d33      	ldr	r5, [pc, #204]	; (1bfc <send_buffer+0xdc>)
    1b2e:	0021      	movs	r1, r4
    1b30:	2214      	movs	r2, #20
    1b32:	0030      	movs	r0, r6
    1b34:	47a8      	blx	r5
    1b36:	0030      	movs	r0, r6
    1b38:	0021      	movs	r1, r4
    1b3a:	2214      	movs	r2, #20
    1b3c:	3128      	adds	r1, #40	; 0x28
    1b3e:	3014      	adds	r0, #20
    1b40:	47a8      	blx	r5
    1b42:	0021      	movs	r1, r4
    1b44:	4e2e      	ldr	r6, [pc, #184]	; (1c00 <send_buffer+0xe0>)
    1b46:	3114      	adds	r1, #20
    1b48:	2214      	movs	r2, #20
    1b4a:	0030      	movs	r0, r6
    1b4c:	47a8      	blx	r5
    1b4e:	0021      	movs	r1, r4
    1b50:	0030      	movs	r0, r6
    1b52:	313c      	adds	r1, #60	; 0x3c
    1b54:	3014      	adds	r0, #20
    1b56:	2214      	movs	r2, #20
    1b58:	47a8      	blx	r5
    1b5a:	2400      	movs	r4, #0
    1b5c:	2320      	movs	r3, #32
    1b5e:	4a25      	ldr	r2, [pc, #148]	; (1bf4 <send_buffer+0xd4>)
    1b60:	5ca2      	ldrb	r2, [r4, r2]
    1b62:	2a06      	cmp	r2, #6
    1b64:	d801      	bhi.n	1b6a <send_buffer+0x4a>
    1b66:	4a23      	ldr	r2, [pc, #140]	; (1bf4 <send_buffer+0xd4>)
    1b68:	54a3      	strb	r3, [r4, r2]
    1b6a:	4a25      	ldr	r2, [pc, #148]	; (1c00 <send_buffer+0xe0>)
    1b6c:	5d12      	ldrb	r2, [r2, r4]
    1b6e:	2a06      	cmp	r2, #6
    1b70:	d801      	bhi.n	1b76 <send_buffer+0x56>
    1b72:	4a23      	ldr	r2, [pc, #140]	; (1c00 <send_buffer+0xe0>)
    1b74:	5513      	strb	r3, [r2, r4]
    1b76:	3401      	adds	r4, #1
    1b78:	2c28      	cmp	r4, #40	; 0x28
    1b7a:	d1f0      	bne.n	1b5e <send_buffer+0x3e>
    1b7c:	4b21      	ldr	r3, [pc, #132]	; (1c04 <send_buffer+0xe4>)
    1b7e:	4a22      	ldr	r2, [pc, #136]	; (1c08 <send_buffer+0xe8>)
    1b80:	2500      	movs	r5, #0
    1b82:	4694      	mov	ip, r2
    1b84:	605a      	str	r2, [r3, #4]
    1b86:	2203      	movs	r2, #3
    1b88:	0018      	movs	r0, r3
    1b8a:	725d      	strb	r5, [r3, #9]
    1b8c:	721d      	strb	r5, [r3, #8]
    1b8e:	801c      	strh	r4, [r3, #0]
    1b90:	805a      	strh	r2, [r3, #2]
    1b92:	aa01      	add	r2, sp, #4
    1b94:	c8c2      	ldmia	r0!, {r1, r6, r7}
    1b96:	c2c2      	stmia	r2!, {r1, r6, r7}
    1b98:	4661      	mov	r1, ip
    1b9a:	9801      	ldr	r0, [sp, #4]
    1b9c:	689a      	ldr	r2, [r3, #8]
    1b9e:	4b1b      	ldr	r3, [pc, #108]	; (1c0c <send_buffer+0xec>)
    1ba0:	4798      	blx	r3
    1ba2:	4b1b      	ldr	r3, [pc, #108]	; (1c10 <send_buffer+0xf0>)
    1ba4:	4a13      	ldr	r2, [pc, #76]	; (1bf4 <send_buffer+0xd4>)
    1ba6:	0019      	movs	r1, r3
    1ba8:	725d      	strb	r5, [r3, #9]
    1baa:	721d      	strb	r5, [r3, #8]
    1bac:	801c      	strh	r4, [r3, #0]
    1bae:	605a      	str	r2, [r3, #4]
    1bb0:	805c      	strh	r4, [r3, #2]
    1bb2:	aa01      	add	r2, sp, #4
    1bb4:	c9c1      	ldmia	r1!, {r0, r6, r7}
    1bb6:	c2c1      	stmia	r2!, {r0, r6, r7}
    1bb8:	490e      	ldr	r1, [pc, #56]	; (1bf4 <send_buffer+0xd4>)
    1bba:	9801      	ldr	r0, [sp, #4]
    1bbc:	689a      	ldr	r2, [r3, #8]
    1bbe:	4b13      	ldr	r3, [pc, #76]	; (1c0c <send_buffer+0xec>)
    1bc0:	4798      	blx	r3
    1bc2:	4b14      	ldr	r3, [pc, #80]	; (1c14 <send_buffer+0xf4>)
    1bc4:	4a0e      	ldr	r2, [pc, #56]	; (1c00 <send_buffer+0xe0>)
    1bc6:	0019      	movs	r1, r3
    1bc8:	605a      	str	r2, [r3, #4]
    1bca:	725d      	strb	r5, [r3, #9]
    1bcc:	721d      	strb	r5, [r3, #8]
    1bce:	801c      	strh	r4, [r3, #0]
    1bd0:	805c      	strh	r4, [r3, #2]
    1bd2:	aa01      	add	r2, sp, #4
    1bd4:	c931      	ldmia	r1!, {r0, r4, r5}
    1bd6:	c231      	stmia	r2!, {r0, r4, r5}
    1bd8:	4909      	ldr	r1, [pc, #36]	; (1c00 <send_buffer+0xe0>)
    1bda:	689a      	ldr	r2, [r3, #8]
    1bdc:	9801      	ldr	r0, [sp, #4]
    1bde:	4b0b      	ldr	r3, [pc, #44]	; (1c0c <send_buffer+0xec>)
    1be0:	4798      	blx	r3
    1be2:	2000      	movs	r0, #0
    1be4:	b005      	add	sp, #20
    1be6:	bdf0      	pop	{r4, r5, r6, r7, pc}
    1be8:	2801      	cmp	r0, #1
    1bea:	d1fa      	bne.n	1be2 <send_buffer+0xc2>
    1bec:	4e01      	ldr	r6, [pc, #4]	; (1bf4 <send_buffer+0xd4>)
    1bee:	4c0a      	ldr	r4, [pc, #40]	; (1c18 <send_buffer+0xf8>)
    1bf0:	e79c      	b.n	1b2c <send_buffer+0xc>
    1bf2:	46c0      	nop			; (mov r8, r8)
    1bf4:	20004faa 	.word	0x20004faa
    1bf8:	20004ffa 	.word	0x20004ffa
    1bfc:	0000834d 	.word	0x0000834d
    1c00:	20004fd2 	.word	0x20004fd2
    1c04:	20004f98 	.word	0x20004f98
    1c08:	20000010 	.word	0x20000010
    1c0c:	000026dd 	.word	0x000026dd
    1c10:	20005058 	.word	0x20005058
    1c14:	20005064 	.word	0x20005064
    1c18:	20004f30 	.word	0x20004f30

00001c1c <set_contrast>:
    1c1c:	b57f      	push	{r0, r1, r2, r3, r4, r5, r6, lr}
    1c1e:	1e43      	subs	r3, r0, #1
    1c20:	2200      	movs	r2, #0
    1c22:	2b31      	cmp	r3, #49	; 0x31
    1c24:	d816      	bhi.n	1c54 <set_contrast+0x38>
    1c26:	23fe      	movs	r3, #254	; 0xfe
    1c28:	490c      	ldr	r1, [pc, #48]	; (1c5c <set_contrast+0x40>)
    1c2a:	7088      	strb	r0, [r1, #2]
    1c2c:	2028      	movs	r0, #40	; 0x28
    1c2e:	700b      	strb	r3, [r1, #0]
    1c30:	3bac      	subs	r3, #172	; 0xac
    1c32:	704b      	strb	r3, [r1, #1]
    1c34:	4b0a      	ldr	r3, [pc, #40]	; (1c60 <set_contrast+0x44>)
    1c36:	8018      	strh	r0, [r3, #0]
    1c38:	3825      	subs	r0, #37	; 0x25
    1c3a:	8058      	strh	r0, [r3, #2]
    1c3c:	0018      	movs	r0, r3
    1c3e:	725a      	strb	r2, [r3, #9]
    1c40:	721a      	strb	r2, [r3, #8]
    1c42:	6059      	str	r1, [r3, #4]
    1c44:	aa01      	add	r2, sp, #4
    1c46:	c870      	ldmia	r0!, {r4, r5, r6}
    1c48:	c270      	stmia	r2!, {r4, r5, r6}
    1c4a:	689a      	ldr	r2, [r3, #8]
    1c4c:	9801      	ldr	r0, [sp, #4]
    1c4e:	4b05      	ldr	r3, [pc, #20]	; (1c64 <set_contrast+0x48>)
    1c50:	4798      	blx	r3
    1c52:	2201      	movs	r2, #1
    1c54:	0010      	movs	r0, r2
    1c56:	b004      	add	sp, #16
    1c58:	bd70      	pop	{r4, r5, r6, pc}
    1c5a:	46c0      	nop			; (mov r8, r8)
    1c5c:	20004fa4 	.word	0x20004fa4
    1c60:	20004f8c 	.word	0x20004f8c
    1c64:	000026dd 	.word	0x000026dd

00001c68 <set_backlight>:
    1c68:	b57f      	push	{r0, r1, r2, r3, r4, r5, r6, lr}
    1c6a:	1e43      	subs	r3, r0, #1
    1c6c:	2200      	movs	r2, #0
    1c6e:	2b07      	cmp	r3, #7
    1c70:	d816      	bhi.n	1ca0 <set_backlight+0x38>
    1c72:	23fe      	movs	r3, #254	; 0xfe
    1c74:	490c      	ldr	r1, [pc, #48]	; (1ca8 <set_backlight+0x40>)
    1c76:	7088      	strb	r0, [r1, #2]
    1c78:	2028      	movs	r0, #40	; 0x28
    1c7a:	700b      	strb	r3, [r1, #0]
    1c7c:	3bab      	subs	r3, #171	; 0xab
    1c7e:	704b      	strb	r3, [r1, #1]
    1c80:	4b0a      	ldr	r3, [pc, #40]	; (1cac <set_backlight+0x44>)
    1c82:	8018      	strh	r0, [r3, #0]
    1c84:	3825      	subs	r0, #37	; 0x25
    1c86:	8058      	strh	r0, [r3, #2]
    1c88:	0018      	movs	r0, r3
    1c8a:	725a      	strb	r2, [r3, #9]
    1c8c:	721a      	strb	r2, [r3, #8]
    1c8e:	6059      	str	r1, [r3, #4]
    1c90:	aa01      	add	r2, sp, #4
    1c92:	c870      	ldmia	r0!, {r4, r5, r6}
    1c94:	c270      	stmia	r2!, {r4, r5, r6}
    1c96:	689a      	ldr	r2, [r3, #8]
    1c98:	9801      	ldr	r0, [sp, #4]
    1c9a:	4b05      	ldr	r3, [pc, #20]	; (1cb0 <set_backlight+0x48>)
    1c9c:	4798      	blx	r3
    1c9e:	2201      	movs	r2, #1
    1ca0:	0010      	movs	r0, r2
    1ca2:	b004      	add	sp, #16
    1ca4:	bd70      	pop	{r4, r5, r6, pc}
    1ca6:	46c0      	nop			; (mov r8, r8)
    1ca8:	20004fa7 	.word	0x20004fa7
    1cac:	20004f80 	.word	0x20004f80
    1cb0:	000026dd 	.word	0x000026dd

00001cb4 <lcd_init>:
    1cb4:	4b12      	ldr	r3, [pc, #72]	; (1d00 <lcd_init+0x4c>)
    1cb6:	4a13      	ldr	r2, [pc, #76]	; (1d04 <lcd_init+0x50>)
    1cb8:	b5f0      	push	{r4, r5, r6, r7, lr}
    1cba:	4694      	mov	ip, r2
    1cbc:	605a      	str	r2, [r3, #4]
    1cbe:	2400      	movs	r4, #0
    1cc0:	2528      	movs	r5, #40	; 0x28
    1cc2:	2202      	movs	r2, #2
    1cc4:	0018      	movs	r0, r3
    1cc6:	b085      	sub	sp, #20
    1cc8:	725c      	strb	r4, [r3, #9]
    1cca:	721c      	strb	r4, [r3, #8]
    1ccc:	801d      	strh	r5, [r3, #0]
    1cce:	805a      	strh	r2, [r3, #2]
    1cd0:	aa01      	add	r2, sp, #4
    1cd2:	c8c2      	ldmia	r0!, {r1, r6, r7}
    1cd4:	c2c2      	stmia	r2!, {r1, r6, r7}
    1cd6:	4661      	mov	r1, ip
    1cd8:	689a      	ldr	r2, [r3, #8]
    1cda:	9801      	ldr	r0, [sp, #4]
    1cdc:	4b0a      	ldr	r3, [pc, #40]	; (1d08 <lcd_init+0x54>)
    1cde:	4798      	blx	r3
    1ce0:	4b0a      	ldr	r3, [pc, #40]	; (1d0c <lcd_init+0x58>)
    1ce2:	2008      	movs	r0, #8
    1ce4:	4798      	blx	r3
    1ce6:	0028      	movs	r0, r5
    1ce8:	4b09      	ldr	r3, [pc, #36]	; (1d10 <lcd_init+0x5c>)
    1cea:	4798      	blx	r3
    1cec:	2213      	movs	r2, #19
    1cee:	4909      	ldr	r1, [pc, #36]	; (1d14 <lcd_init+0x60>)
    1cf0:	4b09      	ldr	r3, [pc, #36]	; (1d18 <lcd_init+0x64>)
    1cf2:	480a      	ldr	r0, [pc, #40]	; (1d1c <lcd_init+0x68>)
    1cf4:	4798      	blx	r3
    1cf6:	0020      	movs	r0, r4
    1cf8:	4b09      	ldr	r3, [pc, #36]	; (1d20 <lcd_init+0x6c>)
    1cfa:	4798      	blx	r3
    1cfc:	b005      	add	sp, #20
    1cfe:	bdf0      	pop	{r4, r5, r6, r7, pc}
    1d00:	2000504c 	.word	0x2000504c
    1d04:	20000013 	.word	0x20000013
    1d08:	000026dd 	.word	0x000026dd
    1d0c:	00001c69 	.word	0x00001c69
    1d10:	00001c1d 	.word	0x00001c1d
    1d14:	00008d64 	.word	0x00008d64
    1d18:	0000834d 	.word	0x0000834d
    1d1c:	20004ffa 	.word	0x20004ffa
    1d20:	00001b21 	.word	0x00001b21

00001d24 <update_main_buffer>:
    1d24:	b5f0      	push	{r4, r5, r6, r7, lr}
    1d26:	b08b      	sub	sp, #44	; 0x2c
    1d28:	ad05      	add	r5, sp, #20
    1d2a:	4b35      	ldr	r3, [pc, #212]	; (1e00 <update_main_buffer+0xdc>)
    1d2c:	0007      	movs	r7, r0
    1d2e:	0028      	movs	r0, r5
    1d30:	9103      	str	r1, [sp, #12]
    1d32:	4798      	blx	r3
    1d34:	786b      	ldrb	r3, [r5, #1]
    1d36:	2220      	movs	r2, #32
    1d38:	9302      	str	r3, [sp, #8]
    1d3a:	2300      	movs	r3, #0
    1d3c:	4c31      	ldr	r4, [pc, #196]	; (1e04 <update_main_buffer+0xe0>)
    1d3e:	551a      	strb	r2, [r3, r4]
    1d40:	3301      	adds	r3, #1
    1d42:	2b50      	cmp	r3, #80	; 0x50
    1d44:	d1fb      	bne.n	1d3e <update_main_buffer+0x1a>
    1d46:	782a      	ldrb	r2, [r5, #0]
    1d48:	4b2f      	ldr	r3, [pc, #188]	; (1e08 <update_main_buffer+0xe4>)
    1d4a:	4930      	ldr	r1, [pc, #192]	; (1e0c <update_main_buffer+0xe8>)
    1d4c:	07d2      	lsls	r2, r2, #31
    1d4e:	d400      	bmi.n	1d52 <update_main_buffer+0x2e>
    1d50:	492f      	ldr	r1, [pc, #188]	; (1e10 <update_main_buffer+0xec>)
    1d52:	0020      	movs	r0, r4
    1d54:	4798      	blx	r3
    1d56:	0020      	movs	r0, r4
    1d58:	4e2e      	ldr	r6, [pc, #184]	; (1e14 <update_main_buffer+0xf0>)
    1d5a:	686b      	ldr	r3, [r5, #4]
    1d5c:	4a2e      	ldr	r2, [pc, #184]	; (1e18 <update_main_buffer+0xf4>)
    1d5e:	210a      	movs	r1, #10
    1d60:	300a      	adds	r0, #10
    1d62:	47b0      	blx	r6
    1d64:	0020      	movs	r0, r4
    1d66:	4a2d      	ldr	r2, [pc, #180]	; (1e1c <update_main_buffer+0xf8>)
    1d68:	68ab      	ldr	r3, [r5, #8]
    1d6a:	210d      	movs	r1, #13
    1d6c:	3014      	adds	r0, #20
    1d6e:	47b0      	blx	r6
    1d70:	4b2b      	ldr	r3, [pc, #172]	; (1e20 <update_main_buffer+0xfc>)
    1d72:	210a      	movs	r1, #10
    1d74:	9802      	ldr	r0, [sp, #8]
    1d76:	4798      	blx	r3
    1d78:	220a      	movs	r2, #10
    1d7a:	b2c3      	uxtb	r3, r0
    1d7c:	0020      	movs	r0, r4
    1d7e:	4252      	negs	r2, r2
    1d80:	435a      	muls	r2, r3
    1d82:	9902      	ldr	r1, [sp, #8]
    1d84:	3020      	adds	r0, #32
    1d86:	188a      	adds	r2, r1, r2
    1d88:	b2d2      	uxtb	r2, r2
    1d8a:	9200      	str	r2, [sp, #0]
    1d8c:	2109      	movs	r1, #9
    1d8e:	4a25      	ldr	r2, [pc, #148]	; (1e24 <update_main_buffer+0x100>)
    1d90:	47b0      	blx	r6
    1d92:	0020      	movs	r0, r4
    1d94:	68eb      	ldr	r3, [r5, #12]
    1d96:	4a24      	ldr	r2, [pc, #144]	; (1e28 <update_main_buffer+0x104>)
    1d98:	210d      	movs	r1, #13
    1d9a:	3028      	adds	r0, #40	; 0x28
    1d9c:	47b0      	blx	r6
    1d9e:	0020      	movs	r0, r4
    1da0:	692b      	ldr	r3, [r5, #16]
    1da2:	3034      	adds	r0, #52	; 0x34
    1da4:	4a21      	ldr	r2, [pc, #132]	; (1e2c <update_main_buffer+0x108>)
    1da6:	2107      	movs	r1, #7
    1da8:	47b0      	blx	r6
    1daa:	9803      	ldr	r0, [sp, #12]
    1dac:	3801      	subs	r0, #1
    1dae:	2803      	cmp	r0, #3
    1db0:	d80a      	bhi.n	1dc8 <update_main_buffer+0xa4>
    1db2:	4c14      	ldr	r4, [pc, #80]	; (1e04 <update_main_buffer+0xe0>)
    1db4:	4d1e      	ldr	r5, [pc, #120]	; (1e30 <update_main_buffer+0x10c>)
    1db6:	f003 fb39 	bl	542c <__gnu_thumb1_case_uqi>
    1dba:	0902      	.short	0x0902
    1dbc:	130e      	.short	0x130e
    1dbe:	0020      	movs	r0, r4
    1dc0:	693a      	ldr	r2, [r7, #16]
    1dc2:	491c      	ldr	r1, [pc, #112]	; (1e34 <update_main_buffer+0x110>)
    1dc4:	303c      	adds	r0, #60	; 0x3c
    1dc6:	47a8      	blx	r5
    1dc8:	b00b      	add	sp, #44	; 0x2c
    1dca:	bdf0      	pop	{r4, r5, r6, r7, pc}
    1dcc:	0020      	movs	r0, r4
    1dce:	68ba      	ldr	r2, [r7, #8]
    1dd0:	303c      	adds	r0, #60	; 0x3c
    1dd2:	4919      	ldr	r1, [pc, #100]	; (1e38 <update_main_buffer+0x114>)
    1dd4:	e7f7      	b.n	1dc6 <update_main_buffer+0xa2>
    1dd6:	0020      	movs	r0, r4
    1dd8:	68fa      	ldr	r2, [r7, #12]
    1dda:	303c      	adds	r0, #60	; 0x3c
    1ddc:	4917      	ldr	r1, [pc, #92]	; (1e3c <update_main_buffer+0x118>)
    1dde:	e7f2      	b.n	1dc6 <update_main_buffer+0xa2>
    1de0:	787e      	ldrb	r6, [r7, #1]
    1de2:	210a      	movs	r1, #10
    1de4:	0030      	movs	r0, r6
    1de6:	4b0e      	ldr	r3, [pc, #56]	; (1e20 <update_main_buffer+0xfc>)
    1de8:	4798      	blx	r3
    1dea:	230a      	movs	r3, #10
    1dec:	b2c2      	uxtb	r2, r0
    1dee:	0020      	movs	r0, r4
    1df0:	425b      	negs	r3, r3
    1df2:	4353      	muls	r3, r2
    1df4:	18f3      	adds	r3, r6, r3
    1df6:	b2db      	uxtb	r3, r3
    1df8:	4911      	ldr	r1, [pc, #68]	; (1e40 <update_main_buffer+0x11c>)
    1dfa:	303c      	adds	r0, #60	; 0x3c
    1dfc:	47a8      	blx	r5
    1dfe:	e7e3      	b.n	1dc8 <update_main_buffer+0xa4>
    1e00:	000022a1 	.word	0x000022a1
    1e04:	20004ffa 	.word	0x20004ffa
    1e08:	00008419 	.word	0x00008419
    1e0c:	00008db1 	.word	0x00008db1
    1e10:	00008db9 	.word	0x00008db9
    1e14:	00008371 	.word	0x00008371
    1e18:	00008dc2 	.word	0x00008dc2
    1e1c:	00008de3 	.word	0x00008de3
    1e20:	00005441 	.word	0x00005441
    1e24:	00008dc9 	.word	0x00008dc9
    1e28:	00008df4 	.word	0x00008df4
    1e2c:	00008dd8 	.word	0x00008dd8
    1e30:	000083d5 	.word	0x000083d5
    1e34:	00008dd4 	.word	0x00008dd4
    1e38:	00008ddf 	.word	0x00008ddf
    1e3c:	00008df0 	.word	0x00008df0
    1e40:	00008e00 	.word	0x00008e00

00001e44 <update_alarm_buffer>:
    1e44:	2300      	movs	r3, #0
    1e46:	2220      	movs	r2, #32
    1e48:	b570      	push	{r4, r5, r6, lr}
    1e4a:	4c1d      	ldr	r4, [pc, #116]	; (1ec0 <update_alarm_buffer+0x7c>)
    1e4c:	551a      	strb	r2, [r3, r4]
    1e4e:	3301      	adds	r3, #1
    1e50:	2b50      	cmp	r3, #80	; 0x50
    1e52:	d1fb      	bne.n	1e4c <update_alarm_buffer+0x8>
    1e54:	491b      	ldr	r1, [pc, #108]	; (1ec4 <update_alarm_buffer+0x80>)
    1e56:	0020      	movs	r0, r4
    1e58:	4d1b      	ldr	r5, [pc, #108]	; (1ec8 <update_alarm_buffer+0x84>)
    1e5a:	47a8      	blx	r5
    1e5c:	2000      	movs	r0, #0
    1e5e:	4e1b      	ldr	r6, [pc, #108]	; (1ecc <update_alarm_buffer+0x88>)
    1e60:	47b0      	blx	r6
    1e62:	2800      	cmp	r0, #0
    1e64:	d003      	beq.n	1e6e <update_alarm_buffer+0x2a>
    1e66:	0020      	movs	r0, r4
    1e68:	4919      	ldr	r1, [pc, #100]	; (1ed0 <update_alarm_buffer+0x8c>)
    1e6a:	300a      	adds	r0, #10
    1e6c:	47a8      	blx	r5
    1e6e:	2002      	movs	r0, #2
    1e70:	47b0      	blx	r6
    1e72:	2800      	cmp	r0, #0
    1e74:	d003      	beq.n	1e7e <update_alarm_buffer+0x3a>
    1e76:	0020      	movs	r0, r4
    1e78:	4916      	ldr	r1, [pc, #88]	; (1ed4 <update_alarm_buffer+0x90>)
    1e7a:	3014      	adds	r0, #20
    1e7c:	47a8      	blx	r5
    1e7e:	2003      	movs	r0, #3
    1e80:	47b0      	blx	r6
    1e82:	2800      	cmp	r0, #0
    1e84:	d003      	beq.n	1e8e <update_alarm_buffer+0x4a>
    1e86:	0020      	movs	r0, r4
    1e88:	4913      	ldr	r1, [pc, #76]	; (1ed8 <update_alarm_buffer+0x94>)
    1e8a:	301e      	adds	r0, #30
    1e8c:	47a8      	blx	r5
    1e8e:	2004      	movs	r0, #4
    1e90:	47b0      	blx	r6
    1e92:	2800      	cmp	r0, #0
    1e94:	d003      	beq.n	1e9e <update_alarm_buffer+0x5a>
    1e96:	0020      	movs	r0, r4
    1e98:	4910      	ldr	r1, [pc, #64]	; (1edc <update_alarm_buffer+0x98>)
    1e9a:	3028      	adds	r0, #40	; 0x28
    1e9c:	47a8      	blx	r5
    1e9e:	2005      	movs	r0, #5
    1ea0:	47b0      	blx	r6
    1ea2:	2800      	cmp	r0, #0
    1ea4:	d003      	beq.n	1eae <update_alarm_buffer+0x6a>
    1ea6:	0020      	movs	r0, r4
    1ea8:	490d      	ldr	r1, [pc, #52]	; (1ee0 <update_alarm_buffer+0x9c>)
    1eaa:	3032      	adds	r0, #50	; 0x32
    1eac:	47a8      	blx	r5
    1eae:	2006      	movs	r0, #6
    1eb0:	47b0      	blx	r6
    1eb2:	2800      	cmp	r0, #0
    1eb4:	d003      	beq.n	1ebe <update_alarm_buffer+0x7a>
    1eb6:	0020      	movs	r0, r4
    1eb8:	490a      	ldr	r1, [pc, #40]	; (1ee4 <update_alarm_buffer+0xa0>)
    1eba:	303c      	adds	r0, #60	; 0x3c
    1ebc:	47a8      	blx	r5
    1ebe:	bd70      	pop	{r4, r5, r6, pc}
    1ec0:	20004f30 	.word	0x20004f30
    1ec4:	00008d78 	.word	0x00008d78
    1ec8:	00008419 	.word	0x00008419
    1ecc:	00001535 	.word	0x00001535
    1ed0:	00008d80 	.word	0x00008d80
    1ed4:	00008d85 	.word	0x00008d85
    1ed8:	00008d8e 	.word	0x00008d8e
    1edc:	00008d97 	.word	0x00008d97
    1ee0:	00008da0 	.word	0x00008da0
    1ee4:	00008daa 	.word	0x00008daa

00001ee8 <motor_status_monitor>:
    1ee8:	b510      	push	{r4, lr}
    1eea:	2100      	movs	r1, #0
    1eec:	2003      	movs	r0, #3
    1eee:	4c06      	ldr	r4, [pc, #24]	; (1f08 <motor_status_monitor+0x20>)
    1ef0:	47a0      	blx	r4
    1ef2:	4b06      	ldr	r3, [pc, #24]	; (1f0c <motor_status_monitor+0x24>)
    1ef4:	4798      	blx	r3
    1ef6:	4906      	ldr	r1, [pc, #24]	; (1f10 <motor_status_monitor+0x28>)
    1ef8:	4b06      	ldr	r3, [pc, #24]	; (1f14 <motor_status_monitor+0x2c>)
    1efa:	4798      	blx	r3
    1efc:	1e01      	subs	r1, r0, #0
    1efe:	d000      	beq.n	1f02 <motor_status_monitor+0x1a>
    1f00:	2101      	movs	r1, #1
    1f02:	2004      	movs	r0, #4
    1f04:	47a0      	blx	r4
    1f06:	bd10      	pop	{r4, pc}
    1f08:	00001511 	.word	0x00001511
    1f0c:	0000148d 	.word	0x0000148d
    1f10:	42c80000 	.word	0x42c80000
    1f14:	00005621 	.word	0x00005621

00001f18 <enable_motor>:
    1f18:	2201      	movs	r2, #1
    1f1a:	4b01      	ldr	r3, [pc, #4]	; (1f20 <enable_motor+0x8>)
    1f1c:	619a      	str	r2, [r3, #24]
    1f1e:	4770      	bx	lr
    1f20:	41004400 	.word	0x41004400

00001f24 <disable_motor>:
    1f24:	2201      	movs	r2, #1
    1f26:	4b01      	ldr	r3, [pc, #4]	; (1f2c <disable_motor+0x8>)
    1f28:	615a      	str	r2, [r3, #20]
    1f2a:	4770      	bx	lr
    1f2c:	41004400 	.word	0x41004400

00001f30 <drive_motor>:
    1f30:	b510      	push	{r4, lr}
    1f32:	4905      	ldr	r1, [pc, #20]	; (1f48 <drive_motor+0x18>)
    1f34:	4b05      	ldr	r3, [pc, #20]	; (1f4c <drive_motor+0x1c>)
    1f36:	4798      	blx	r3
    1f38:	4b05      	ldr	r3, [pc, #20]	; (1f50 <drive_motor+0x20>)
    1f3a:	4798      	blx	r3
    1f3c:	2100      	movs	r1, #0
    1f3e:	b282      	uxth	r2, r0
    1f40:	4b04      	ldr	r3, [pc, #16]	; (1f54 <drive_motor+0x24>)
    1f42:	4805      	ldr	r0, [pc, #20]	; (1f58 <drive_motor+0x28>)
    1f44:	4798      	blx	r3
    1f46:	bd10      	pop	{r4, pc}
    1f48:	447fc000 	.word	0x447fc000
    1f4c:	00005f91 	.word	0x00005f91
    1f50:	000056dd 	.word	0x000056dd
    1f54:	000006f5 	.word	0x000006f5
    1f58:	20005070 	.word	0x20005070

00001f5c <init_motor_interface>:
    1f5c:	2201      	movs	r2, #1
    1f5e:	b530      	push	{r4, r5, lr}
    1f60:	4b11      	ldr	r3, [pc, #68]	; (1fa8 <init_motor_interface+0x4c>)
    1f62:	b085      	sub	sp, #20
    1f64:	615a      	str	r2, [r3, #20]
    1f66:	ad02      	add	r5, sp, #8
    1f68:	a801      	add	r0, sp, #4
    1f6a:	4b10      	ldr	r3, [pc, #64]	; (1fac <init_motor_interface+0x50>)
    1f6c:	4798      	blx	r3
    1f6e:	0028      	movs	r0, r5
    1f70:	4b0f      	ldr	r3, [pc, #60]	; (1fb0 <init_motor_interface+0x54>)
    1f72:	4798      	blx	r3
    1f74:	2340      	movs	r3, #64	; 0x40
    1f76:	4c0f      	ldr	r4, [pc, #60]	; (1fb4 <init_motor_interface+0x58>)
    1f78:	702b      	strb	r3, [r5, #0]
    1f7a:	002a      	movs	r2, r5
    1f7c:	490e      	ldr	r1, [pc, #56]	; (1fb8 <init_motor_interface+0x5c>)
    1f7e:	0020      	movs	r0, r4
    1f80:	4b0e      	ldr	r3, [pc, #56]	; (1fbc <init_motor_interface+0x60>)
    1f82:	4798      	blx	r3
    1f84:	aa01      	add	r2, sp, #4
    1f86:	0020      	movs	r0, r4
    1f88:	2100      	movs	r1, #0
    1f8a:	4b0d      	ldr	r3, [pc, #52]	; (1fc0 <init_motor_interface+0x64>)
    1f8c:	4798      	blx	r3
    1f8e:	2100      	movs	r1, #0
    1f90:	0020      	movs	r0, r4
    1f92:	4b0c      	ldr	r3, [pc, #48]	; (1fc4 <init_motor_interface+0x68>)
    1f94:	4798      	blx	r3
    1f96:	0020      	movs	r0, r4
    1f98:	4b0b      	ldr	r3, [pc, #44]	; (1fc8 <init_motor_interface+0x6c>)
    1f9a:	4798      	blx	r3
    1f9c:	2000      	movs	r0, #0
    1f9e:	4b0b      	ldr	r3, [pc, #44]	; (1fcc <init_motor_interface+0x70>)
    1fa0:	4798      	blx	r3
    1fa2:	b005      	add	sp, #20
    1fa4:	bd30      	pop	{r4, r5, pc}
    1fa6:	46c0      	nop			; (mov r8, r8)
    1fa8:	41004400 	.word	0x41004400
    1fac:	000006ed 	.word	0x000006ed
    1fb0:	000005e3 	.word	0x000005e3
    1fb4:	20005070 	.word	0x20005070
    1fb8:	42004800 	.word	0x42004800
    1fbc:	000005f9 	.word	0x000005f9
    1fc0:	000006ef 	.word	0x000006ef
    1fc4:	000006f1 	.word	0x000006f1
    1fc8:	000006b1 	.word	0x000006b1
    1fcc:	00001f31 	.word	0x00001f31

00001fd0 <callback_spi_master>:
    1fd0:	b510      	push	{r4, lr}
    1fd2:	4c05      	ldr	r4, [pc, #20]	; (1fe8 <callback_spi_master+0x18>)
    1fd4:	2200      	movs	r2, #0
    1fd6:	0021      	movs	r1, r4
    1fd8:	4b04      	ldr	r3, [pc, #16]	; (1fec <callback_spi_master+0x1c>)
    1fda:	4798      	blx	r3
    1fdc:	68e3      	ldr	r3, [r4, #12]
    1fde:	4804      	ldr	r0, [pc, #16]	; (1ff0 <callback_spi_master+0x20>)
    1fe0:	68a1      	ldr	r1, [r4, #8]
    1fe2:	4798      	blx	r3
    1fe4:	bd10      	pop	{r4, pc}
    1fe6:	46c0      	nop			; (mov r8, r8)
    1fe8:	20005094 	.word	0x20005094
    1fec:	000042e9 	.word	0x000042e9
    1ff0:	200050a4 	.word	0x200050a4

00001ff4 <spi_interface_init>:
    1ff4:	b570      	push	{r4, r5, r6, lr}
    1ff6:	b08e      	sub	sp, #56	; 0x38
    1ff8:	2100      	movs	r1, #0
    1ffa:	466b      	mov	r3, sp
    1ffc:	2501      	movs	r5, #1
    1ffe:	7419      	strb	r1, [r3, #16]
    2000:	7459      	strb	r1, [r3, #17]
    2002:	749d      	strb	r5, [r3, #18]
    2004:	74dd      	strb	r5, [r3, #19]
    2006:	7519      	strb	r1, [r3, #20]
    2008:	701d      	strb	r5, [r3, #0]
    200a:	3305      	adds	r3, #5
    200c:	77d9      	strb	r1, [r3, #31]
    200e:	220c      	movs	r2, #12
    2010:	4b1b      	ldr	r3, [pc, #108]	; (2080 <STACK_SIZE+0x80>)
    2012:	a806      	add	r0, sp, #24
    2014:	9101      	str	r1, [sp, #4]
    2016:	9102      	str	r1, [sp, #8]
    2018:	4798      	blx	r3
    201a:	2380      	movs	r3, #128	; 0x80
    201c:	039b      	lsls	r3, r3, #14
    201e:	9303      	str	r3, [sp, #12]
    2020:	2380      	movs	r3, #128	; 0x80
    2022:	005b      	lsls	r3, r3, #1
    2024:	930a      	str	r3, [sp, #40]	; 0x28
    2026:	18db      	adds	r3, r3, r3
    2028:	930b      	str	r3, [sp, #44]	; 0x2c
    202a:	2380      	movs	r3, #128	; 0x80
    202c:	00db      	lsls	r3, r3, #3
    202e:	930c      	str	r3, [sp, #48]	; 0x30
    2030:	2301      	movs	r3, #1
    2032:	425b      	negs	r3, r3
    2034:	4c13      	ldr	r4, [pc, #76]	; (2084 <STACK_SIZE+0x84>)
    2036:	930d      	str	r3, [sp, #52]	; 0x34
    2038:	4b13      	ldr	r3, [pc, #76]	; (2088 <STACK_SIZE+0x88>)
    203a:	466a      	mov	r2, sp
    203c:	9306      	str	r3, [sp, #24]
    203e:	4913      	ldr	r1, [pc, #76]	; (208c <STACK_SIZE+0x8c>)
    2040:	4b13      	ldr	r3, [pc, #76]	; (2090 <STACK_SIZE+0x90>)
    2042:	0020      	movs	r0, r4
    2044:	4798      	blx	r3
    2046:	6826      	ldr	r6, [r4, #0]
    2048:	4b12      	ldr	r3, [pc, #72]	; (2094 <STACK_SIZE+0x94>)
    204a:	0030      	movs	r0, r6
    204c:	4798      	blx	r3
    204e:	231f      	movs	r3, #31
    2050:	4018      	ands	r0, r3
    2052:	4085      	lsls	r5, r0
    2054:	4b10      	ldr	r3, [pc, #64]	; (2098 <STACK_SIZE+0x98>)
    2056:	601d      	str	r5, [r3, #0]
    2058:	6822      	ldr	r2, [r4, #0]
    205a:	69d3      	ldr	r3, [r2, #28]
    205c:	2b00      	cmp	r3, #0
    205e:	d1fc      	bne.n	205a <STACK_SIZE+0x5a>
    2060:	2202      	movs	r2, #2
    2062:	6833      	ldr	r3, [r6, #0]
    2064:	0020      	movs	r0, r4
    2066:	4313      	orrs	r3, r2
    2068:	6033      	str	r3, [r6, #0]
    206a:	490c      	ldr	r1, [pc, #48]	; (209c <STACK_SIZE+0x9c>)
    206c:	4b0c      	ldr	r3, [pc, #48]	; (20a0 <STACK_SIZE+0xa0>)
    206e:	4798      	blx	r3
    2070:	2304      	movs	r3, #4
    2072:	3437      	adds	r4, #55	; 0x37
    2074:	7822      	ldrb	r2, [r4, #0]
    2076:	4313      	orrs	r3, r2
    2078:	7023      	strb	r3, [r4, #0]
    207a:	b00e      	add	sp, #56	; 0x38
    207c:	bd70      	pop	{r4, r5, r6, pc}
    207e:	46c0      	nop			; (mov r8, r8)
    2080:	0000835f 	.word	0x0000835f
    2084:	200050e4 	.word	0x200050e4
    2088:	001e8480 	.word	0x001e8480
    208c:	42000800 	.word	0x42000800
    2090:	000040e1 	.word	0x000040e1
    2094:	00004809 	.word	0x00004809
    2098:	e000e100 	.word	0xe000e100
    209c:	00001fd1 	.word	0x00001fd1
    20a0:	00004381 	.word	0x00004381

000020a4 <spi_transact>:
    20a4:	b57f      	push	{r0, r1, r2, r3, r4, r5, r6, lr}
    20a6:	4c12      	ldr	r4, [pc, #72]	; (20f0 <spi_transact+0x4c>)
    20a8:	9303      	str	r3, [sp, #12]
    20aa:	68a3      	ldr	r3, [r4, #8]
    20ac:	9000      	str	r0, [sp, #0]
    20ae:	466d      	mov	r5, sp
    20b0:	9101      	str	r1, [sp, #4]
    20b2:	9202      	str	r2, [sp, #8]
    20b4:	2000      	movs	r0, #0
    20b6:	2b40      	cmp	r3, #64	; 0x40
    20b8:	d818      	bhi.n	20ec <spi_transact+0x48>
    20ba:	0023      	movs	r3, r4
    20bc:	cd07      	ldmia	r5!, {r0, r1, r2}
    20be:	c307      	stmia	r3!, {r0, r1, r2}
    20c0:	682a      	ldr	r2, [r5, #0]
    20c2:	4e0c      	ldr	r6, [pc, #48]	; (20f4 <spi_transact+0x50>)
    20c4:	601a      	str	r2, [r3, #0]
    20c6:	6861      	ldr	r1, [r4, #4]
    20c8:	4b0b      	ldr	r3, [pc, #44]	; (20f8 <spi_transact+0x54>)
    20ca:	68a2      	ldr	r2, [r4, #8]
    20cc:	0030      	movs	r0, r6
    20ce:	4798      	blx	r3
    20d0:	4d0a      	ldr	r5, [pc, #40]	; (20fc <spi_transact+0x58>)
    20d2:	0021      	movs	r1, r4
    20d4:	2201      	movs	r2, #1
    20d6:	4b0a      	ldr	r3, [pc, #40]	; (2100 <spi_transact+0x5c>)
    20d8:	0028      	movs	r0, r5
    20da:	4798      	blx	r3
    20dc:	68a3      	ldr	r3, [r4, #8]
    20de:	4a09      	ldr	r2, [pc, #36]	; (2104 <spi_transact+0x60>)
    20e0:	b29b      	uxth	r3, r3
    20e2:	0031      	movs	r1, r6
    20e4:	0028      	movs	r0, r5
    20e6:	4c08      	ldr	r4, [pc, #32]	; (2108 <spi_transact+0x64>)
    20e8:	47a0      	blx	r4
    20ea:	2001      	movs	r0, #1
    20ec:	b004      	add	sp, #16
    20ee:	bd70      	pop	{r4, r5, r6, pc}
    20f0:	20005094 	.word	0x20005094
    20f4:	20005120 	.word	0x20005120
    20f8:	0000834d 	.word	0x0000834d
    20fc:	200050e4 	.word	0x200050e4
    2100:	000042e9 	.word	0x000042e9
    2104:	200050a4 	.word	0x200050a4
    2108:	00004399 	.word	0x00004399

0000210c <control_task>:
    210c:	b5f0      	push	{r4, r5, r6, r7, lr}
    210e:	2501      	movs	r5, #1
    2110:	b08d      	sub	sp, #52	; 0x34
    2112:	4b3d      	ldr	r3, [pc, #244]	; (2208 <control_task+0xfc>)
    2114:	4798      	blx	r3
    2116:	4c3d      	ldr	r4, [pc, #244]	; (220c <control_task+0x100>)
    2118:	220e      	movs	r2, #14
    211a:	7823      	ldrb	r3, [r4, #0]
    211c:	60a2      	str	r2, [r4, #8]
    211e:	43ab      	bics	r3, r5
    2120:	7023      	strb	r3, [r4, #0]
    2122:	231e      	movs	r3, #30
    2124:	7063      	strb	r3, [r4, #1]
    2126:	60e3      	str	r3, [r4, #12]
    2128:	3b0a      	subs	r3, #10
    212a:	6123      	str	r3, [r4, #16]
    212c:	4b38      	ldr	r3, [pc, #224]	; (2210 <control_task+0x104>)
    212e:	4798      	blx	r3
    2130:	2005      	movs	r0, #5
    2132:	4b38      	ldr	r3, [pc, #224]	; (2214 <control_task+0x108>)
    2134:	4798      	blx	r3
    2136:	0023      	movs	r3, r4
    2138:	0022      	movs	r2, r4
    213a:	3314      	adds	r3, #20
    213c:	ca43      	ldmia	r2!, {r0, r1, r6}
    213e:	c343      	stmia	r3!, {r0, r1, r6}
    2140:	ca03      	ldmia	r2!, {r0, r1}
    2142:	c303      	stmia	r3!, {r0, r1}
    2144:	23c8      	movs	r3, #200	; 0xc8
    2146:	4e34      	ldr	r6, [pc, #208]	; (2218 <control_task+0x10c>)
    2148:	0020      	movs	r0, r4
    214a:	6033      	str	r3, [r6, #0]
    214c:	60b3      	str	r3, [r6, #8]
    214e:	0031      	movs	r1, r6
    2150:	4b32      	ldr	r3, [pc, #200]	; (221c <control_task+0x110>)
    2152:	4798      	blx	r3
    2154:	4b32      	ldr	r3, [pc, #200]	; (2220 <control_task+0x114>)
    2156:	4798      	blx	r3
    2158:	4a32      	ldr	r2, [pc, #200]	; (2224 <control_task+0x118>)
    215a:	4b33      	ldr	r3, [pc, #204]	; (2228 <control_task+0x11c>)
    215c:	9209      	str	r2, [sp, #36]	; 0x24
    215e:	4a33      	ldr	r2, [pc, #204]	; (222c <control_task+0x120>)
    2160:	9304      	str	r3, [sp, #16]
    2162:	9208      	str	r2, [sp, #32]
    2164:	2300      	movs	r3, #0
    2166:	22fe      	movs	r2, #254	; 0xfe
    2168:	9305      	str	r3, [sp, #20]
    216a:	9307      	str	r3, [sp, #28]
    216c:	9306      	str	r3, [sp, #24]
    216e:	0592      	lsls	r2, r2, #22
    2170:	930b      	str	r3, [sp, #44]	; 0x2c
    2172:	4b2f      	ldr	r3, [pc, #188]	; (2230 <control_task+0x124>)
    2174:	9003      	str	r0, [sp, #12]
    2176:	920a      	str	r2, [sp, #40]	; 0x28
    2178:	4798      	blx	r3
    217a:	210a      	movs	r1, #10
    217c:	a803      	add	r0, sp, #12
    217e:	4b2d      	ldr	r3, [pc, #180]	; (2234 <control_task+0x128>)
    2180:	4798      	blx	r3
    2182:	4b2d      	ldr	r3, [pc, #180]	; (2238 <control_task+0x12c>)
    2184:	4798      	blx	r3
    2186:	2280      	movs	r2, #128	; 0x80
    2188:	4b2c      	ldr	r3, [pc, #176]	; (223c <control_task+0x130>)
    218a:	0392      	lsls	r2, r2, #14
    218c:	6a19      	ldr	r1, [r3, #32]
    218e:	4211      	tst	r1, r2
    2190:	d134      	bne.n	21fc <control_task+0xf0>
    2192:	619a      	str	r2, [r3, #24]
    2194:	4b2a      	ldr	r3, [pc, #168]	; (2240 <control_task+0x134>)
    2196:	4798      	blx	r3
    2198:	4b2a      	ldr	r3, [pc, #168]	; (2244 <control_task+0x138>)
    219a:	4798      	blx	r3
    219c:	7d23      	ldrb	r3, [r4, #20]
    219e:	4028      	ands	r0, r5
    21a0:	43ab      	bics	r3, r5
    21a2:	4303      	orrs	r3, r0
    21a4:	7523      	strb	r3, [r4, #20]
    21a6:	7823      	ldrb	r3, [r4, #0]
    21a8:	43ab      	bics	r3, r5
    21aa:	4318      	orrs	r0, r3
    21ac:	4b26      	ldr	r3, [pc, #152]	; (2248 <control_task+0x13c>)
    21ae:	7020      	strb	r0, [r4, #0]
    21b0:	4798      	blx	r3
    21b2:	4926      	ldr	r1, [pc, #152]	; (224c <control_task+0x140>)
    21b4:	4b26      	ldr	r3, [pc, #152]	; (2250 <control_task+0x144>)
    21b6:	4798      	blx	r3
    21b8:	4f26      	ldr	r7, [pc, #152]	; (2254 <control_task+0x148>)
    21ba:	47b8      	blx	r7
    21bc:	4b26      	ldr	r3, [pc, #152]	; (2258 <control_task+0x14c>)
    21be:	61a0      	str	r0, [r4, #24]
    21c0:	6060      	str	r0, [r4, #4]
    21c2:	4798      	blx	r3
    21c4:	47b8      	blx	r7
    21c6:	4b25      	ldr	r3, [pc, #148]	; (225c <control_task+0x150>)
    21c8:	6170      	str	r0, [r6, #20]
    21ca:	4798      	blx	r3
    21cc:	4f24      	ldr	r7, [pc, #144]	; (2260 <control_task+0x154>)
    21ce:	783b      	ldrb	r3, [r7, #0]
    21d0:	2b00      	cmp	r3, #0
    21d2:	d004      	beq.n	21de <control_task+0xd2>
    21d4:	4b23      	ldr	r3, [pc, #140]	; (2264 <control_task+0x158>)
    21d6:	0020      	movs	r0, r4
    21d8:	4798      	blx	r3
    21da:	2300      	movs	r3, #0
    21dc:	703b      	strb	r3, [r7, #0]
    21de:	4b22      	ldr	r3, [pc, #136]	; (2268 <control_task+0x15c>)
    21e0:	aa04      	add	r2, sp, #16
    21e2:	0031      	movs	r1, r6
    21e4:	0020      	movs	r0, r4
    21e6:	4798      	blx	r3
    21e8:	7d23      	ldrb	r3, [r4, #20]
    21ea:	9001      	str	r0, [sp, #4]
    21ec:	4f1f      	ldr	r7, [pc, #124]	; (226c <control_task+0x160>)
    21ee:	422b      	tst	r3, r5
    21f0:	d006      	beq.n	2200 <control_task+0xf4>
    21f2:	4b1f      	ldr	r3, [pc, #124]	; (2270 <control_task+0x164>)
    21f4:	4798      	blx	r3
    21f6:	9801      	ldr	r0, [sp, #4]
    21f8:	47b8      	blx	r7
    21fa:	e7be      	b.n	217a <control_task+0x6e>
    21fc:	615a      	str	r2, [r3, #20]
    21fe:	e7c9      	b.n	2194 <control_task+0x88>
    2200:	4b1c      	ldr	r3, [pc, #112]	; (2274 <control_task+0x168>)
    2202:	4798      	blx	r3
    2204:	2000      	movs	r0, #0
    2206:	e7f7      	b.n	21f8 <control_task+0xec>
    2208:	00001999 	.word	0x00001999
    220c:	2000517c 	.word	0x2000517c
    2210:	000019e9 	.word	0x000019e9
    2214:	000037e9 	.word	0x000037e9
    2218:	20005164 	.word	0x20005164
    221c:	00001565 	.word	0x00001565
    2220:	0000355d 	.word	0x0000355d
    2224:	41200000 	.word	0x41200000
    2228:	3cf5c28f 	.word	0x3cf5c28f
    222c:	3e99999a 	.word	0x3e99999a
    2230:	00001f5d 	.word	0x00001f5d
    2234:	00003771 	.word	0x00003771
    2238:	00004015 	.word	0x00004015
    223c:	41004400 	.word	0x41004400
    2240:	00001161 	.word	0x00001161
    2244:	00002439 	.word	0x00002439
    2248:	00002a15 	.word	0x00002a15
    224c:	447a0000 	.word	0x447a0000
    2250:	00005f91 	.word	0x00005f91
    2254:	00006509 	.word	0x00006509
    2258:	000012d9 	.word	0x000012d9
    225c:	00001ee9 	.word	0x00001ee9
    2260:	20000015 	.word	0x20000015
    2264:	00001a2d 	.word	0x00001a2d
    2268:	000016a1 	.word	0x000016a1
    226c:	00001f31 	.word	0x00001f31
    2270:	00001f19 	.word	0x00001f19
    2274:	00001f25 	.word	0x00001f25

00002278 <create_control_task>:
    2278:	b513      	push	{r0, r1, r4, lr}
    227a:	4b05      	ldr	r3, [pc, #20]	; (2290 <create_control_task+0x18>)
    227c:	0002      	movs	r2, r0
    227e:	9301      	str	r3, [sp, #4]
    2280:	9100      	str	r1, [sp, #0]
    2282:	2300      	movs	r3, #0
    2284:	4903      	ldr	r1, [pc, #12]	; (2294 <create_control_task+0x1c>)
    2286:	4c04      	ldr	r4, [pc, #16]	; (2298 <create_control_task+0x20>)
    2288:	4804      	ldr	r0, [pc, #16]	; (229c <create_control_task+0x24>)
    228a:	47a0      	blx	r4
    228c:	bd13      	pop	{r0, r1, r4, pc}
    228e:	46c0      	nop			; (mov r8, r8)
    2290:	20005160 	.word	0x20005160
    2294:	00008e11 	.word	0x00008e11
    2298:	00003221 	.word	0x00003221
    229c:	0000210d 	.word	0x0000210d

000022a0 <get_current_settings>:
    22a0:	0002      	movs	r2, r0
    22a2:	b530      	push	{r4, r5, lr}
    22a4:	4b02      	ldr	r3, [pc, #8]	; (22b0 <get_current_settings+0x10>)
    22a6:	cb32      	ldmia	r3!, {r1, r4, r5}
    22a8:	c232      	stmia	r2!, {r1, r4, r5}
    22aa:	cb12      	ldmia	r3!, {r1, r4}
    22ac:	c212      	stmia	r2!, {r1, r4}
    22ae:	bd30      	pop	{r4, r5, pc}
    22b0:	2000517c 	.word	0x2000517c

000022b4 <update_settings>:
    22b4:	0003      	movs	r3, r0
    22b6:	4807      	ldr	r0, [pc, #28]	; (22d4 <update_settings+0x20>)
    22b8:	b570      	push	{r4, r5, r6, lr}
    22ba:	0002      	movs	r2, r0
    22bc:	cb32      	ldmia	r3!, {r1, r4, r5}
    22be:	c232      	stmia	r2!, {r1, r4, r5}
    22c0:	cb12      	ldmia	r3!, {r1, r4}
    22c2:	c212      	stmia	r2!, {r1, r4}
    22c4:	2201      	movs	r2, #1
    22c6:	4b04      	ldr	r3, [pc, #16]	; (22d8 <update_settings+0x24>)
    22c8:	4904      	ldr	r1, [pc, #16]	; (22dc <update_settings+0x28>)
    22ca:	701a      	strb	r2, [r3, #0]
    22cc:	4b04      	ldr	r3, [pc, #16]	; (22e0 <update_settings+0x2c>)
    22ce:	4798      	blx	r3
    22d0:	bd70      	pop	{r4, r5, r6, pc}
    22d2:	46c0      	nop			; (mov r8, r8)
    22d4:	2000517c 	.word	0x2000517c
    22d8:	20000015 	.word	0x20000015
    22dc:	20005164 	.word	0x20005164
    22e0:	00001565 	.word	0x00001565

000022e4 <vScreenChangeTimerCallback>:
    22e4:	2301      	movs	r3, #1
    22e6:	4a02      	ldr	r2, [pc, #8]	; (22f0 <vScreenChangeTimerCallback+0xc>)
    22e8:	7811      	ldrb	r1, [r2, #0]
    22ea:	404b      	eors	r3, r1
    22ec:	7013      	strb	r3, [r2, #0]
    22ee:	4770      	bx	lr
    22f0:	20000016 	.word	0x20000016

000022f4 <handle_i2c_write_complete>:
    22f4:	b510      	push	{r4, lr}
    22f6:	3006      	adds	r0, #6
    22f8:	7fc3      	ldrb	r3, [r0, #31]
    22fa:	4b02      	ldr	r3, [pc, #8]	; (2304 <handle_i2c_write_complete+0x10>)
    22fc:	6818      	ldr	r0, [r3, #0]
    22fe:	4b02      	ldr	r3, [pc, #8]	; (2308 <handle_i2c_write_complete+0x14>)
    2300:	4798      	blx	r3
    2302:	bd10      	pop	{r4, pc}
    2304:	200051dc 	.word	0x200051dc
    2308:	00003459 	.word	0x00003459

0000230c <lcd_i2c_task>:
    230c:	b570      	push	{r4, r5, r6, lr}
    230e:	4b14      	ldr	r3, [pc, #80]	; (2360 <lcd_i2c_task+0x54>)
    2310:	b086      	sub	sp, #24
    2312:	9300      	str	r3, [sp, #0]
    2314:	2300      	movs	r3, #0
    2316:	4c13      	ldr	r4, [pc, #76]	; (2364 <lcd_i2c_task+0x58>)
    2318:	001a      	movs	r2, r3
    231a:	211e      	movs	r1, #30
    231c:	4812      	ldr	r0, [pc, #72]	; (2368 <lcd_i2c_task+0x5c>)
    231e:	47a0      	blx	r4
    2320:	2501      	movs	r5, #1
    2322:	4c12      	ldr	r4, [pc, #72]	; (236c <lcd_i2c_task+0x60>)
    2324:	426d      	negs	r5, r5
    2326:	6020      	str	r0, [r4, #0]
    2328:	4b11      	ldr	r3, [pc, #68]	; (2370 <lcd_i2c_task+0x64>)
    232a:	002a      	movs	r2, r5
    232c:	6818      	ldr	r0, [r3, #0]
    232e:	a903      	add	r1, sp, #12
    2330:	4b10      	ldr	r3, [pc, #64]	; (2374 <lcd_i2c_task+0x68>)
    2332:	4798      	blx	r3
    2334:	2801      	cmp	r0, #1
    2336:	d1f7      	bne.n	2328 <lcd_i2c_task+0x1c>
    2338:	a903      	add	r1, sp, #12
    233a:	4b0f      	ldr	r3, [pc, #60]	; (2378 <lcd_i2c_task+0x6c>)
    233c:	480f      	ldr	r0, [pc, #60]	; (237c <lcd_i2c_task+0x70>)
    233e:	4798      	blx	r3
    2340:	4b0f      	ldr	r3, [pc, #60]	; (2380 <lcd_i2c_task+0x74>)
    2342:	6826      	ldr	r6, [r4, #0]
    2344:	4798      	blx	r3
    2346:	2300      	movs	r3, #0
    2348:	0002      	movs	r2, r0
    234a:	9300      	str	r3, [sp, #0]
    234c:	2102      	movs	r1, #2
    234e:	0030      	movs	r0, r6
    2350:	4e0c      	ldr	r6, [pc, #48]	; (2384 <lcd_i2c_task+0x78>)
    2352:	47b0      	blx	r6
    2354:	4b0c      	ldr	r3, [pc, #48]	; (2388 <lcd_i2c_task+0x7c>)
    2356:	6818      	ldr	r0, [r3, #0]
    2358:	4b0c      	ldr	r3, [pc, #48]	; (238c <lcd_i2c_task+0x80>)
    235a:	4798      	blx	r3
    235c:	e7e4      	b.n	2328 <lcd_i2c_task+0x1c>
    235e:	46c0      	nop			; (mov r8, r8)
    2360:	00002391 	.word	0x00002391
    2364:	00003c81 	.word	0x00003c81
    2368:	00008e37 	.word	0x00008e37
    236c:	200051d0 	.word	0x200051d0
    2370:	200051d8 	.word	0x200051d8
    2374:	00002f35 	.word	0x00002f35
    2378:	00000be9 	.word	0x00000be9
    237c:	200051a8 	.word	0x200051a8
    2380:	0000355d 	.word	0x0000355d
    2384:	00003cc5 	.word	0x00003cc5
    2388:	200051dc 	.word	0x200051dc
    238c:	000038c9 	.word	0x000038c9

00002390 <vI2CTimeoutTimerCallback>:
    2390:	b510      	push	{r4, lr}
    2392:	4b02      	ldr	r3, [pc, #8]	; (239c <vI2CTimeoutTimerCallback+0xc>)
    2394:	6818      	ldr	r0, [r3, #0]
    2396:	4b02      	ldr	r3, [pc, #8]	; (23a0 <vI2CTimeoutTimerCallback+0x10>)
    2398:	4798      	blx	r3
    239a:	bd10      	pop	{r4, pc}
    239c:	200051dc 	.word	0x200051dc
    23a0:	000033dd 	.word	0x000033dd

000023a4 <vScreenRefreshTimerCallback>:
    23a4:	b570      	push	{r4, r5, r6, lr}
    23a6:	4c09      	ldr	r4, [pc, #36]	; (23cc <vScreenRefreshTimerCallback+0x28>)
    23a8:	4d09      	ldr	r5, [pc, #36]	; (23d0 <vScreenRefreshTimerCallback+0x2c>)
    23aa:	7823      	ldrb	r3, [r4, #0]
    23ac:	2b00      	cmp	r3, #0
    23ae:	d109      	bne.n	23c4 <vScreenRefreshTimerCallback+0x20>
    23b0:	4b08      	ldr	r3, [pc, #32]	; (23d4 <vScreenRefreshTimerCallback+0x30>)
    23b2:	4798      	blx	r3
    23b4:	2800      	cmp	r0, #0
    23b6:	d101      	bne.n	23bc <vScreenRefreshTimerCallback+0x18>
    23b8:	2301      	movs	r3, #1
    23ba:	7023      	strb	r3, [r4, #0]
    23bc:	7823      	ldrb	r3, [r4, #0]
    23be:	2001      	movs	r0, #1
    23c0:	2b00      	cmp	r3, #0
    23c2:	d000      	beq.n	23c6 <vScreenRefreshTimerCallback+0x22>
    23c4:	2000      	movs	r0, #0
    23c6:	47a8      	blx	r5
    23c8:	bd70      	pop	{r4, r5, r6, pc}
    23ca:	46c0      	nop			; (mov r8, r8)
    23cc:	20000016 	.word	0x20000016
    23d0:	00001b21 	.word	0x00001b21
    23d4:	00001555 	.word	0x00001555

000023d8 <create_hmi_task>:
    23d8:	b537      	push	{r0, r1, r2, r4, r5, lr}
    23da:	4b0e      	ldr	r3, [pc, #56]	; (2414 <create_hmi_task+0x3c>)
    23dc:	000d      	movs	r5, r1
    23de:	0004      	movs	r4, r0
    23e0:	2200      	movs	r2, #0
    23e2:	210c      	movs	r1, #12
    23e4:	200a      	movs	r0, #10
    23e6:	4798      	blx	r3
    23e8:	4b0b      	ldr	r3, [pc, #44]	; (2418 <create_hmi_task+0x40>)
    23ea:	0022      	movs	r2, r4
    23ec:	6018      	str	r0, [r3, #0]
    23ee:	4b0b      	ldr	r3, [pc, #44]	; (241c <create_hmi_task+0x44>)
    23f0:	9500      	str	r5, [sp, #0]
    23f2:	9301      	str	r3, [sp, #4]
    23f4:	4c0a      	ldr	r4, [pc, #40]	; (2420 <create_hmi_task+0x48>)
    23f6:	2300      	movs	r3, #0
    23f8:	490a      	ldr	r1, [pc, #40]	; (2424 <create_hmi_task+0x4c>)
    23fa:	480b      	ldr	r0, [pc, #44]	; (2428 <create_hmi_task+0x50>)
    23fc:	47a0      	blx	r4
    23fe:	2280      	movs	r2, #128	; 0x80
    2400:	4b0a      	ldr	r3, [pc, #40]	; (242c <create_hmi_task+0x54>)
    2402:	9500      	str	r5, [sp, #0]
    2404:	9301      	str	r3, [sp, #4]
    2406:	0052      	lsls	r2, r2, #1
    2408:	2300      	movs	r3, #0
    240a:	4909      	ldr	r1, [pc, #36]	; (2430 <create_hmi_task+0x58>)
    240c:	4809      	ldr	r0, [pc, #36]	; (2434 <create_hmi_task+0x5c>)
    240e:	47a0      	blx	r4
    2410:	bd37      	pop	{r0, r1, r2, r4, r5, pc}
    2412:	46c0      	nop			; (mov r8, r8)
    2414:	00002cd1 	.word	0x00002cd1
    2418:	200051d8 	.word	0x200051d8
    241c:	200051a4 	.word	0x200051a4
    2420:	00003221 	.word	0x00003221
    2424:	00008e19 	.word	0x00008e19
    2428:	00002459 	.word	0x00002459
    242c:	200051dc 	.word	0x200051dc
    2430:	00008e1d 	.word	0x00008e1d
    2434:	0000230d 	.word	0x0000230d

00002438 <system_is_enabled>:
    2438:	4b02      	ldr	r3, [pc, #8]	; (2444 <system_is_enabled+0xc>)
    243a:	6a18      	ldr	r0, [r3, #32]
    243c:	0500      	lsls	r0, r0, #20
    243e:	0fc0      	lsrs	r0, r0, #31
    2440:	4770      	bx	lr
    2442:	46c0      	nop			; (mov r8, r8)
    2444:	41004480 	.word	0x41004480

00002448 <get_pushbutton_level>:
    2448:	4b02      	ldr	r3, [pc, #8]	; (2454 <get_pushbutton_level+0xc>)
    244a:	6a18      	ldr	r0, [r3, #32]
    244c:	04c0      	lsls	r0, r0, #19
    244e:	0fc0      	lsrs	r0, r0, #31
    2450:	4770      	bx	lr
    2452:	46c0      	nop			; (mov r8, r8)
    2454:	41004400 	.word	0x41004400

00002458 <hmi_task>:
    2458:	2280      	movs	r2, #128	; 0x80
    245a:	b5f0      	push	{r4, r5, r6, r7, lr}
    245c:	b093      	sub	sp, #76	; 0x4c
    245e:	ac05      	add	r4, sp, #20
    2460:	0392      	lsls	r2, r2, #14
    2462:	6122      	str	r2, [r4, #16]
    2464:	2201      	movs	r2, #1
    2466:	4b77      	ldr	r3, [pc, #476]	; (2644 <hmi_task+0x1ec>)
    2468:	4252      	negs	r2, r2
    246a:	6063      	str	r3, [r4, #4]
    246c:	2300      	movs	r3, #0
    246e:	a902      	add	r1, sp, #8
    2470:	82e2      	strh	r2, [r4, #22]
    2472:	82a2      	strh	r2, [r4, #20]
    2474:	3212      	adds	r2, #18
    2476:	1852      	adds	r2, r2, r1
    2478:	77d3      	strb	r3, [r2, #31]
    247a:	aa10      	add	r2, sp, #64	; 0x40
    247c:	7013      	strb	r3, [r2, #0]
    247e:	2239      	movs	r2, #57	; 0x39
    2480:	1852      	adds	r2, r2, r1
    2482:	7013      	strb	r3, [r2, #0]
    2484:	223a      	movs	r2, #58	; 0x3a
    2486:	1852      	adds	r2, r2, r1
    2488:	60a3      	str	r3, [r4, #8]
    248a:	7623      	strb	r3, [r4, #24]
    248c:	62a3      	str	r3, [r4, #40]	; 0x28
    248e:	7013      	strb	r3, [r2, #0]
    2490:	33d7      	adds	r3, #215	; 0xd7
    2492:	8623      	strh	r3, [r4, #48]	; 0x30
    2494:	3bd6      	subs	r3, #214	; 0xd6
    2496:	7323      	strb	r3, [r4, #12]
    2498:	332c      	adds	r3, #44	; 0x2c
    249a:	9305      	str	r3, [sp, #20]
    249c:	3b1d      	subs	r3, #29
    249e:	61e3      	str	r3, [r4, #28]
    24a0:	3301      	adds	r3, #1
    24a2:	6223      	str	r3, [r4, #32]
    24a4:	4d68      	ldr	r5, [pc, #416]	; (2648 <hmi_task+0x1f0>)
    24a6:	0022      	movs	r2, r4
    24a8:	4968      	ldr	r1, [pc, #416]	; (264c <hmi_task+0x1f4>)
    24aa:	0028      	movs	r0, r5
    24ac:	4b68      	ldr	r3, [pc, #416]	; (2650 <hmi_task+0x1f8>)
    24ae:	4798      	blx	r3
    24b0:	1e02      	subs	r2, r0, #0
    24b2:	d1f7      	bne.n	24a4 <hmi_task+0x4c>
    24b4:	2180      	movs	r1, #128	; 0x80
    24b6:	23c0      	movs	r3, #192	; 0xc0
    24b8:	20c2      	movs	r0, #194	; 0xc2
    24ba:	4e66      	ldr	r6, [pc, #408]	; (2654 <hmi_task+0x1fc>)
    24bc:	00c9      	lsls	r1, r1, #3
    24be:	005b      	lsls	r3, r3, #1
    24c0:	50f1      	str	r1, [r6, r3]
    24c2:	0080      	lsls	r0, r0, #2
    24c4:	5833      	ldr	r3, [r6, r0]
    24c6:	4f64      	ldr	r7, [pc, #400]	; (2658 <hmi_task+0x200>)
    24c8:	403b      	ands	r3, r7
    24ca:	5033      	str	r3, [r6, r0]
    24cc:	4f63      	ldr	r7, [pc, #396]	; (265c <hmi_task+0x204>)
    24ce:	6031      	str	r1, [r6, #0]
    24d0:	0028      	movs	r0, r5
    24d2:	4963      	ldr	r1, [pc, #396]	; (2660 <hmi_task+0x208>)
    24d4:	47b8      	blx	r7
    24d6:	2202      	movs	r2, #2
    24d8:	4961      	ldr	r1, [pc, #388]	; (2660 <hmi_task+0x208>)
    24da:	0028      	movs	r0, r5
    24dc:	47b8      	blx	r7
    24de:	2301      	movs	r3, #1
    24e0:	7e6a      	ldrb	r2, [r5, #25]
    24e2:	682f      	ldr	r7, [r5, #0]
    24e4:	4313      	orrs	r3, r2
    24e6:	766b      	strb	r3, [r5, #25]
    24e8:	2304      	movs	r3, #4
    24ea:	7e6a      	ldrb	r2, [r5, #25]
    24ec:	4313      	orrs	r3, r2
    24ee:	766b      	strb	r3, [r5, #25]
    24f0:	2307      	movs	r3, #7
    24f2:	69fa      	ldr	r2, [r7, #28]
    24f4:	401a      	ands	r2, r3
    24f6:	9203      	str	r2, [sp, #12]
    24f8:	d1fb      	bne.n	24f2 <hmi_task+0x9a>
    24fa:	2302      	movs	r3, #2
    24fc:	683a      	ldr	r2, [r7, #0]
    24fe:	4313      	orrs	r3, r2
    2500:	603b      	str	r3, [r7, #0]
    2502:	6828      	ldr	r0, [r5, #0]
    2504:	4b57      	ldr	r3, [pc, #348]	; (2664 <hmi_task+0x20c>)
    2506:	4798      	blx	r3
    2508:	231f      	movs	r3, #31
    250a:	4018      	ands	r0, r3
    250c:	3b1e      	subs	r3, #30
    250e:	4083      	lsls	r3, r0
    2510:	2210      	movs	r2, #16
    2512:	6033      	str	r3, [r6, #0]
    2514:	88e8      	ldrh	r0, [r5, #6]
    2516:	9b03      	ldr	r3, [sp, #12]
    2518:	8b79      	ldrh	r1, [r7, #26]
    251a:	4211      	tst	r1, r2
    251c:	d103      	bne.n	2526 <hmi_task+0xce>
    251e:	3301      	adds	r3, #1
    2520:	4283      	cmp	r3, r0
    2522:	d3f9      	bcc.n	2518 <hmi_task+0xc0>
    2524:	837a      	strh	r2, [r7, #26]
    2526:	4b50      	ldr	r3, [pc, #320]	; (2668 <hmi_task+0x210>)
    2528:	4798      	blx	r3
    252a:	4b50      	ldr	r3, [pc, #320]	; (266c <hmi_task+0x214>)
    252c:	2201      	movs	r2, #1
    252e:	9300      	str	r3, [sp, #0]
    2530:	211e      	movs	r1, #30
    2532:	2300      	movs	r3, #0
    2534:	484e      	ldr	r0, [pc, #312]	; (2670 <hmi_task+0x218>)
    2536:	4e4f      	ldr	r6, [pc, #316]	; (2674 <hmi_task+0x21c>)
    2538:	47b0      	blx	r6
    253a:	4d4f      	ldr	r5, [pc, #316]	; (2678 <hmi_task+0x220>)
    253c:	1e07      	subs	r7, r0, #0
    253e:	d007      	beq.n	2550 <hmi_task+0xf8>
    2540:	47a8      	blx	r5
    2542:	2300      	movs	r3, #0
    2544:	0002      	movs	r2, r0
    2546:	9300      	str	r3, [sp, #0]
    2548:	0038      	movs	r0, r7
    254a:	2101      	movs	r1, #1
    254c:	4f4b      	ldr	r7, [pc, #300]	; (267c <hmi_task+0x224>)
    254e:	47b8      	blx	r7
    2550:	21fa      	movs	r1, #250	; 0xfa
    2552:	4b4b      	ldr	r3, [pc, #300]	; (2680 <hmi_task+0x228>)
    2554:	2201      	movs	r2, #1
    2556:	9300      	str	r3, [sp, #0]
    2558:	00c9      	lsls	r1, r1, #3
    255a:	2300      	movs	r3, #0
    255c:	4849      	ldr	r0, [pc, #292]	; (2684 <hmi_task+0x22c>)
    255e:	47b0      	blx	r6
    2560:	1e06      	subs	r6, r0, #0
    2562:	d007      	beq.n	2574 <hmi_task+0x11c>
    2564:	47a8      	blx	r5
    2566:	2300      	movs	r3, #0
    2568:	0002      	movs	r2, r0
    256a:	9300      	str	r3, [sp, #0]
    256c:	0030      	movs	r0, r6
    256e:	2101      	movs	r1, #1
    2570:	4e42      	ldr	r6, [pc, #264]	; (267c <hmi_task+0x224>)
    2572:	47b0      	blx	r6
    2574:	47a8      	blx	r5
    2576:	9005      	str	r0, [sp, #20]
    2578:	2114      	movs	r1, #20
    257a:	0020      	movs	r0, r4
    257c:	4b42      	ldr	r3, [pc, #264]	; (2688 <hmi_task+0x230>)
    257e:	4798      	blx	r3
    2580:	4b42      	ldr	r3, [pc, #264]	; (268c <hmi_task+0x234>)
    2582:	4798      	blx	r3
    2584:	4b42      	ldr	r3, [pc, #264]	; (2690 <hmi_task+0x238>)
    2586:	0007      	movs	r7, r0
    2588:	781b      	ldrb	r3, [r3, #0]
    258a:	4d42      	ldr	r5, [pc, #264]	; (2694 <hmi_task+0x23c>)
    258c:	4e42      	ldr	r6, [pc, #264]	; (2698 <hmi_task+0x240>)
    258e:	2b00      	cmp	r3, #0
    2590:	d10b      	bne.n	25aa <hmi_task+0x152>
    2592:	2800      	cmp	r0, #0
    2594:	d009      	beq.n	25aa <hmi_task+0x152>
    2596:	7828      	ldrb	r0, [r5, #0]
    2598:	2804      	cmp	r0, #4
    259a:	d805      	bhi.n	25a8 <hmi_task+0x150>
    259c:	f002 ff46 	bl	542c <__gnu_thumb1_case_uqi>
    25a0:	14121003 	.word	0x14121003
    25a4:	16          	.byte	0x16
    25a5:	00          	.byte	0x00
    25a6:	2301      	movs	r3, #1
    25a8:	702b      	strb	r3, [r5, #0]
    25aa:	4b3c      	ldr	r3, [pc, #240]	; (269c <hmi_task+0x244>)
    25ac:	4798      	blx	r3
    25ae:	1c03      	adds	r3, r0, #0
    25b0:	7828      	ldrb	r0, [r5, #0]
    25b2:	2804      	cmp	r0, #4
    25b4:	d843      	bhi.n	263e <hmi_task+0x1e6>
    25b6:	f002 ff39 	bl	542c <__gnu_thumb1_case_uqi>
    25ba:	0e18      	.short	0x0e18
    25bc:	2c21      	.short	0x2c21
    25be:	37          	.byte	0x37
    25bf:	00          	.byte	0x00
    25c0:	2302      	movs	r3, #2
    25c2:	e7f1      	b.n	25a8 <hmi_task+0x150>
    25c4:	2303      	movs	r3, #3
    25c6:	e7ef      	b.n	25a8 <hmi_task+0x150>
    25c8:	2304      	movs	r3, #4
    25ca:	e7ed      	b.n	25a8 <hmi_task+0x150>
    25cc:	4b34      	ldr	r3, [pc, #208]	; (26a0 <hmi_task+0x248>)
    25ce:	0030      	movs	r0, r6
    25d0:	4798      	blx	r3
    25d2:	2300      	movs	r3, #0
    25d4:	e7e8      	b.n	25a8 <hmi_task+0x150>
    25d6:	4933      	ldr	r1, [pc, #204]	; (26a4 <hmi_task+0x24c>)
    25d8:	1c18      	adds	r0, r3, #0
    25da:	4b33      	ldr	r3, [pc, #204]	; (26a8 <hmi_task+0x250>)
    25dc:	4798      	blx	r3
    25de:	4933      	ldr	r1, [pc, #204]	; (26ac <hmi_task+0x254>)
    25e0:	4b33      	ldr	r3, [pc, #204]	; (26b0 <hmi_task+0x258>)
    25e2:	4798      	blx	r3
    25e4:	4b33      	ldr	r3, [pc, #204]	; (26b4 <hmi_task+0x25c>)
    25e6:	4798      	blx	r3
    25e8:	6130      	str	r0, [r6, #16]
    25ea:	4b29      	ldr	r3, [pc, #164]	; (2690 <hmi_task+0x238>)
    25ec:	7829      	ldrb	r1, [r5, #0]
    25ee:	701f      	strb	r7, [r3, #0]
    25f0:	0030      	movs	r0, r6
    25f2:	4b31      	ldr	r3, [pc, #196]	; (26b8 <hmi_task+0x260>)
    25f4:	4798      	blx	r3
    25f6:	4b31      	ldr	r3, [pc, #196]	; (26bc <hmi_task+0x264>)
    25f8:	4798      	blx	r3
    25fa:	e7bd      	b.n	2578 <hmi_task+0x120>
    25fc:	4930      	ldr	r1, [pc, #192]	; (26c0 <hmi_task+0x268>)
    25fe:	1c18      	adds	r0, r3, #0
    2600:	4b29      	ldr	r3, [pc, #164]	; (26a8 <hmi_task+0x250>)
    2602:	4798      	blx	r3
    2604:	492f      	ldr	r1, [pc, #188]	; (26c4 <hmi_task+0x26c>)
    2606:	4b2a      	ldr	r3, [pc, #168]	; (26b0 <hmi_task+0x258>)
    2608:	4798      	blx	r3
    260a:	4b2a      	ldr	r3, [pc, #168]	; (26b4 <hmi_task+0x25c>)
    260c:	4798      	blx	r3
    260e:	60b0      	str	r0, [r6, #8]
    2610:	e7eb      	b.n	25ea <hmi_task+0x192>
    2612:	492d      	ldr	r1, [pc, #180]	; (26c8 <hmi_task+0x270>)
    2614:	1c18      	adds	r0, r3, #0
    2616:	4b24      	ldr	r3, [pc, #144]	; (26a8 <hmi_task+0x250>)
    2618:	4798      	blx	r3
    261a:	492c      	ldr	r1, [pc, #176]	; (26cc <hmi_task+0x274>)
    261c:	4b24      	ldr	r3, [pc, #144]	; (26b0 <hmi_task+0x258>)
    261e:	4798      	blx	r3
    2620:	4b24      	ldr	r3, [pc, #144]	; (26b4 <hmi_task+0x25c>)
    2622:	4798      	blx	r3
    2624:	60f0      	str	r0, [r6, #12]
    2626:	e7e0      	b.n	25ea <hmi_task+0x192>
    2628:	4929      	ldr	r1, [pc, #164]	; (26d0 <hmi_task+0x278>)
    262a:	1c18      	adds	r0, r3, #0
    262c:	4b1e      	ldr	r3, [pc, #120]	; (26a8 <hmi_task+0x250>)
    262e:	4798      	blx	r3
    2630:	4928      	ldr	r1, [pc, #160]	; (26d4 <hmi_task+0x27c>)
    2632:	4b1f      	ldr	r3, [pc, #124]	; (26b0 <hmi_task+0x258>)
    2634:	4798      	blx	r3
    2636:	4b28      	ldr	r3, [pc, #160]	; (26d8 <hmi_task+0x280>)
    2638:	4798      	blx	r3
    263a:	7070      	strb	r0, [r6, #1]
    263c:	e7d5      	b.n	25ea <hmi_task+0x192>
    263e:	2300      	movs	r3, #0
    2640:	702b      	strb	r3, [r5, #0]
    2642:	e7d2      	b.n	25ea <hmi_task+0x192>
    2644:	00000d48 	.word	0x00000d48
    2648:	200051a8 	.word	0x200051a8
    264c:	42000c00 	.word	0x42000c00
    2650:	000007a1 	.word	0x000007a1
    2654:	e000e100 	.word	0xe000e100
    2658:	ff00ffff 	.word	0xff00ffff
    265c:	00000bd1 	.word	0x00000bd1
    2660:	000022f5 	.word	0x000022f5
    2664:	00004809 	.word	0x00004809
    2668:	00001cb5 	.word	0x00001cb5
    266c:	000023a5 	.word	0x000023a5
    2670:	00008e21 	.word	0x00008e21
    2674:	00003c81 	.word	0x00003c81
    2678:	0000355d 	.word	0x0000355d
    267c:	00003cc5 	.word	0x00003cc5
    2680:	000022e5 	.word	0x000022e5
    2684:	00008e2c 	.word	0x00008e2c
    2688:	00003771 	.word	0x00003771
    268c:	00002449 	.word	0x00002449
    2690:	200051d4 	.word	0x200051d4
    2694:	200051f4 	.word	0x200051f4
    2698:	200051e0 	.word	0x200051e0
    269c:	0000145d 	.word	0x0000145d
    26a0:	000022b5 	.word	0x000022b5
    26a4:	42580000 	.word	0x42580000
    26a8:	00005f91 	.word	0x00005f91
    26ac:	40c00000 	.word	0x40c00000
    26b0:	0000588d 	.word	0x0000588d
    26b4:	00006509 	.word	0x00006509
    26b8:	00001d25 	.word	0x00001d25
    26bc:	00001e45 	.word	0x00001e45
    26c0:	41880000 	.word	0x41880000
    26c4:	40400000 	.word	0x40400000
    26c8:	41c80000 	.word	0x41c80000
    26cc:	41200000 	.word	0x41200000
    26d0:	420c0000 	.word	0x420c0000
    26d4:	40a00000 	.word	0x40a00000
    26d8:	000056dd 	.word	0x000056dd

000026dc <add_lcd_i2c_transaction_to_queue>:
    26dc:	b51f      	push	{r0, r1, r2, r3, r4, lr}
    26de:	4b06      	ldr	r3, [pc, #24]	; (26f8 <add_lcd_i2c_transaction_to_queue+0x1c>)
    26e0:	9001      	str	r0, [sp, #4]
    26e2:	6818      	ldr	r0, [r3, #0]
    26e4:	9102      	str	r1, [sp, #8]
    26e6:	9203      	str	r2, [sp, #12]
    26e8:	2800      	cmp	r0, #0
    26ea:	d004      	beq.n	26f6 <add_lcd_i2c_transaction_to_queue+0x1a>
    26ec:	2300      	movs	r3, #0
    26ee:	a901      	add	r1, sp, #4
    26f0:	001a      	movs	r2, r3
    26f2:	4c02      	ldr	r4, [pc, #8]	; (26fc <add_lcd_i2c_transaction_to_queue+0x20>)
    26f4:	47a0      	blx	r4
    26f6:	bd1f      	pop	{r0, r1, r2, r3, r4, pc}
    26f8:	200051d8 	.word	0x200051d8
    26fc:	00002d21 	.word	0x00002d21

00002700 <monitor_task>:
    2700:	b510      	push	{r4, lr}
    2702:	2480      	movs	r4, #128	; 0x80
    2704:	03e4      	lsls	r4, r4, #15
    2706:	2064      	movs	r0, #100	; 0x64
    2708:	4b03      	ldr	r3, [pc, #12]	; (2718 <monitor_task+0x18>)
    270a:	4798      	blx	r3
    270c:	4b03      	ldr	r3, [pc, #12]	; (271c <monitor_task+0x1c>)
    270e:	4798      	blx	r3
    2710:	4b03      	ldr	r3, [pc, #12]	; (2720 <monitor_task+0x20>)
    2712:	615c      	str	r4, [r3, #20]
    2714:	e7f7      	b.n	2706 <monitor_task+0x6>
    2716:	46c0      	nop			; (mov r8, r8)
    2718:	000037e9 	.word	0x000037e9
    271c:	00001555 	.word	0x00001555
    2720:	41004480 	.word	0x41004480

00002724 <create_monitor_task>:
    2724:	b513      	push	{r0, r1, r4, lr}
    2726:	4b05      	ldr	r3, [pc, #20]	; (273c <create_monitor_task+0x18>)
    2728:	0002      	movs	r2, r0
    272a:	9301      	str	r3, [sp, #4]
    272c:	9100      	str	r1, [sp, #0]
    272e:	2300      	movs	r3, #0
    2730:	4903      	ldr	r1, [pc, #12]	; (2740 <create_monitor_task+0x1c>)
    2732:	4c04      	ldr	r4, [pc, #16]	; (2744 <create_monitor_task+0x20>)
    2734:	4804      	ldr	r0, [pc, #16]	; (2748 <create_monitor_task+0x24>)
    2736:	47a0      	blx	r4
    2738:	bd13      	pop	{r0, r1, r4, pc}
    273a:	46c0      	nop			; (mov r8, r8)
    273c:	200051f8 	.word	0x200051f8
    2740:	00008e43 	.word	0x00008e43
    2744:	00003221 	.word	0x00003221
    2748:	00002701 	.word	0x00002701

0000274c <vTidalVolumeTimerCallback>:
    274c:	b5f0      	push	{r4, r5, r6, r7, lr}
    274e:	4b4d      	ldr	r3, [pc, #308]	; (2884 <vTidalVolumeTimerCallback+0x138>)
    2750:	b087      	sub	sp, #28
    2752:	4798      	blx	r3
    2754:	4b4c      	ldr	r3, [pc, #304]	; (2888 <vTidalVolumeTimerCallback+0x13c>)
    2756:	9002      	str	r0, [sp, #8]
    2758:	4798      	blx	r3
    275a:	4b4c      	ldr	r3, [pc, #304]	; (288c <vTidalVolumeTimerCallback+0x140>)
    275c:	9003      	str	r0, [sp, #12]
    275e:	4798      	blx	r3
    2760:	4f4b      	ldr	r7, [pc, #300]	; (2890 <vTidalVolumeTimerCallback+0x144>)
    2762:	9004      	str	r0, [sp, #16]
    2764:	9105      	str	r1, [sp, #20]
    2766:	4b4b      	ldr	r3, [pc, #300]	; (2894 <vTidalVolumeTimerCallback+0x148>)
    2768:	6838      	ldr	r0, [r7, #0]
    276a:	494b      	ldr	r1, [pc, #300]	; (2898 <vTidalVolumeTimerCallback+0x14c>)
    276c:	4798      	blx	r3
    276e:	4b47      	ldr	r3, [pc, #284]	; (288c <vTidalVolumeTimerCallback+0x140>)
    2770:	4798      	blx	r3
    2772:	2280      	movs	r2, #128	; 0x80
    2774:	4e49      	ldr	r6, [pc, #292]	; (289c <vTidalVolumeTimerCallback+0x150>)
    2776:	0004      	movs	r4, r0
    2778:	000d      	movs	r5, r1
    277a:	9804      	ldr	r0, [sp, #16]
    277c:	9905      	ldr	r1, [sp, #20]
    277e:	05d2      	lsls	r2, r2, #23
    2780:	4b47      	ldr	r3, [pc, #284]	; (28a0 <vTidalVolumeTimerCallback+0x154>)
    2782:	47b0      	blx	r6
    2784:	0002      	movs	r2, r0
    2786:	000b      	movs	r3, r1
    2788:	0020      	movs	r0, r4
    278a:	0029      	movs	r1, r5
    278c:	4c45      	ldr	r4, [pc, #276]	; (28a4 <vTidalVolumeTimerCallback+0x158>)
    278e:	47a0      	blx	r4
    2790:	4b45      	ldr	r3, [pc, #276]	; (28a8 <vTidalVolumeTimerCallback+0x15c>)
    2792:	4798      	blx	r3
    2794:	4b45      	ldr	r3, [pc, #276]	; (28ac <vTidalVolumeTimerCallback+0x160>)
    2796:	6038      	str	r0, [r7, #0]
    2798:	9001      	str	r0, [sp, #4]
    279a:	6818      	ldr	r0, [r3, #0]
    279c:	9b02      	ldr	r3, [sp, #8]
    279e:	1a18      	subs	r0, r3, r0
    27a0:	4b43      	ldr	r3, [pc, #268]	; (28b0 <vTidalVolumeTimerCallback+0x164>)
    27a2:	4798      	blx	r3
    27a4:	4a43      	ldr	r2, [pc, #268]	; (28b4 <vTidalVolumeTimerCallback+0x168>)
    27a6:	4b44      	ldr	r3, [pc, #272]	; (28b8 <vTidalVolumeTimerCallback+0x16c>)
    27a8:	47b0      	blx	r6
    27aa:	4b3f      	ldr	r3, [pc, #252]	; (28a8 <vTidalVolumeTimerCallback+0x15c>)
    27ac:	4798      	blx	r3
    27ae:	4b37      	ldr	r3, [pc, #220]	; (288c <vTidalVolumeTimerCallback+0x140>)
    27b0:	4798      	blx	r3
    27b2:	0004      	movs	r4, r0
    27b4:	000d      	movs	r5, r1
    27b6:	9804      	ldr	r0, [sp, #16]
    27b8:	9905      	ldr	r1, [sp, #20]
    27ba:	4a40      	ldr	r2, [pc, #256]	; (28bc <vTidalVolumeTimerCallback+0x170>)
    27bc:	4b40      	ldr	r3, [pc, #256]	; (28c0 <vTidalVolumeTimerCallback+0x174>)
    27be:	47b0      	blx	r6
    27c0:	0022      	movs	r2, r4
    27c2:	002b      	movs	r3, r5
    27c4:	47b0      	blx	r6
    27c6:	4b3f      	ldr	r3, [pc, #252]	; (28c4 <vTidalVolumeTimerCallback+0x178>)
    27c8:	9004      	str	r0, [sp, #16]
    27ca:	9105      	str	r1, [sp, #20]
    27cc:	6818      	ldr	r0, [r3, #0]
    27ce:	4b2f      	ldr	r3, [pc, #188]	; (288c <vTidalVolumeTimerCallback+0x140>)
    27d0:	4798      	blx	r3
    27d2:	4f34      	ldr	r7, [pc, #208]	; (28a4 <vTidalVolumeTimerCallback+0x158>)
    27d4:	0002      	movs	r2, r0
    27d6:	000b      	movs	r3, r1
    27d8:	9804      	ldr	r0, [sp, #16]
    27da:	9905      	ldr	r1, [sp, #20]
    27dc:	47b8      	blx	r7
    27de:	4b32      	ldr	r3, [pc, #200]	; (28a8 <vTidalVolumeTimerCallback+0x15c>)
    27e0:	4798      	blx	r3
    27e2:	4b38      	ldr	r3, [pc, #224]	; (28c4 <vTidalVolumeTimerCallback+0x178>)
    27e4:	6018      	str	r0, [r3, #0]
    27e6:	4b38      	ldr	r3, [pc, #224]	; (28c8 <vTidalVolumeTimerCallback+0x17c>)
    27e8:	9803      	ldr	r0, [sp, #12]
    27ea:	4798      	blx	r3
    27ec:	17c3      	asrs	r3, r0, #31
    27ee:	18c0      	adds	r0, r0, r3
    27f0:	4058      	eors	r0, r3
    27f2:	4b36      	ldr	r3, [pc, #216]	; (28cc <vTidalVolumeTimerCallback+0x180>)
    27f4:	4798      	blx	r3
    27f6:	4a31      	ldr	r2, [pc, #196]	; (28bc <vTidalVolumeTimerCallback+0x170>)
    27f8:	4b31      	ldr	r3, [pc, #196]	; (28c0 <vTidalVolumeTimerCallback+0x174>)
    27fa:	47b0      	blx	r6
    27fc:	0022      	movs	r2, r4
    27fe:	002b      	movs	r3, r5
    2800:	47b0      	blx	r6
    2802:	2200      	movs	r2, #0
    2804:	4b32      	ldr	r3, [pc, #200]	; (28d0 <vTidalVolumeTimerCallback+0x184>)
    2806:	47b0      	blx	r6
    2808:	4d32      	ldr	r5, [pc, #200]	; (28d4 <vTidalVolumeTimerCallback+0x188>)
    280a:	0006      	movs	r6, r0
    280c:	4b1f      	ldr	r3, [pc, #124]	; (288c <vTidalVolumeTimerCallback+0x140>)
    280e:	6828      	ldr	r0, [r5, #0]
    2810:	000f      	movs	r7, r1
    2812:	4798      	blx	r3
    2814:	4c23      	ldr	r4, [pc, #140]	; (28a4 <vTidalVolumeTimerCallback+0x158>)
    2816:	0002      	movs	r2, r0
    2818:	000b      	movs	r3, r1
    281a:	0030      	movs	r0, r6
    281c:	0039      	movs	r1, r7
    281e:	47a0      	blx	r4
    2820:	4b21      	ldr	r3, [pc, #132]	; (28a8 <vTidalVolumeTimerCallback+0x15c>)
    2822:	4798      	blx	r3
    2824:	2400      	movs	r4, #0
    2826:	4f2c      	ldr	r7, [pc, #176]	; (28d8 <vTidalVolumeTimerCallback+0x18c>)
    2828:	1c06      	adds	r6, r0, #0
    282a:	783b      	ldrb	r3, [r7, #0]
    282c:	6028      	str	r0, [r5, #0]
    282e:	1c21      	adds	r1, r4, #0
    2830:	9801      	ldr	r0, [sp, #4]
    2832:	2b00      	cmp	r3, #0
    2834:	d014      	beq.n	2860 <vTidalVolumeTimerCallback+0x114>
    2836:	4b29      	ldr	r3, [pc, #164]	; (28dc <vTidalVolumeTimerCallback+0x190>)
    2838:	4798      	blx	r3
    283a:	2800      	cmp	r0, #0
    283c:	d008      	beq.n	2850 <vTidalVolumeTimerCallback+0x104>
    283e:	4b28      	ldr	r3, [pc, #160]	; (28e0 <vTidalVolumeTimerCallback+0x194>)
    2840:	1c21      	adds	r1, r4, #0
    2842:	6818      	ldr	r0, [r3, #0]
    2844:	4b27      	ldr	r3, [pc, #156]	; (28e4 <vTidalVolumeTimerCallback+0x198>)
    2846:	4798      	blx	r3
    2848:	2800      	cmp	r0, #0
    284a:	d001      	beq.n	2850 <vTidalVolumeTimerCallback+0x104>
    284c:	2300      	movs	r3, #0
    284e:	703b      	strb	r3, [r7, #0]
    2850:	4b23      	ldr	r3, [pc, #140]	; (28e0 <vTidalVolumeTimerCallback+0x194>)
    2852:	9a01      	ldr	r2, [sp, #4]
    2854:	601a      	str	r2, [r3, #0]
    2856:	4b15      	ldr	r3, [pc, #84]	; (28ac <vTidalVolumeTimerCallback+0x160>)
    2858:	9a02      	ldr	r2, [sp, #8]
    285a:	601a      	str	r2, [r3, #0]
    285c:	b007      	add	sp, #28
    285e:	bdf0      	pop	{r4, r5, r6, r7, pc}
    2860:	4b21      	ldr	r3, [pc, #132]	; (28e8 <vTidalVolumeTimerCallback+0x19c>)
    2862:	4798      	blx	r3
    2864:	2800      	cmp	r0, #0
    2866:	d0f3      	beq.n	2850 <vTidalVolumeTimerCallback+0x104>
    2868:	4b1d      	ldr	r3, [pc, #116]	; (28e0 <vTidalVolumeTimerCallback+0x194>)
    286a:	1c21      	adds	r1, r4, #0
    286c:	6818      	ldr	r0, [r3, #0]
    286e:	4b1f      	ldr	r3, [pc, #124]	; (28ec <vTidalVolumeTimerCallback+0x1a0>)
    2870:	4798      	blx	r3
    2872:	2800      	cmp	r0, #0
    2874:	d0ec      	beq.n	2850 <vTidalVolumeTimerCallback+0x104>
    2876:	4b1e      	ldr	r3, [pc, #120]	; (28f0 <vTidalVolumeTimerCallback+0x1a4>)
    2878:	602c      	str	r4, [r5, #0]
    287a:	601e      	str	r6, [r3, #0]
    287c:	4b11      	ldr	r3, [pc, #68]	; (28c4 <vTidalVolumeTimerCallback+0x178>)
    287e:	601c      	str	r4, [r3, #0]
    2880:	e7e6      	b.n	2850 <vTidalVolumeTimerCallback+0x104>
    2882:	46c0      	nop			; (mov r8, r8)
    2884:	0000355d 	.word	0x0000355d
    2888:	00001491 	.word	0x00001491
    288c:	000080f9 	.word	0x000080f9
    2890:	200051fc 	.word	0x200051fc
    2894:	00005f91 	.word	0x00005f91
    2898:	3f333333 	.word	0x3f333333
    289c:	00007471 	.word	0x00007471
    28a0:	3fd33333 	.word	0x3fd33333
    28a4:	000065e9 	.word	0x000065e9
    28a8:	0000819d 	.word	0x0000819d
    28ac:	20005230 	.word	0x20005230
    28b0:	00008089 	.word	0x00008089
    28b4:	d2f1a9fc 	.word	0xd2f1a9fc
    28b8:	3f50624d 	.word	0x3f50624d
    28bc:	11111111 	.word	0x11111111
    28c0:	3f911111 	.word	0x3f911111
    28c4:	20005200 	.word	0x20005200
    28c8:	00006509 	.word	0x00006509
    28cc:	00008005 	.word	0x00008005
    28d0:	3fe00000 	.word	0x3fe00000
    28d4:	2000523c 	.word	0x2000523c
    28d8:	20000017 	.word	0x20000017
    28dc:	00005621 	.word	0x00005621
    28e0:	2000522c 	.word	0x2000522c
    28e4:	0000560d 	.word	0x0000560d
    28e8:	000055f9 	.word	0x000055f9
    28ec:	00005635 	.word	0x00005635
    28f0:	20005234 	.word	0x20005234

000028f4 <sensor_task>:
    28f4:	2280      	movs	r2, #128	; 0x80
    28f6:	2364      	movs	r3, #100	; 0x64
    28f8:	b570      	push	{r4, r5, r6, lr}
    28fa:	b090      	sub	sp, #64	; 0x40
    28fc:	ac03      	add	r4, sp, #12
    28fe:	0392      	lsls	r2, r2, #14
    2900:	6122      	str	r2, [r4, #16]
    2902:	2201      	movs	r2, #1
    2904:	9303      	str	r3, [sp, #12]
    2906:	4b2c      	ldr	r3, [pc, #176]	; (29b8 <sensor_task+0xc4>)
    2908:	4252      	negs	r2, r2
    290a:	6063      	str	r3, [r4, #4]
    290c:	2300      	movs	r3, #0
    290e:	82e2      	strh	r2, [r4, #22]
    2910:	82a2      	strh	r2, [r4, #20]
    2912:	3212      	adds	r2, #18
    2914:	446a      	add	r2, sp
    2916:	77d3      	strb	r3, [r2, #31]
    2918:	aa0e      	add	r2, sp, #56	; 0x38
    291a:	7013      	strb	r3, [r2, #0]
    291c:	2239      	movs	r2, #57	; 0x39
    291e:	446a      	add	r2, sp
    2920:	7013      	strb	r3, [r2, #0]
    2922:	223a      	movs	r2, #58	; 0x3a
    2924:	446a      	add	r2, sp
    2926:	60a3      	str	r3, [r4, #8]
    2928:	7323      	strb	r3, [r4, #12]
    292a:	7623      	strb	r3, [r4, #24]
    292c:	62a3      	str	r3, [r4, #40]	; 0x28
    292e:	7013      	strb	r3, [r2, #0]
    2930:	33d7      	adds	r3, #215	; 0xd7
    2932:	8623      	strh	r3, [r4, #48]	; 0x30
    2934:	3bc1      	subs	r3, #193	; 0xc1
    2936:	61e3      	str	r3, [r4, #28]
    2938:	3301      	adds	r3, #1
    293a:	6223      	str	r3, [r4, #32]
    293c:	4e1f      	ldr	r6, [pc, #124]	; (29bc <sensor_task+0xc8>)
    293e:	0022      	movs	r2, r4
    2940:	491f      	ldr	r1, [pc, #124]	; (29c0 <sensor_task+0xcc>)
    2942:	0030      	movs	r0, r6
    2944:	4b1f      	ldr	r3, [pc, #124]	; (29c4 <sensor_task+0xd0>)
    2946:	4798      	blx	r3
    2948:	2800      	cmp	r0, #0
    294a:	d1f7      	bne.n	293c <sensor_task+0x48>
    294c:	2207      	movs	r2, #7
    294e:	6835      	ldr	r5, [r6, #0]
    2950:	69ec      	ldr	r4, [r5, #28]
    2952:	4014      	ands	r4, r2
    2954:	d1fc      	bne.n	2950 <sensor_task+0x5c>
    2956:	2302      	movs	r3, #2
    2958:	682a      	ldr	r2, [r5, #0]
    295a:	4313      	orrs	r3, r2
    295c:	602b      	str	r3, [r5, #0]
    295e:	6830      	ldr	r0, [r6, #0]
    2960:	4b19      	ldr	r3, [pc, #100]	; (29c8 <sensor_task+0xd4>)
    2962:	4798      	blx	r3
    2964:	231f      	movs	r3, #31
    2966:	4018      	ands	r0, r3
    2968:	3b1e      	subs	r3, #30
    296a:	4083      	lsls	r3, r0
    296c:	4a17      	ldr	r2, [pc, #92]	; (29cc <sensor_task+0xd8>)
    296e:	6013      	str	r3, [r2, #0]
    2970:	2210      	movs	r2, #16
    2972:	88f0      	ldrh	r0, [r6, #6]
    2974:	8b69      	ldrh	r1, [r5, #26]
    2976:	4211      	tst	r1, r2
    2978:	d103      	bne.n	2982 <sensor_task+0x8e>
    297a:	3401      	adds	r4, #1
    297c:	4284      	cmp	r4, r0
    297e:	d3f9      	bcc.n	2974 <sensor_task+0x80>
    2980:	836a      	strh	r2, [r5, #26]
    2982:	4b13      	ldr	r3, [pc, #76]	; (29d0 <sensor_task+0xdc>)
    2984:	4798      	blx	r3
    2986:	4b13      	ldr	r3, [pc, #76]	; (29d4 <sensor_task+0xe0>)
    2988:	4c13      	ldr	r4, [pc, #76]	; (29d8 <sensor_task+0xe4>)
    298a:	9300      	str	r3, [sp, #0]
    298c:	2201      	movs	r2, #1
    298e:	2300      	movs	r3, #0
    2990:	210a      	movs	r1, #10
    2992:	4812      	ldr	r0, [pc, #72]	; (29dc <sensor_task+0xe8>)
    2994:	47a0      	blx	r4
    2996:	1e04      	subs	r4, r0, #0
    2998:	d008      	beq.n	29ac <sensor_task+0xb8>
    299a:	4b11      	ldr	r3, [pc, #68]	; (29e0 <sensor_task+0xec>)
    299c:	4798      	blx	r3
    299e:	2300      	movs	r3, #0
    29a0:	0002      	movs	r2, r0
    29a2:	9300      	str	r3, [sp, #0]
    29a4:	0020      	movs	r0, r4
    29a6:	2101      	movs	r1, #1
    29a8:	4c0e      	ldr	r4, [pc, #56]	; (29e4 <sensor_task+0xf0>)
    29aa:	47a0      	blx	r4
    29ac:	24fa      	movs	r4, #250	; 0xfa
    29ae:	00a4      	lsls	r4, r4, #2
    29b0:	0020      	movs	r0, r4
    29b2:	4b0d      	ldr	r3, [pc, #52]	; (29e8 <sensor_task+0xf4>)
    29b4:	4798      	blx	r3
    29b6:	e7fb      	b.n	29b0 <sensor_task+0xbc>
    29b8:	00000d48 	.word	0x00000d48
    29bc:	20005204 	.word	0x20005204
    29c0:	42001400 	.word	0x42001400
    29c4:	000007a1 	.word	0x000007a1
    29c8:	00004809 	.word	0x00004809
    29cc:	e000e100 	.word	0xe000e100
    29d0:	00001189 	.word	0x00001189
    29d4:	0000274d 	.word	0x0000274d
    29d8:	00003c81 	.word	0x00003c81
    29dc:	00008e52 	.word	0x00008e52
    29e0:	0000355d 	.word	0x0000355d
    29e4:	00003cc5 	.word	0x00003cc5
    29e8:	000037e9 	.word	0x000037e9

000029ec <create_sensor_task>:
    29ec:	b513      	push	{r0, r1, r4, lr}
    29ee:	4b05      	ldr	r3, [pc, #20]	; (2a04 <create_sensor_task+0x18>)
    29f0:	0002      	movs	r2, r0
    29f2:	9301      	str	r3, [sp, #4]
    29f4:	9100      	str	r1, [sp, #0]
    29f6:	2300      	movs	r3, #0
    29f8:	4903      	ldr	r1, [pc, #12]	; (2a08 <create_sensor_task+0x1c>)
    29fa:	4c04      	ldr	r4, [pc, #16]	; (2a0c <create_sensor_task+0x20>)
    29fc:	4804      	ldr	r0, [pc, #16]	; (2a10 <create_sensor_task+0x24>)
    29fe:	47a0      	blx	r4
    2a00:	bd13      	pop	{r0, r1, r4, pc}
    2a02:	46c0      	nop			; (mov r8, r8)
    2a04:	20005238 	.word	0x20005238
    2a08:	00008e4b 	.word	0x00008e4b
    2a0c:	00003221 	.word	0x00003221
    2a10:	000028f5 	.word	0x000028f5

00002a14 <get_tidal_volume_liter>:
    2a14:	4b01      	ldr	r3, [pc, #4]	; (2a1c <get_tidal_volume_liter+0x8>)
    2a16:	6818      	ldr	r0, [r3, #0]
    2a18:	4770      	bx	lr
    2a1a:	46c0      	nop			; (mov r8, r8)
    2a1c:	20005234 	.word	0x20005234

00002a20 <vListInitialise>:
    2a20:	0003      	movs	r3, r0
    2a22:	2201      	movs	r2, #1
    2a24:	3308      	adds	r3, #8
    2a26:	6043      	str	r3, [r0, #4]
    2a28:	60c3      	str	r3, [r0, #12]
    2a2a:	6103      	str	r3, [r0, #16]
    2a2c:	2300      	movs	r3, #0
    2a2e:	4252      	negs	r2, r2
    2a30:	6082      	str	r2, [r0, #8]
    2a32:	6003      	str	r3, [r0, #0]
    2a34:	4770      	bx	lr

00002a36 <vListInitialiseItem>:
    2a36:	2300      	movs	r3, #0
    2a38:	6103      	str	r3, [r0, #16]
    2a3a:	4770      	bx	lr

00002a3c <vListInsertEnd>:
    2a3c:	6843      	ldr	r3, [r0, #4]
    2a3e:	604b      	str	r3, [r1, #4]
    2a40:	689a      	ldr	r2, [r3, #8]
    2a42:	608a      	str	r2, [r1, #8]
    2a44:	689a      	ldr	r2, [r3, #8]
    2a46:	6051      	str	r1, [r2, #4]
    2a48:	6099      	str	r1, [r3, #8]
    2a4a:	6108      	str	r0, [r1, #16]
    2a4c:	6803      	ldr	r3, [r0, #0]
    2a4e:	3301      	adds	r3, #1
    2a50:	6003      	str	r3, [r0, #0]
    2a52:	4770      	bx	lr

00002a54 <vListInsert>:
    2a54:	0003      	movs	r3, r0
    2a56:	680a      	ldr	r2, [r1, #0]
    2a58:	b530      	push	{r4, r5, lr}
    2a5a:	3308      	adds	r3, #8
    2a5c:	1c54      	adds	r4, r2, #1
    2a5e:	d10b      	bne.n	2a78 <vListInsert+0x24>
    2a60:	6903      	ldr	r3, [r0, #16]
    2a62:	685a      	ldr	r2, [r3, #4]
    2a64:	604a      	str	r2, [r1, #4]
    2a66:	6091      	str	r1, [r2, #8]
    2a68:	608b      	str	r3, [r1, #8]
    2a6a:	6059      	str	r1, [r3, #4]
    2a6c:	6108      	str	r0, [r1, #16]
    2a6e:	6803      	ldr	r3, [r0, #0]
    2a70:	3301      	adds	r3, #1
    2a72:	6003      	str	r3, [r0, #0]
    2a74:	bd30      	pop	{r4, r5, pc}
    2a76:	0023      	movs	r3, r4
    2a78:	685c      	ldr	r4, [r3, #4]
    2a7a:	6825      	ldr	r5, [r4, #0]
    2a7c:	42aa      	cmp	r2, r5
    2a7e:	d2fa      	bcs.n	2a76 <vListInsert+0x22>
    2a80:	e7ef      	b.n	2a62 <vListInsert+0xe>

00002a82 <uxListRemove>:
    2a82:	6842      	ldr	r2, [r0, #4]
    2a84:	6881      	ldr	r1, [r0, #8]
    2a86:	6903      	ldr	r3, [r0, #16]
    2a88:	6091      	str	r1, [r2, #8]
    2a8a:	6882      	ldr	r2, [r0, #8]
    2a8c:	6841      	ldr	r1, [r0, #4]
    2a8e:	6051      	str	r1, [r2, #4]
    2a90:	685a      	ldr	r2, [r3, #4]
    2a92:	4290      	cmp	r0, r2
    2a94:	d101      	bne.n	2a9a <uxListRemove+0x18>
    2a96:	6882      	ldr	r2, [r0, #8]
    2a98:	605a      	str	r2, [r3, #4]
    2a9a:	2200      	movs	r2, #0
    2a9c:	6102      	str	r2, [r0, #16]
    2a9e:	681a      	ldr	r2, [r3, #0]
    2aa0:	3a01      	subs	r2, #1
    2aa2:	601a      	str	r2, [r3, #0]
    2aa4:	6818      	ldr	r0, [r3, #0]
    2aa6:	4770      	bx	lr

00002aa8 <prvIsQueueEmpty>:
    2aa8:	b510      	push	{r4, lr}
    2aaa:	0004      	movs	r4, r0
    2aac:	4b03      	ldr	r3, [pc, #12]	; (2abc <prvIsQueueEmpty+0x14>)
    2aae:	4798      	blx	r3
    2ab0:	6ba4      	ldr	r4, [r4, #56]	; 0x38
    2ab2:	4b03      	ldr	r3, [pc, #12]	; (2ac0 <prvIsQueueEmpty+0x18>)
    2ab4:	4798      	blx	r3
    2ab6:	4260      	negs	r0, r4
    2ab8:	4160      	adcs	r0, r4
    2aba:	bd10      	pop	{r4, pc}
    2abc:	00000e95 	.word	0x00000e95
    2ac0:	00000ead 	.word	0x00000ead

00002ac4 <prvCopyDataToQueue>:
    2ac4:	b570      	push	{r4, r5, r6, lr}
    2ac6:	0016      	movs	r6, r2
    2ac8:	6c02      	ldr	r2, [r0, #64]	; 0x40
    2aca:	0004      	movs	r4, r0
    2acc:	6b85      	ldr	r5, [r0, #56]	; 0x38
    2ace:	2a00      	cmp	r2, #0
    2ad0:	d10a      	bne.n	2ae8 <prvCopyDataToQueue+0x24>
    2ad2:	6806      	ldr	r6, [r0, #0]
    2ad4:	0010      	movs	r0, r2
    2ad6:	2e00      	cmp	r6, #0
    2ad8:	d103      	bne.n	2ae2 <prvCopyDataToQueue+0x1e>
    2ada:	6860      	ldr	r0, [r4, #4]
    2adc:	4b15      	ldr	r3, [pc, #84]	; (2b34 <prvCopyDataToQueue+0x70>)
    2ade:	4798      	blx	r3
    2ae0:	6066      	str	r6, [r4, #4]
    2ae2:	3501      	adds	r5, #1
    2ae4:	63a5      	str	r5, [r4, #56]	; 0x38
    2ae6:	bd70      	pop	{r4, r5, r6, pc}
    2ae8:	4b13      	ldr	r3, [pc, #76]	; (2b38 <prvCopyDataToQueue+0x74>)
    2aea:	2e00      	cmp	r6, #0
    2aec:	d10c      	bne.n	2b08 <prvCopyDataToQueue+0x44>
    2aee:	6880      	ldr	r0, [r0, #8]
    2af0:	4798      	blx	r3
    2af2:	68a3      	ldr	r3, [r4, #8]
    2af4:	6c22      	ldr	r2, [r4, #64]	; 0x40
    2af6:	0030      	movs	r0, r6
    2af8:	189b      	adds	r3, r3, r2
    2afa:	6862      	ldr	r2, [r4, #4]
    2afc:	60a3      	str	r3, [r4, #8]
    2afe:	4293      	cmp	r3, r2
    2b00:	d3ef      	bcc.n	2ae2 <prvCopyDataToQueue+0x1e>
    2b02:	6823      	ldr	r3, [r4, #0]
    2b04:	60a3      	str	r3, [r4, #8]
    2b06:	e7ec      	b.n	2ae2 <prvCopyDataToQueue+0x1e>
    2b08:	68c0      	ldr	r0, [r0, #12]
    2b0a:	4798      	blx	r3
    2b0c:	6c23      	ldr	r3, [r4, #64]	; 0x40
    2b0e:	68e2      	ldr	r2, [r4, #12]
    2b10:	425b      	negs	r3, r3
    2b12:	6821      	ldr	r1, [r4, #0]
    2b14:	18d2      	adds	r2, r2, r3
    2b16:	60e2      	str	r2, [r4, #12]
    2b18:	428a      	cmp	r2, r1
    2b1a:	d202      	bcs.n	2b22 <prvCopyDataToQueue+0x5e>
    2b1c:	6862      	ldr	r2, [r4, #4]
    2b1e:	18d3      	adds	r3, r2, r3
    2b20:	60e3      	str	r3, [r4, #12]
    2b22:	2000      	movs	r0, #0
    2b24:	2e02      	cmp	r6, #2
    2b26:	d1dc      	bne.n	2ae2 <prvCopyDataToQueue+0x1e>
    2b28:	002b      	movs	r3, r5
    2b2a:	1e5a      	subs	r2, r3, #1
    2b2c:	4193      	sbcs	r3, r2
    2b2e:	1aed      	subs	r5, r5, r3
    2b30:	e7d7      	b.n	2ae2 <prvCopyDataToQueue+0x1e>
    2b32:	46c0      	nop			; (mov r8, r8)
    2b34:	00003b15 	.word	0x00003b15
    2b38:	0000834d 	.word	0x0000834d

00002b3c <prvNotifyQueueSetContainer>:
    2b3c:	b5f7      	push	{r0, r1, r2, r4, r5, r6, r7, lr}
    2b3e:	6c84      	ldr	r4, [r0, #72]	; 0x48
    2b40:	9001      	str	r0, [sp, #4]
    2b42:	000a      	movs	r2, r1
    2b44:	2c00      	cmp	r4, #0
    2b46:	d101      	bne.n	2b4c <prvNotifyQueueSetContainer+0x10>
    2b48:	b672      	cpsid	i
    2b4a:	e7fe      	b.n	2b4a <prvNotifyQueueSetContainer+0xe>
    2b4c:	6ba1      	ldr	r1, [r4, #56]	; 0x38
    2b4e:	6be3      	ldr	r3, [r4, #60]	; 0x3c
    2b50:	4299      	cmp	r1, r3
    2b52:	d301      	bcc.n	2b58 <prvNotifyQueueSetContainer+0x1c>
    2b54:	b672      	cpsid	i
    2b56:	e7fe      	b.n	2b56 <prvNotifyQueueSetContainer+0x1a>
    2b58:	6ba1      	ldr	r1, [r4, #56]	; 0x38
    2b5a:	2600      	movs	r6, #0
    2b5c:	428b      	cmp	r3, r1
    2b5e:	d914      	bls.n	2b8a <prvNotifyQueueSetContainer+0x4e>
    2b60:	0027      	movs	r7, r4
    2b62:	a901      	add	r1, sp, #4
    2b64:	3745      	adds	r7, #69	; 0x45
    2b66:	0020      	movs	r0, r4
    2b68:	4b0b      	ldr	r3, [pc, #44]	; (2b98 <prvNotifyQueueSetContainer+0x5c>)
    2b6a:	783d      	ldrb	r5, [r7, #0]
    2b6c:	4798      	blx	r3
    2b6e:	b26d      	sxtb	r5, r5
    2b70:	0006      	movs	r6, r0
    2b72:	1c6b      	adds	r3, r5, #1
    2b74:	d10b      	bne.n	2b8e <prvNotifyQueueSetContainer+0x52>
    2b76:	6a63      	ldr	r3, [r4, #36]	; 0x24
    2b78:	2b00      	cmp	r3, #0
    2b7a:	d006      	beq.n	2b8a <prvNotifyQueueSetContainer+0x4e>
    2b7c:	0020      	movs	r0, r4
    2b7e:	4b07      	ldr	r3, [pc, #28]	; (2b9c <prvNotifyQueueSetContainer+0x60>)
    2b80:	3024      	adds	r0, #36	; 0x24
    2b82:	4798      	blx	r3
    2b84:	2800      	cmp	r0, #0
    2b86:	d000      	beq.n	2b8a <prvNotifyQueueSetContainer+0x4e>
    2b88:	2601      	movs	r6, #1
    2b8a:	0030      	movs	r0, r6
    2b8c:	bdfe      	pop	{r1, r2, r3, r4, r5, r6, r7, pc}
    2b8e:	3501      	adds	r5, #1
    2b90:	b26d      	sxtb	r5, r5
    2b92:	703d      	strb	r5, [r7, #0]
    2b94:	e7f9      	b.n	2b8a <prvNotifyQueueSetContainer+0x4e>
    2b96:	46c0      	nop			; (mov r8, r8)
    2b98:	00002ac5 	.word	0x00002ac5
    2b9c:	000039e5 	.word	0x000039e5

00002ba0 <prvCopyDataFromQueue>:
    2ba0:	0003      	movs	r3, r0
    2ba2:	b510      	push	{r4, lr}
    2ba4:	6c1a      	ldr	r2, [r3, #64]	; 0x40
    2ba6:	0008      	movs	r0, r1
    2ba8:	2a00      	cmp	r2, #0
    2baa:	d00a      	beq.n	2bc2 <prvCopyDataFromQueue+0x22>
    2bac:	68d9      	ldr	r1, [r3, #12]
    2bae:	685c      	ldr	r4, [r3, #4]
    2bb0:	1889      	adds	r1, r1, r2
    2bb2:	60d9      	str	r1, [r3, #12]
    2bb4:	42a1      	cmp	r1, r4
    2bb6:	d301      	bcc.n	2bbc <prvCopyDataFromQueue+0x1c>
    2bb8:	6819      	ldr	r1, [r3, #0]
    2bba:	60d9      	str	r1, [r3, #12]
    2bbc:	68d9      	ldr	r1, [r3, #12]
    2bbe:	4b01      	ldr	r3, [pc, #4]	; (2bc4 <prvCopyDataFromQueue+0x24>)
    2bc0:	4798      	blx	r3
    2bc2:	bd10      	pop	{r4, pc}
    2bc4:	0000834d 	.word	0x0000834d

00002bc8 <prvUnlockQueue>:
    2bc8:	b5f8      	push	{r3, r4, r5, r6, r7, lr}
    2bca:	0004      	movs	r4, r0
    2bcc:	0026      	movs	r6, r4
    2bce:	4f1c      	ldr	r7, [pc, #112]	; (2c40 <prvUnlockQueue+0x78>)
    2bd0:	3645      	adds	r6, #69	; 0x45
    2bd2:	47b8      	blx	r7
    2bd4:	7835      	ldrb	r5, [r6, #0]
    2bd6:	b26d      	sxtb	r5, r5
    2bd8:	2d00      	cmp	r5, #0
    2bda:	dc0e      	bgt.n	2bfa <prvUnlockQueue+0x32>
    2bdc:	23ff      	movs	r3, #255	; 0xff
    2bde:	7033      	strb	r3, [r6, #0]
    2be0:	4e18      	ldr	r6, [pc, #96]	; (2c44 <prvUnlockQueue+0x7c>)
    2be2:	47b0      	blx	r6
    2be4:	47b8      	blx	r7
    2be6:	0027      	movs	r7, r4
    2be8:	3744      	adds	r7, #68	; 0x44
    2bea:	783d      	ldrb	r5, [r7, #0]
    2bec:	b26d      	sxtb	r5, r5
    2bee:	2d00      	cmp	r5, #0
    2bf0:	dc18      	bgt.n	2c24 <prvUnlockQueue+0x5c>
    2bf2:	23ff      	movs	r3, #255	; 0xff
    2bf4:	703b      	strb	r3, [r7, #0]
    2bf6:	47b0      	blx	r6
    2bf8:	bdf8      	pop	{r3, r4, r5, r6, r7, pc}
    2bfa:	6ca3      	ldr	r3, [r4, #72]	; 0x48
    2bfc:	2b00      	cmp	r3, #0
    2bfe:	d009      	beq.n	2c14 <prvUnlockQueue+0x4c>
    2c00:	2100      	movs	r1, #0
    2c02:	0020      	movs	r0, r4
    2c04:	4b10      	ldr	r3, [pc, #64]	; (2c48 <prvUnlockQueue+0x80>)
    2c06:	4798      	blx	r3
    2c08:	2800      	cmp	r0, #0
    2c0a:	d001      	beq.n	2c10 <prvUnlockQueue+0x48>
    2c0c:	4b0f      	ldr	r3, [pc, #60]	; (2c4c <prvUnlockQueue+0x84>)
    2c0e:	4798      	blx	r3
    2c10:	3d01      	subs	r5, #1
    2c12:	e7e0      	b.n	2bd6 <prvUnlockQueue+0xe>
    2c14:	6a63      	ldr	r3, [r4, #36]	; 0x24
    2c16:	2b00      	cmp	r3, #0
    2c18:	d0e0      	beq.n	2bdc <prvUnlockQueue+0x14>
    2c1a:	0020      	movs	r0, r4
    2c1c:	4b0c      	ldr	r3, [pc, #48]	; (2c50 <prvUnlockQueue+0x88>)
    2c1e:	3024      	adds	r0, #36	; 0x24
    2c20:	4798      	blx	r3
    2c22:	e7f1      	b.n	2c08 <prvUnlockQueue+0x40>
    2c24:	6923      	ldr	r3, [r4, #16]
    2c26:	2b00      	cmp	r3, #0
    2c28:	d0e3      	beq.n	2bf2 <prvUnlockQueue+0x2a>
    2c2a:	0020      	movs	r0, r4
    2c2c:	4b08      	ldr	r3, [pc, #32]	; (2c50 <prvUnlockQueue+0x88>)
    2c2e:	3010      	adds	r0, #16
    2c30:	4798      	blx	r3
    2c32:	2800      	cmp	r0, #0
    2c34:	d001      	beq.n	2c3a <prvUnlockQueue+0x72>
    2c36:	4b05      	ldr	r3, [pc, #20]	; (2c4c <prvUnlockQueue+0x84>)
    2c38:	4798      	blx	r3
    2c3a:	3d01      	subs	r5, #1
    2c3c:	e7d6      	b.n	2bec <prvUnlockQueue+0x24>
    2c3e:	46c0      	nop			; (mov r8, r8)
    2c40:	00000e95 	.word	0x00000e95
    2c44:	00000ead 	.word	0x00000ead
    2c48:	00002b3d 	.word	0x00002b3d
    2c4c:	00003ae9 	.word	0x00003ae9
    2c50:	000039e5 	.word	0x000039e5

00002c54 <xQueueGenericReset>:
    2c54:	b570      	push	{r4, r5, r6, lr}
    2c56:	0004      	movs	r4, r0
    2c58:	000d      	movs	r5, r1
    2c5a:	2800      	cmp	r0, #0
    2c5c:	d101      	bne.n	2c62 <xQueueGenericReset+0xe>
    2c5e:	b672      	cpsid	i
    2c60:	e7fe      	b.n	2c60 <xQueueGenericReset+0xc>
    2c62:	4b16      	ldr	r3, [pc, #88]	; (2cbc <xQueueGenericReset+0x68>)
    2c64:	4798      	blx	r3
    2c66:	6c21      	ldr	r1, [r4, #64]	; 0x40
    2c68:	6be3      	ldr	r3, [r4, #60]	; 0x3c
    2c6a:	6822      	ldr	r2, [r4, #0]
    2c6c:	434b      	muls	r3, r1
    2c6e:	18d0      	adds	r0, r2, r3
    2c70:	1a5b      	subs	r3, r3, r1
    2c72:	18d3      	adds	r3, r2, r3
    2c74:	60e3      	str	r3, [r4, #12]
    2c76:	0023      	movs	r3, r4
    2c78:	6060      	str	r0, [r4, #4]
    2c7a:	60a2      	str	r2, [r4, #8]
    2c7c:	2000      	movs	r0, #0
    2c7e:	22ff      	movs	r2, #255	; 0xff
    2c80:	3344      	adds	r3, #68	; 0x44
    2c82:	63a0      	str	r0, [r4, #56]	; 0x38
    2c84:	701a      	strb	r2, [r3, #0]
    2c86:	705a      	strb	r2, [r3, #1]
    2c88:	4285      	cmp	r5, r0
    2c8a:	d10e      	bne.n	2caa <xQueueGenericReset+0x56>
    2c8c:	6923      	ldr	r3, [r4, #16]
    2c8e:	4283      	cmp	r3, r0
    2c90:	d007      	beq.n	2ca2 <xQueueGenericReset+0x4e>
    2c92:	0020      	movs	r0, r4
    2c94:	4b0a      	ldr	r3, [pc, #40]	; (2cc0 <xQueueGenericReset+0x6c>)
    2c96:	3010      	adds	r0, #16
    2c98:	4798      	blx	r3
    2c9a:	2800      	cmp	r0, #0
    2c9c:	d001      	beq.n	2ca2 <xQueueGenericReset+0x4e>
    2c9e:	4b09      	ldr	r3, [pc, #36]	; (2cc4 <xQueueGenericReset+0x70>)
    2ca0:	4798      	blx	r3
    2ca2:	4b09      	ldr	r3, [pc, #36]	; (2cc8 <xQueueGenericReset+0x74>)
    2ca4:	4798      	blx	r3
    2ca6:	2001      	movs	r0, #1
    2ca8:	bd70      	pop	{r4, r5, r6, pc}
    2caa:	0020      	movs	r0, r4
    2cac:	4d07      	ldr	r5, [pc, #28]	; (2ccc <xQueueGenericReset+0x78>)
    2cae:	3010      	adds	r0, #16
    2cb0:	47a8      	blx	r5
    2cb2:	0020      	movs	r0, r4
    2cb4:	3024      	adds	r0, #36	; 0x24
    2cb6:	47a8      	blx	r5
    2cb8:	e7f3      	b.n	2ca2 <xQueueGenericReset+0x4e>
    2cba:	46c0      	nop			; (mov r8, r8)
    2cbc:	00000e95 	.word	0x00000e95
    2cc0:	000039e5 	.word	0x000039e5
    2cc4:	00000e7d 	.word	0x00000e7d
    2cc8:	00000ead 	.word	0x00000ead
    2ccc:	00002a21 	.word	0x00002a21

00002cd0 <xQueueGenericCreate>:
    2cd0:	b5f8      	push	{r3, r4, r5, r6, r7, lr}
    2cd2:	0006      	movs	r6, r0
    2cd4:	000d      	movs	r5, r1
    2cd6:	0017      	movs	r7, r2
    2cd8:	2800      	cmp	r0, #0
    2cda:	d101      	bne.n	2ce0 <xQueueGenericCreate+0x10>
    2cdc:	b672      	cpsid	i
    2cde:	e7fe      	b.n	2cde <xQueueGenericCreate+0xe>
    2ce0:	0008      	movs	r0, r1
    2ce2:	4370      	muls	r0, r6
    2ce4:	4b0c      	ldr	r3, [pc, #48]	; (2d18 <xQueueGenericCreate+0x48>)
    2ce6:	3054      	adds	r0, #84	; 0x54
    2ce8:	4798      	blx	r3
    2cea:	1e04      	subs	r4, r0, #0
    2cec:	d00d      	beq.n	2d0a <xQueueGenericCreate+0x3a>
    2cee:	2d00      	cmp	r5, #0
    2cf0:	d10d      	bne.n	2d0e <xQueueGenericCreate+0x3e>
    2cf2:	6020      	str	r0, [r4, #0]
    2cf4:	4b09      	ldr	r3, [pc, #36]	; (2d1c <xQueueGenericCreate+0x4c>)
    2cf6:	63e6      	str	r6, [r4, #60]	; 0x3c
    2cf8:	6425      	str	r5, [r4, #64]	; 0x40
    2cfa:	2101      	movs	r1, #1
    2cfc:	0020      	movs	r0, r4
    2cfe:	4798      	blx	r3
    2d00:	0023      	movs	r3, r4
    2d02:	3350      	adds	r3, #80	; 0x50
    2d04:	701f      	strb	r7, [r3, #0]
    2d06:	2300      	movs	r3, #0
    2d08:	64a3      	str	r3, [r4, #72]	; 0x48
    2d0a:	0020      	movs	r0, r4
    2d0c:	bdf8      	pop	{r3, r4, r5, r6, r7, pc}
    2d0e:	0003      	movs	r3, r0
    2d10:	3354      	adds	r3, #84	; 0x54
    2d12:	6003      	str	r3, [r0, #0]
    2d14:	e7ee      	b.n	2cf4 <xQueueGenericCreate+0x24>
    2d16:	46c0      	nop			; (mov r8, r8)
    2d18:	00000fa1 	.word	0x00000fa1
    2d1c:	00002c55 	.word	0x00002c55

00002d20 <xQueueGenericSend>:
    2d20:	b5f0      	push	{r4, r5, r6, r7, lr}
    2d22:	b089      	sub	sp, #36	; 0x24
    2d24:	1e04      	subs	r4, r0, #0
    2d26:	9102      	str	r1, [sp, #8]
    2d28:	9205      	str	r2, [sp, #20]
    2d2a:	9301      	str	r3, [sp, #4]
    2d2c:	d101      	bne.n	2d32 <xQueueGenericSend+0x12>
    2d2e:	b672      	cpsid	i
    2d30:	e7fe      	b.n	2d30 <xQueueGenericSend+0x10>
    2d32:	9b02      	ldr	r3, [sp, #8]
    2d34:	2b00      	cmp	r3, #0
    2d36:	d000      	beq.n	2d3a <xQueueGenericSend+0x1a>
    2d38:	e074      	b.n	2e24 <xQueueGenericSend+0x104>
    2d3a:	6c03      	ldr	r3, [r0, #64]	; 0x40
    2d3c:	2b00      	cmp	r3, #0
    2d3e:	d100      	bne.n	2d42 <xQueueGenericSend+0x22>
    2d40:	e070      	b.n	2e24 <xQueueGenericSend+0x104>
    2d42:	b672      	cpsid	i
    2d44:	e7fe      	b.n	2d44 <xQueueGenericSend+0x24>
    2d46:	6a63      	ldr	r3, [r4, #36]	; 0x24
    2d48:	2b00      	cmp	r3, #0
    2d4a:	d05b      	beq.n	2e04 <xQueueGenericSend+0xe4>
    2d4c:	0020      	movs	r0, r4
    2d4e:	4b3e      	ldr	r3, [pc, #248]	; (2e48 <xQueueGenericSend+0x128>)
    2d50:	3024      	adds	r0, #36	; 0x24
    2d52:	4798      	blx	r3
    2d54:	e056      	b.n	2e04 <xQueueGenericSend+0xe4>
    2d56:	9d05      	ldr	r5, [sp, #20]
    2d58:	2d00      	cmp	r5, #0
    2d5a:	d102      	bne.n	2d62 <xQueueGenericSend+0x42>
    2d5c:	47b8      	blx	r7
    2d5e:	2000      	movs	r0, #0
    2d60:	e056      	b.n	2e10 <xQueueGenericSend+0xf0>
    2d62:	2e00      	cmp	r6, #0
    2d64:	d102      	bne.n	2d6c <xQueueGenericSend+0x4c>
    2d66:	a806      	add	r0, sp, #24
    2d68:	4b38      	ldr	r3, [pc, #224]	; (2e4c <xQueueGenericSend+0x12c>)
    2d6a:	4798      	blx	r3
    2d6c:	47b8      	blx	r7
    2d6e:	4b38      	ldr	r3, [pc, #224]	; (2e50 <xQueueGenericSend+0x130>)
    2d70:	4798      	blx	r3
    2d72:	4b38      	ldr	r3, [pc, #224]	; (2e54 <xQueueGenericSend+0x134>)
    2d74:	4798      	blx	r3
    2d76:	0022      	movs	r2, r4
    2d78:	3244      	adds	r2, #68	; 0x44
    2d7a:	7813      	ldrb	r3, [r2, #0]
    2d7c:	b25b      	sxtb	r3, r3
    2d7e:	3301      	adds	r3, #1
    2d80:	d101      	bne.n	2d86 <xQueueGenericSend+0x66>
    2d82:	2300      	movs	r3, #0
    2d84:	7013      	strb	r3, [r2, #0]
    2d86:	0022      	movs	r2, r4
    2d88:	3245      	adds	r2, #69	; 0x45
    2d8a:	7813      	ldrb	r3, [r2, #0]
    2d8c:	b25b      	sxtb	r3, r3
    2d8e:	3301      	adds	r3, #1
    2d90:	d101      	bne.n	2d96 <xQueueGenericSend+0x76>
    2d92:	2300      	movs	r3, #0
    2d94:	7013      	strb	r3, [r2, #0]
    2d96:	47b8      	blx	r7
    2d98:	a905      	add	r1, sp, #20
    2d9a:	a806      	add	r0, sp, #24
    2d9c:	4b2e      	ldr	r3, [pc, #184]	; (2e58 <xQueueGenericSend+0x138>)
    2d9e:	4798      	blx	r3
    2da0:	4e2e      	ldr	r6, [pc, #184]	; (2e5c <xQueueGenericSend+0x13c>)
    2da2:	4d2f      	ldr	r5, [pc, #188]	; (2e60 <xQueueGenericSend+0x140>)
    2da4:	2800      	cmp	r0, #0
    2da6:	d139      	bne.n	2e1c <xQueueGenericSend+0xfc>
    2da8:	4b2a      	ldr	r3, [pc, #168]	; (2e54 <xQueueGenericSend+0x134>)
    2daa:	4798      	blx	r3
    2dac:	6ba3      	ldr	r3, [r4, #56]	; 0x38
    2dae:	9303      	str	r3, [sp, #12]
    2db0:	6be3      	ldr	r3, [r4, #60]	; 0x3c
    2db2:	9304      	str	r3, [sp, #16]
    2db4:	47b8      	blx	r7
    2db6:	9b03      	ldr	r3, [sp, #12]
    2db8:	9a04      	ldr	r2, [sp, #16]
    2dba:	4293      	cmp	r3, r2
    2dbc:	d12a      	bne.n	2e14 <xQueueGenericSend+0xf4>
    2dbe:	0020      	movs	r0, r4
    2dc0:	9905      	ldr	r1, [sp, #20]
    2dc2:	3010      	adds	r0, #16
    2dc4:	4b27      	ldr	r3, [pc, #156]	; (2e64 <xQueueGenericSend+0x144>)
    2dc6:	4798      	blx	r3
    2dc8:	0020      	movs	r0, r4
    2dca:	47b0      	blx	r6
    2dcc:	47a8      	blx	r5
    2dce:	2800      	cmp	r0, #0
    2dd0:	d101      	bne.n	2dd6 <xQueueGenericSend+0xb6>
    2dd2:	4b25      	ldr	r3, [pc, #148]	; (2e68 <xQueueGenericSend+0x148>)
    2dd4:	4798      	blx	r3
    2dd6:	2601      	movs	r6, #1
    2dd8:	4b1e      	ldr	r3, [pc, #120]	; (2e54 <xQueueGenericSend+0x134>)
    2dda:	4798      	blx	r3
    2ddc:	6ba3      	ldr	r3, [r4, #56]	; 0x38
    2dde:	6be2      	ldr	r2, [r4, #60]	; 0x3c
    2de0:	4f22      	ldr	r7, [pc, #136]	; (2e6c <xQueueGenericSend+0x14c>)
    2de2:	4293      	cmp	r3, r2
    2de4:	d302      	bcc.n	2dec <xQueueGenericSend+0xcc>
    2de6:	9b01      	ldr	r3, [sp, #4]
    2de8:	2b02      	cmp	r3, #2
    2dea:	d1b4      	bne.n	2d56 <xQueueGenericSend+0x36>
    2dec:	4b20      	ldr	r3, [pc, #128]	; (2e70 <xQueueGenericSend+0x150>)
    2dee:	9a01      	ldr	r2, [sp, #4]
    2df0:	9902      	ldr	r1, [sp, #8]
    2df2:	0020      	movs	r0, r4
    2df4:	4798      	blx	r3
    2df6:	6ca3      	ldr	r3, [r4, #72]	; 0x48
    2df8:	2b00      	cmp	r3, #0
    2dfa:	d0a4      	beq.n	2d46 <xQueueGenericSend+0x26>
    2dfc:	9901      	ldr	r1, [sp, #4]
    2dfe:	0020      	movs	r0, r4
    2e00:	4b1c      	ldr	r3, [pc, #112]	; (2e74 <xQueueGenericSend+0x154>)
    2e02:	4798      	blx	r3
    2e04:	2800      	cmp	r0, #0
    2e06:	d001      	beq.n	2e0c <xQueueGenericSend+0xec>
    2e08:	4b17      	ldr	r3, [pc, #92]	; (2e68 <xQueueGenericSend+0x148>)
    2e0a:	4798      	blx	r3
    2e0c:	47b8      	blx	r7
    2e0e:	2001      	movs	r0, #1
    2e10:	b009      	add	sp, #36	; 0x24
    2e12:	bdf0      	pop	{r4, r5, r6, r7, pc}
    2e14:	0020      	movs	r0, r4
    2e16:	47b0      	blx	r6
    2e18:	47a8      	blx	r5
    2e1a:	e7dc      	b.n	2dd6 <xQueueGenericSend+0xb6>
    2e1c:	0020      	movs	r0, r4
    2e1e:	47b0      	blx	r6
    2e20:	47a8      	blx	r5
    2e22:	e79c      	b.n	2d5e <xQueueGenericSend+0x3e>
    2e24:	9b01      	ldr	r3, [sp, #4]
    2e26:	2b02      	cmp	r3, #2
    2e28:	d102      	bne.n	2e30 <xQueueGenericSend+0x110>
    2e2a:	6be3      	ldr	r3, [r4, #60]	; 0x3c
    2e2c:	2b01      	cmp	r3, #1
    2e2e:	d109      	bne.n	2e44 <xQueueGenericSend+0x124>
    2e30:	4b11      	ldr	r3, [pc, #68]	; (2e78 <xQueueGenericSend+0x158>)
    2e32:	4798      	blx	r3
    2e34:	2600      	movs	r6, #0
    2e36:	2800      	cmp	r0, #0
    2e38:	d1ce      	bne.n	2dd8 <xQueueGenericSend+0xb8>
    2e3a:	9e05      	ldr	r6, [sp, #20]
    2e3c:	2e00      	cmp	r6, #0
    2e3e:	d0cb      	beq.n	2dd8 <xQueueGenericSend+0xb8>
    2e40:	b672      	cpsid	i
    2e42:	e7fe      	b.n	2e42 <xQueueGenericSend+0x122>
    2e44:	b672      	cpsid	i
    2e46:	e7fe      	b.n	2e46 <xQueueGenericSend+0x126>
    2e48:	000039e5 	.word	0x000039e5
    2e4c:	00003a61 	.word	0x00003a61
    2e50:	0000354d 	.word	0x0000354d
    2e54:	00000e95 	.word	0x00000e95
    2e58:	00003a79 	.word	0x00003a79
    2e5c:	00002bc9 	.word	0x00002bc9
    2e60:	00003685 	.word	0x00003685
    2e64:	00003981 	.word	0x00003981
    2e68:	00000e7d 	.word	0x00000e7d
    2e6c:	00000ead 	.word	0x00000ead
    2e70:	00002ac5 	.word	0x00002ac5
    2e74:	00002b3d 	.word	0x00002b3d
    2e78:	00003af5 	.word	0x00003af5

00002e7c <xQueueGenericSendFromISR>:
    2e7c:	b5f0      	push	{r4, r5, r6, r7, lr}
    2e7e:	b085      	sub	sp, #20
    2e80:	0004      	movs	r4, r0
    2e82:	9101      	str	r1, [sp, #4]
    2e84:	0017      	movs	r7, r2
    2e86:	001e      	movs	r6, r3
    2e88:	2800      	cmp	r0, #0
    2e8a:	d101      	bne.n	2e90 <xQueueGenericSendFromISR+0x14>
    2e8c:	b672      	cpsid	i
    2e8e:	e7fe      	b.n	2e8e <xQueueGenericSendFromISR+0x12>
    2e90:	9b01      	ldr	r3, [sp, #4]
    2e92:	2b00      	cmp	r3, #0
    2e94:	d11b      	bne.n	2ece <xQueueGenericSendFromISR+0x52>
    2e96:	6c03      	ldr	r3, [r0, #64]	; 0x40
    2e98:	2b00      	cmp	r3, #0
    2e9a:	d018      	beq.n	2ece <xQueueGenericSendFromISR+0x52>
    2e9c:	b672      	cpsid	i
    2e9e:	e7fe      	b.n	2e9e <xQueueGenericSendFromISR+0x22>
    2ea0:	2f00      	cmp	r7, #0
    2ea2:	d038      	beq.n	2f16 <xQueueGenericSendFromISR+0x9a>
    2ea4:	2501      	movs	r5, #1
    2ea6:	603d      	str	r5, [r7, #0]
    2ea8:	9803      	ldr	r0, [sp, #12]
    2eaa:	4b1d      	ldr	r3, [pc, #116]	; (2f20 <xQueueGenericSendFromISR+0xa4>)
    2eac:	4798      	blx	r3
    2eae:	0028      	movs	r0, r5
    2eb0:	b005      	add	sp, #20
    2eb2:	bdf0      	pop	{r4, r5, r6, r7, pc}
    2eb4:	6a63      	ldr	r3, [r4, #36]	; 0x24
    2eb6:	2b00      	cmp	r3, #0
    2eb8:	d02d      	beq.n	2f16 <xQueueGenericSendFromISR+0x9a>
    2eba:	0020      	movs	r0, r4
    2ebc:	4b19      	ldr	r3, [pc, #100]	; (2f24 <xQueueGenericSendFromISR+0xa8>)
    2ebe:	3024      	adds	r0, #36	; 0x24
    2ec0:	4798      	blx	r3
    2ec2:	e026      	b.n	2f12 <xQueueGenericSendFromISR+0x96>
    2ec4:	3501      	adds	r5, #1
    2ec6:	9b02      	ldr	r3, [sp, #8]
    2ec8:	b26d      	sxtb	r5, r5
    2eca:	701d      	strb	r5, [r3, #0]
    2ecc:	e023      	b.n	2f16 <xQueueGenericSendFromISR+0x9a>
    2ece:	2e02      	cmp	r6, #2
    2ed0:	d102      	bne.n	2ed8 <xQueueGenericSendFromISR+0x5c>
    2ed2:	6be3      	ldr	r3, [r4, #60]	; 0x3c
    2ed4:	2b01      	cmp	r3, #1
    2ed6:	d120      	bne.n	2f1a <xQueueGenericSendFromISR+0x9e>
    2ed8:	4b13      	ldr	r3, [pc, #76]	; (2f28 <xQueueGenericSendFromISR+0xac>)
    2eda:	4798      	blx	r3
    2edc:	6ba3      	ldr	r3, [r4, #56]	; 0x38
    2ede:	6be2      	ldr	r2, [r4, #60]	; 0x3c
    2ee0:	9003      	str	r0, [sp, #12]
    2ee2:	4293      	cmp	r3, r2
    2ee4:	d302      	bcc.n	2eec <xQueueGenericSendFromISR+0x70>
    2ee6:	2500      	movs	r5, #0
    2ee8:	2e02      	cmp	r6, #2
    2eea:	d1dd      	bne.n	2ea8 <xQueueGenericSendFromISR+0x2c>
    2eec:	0023      	movs	r3, r4
    2eee:	3345      	adds	r3, #69	; 0x45
    2ef0:	9302      	str	r3, [sp, #8]
    2ef2:	781d      	ldrb	r5, [r3, #0]
    2ef4:	0032      	movs	r2, r6
    2ef6:	b26d      	sxtb	r5, r5
    2ef8:	4b0c      	ldr	r3, [pc, #48]	; (2f2c <xQueueGenericSendFromISR+0xb0>)
    2efa:	9901      	ldr	r1, [sp, #4]
    2efc:	0020      	movs	r0, r4
    2efe:	4798      	blx	r3
    2f00:	1c6b      	adds	r3, r5, #1
    2f02:	d1df      	bne.n	2ec4 <xQueueGenericSendFromISR+0x48>
    2f04:	6ca3      	ldr	r3, [r4, #72]	; 0x48
    2f06:	2b00      	cmp	r3, #0
    2f08:	d0d4      	beq.n	2eb4 <xQueueGenericSendFromISR+0x38>
    2f0a:	0031      	movs	r1, r6
    2f0c:	0020      	movs	r0, r4
    2f0e:	4b08      	ldr	r3, [pc, #32]	; (2f30 <xQueueGenericSendFromISR+0xb4>)
    2f10:	4798      	blx	r3
    2f12:	2800      	cmp	r0, #0
    2f14:	d1c4      	bne.n	2ea0 <xQueueGenericSendFromISR+0x24>
    2f16:	2501      	movs	r5, #1
    2f18:	e7c6      	b.n	2ea8 <xQueueGenericSendFromISR+0x2c>
    2f1a:	b672      	cpsid	i
    2f1c:	e7fe      	b.n	2f1c <xQueueGenericSendFromISR+0xa0>
    2f1e:	46c0      	nop			; (mov r8, r8)
    2f20:	00000ed1 	.word	0x00000ed1
    2f24:	000039e5 	.word	0x000039e5
    2f28:	00000ec9 	.word	0x00000ec9
    2f2c:	00002ac5 	.word	0x00002ac5
    2f30:	00002b3d 	.word	0x00002b3d

00002f34 <xQueueReceive>:
    2f34:	b5f0      	push	{r4, r5, r6, r7, lr}
    2f36:	b085      	sub	sp, #20
    2f38:	1e04      	subs	r4, r0, #0
    2f3a:	9100      	str	r1, [sp, #0]
    2f3c:	9201      	str	r2, [sp, #4]
    2f3e:	d101      	bne.n	2f44 <xQueueReceive+0x10>
    2f40:	b672      	cpsid	i
    2f42:	e7fe      	b.n	2f42 <xQueueReceive+0xe>
    2f44:	9b00      	ldr	r3, [sp, #0]
    2f46:	2b00      	cmp	r3, #0
    2f48:	d166      	bne.n	3018 <xQueueReceive+0xe4>
    2f4a:	6c03      	ldr	r3, [r0, #64]	; 0x40
    2f4c:	2b00      	cmp	r3, #0
    2f4e:	d063      	beq.n	3018 <xQueueReceive+0xe4>
    2f50:	b672      	cpsid	i
    2f52:	e7fe      	b.n	2f52 <xQueueReceive+0x1e>
    2f54:	9d01      	ldr	r5, [sp, #4]
    2f56:	2d00      	cmp	r5, #0
    2f58:	d102      	bne.n	2f60 <xQueueReceive+0x2c>
    2f5a:	47b8      	blx	r7
    2f5c:	2000      	movs	r0, #0
    2f5e:	e04d      	b.n	2ffc <xQueueReceive+0xc8>
    2f60:	2e00      	cmp	r6, #0
    2f62:	d102      	bne.n	2f6a <xQueueReceive+0x36>
    2f64:	a802      	add	r0, sp, #8
    2f66:	4b31      	ldr	r3, [pc, #196]	; (302c <xQueueReceive+0xf8>)
    2f68:	4798      	blx	r3
    2f6a:	47b8      	blx	r7
    2f6c:	4b30      	ldr	r3, [pc, #192]	; (3030 <xQueueReceive+0xfc>)
    2f6e:	4798      	blx	r3
    2f70:	4b30      	ldr	r3, [pc, #192]	; (3034 <xQueueReceive+0x100>)
    2f72:	4798      	blx	r3
    2f74:	0022      	movs	r2, r4
    2f76:	3244      	adds	r2, #68	; 0x44
    2f78:	7813      	ldrb	r3, [r2, #0]
    2f7a:	b25b      	sxtb	r3, r3
    2f7c:	3301      	adds	r3, #1
    2f7e:	d101      	bne.n	2f84 <xQueueReceive+0x50>
    2f80:	2300      	movs	r3, #0
    2f82:	7013      	strb	r3, [r2, #0]
    2f84:	0022      	movs	r2, r4
    2f86:	3245      	adds	r2, #69	; 0x45
    2f88:	7813      	ldrb	r3, [r2, #0]
    2f8a:	b25b      	sxtb	r3, r3
    2f8c:	3301      	adds	r3, #1
    2f8e:	d101      	bne.n	2f94 <xQueueReceive+0x60>
    2f90:	2300      	movs	r3, #0
    2f92:	7013      	strb	r3, [r2, #0]
    2f94:	47b8      	blx	r7
    2f96:	a901      	add	r1, sp, #4
    2f98:	a802      	add	r0, sp, #8
    2f9a:	4b27      	ldr	r3, [pc, #156]	; (3038 <xQueueReceive+0x104>)
    2f9c:	4798      	blx	r3
    2f9e:	4f27      	ldr	r7, [pc, #156]	; (303c <xQueueReceive+0x108>)
    2fa0:	4d27      	ldr	r5, [pc, #156]	; (3040 <xQueueReceive+0x10c>)
    2fa2:	4e28      	ldr	r6, [pc, #160]	; (3044 <xQueueReceive+0x110>)
    2fa4:	2800      	cmp	r0, #0
    2fa6:	d12f      	bne.n	3008 <xQueueReceive+0xd4>
    2fa8:	0020      	movs	r0, r4
    2faa:	47b8      	blx	r7
    2fac:	2800      	cmp	r0, #0
    2fae:	d027      	beq.n	3000 <xQueueReceive+0xcc>
    2fb0:	0020      	movs	r0, r4
    2fb2:	9901      	ldr	r1, [sp, #4]
    2fb4:	3024      	adds	r0, #36	; 0x24
    2fb6:	4b24      	ldr	r3, [pc, #144]	; (3048 <xQueueReceive+0x114>)
    2fb8:	4798      	blx	r3
    2fba:	0020      	movs	r0, r4
    2fbc:	47a8      	blx	r5
    2fbe:	47b0      	blx	r6
    2fc0:	2800      	cmp	r0, #0
    2fc2:	d101      	bne.n	2fc8 <xQueueReceive+0x94>
    2fc4:	4b21      	ldr	r3, [pc, #132]	; (304c <xQueueReceive+0x118>)
    2fc6:	4798      	blx	r3
    2fc8:	2601      	movs	r6, #1
    2fca:	4b1a      	ldr	r3, [pc, #104]	; (3034 <xQueueReceive+0x100>)
    2fcc:	4798      	blx	r3
    2fce:	6ba5      	ldr	r5, [r4, #56]	; 0x38
    2fd0:	4f1f      	ldr	r7, [pc, #124]	; (3050 <xQueueReceive+0x11c>)
    2fd2:	2d00      	cmp	r5, #0
    2fd4:	d0be      	beq.n	2f54 <xQueueReceive+0x20>
    2fd6:	4b1f      	ldr	r3, [pc, #124]	; (3054 <xQueueReceive+0x120>)
    2fd8:	9900      	ldr	r1, [sp, #0]
    2fda:	0020      	movs	r0, r4
    2fdc:	3d01      	subs	r5, #1
    2fde:	4798      	blx	r3
    2fe0:	63a5      	str	r5, [r4, #56]	; 0x38
    2fe2:	6923      	ldr	r3, [r4, #16]
    2fe4:	2b00      	cmp	r3, #0
    2fe6:	d007      	beq.n	2ff8 <xQueueReceive+0xc4>
    2fe8:	0020      	movs	r0, r4
    2fea:	4b1b      	ldr	r3, [pc, #108]	; (3058 <xQueueReceive+0x124>)
    2fec:	3010      	adds	r0, #16
    2fee:	4798      	blx	r3
    2ff0:	2800      	cmp	r0, #0
    2ff2:	d001      	beq.n	2ff8 <xQueueReceive+0xc4>
    2ff4:	4b15      	ldr	r3, [pc, #84]	; (304c <xQueueReceive+0x118>)
    2ff6:	4798      	blx	r3
    2ff8:	47b8      	blx	r7
    2ffa:	2001      	movs	r0, #1
    2ffc:	b005      	add	sp, #20
    2ffe:	bdf0      	pop	{r4, r5, r6, r7, pc}
    3000:	0020      	movs	r0, r4
    3002:	47a8      	blx	r5
    3004:	47b0      	blx	r6
    3006:	e7df      	b.n	2fc8 <xQueueReceive+0x94>
    3008:	0020      	movs	r0, r4
    300a:	47a8      	blx	r5
    300c:	47b0      	blx	r6
    300e:	0020      	movs	r0, r4
    3010:	47b8      	blx	r7
    3012:	2800      	cmp	r0, #0
    3014:	d0d8      	beq.n	2fc8 <xQueueReceive+0x94>
    3016:	e7a1      	b.n	2f5c <xQueueReceive+0x28>
    3018:	4b10      	ldr	r3, [pc, #64]	; (305c <xQueueReceive+0x128>)
    301a:	4798      	blx	r3
    301c:	2600      	movs	r6, #0
    301e:	2800      	cmp	r0, #0
    3020:	d1d3      	bne.n	2fca <xQueueReceive+0x96>
    3022:	9e01      	ldr	r6, [sp, #4]
    3024:	2e00      	cmp	r6, #0
    3026:	d0d0      	beq.n	2fca <xQueueReceive+0x96>
    3028:	b672      	cpsid	i
    302a:	e7fe      	b.n	302a <xQueueReceive+0xf6>
    302c:	00003a61 	.word	0x00003a61
    3030:	0000354d 	.word	0x0000354d
    3034:	00000e95 	.word	0x00000e95
    3038:	00003a79 	.word	0x00003a79
    303c:	00002aa9 	.word	0x00002aa9
    3040:	00002bc9 	.word	0x00002bc9
    3044:	00003685 	.word	0x00003685
    3048:	00003981 	.word	0x00003981
    304c:	00000e7d 	.word	0x00000e7d
    3050:	00000ead 	.word	0x00000ead
    3054:	00002ba1 	.word	0x00002ba1
    3058:	000039e5 	.word	0x000039e5
    305c:	00003af5 	.word	0x00003af5

00003060 <vQueueAddToRegistry>:
    3060:	2300      	movs	r3, #0
    3062:	b570      	push	{r4, r5, r6, lr}
    3064:	4a06      	ldr	r2, [pc, #24]	; (3080 <vQueueAddToRegistry+0x20>)
    3066:	00dd      	lsls	r5, r3, #3
    3068:	18ac      	adds	r4, r5, r2
    306a:	6826      	ldr	r6, [r4, #0]
    306c:	2e00      	cmp	r6, #0
    306e:	d102      	bne.n	3076 <vQueueAddToRegistry+0x16>
    3070:	50a9      	str	r1, [r5, r2]
    3072:	6060      	str	r0, [r4, #4]
    3074:	bd70      	pop	{r4, r5, r6, pc}
    3076:	3301      	adds	r3, #1
    3078:	2b08      	cmp	r3, #8
    307a:	d1f4      	bne.n	3066 <vQueueAddToRegistry+0x6>
    307c:	e7fa      	b.n	3074 <vQueueAddToRegistry+0x14>
    307e:	46c0      	nop			; (mov r8, r8)
    3080:	200053d0 	.word	0x200053d0

00003084 <vQueueWaitForMessageRestricted>:
    3084:	b570      	push	{r4, r5, r6, lr}
    3086:	0004      	movs	r4, r0
    3088:	4b11      	ldr	r3, [pc, #68]	; (30d0 <vQueueWaitForMessageRestricted+0x4c>)
    308a:	0016      	movs	r6, r2
    308c:	000d      	movs	r5, r1
    308e:	4798      	blx	r3
    3090:	0022      	movs	r2, r4
    3092:	3244      	adds	r2, #68	; 0x44
    3094:	7813      	ldrb	r3, [r2, #0]
    3096:	b25b      	sxtb	r3, r3
    3098:	3301      	adds	r3, #1
    309a:	d101      	bne.n	30a0 <vQueueWaitForMessageRestricted+0x1c>
    309c:	2300      	movs	r3, #0
    309e:	7013      	strb	r3, [r2, #0]
    30a0:	0022      	movs	r2, r4
    30a2:	3245      	adds	r2, #69	; 0x45
    30a4:	7813      	ldrb	r3, [r2, #0]
    30a6:	b25b      	sxtb	r3, r3
    30a8:	3301      	adds	r3, #1
    30aa:	d101      	bne.n	30b0 <vQueueWaitForMessageRestricted+0x2c>
    30ac:	2300      	movs	r3, #0
    30ae:	7013      	strb	r3, [r2, #0]
    30b0:	4b08      	ldr	r3, [pc, #32]	; (30d4 <vQueueWaitForMessageRestricted+0x50>)
    30b2:	4798      	blx	r3
    30b4:	6ba3      	ldr	r3, [r4, #56]	; 0x38
    30b6:	2b00      	cmp	r3, #0
    30b8:	d105      	bne.n	30c6 <vQueueWaitForMessageRestricted+0x42>
    30ba:	0020      	movs	r0, r4
    30bc:	0032      	movs	r2, r6
    30be:	0029      	movs	r1, r5
    30c0:	3024      	adds	r0, #36	; 0x24
    30c2:	4b05      	ldr	r3, [pc, #20]	; (30d8 <vQueueWaitForMessageRestricted+0x54>)
    30c4:	4798      	blx	r3
    30c6:	0020      	movs	r0, r4
    30c8:	4b04      	ldr	r3, [pc, #16]	; (30dc <vQueueWaitForMessageRestricted+0x58>)
    30ca:	4798      	blx	r3
    30cc:	bd70      	pop	{r4, r5, r6, pc}
    30ce:	46c0      	nop			; (mov r8, r8)
    30d0:	00000e95 	.word	0x00000e95
    30d4:	00000ead 	.word	0x00000ead
    30d8:	000039ad 	.word	0x000039ad
    30dc:	00002bc9 	.word	0x00002bc9

000030e0 <prvTaskIsTaskSuspended>:
    30e0:	2800      	cmp	r0, #0
    30e2:	d101      	bne.n	30e8 <prvTaskIsTaskSuspended+0x8>
    30e4:	b672      	cpsid	i
    30e6:	e7fe      	b.n	30e6 <prvTaskIsTaskSuspended+0x6>
    30e8:	4b06      	ldr	r3, [pc, #24]	; (3104 <prvTaskIsTaskSuspended+0x24>)
    30ea:	6942      	ldr	r2, [r0, #20]
    30ec:	429a      	cmp	r2, r3
    30ee:	d001      	beq.n	30f4 <prvTaskIsTaskSuspended+0x14>
    30f0:	2200      	movs	r2, #0
    30f2:	e005      	b.n	3100 <prvTaskIsTaskSuspended+0x20>
    30f4:	6a80      	ldr	r0, [r0, #40]	; 0x28
    30f6:	4b04      	ldr	r3, [pc, #16]	; (3108 <prvTaskIsTaskSuspended+0x28>)
    30f8:	4298      	cmp	r0, r3
    30fa:	d0f9      	beq.n	30f0 <prvTaskIsTaskSuspended+0x10>
    30fc:	4242      	negs	r2, r0
    30fe:	4142      	adcs	r2, r0
    3100:	0010      	movs	r0, r2
    3102:	4770      	bx	lr
    3104:	20005314 	.word	0x20005314
    3108:	200052fc 	.word	0x200052fc

0000310c <prvResetNextTaskUnblockTime>:
    310c:	4a07      	ldr	r2, [pc, #28]	; (312c <prvResetNextTaskUnblockTime+0x20>)
    310e:	6813      	ldr	r3, [r2, #0]
    3110:	6819      	ldr	r1, [r3, #0]
    3112:	4b07      	ldr	r3, [pc, #28]	; (3130 <prvResetNextTaskUnblockTime+0x24>)
    3114:	2900      	cmp	r1, #0
    3116:	d103      	bne.n	3120 <prvResetNextTaskUnblockTime+0x14>
    3118:	2201      	movs	r2, #1
    311a:	4252      	negs	r2, r2
    311c:	601a      	str	r2, [r3, #0]
    311e:	4770      	bx	lr
    3120:	6812      	ldr	r2, [r2, #0]
    3122:	68d2      	ldr	r2, [r2, #12]
    3124:	68d2      	ldr	r2, [r2, #12]
    3126:	6852      	ldr	r2, [r2, #4]
    3128:	e7f8      	b.n	311c <prvResetNextTaskUnblockTime+0x10>
    312a:	46c0      	nop			; (mov r8, r8)
    312c:	20005244 	.word	0x20005244
    3130:	200052f4 	.word	0x200052f4

00003134 <prvAddCurrentTaskToDelayedList>:
    3134:	b5f8      	push	{r3, r4, r5, r6, r7, lr}
    3136:	0004      	movs	r4, r0
    3138:	4b13      	ldr	r3, [pc, #76]	; (3188 <prvAddCurrentTaskToDelayedList+0x54>)
    313a:	4d14      	ldr	r5, [pc, #80]	; (318c <prvAddCurrentTaskToDelayedList+0x58>)
    313c:	681e      	ldr	r6, [r3, #0]
    313e:	6828      	ldr	r0, [r5, #0]
    3140:	4b13      	ldr	r3, [pc, #76]	; (3190 <prvAddCurrentTaskToDelayedList+0x5c>)
    3142:	3004      	adds	r0, #4
    3144:	000f      	movs	r7, r1
    3146:	4798      	blx	r3
    3148:	1c63      	adds	r3, r4, #1
    314a:	d107      	bne.n	315c <prvAddCurrentTaskToDelayedList+0x28>
    314c:	2f00      	cmp	r7, #0
    314e:	d005      	beq.n	315c <prvAddCurrentTaskToDelayedList+0x28>
    3150:	6829      	ldr	r1, [r5, #0]
    3152:	4810      	ldr	r0, [pc, #64]	; (3194 <prvAddCurrentTaskToDelayedList+0x60>)
    3154:	4b10      	ldr	r3, [pc, #64]	; (3198 <prvAddCurrentTaskToDelayedList+0x64>)
    3156:	3104      	adds	r1, #4
    3158:	4798      	blx	r3
    315a:	bdf8      	pop	{r3, r4, r5, r6, r7, pc}
    315c:	682b      	ldr	r3, [r5, #0]
    315e:	1934      	adds	r4, r6, r4
    3160:	605c      	str	r4, [r3, #4]
    3162:	4b0e      	ldr	r3, [pc, #56]	; (319c <prvAddCurrentTaskToDelayedList+0x68>)
    3164:	42a6      	cmp	r6, r4
    3166:	d904      	bls.n	3172 <prvAddCurrentTaskToDelayedList+0x3e>
    3168:	4a0d      	ldr	r2, [pc, #52]	; (31a0 <prvAddCurrentTaskToDelayedList+0x6c>)
    316a:	6810      	ldr	r0, [r2, #0]
    316c:	6829      	ldr	r1, [r5, #0]
    316e:	3104      	adds	r1, #4
    3170:	e7f2      	b.n	3158 <prvAddCurrentTaskToDelayedList+0x24>
    3172:	4a0c      	ldr	r2, [pc, #48]	; (31a4 <prvAddCurrentTaskToDelayedList+0x70>)
    3174:	6810      	ldr	r0, [r2, #0]
    3176:	6829      	ldr	r1, [r5, #0]
    3178:	3104      	adds	r1, #4
    317a:	4798      	blx	r3
    317c:	4b0a      	ldr	r3, [pc, #40]	; (31a8 <prvAddCurrentTaskToDelayedList+0x74>)
    317e:	681a      	ldr	r2, [r3, #0]
    3180:	4294      	cmp	r4, r2
    3182:	d2ea      	bcs.n	315a <prvAddCurrentTaskToDelayedList+0x26>
    3184:	601c      	str	r4, [r3, #0]
    3186:	e7e8      	b.n	315a <prvAddCurrentTaskToDelayedList+0x26>
    3188:	2000533c 	.word	0x2000533c
    318c:	20005240 	.word	0x20005240
    3190:	00002a83 	.word	0x00002a83
    3194:	20005314 	.word	0x20005314
    3198:	00002a3d 	.word	0x00002a3d
    319c:	00002a55 	.word	0x00002a55
    31a0:	20005248 	.word	0x20005248
    31a4:	20005244 	.word	0x20005244
    31a8:	200052f4 	.word	0x200052f4

000031ac <prvIdleTask>:
    31ac:	b570      	push	{r4, r5, r6, lr}
    31ae:	4c12      	ldr	r4, [pc, #72]	; (31f8 <prvIdleTask+0x4c>)
    31b0:	6823      	ldr	r3, [r4, #0]
    31b2:	2b00      	cmp	r3, #0
    31b4:	d108      	bne.n	31c8 <prvIdleTask+0x1c>
    31b6:	4b11      	ldr	r3, [pc, #68]	; (31fc <prvIdleTask+0x50>)
    31b8:	681b      	ldr	r3, [r3, #0]
    31ba:	2b01      	cmp	r3, #1
    31bc:	d901      	bls.n	31c2 <prvIdleTask+0x16>
    31be:	4b10      	ldr	r3, [pc, #64]	; (3200 <prvIdleTask+0x54>)
    31c0:	4798      	blx	r3
    31c2:	4b10      	ldr	r3, [pc, #64]	; (3204 <prvIdleTask+0x58>)
    31c4:	4798      	blx	r3
    31c6:	e7f2      	b.n	31ae <prvIdleTask+0x2>
    31c8:	4b0f      	ldr	r3, [pc, #60]	; (3208 <prvIdleTask+0x5c>)
    31ca:	4798      	blx	r3
    31cc:	4b0f      	ldr	r3, [pc, #60]	; (320c <prvIdleTask+0x60>)
    31ce:	68db      	ldr	r3, [r3, #12]
    31d0:	68dd      	ldr	r5, [r3, #12]
    31d2:	4b0f      	ldr	r3, [pc, #60]	; (3210 <prvIdleTask+0x64>)
    31d4:	1d28      	adds	r0, r5, #4
    31d6:	4798      	blx	r3
    31d8:	4a0e      	ldr	r2, [pc, #56]	; (3214 <prvIdleTask+0x68>)
    31da:	6813      	ldr	r3, [r2, #0]
    31dc:	3b01      	subs	r3, #1
    31de:	6013      	str	r3, [r2, #0]
    31e0:	6823      	ldr	r3, [r4, #0]
    31e2:	3b01      	subs	r3, #1
    31e4:	6023      	str	r3, [r4, #0]
    31e6:	4b0c      	ldr	r3, [pc, #48]	; (3218 <prvIdleTask+0x6c>)
    31e8:	4798      	blx	r3
    31ea:	6b28      	ldr	r0, [r5, #48]	; 0x30
    31ec:	4c0b      	ldr	r4, [pc, #44]	; (321c <prvIdleTask+0x70>)
    31ee:	47a0      	blx	r4
    31f0:	0028      	movs	r0, r5
    31f2:	47a0      	blx	r4
    31f4:	e7db      	b.n	31ae <prvIdleTask+0x2>
    31f6:	46c0      	nop			; (mov r8, r8)
    31f8:	200052b4 	.word	0x200052b4
    31fc:	2000524c 	.word	0x2000524c
    3200:	00000e7d 	.word	0x00000e7d
    3204:	00005415 	.word	0x00005415
    3208:	00000e95 	.word	0x00000e95
    320c:	20005328 	.word	0x20005328
    3210:	00002a83 	.word	0x00002a83
    3214:	200052b0 	.word	0x200052b0
    3218:	00000ead 	.word	0x00000ead
    321c:	000010b9 	.word	0x000010b9

00003220 <xTaskCreate>:
    3220:	b5f0      	push	{r4, r5, r6, r7, lr}
    3222:	0095      	lsls	r5, r2, #2
    3224:	b085      	sub	sp, #20
    3226:	9001      	str	r0, [sp, #4]
    3228:	4c55      	ldr	r4, [pc, #340]	; (3380 <xTaskCreate+0x160>)
    322a:	0028      	movs	r0, r5
    322c:	000f      	movs	r7, r1
    322e:	9302      	str	r3, [sp, #8]
    3230:	47a0      	blx	r4
    3232:	1e06      	subs	r6, r0, #0
    3234:	d100      	bne.n	3238 <xTaskCreate+0x18>
    3236:	e094      	b.n	3362 <xTaskCreate+0x142>
    3238:	2058      	movs	r0, #88	; 0x58
    323a:	47a0      	blx	r4
    323c:	1e04      	subs	r4, r0, #0
    323e:	d100      	bne.n	3242 <xTaskCreate+0x22>
    3240:	e08c      	b.n	335c <xTaskCreate+0x13c>
    3242:	6306      	str	r6, [r0, #48]	; 0x30
    3244:	002a      	movs	r2, r5
    3246:	4b4f      	ldr	r3, [pc, #316]	; (3384 <xTaskCreate+0x164>)
    3248:	21a5      	movs	r1, #165	; 0xa5
    324a:	0030      	movs	r0, r6
    324c:	4798      	blx	r3
    324e:	6b23      	ldr	r3, [r4, #48]	; 0x30
    3250:	3d04      	subs	r5, #4
    3252:	195d      	adds	r5, r3, r5
    3254:	2307      	movs	r3, #7
    3256:	439d      	bics	r5, r3
    3258:	2300      	movs	r3, #0
    325a:	9500      	str	r5, [sp, #0]
    325c:	001a      	movs	r2, r3
    325e:	5cf9      	ldrb	r1, [r7, r3]
    3260:	3234      	adds	r2, #52	; 0x34
    3262:	54a1      	strb	r1, [r4, r2]
    3264:	5cfa      	ldrb	r2, [r7, r3]
    3266:	2a00      	cmp	r2, #0
    3268:	d002      	beq.n	3270 <xTaskCreate+0x50>
    326a:	3301      	adds	r3, #1
    326c:	2b0a      	cmp	r3, #10
    326e:	d1f5      	bne.n	325c <xTaskCreate+0x3c>
    3270:	0023      	movs	r3, r4
    3272:	2700      	movs	r7, #0
    3274:	9d0a      	ldr	r5, [sp, #40]	; 0x28
    3276:	333d      	adds	r3, #61	; 0x3d
    3278:	701f      	strb	r7, [r3, #0]
    327a:	2d04      	cmp	r5, #4
    327c:	d900      	bls.n	3280 <xTaskCreate+0x60>
    327e:	2504      	movs	r5, #4
    3280:	1d23      	adds	r3, r4, #4
    3282:	0018      	movs	r0, r3
    3284:	62e5      	str	r5, [r4, #44]	; 0x2c
    3286:	64a5      	str	r5, [r4, #72]	; 0x48
    3288:	4e3f      	ldr	r6, [pc, #252]	; (3388 <xTaskCreate+0x168>)
    328a:	64e7      	str	r7, [r4, #76]	; 0x4c
    328c:	9303      	str	r3, [sp, #12]
    328e:	47b0      	blx	r6
    3290:	0020      	movs	r0, r4
    3292:	3018      	adds	r0, #24
    3294:	47b0      	blx	r6
    3296:	2305      	movs	r3, #5
    3298:	1b5d      	subs	r5, r3, r5
    329a:	0023      	movs	r3, r4
    329c:	3354      	adds	r3, #84	; 0x54
    329e:	6124      	str	r4, [r4, #16]
    32a0:	61a5      	str	r5, [r4, #24]
    32a2:	6264      	str	r4, [r4, #36]	; 0x24
    32a4:	6527      	str	r7, [r4, #80]	; 0x50
    32a6:	9a02      	ldr	r2, [sp, #8]
    32a8:	701f      	strb	r7, [r3, #0]
    32aa:	9901      	ldr	r1, [sp, #4]
    32ac:	4b37      	ldr	r3, [pc, #220]	; (338c <xTaskCreate+0x16c>)
    32ae:	9800      	ldr	r0, [sp, #0]
    32b0:	4798      	blx	r3
    32b2:	9b0b      	ldr	r3, [sp, #44]	; 0x2c
    32b4:	6020      	str	r0, [r4, #0]
    32b6:	2b00      	cmp	r3, #0
    32b8:	d000      	beq.n	32bc <xTaskCreate+0x9c>
    32ba:	601c      	str	r4, [r3, #0]
    32bc:	4b34      	ldr	r3, [pc, #208]	; (3390 <xTaskCreate+0x170>)
    32be:	4798      	blx	r3
    32c0:	4b34      	ldr	r3, [pc, #208]	; (3394 <xTaskCreate+0x174>)
    32c2:	4f35      	ldr	r7, [pc, #212]	; (3398 <xTaskCreate+0x178>)
    32c4:	681a      	ldr	r2, [r3, #0]
    32c6:	4e35      	ldr	r6, [pc, #212]	; (339c <xTaskCreate+0x17c>)
    32c8:	3201      	adds	r2, #1
    32ca:	601a      	str	r2, [r3, #0]
    32cc:	683a      	ldr	r2, [r7, #0]
    32ce:	2a00      	cmp	r2, #0
    32d0:	d14a      	bne.n	3368 <xTaskCreate+0x148>
    32d2:	603c      	str	r4, [r7, #0]
    32d4:	681b      	ldr	r3, [r3, #0]
    32d6:	2b01      	cmp	r3, #1
    32d8:	d11e      	bne.n	3318 <xTaskCreate+0xf8>
    32da:	4d31      	ldr	r5, [pc, #196]	; (33a0 <xTaskCreate+0x180>)
    32dc:	0030      	movs	r0, r6
    32de:	47a8      	blx	r5
    32e0:	0030      	movs	r0, r6
    32e2:	3014      	adds	r0, #20
    32e4:	47a8      	blx	r5
    32e6:	0030      	movs	r0, r6
    32e8:	3028      	adds	r0, #40	; 0x28
    32ea:	47a8      	blx	r5
    32ec:	0030      	movs	r0, r6
    32ee:	303c      	adds	r0, #60	; 0x3c
    32f0:	47a8      	blx	r5
    32f2:	0030      	movs	r0, r6
    32f4:	3050      	adds	r0, #80	; 0x50
    32f6:	47a8      	blx	r5
    32f8:	482a      	ldr	r0, [pc, #168]	; (33a4 <xTaskCreate+0x184>)
    32fa:	47a8      	blx	r5
    32fc:	482a      	ldr	r0, [pc, #168]	; (33a8 <xTaskCreate+0x188>)
    32fe:	47a8      	blx	r5
    3300:	482a      	ldr	r0, [pc, #168]	; (33ac <xTaskCreate+0x18c>)
    3302:	47a8      	blx	r5
    3304:	482a      	ldr	r0, [pc, #168]	; (33b0 <xTaskCreate+0x190>)
    3306:	47a8      	blx	r5
    3308:	482a      	ldr	r0, [pc, #168]	; (33b4 <xTaskCreate+0x194>)
    330a:	47a8      	blx	r5
    330c:	4b2a      	ldr	r3, [pc, #168]	; (33b8 <xTaskCreate+0x198>)
    330e:	4a25      	ldr	r2, [pc, #148]	; (33a4 <xTaskCreate+0x184>)
    3310:	601a      	str	r2, [r3, #0]
    3312:	4b2a      	ldr	r3, [pc, #168]	; (33bc <xTaskCreate+0x19c>)
    3314:	4a24      	ldr	r2, [pc, #144]	; (33a8 <xTaskCreate+0x188>)
    3316:	601a      	str	r2, [r3, #0]
    3318:	4a29      	ldr	r2, [pc, #164]	; (33c0 <xTaskCreate+0x1a0>)
    331a:	6813      	ldr	r3, [r2, #0]
    331c:	3301      	adds	r3, #1
    331e:	6013      	str	r3, [r2, #0]
    3320:	4a28      	ldr	r2, [pc, #160]	; (33c4 <xTaskCreate+0x1a4>)
    3322:	6423      	str	r3, [r4, #64]	; 0x40
    3324:	6811      	ldr	r1, [r2, #0]
    3326:	6ae3      	ldr	r3, [r4, #44]	; 0x2c
    3328:	428b      	cmp	r3, r1
    332a:	d900      	bls.n	332e <xTaskCreate+0x10e>
    332c:	6013      	str	r3, [r2, #0]
    332e:	2014      	movs	r0, #20
    3330:	4358      	muls	r0, r3
    3332:	1d21      	adds	r1, r4, #4
    3334:	1830      	adds	r0, r6, r0
    3336:	4b24      	ldr	r3, [pc, #144]	; (33c8 <xTaskCreate+0x1a8>)
    3338:	4798      	blx	r3
    333a:	4b24      	ldr	r3, [pc, #144]	; (33cc <xTaskCreate+0x1ac>)
    333c:	4798      	blx	r3
    333e:	4b24      	ldr	r3, [pc, #144]	; (33d0 <xTaskCreate+0x1b0>)
    3340:	2501      	movs	r5, #1
    3342:	681b      	ldr	r3, [r3, #0]
    3344:	2b00      	cmp	r3, #0
    3346:	d006      	beq.n	3356 <xTaskCreate+0x136>
    3348:	683b      	ldr	r3, [r7, #0]
    334a:	6ada      	ldr	r2, [r3, #44]	; 0x2c
    334c:	6ae3      	ldr	r3, [r4, #44]	; 0x2c
    334e:	429a      	cmp	r2, r3
    3350:	d201      	bcs.n	3356 <xTaskCreate+0x136>
    3352:	4b20      	ldr	r3, [pc, #128]	; (33d4 <xTaskCreate+0x1b4>)
    3354:	4798      	blx	r3
    3356:	0028      	movs	r0, r5
    3358:	b005      	add	sp, #20
    335a:	bdf0      	pop	{r4, r5, r6, r7, pc}
    335c:	0030      	movs	r0, r6
    335e:	4b1e      	ldr	r3, [pc, #120]	; (33d8 <xTaskCreate+0x1b8>)
    3360:	4798      	blx	r3
    3362:	2501      	movs	r5, #1
    3364:	426d      	negs	r5, r5
    3366:	e7f6      	b.n	3356 <xTaskCreate+0x136>
    3368:	4b19      	ldr	r3, [pc, #100]	; (33d0 <xTaskCreate+0x1b0>)
    336a:	681b      	ldr	r3, [r3, #0]
    336c:	2b00      	cmp	r3, #0
    336e:	d1d3      	bne.n	3318 <xTaskCreate+0xf8>
    3370:	683b      	ldr	r3, [r7, #0]
    3372:	6ae2      	ldr	r2, [r4, #44]	; 0x2c
    3374:	6adb      	ldr	r3, [r3, #44]	; 0x2c
    3376:	4293      	cmp	r3, r2
    3378:	d8ce      	bhi.n	3318 <xTaskCreate+0xf8>
    337a:	603c      	str	r4, [r7, #0]
    337c:	e7cc      	b.n	3318 <xTaskCreate+0xf8>
    337e:	46c0      	nop			; (mov r8, r8)
    3380:	00000fa1 	.word	0x00000fa1
    3384:	0000835f 	.word	0x0000835f
    3388:	00002a37 	.word	0x00002a37
    338c:	00000df5 	.word	0x00000df5
    3390:	00000e95 	.word	0x00000e95
    3394:	200052b0 	.word	0x200052b0
    3398:	20005240 	.word	0x20005240
    339c:	2000524c 	.word	0x2000524c
    33a0:	00002a21 	.word	0x00002a21
    33a4:	200052c8 	.word	0x200052c8
    33a8:	200052dc 	.word	0x200052dc
    33ac:	200052fc 	.word	0x200052fc
    33b0:	20005328 	.word	0x20005328
    33b4:	20005314 	.word	0x20005314
    33b8:	20005244 	.word	0x20005244
    33bc:	20005248 	.word	0x20005248
    33c0:	200052c0 	.word	0x200052c0
    33c4:	200052c4 	.word	0x200052c4
    33c8:	00002a3d 	.word	0x00002a3d
    33cc:	00000ead 	.word	0x00000ead
    33d0:	20005310 	.word	0x20005310
    33d4:	00000e7d 	.word	0x00000e7d
    33d8:	000010b9 	.word	0x000010b9

000033dc <vTaskResume>:
    33dc:	b570      	push	{r4, r5, r6, lr}
    33de:	1e04      	subs	r4, r0, #0
    33e0:	d101      	bne.n	33e6 <vTaskResume+0xa>
    33e2:	b672      	cpsid	i
    33e4:	e7fe      	b.n	33e4 <vTaskResume+0x8>
    33e6:	4d13      	ldr	r5, [pc, #76]	; (3434 <vTaskResume+0x58>)
    33e8:	682b      	ldr	r3, [r5, #0]
    33ea:	4298      	cmp	r0, r3
    33ec:	d020      	beq.n	3430 <vTaskResume+0x54>
    33ee:	4b12      	ldr	r3, [pc, #72]	; (3438 <vTaskResume+0x5c>)
    33f0:	4798      	blx	r3
    33f2:	0020      	movs	r0, r4
    33f4:	4b11      	ldr	r3, [pc, #68]	; (343c <vTaskResume+0x60>)
    33f6:	4798      	blx	r3
    33f8:	2800      	cmp	r0, #0
    33fa:	d017      	beq.n	342c <vTaskResume+0x50>
    33fc:	1d26      	adds	r6, r4, #4
    33fe:	4b10      	ldr	r3, [pc, #64]	; (3440 <vTaskResume+0x64>)
    3400:	0030      	movs	r0, r6
    3402:	4798      	blx	r3
    3404:	4a0f      	ldr	r2, [pc, #60]	; (3444 <vTaskResume+0x68>)
    3406:	6ae3      	ldr	r3, [r4, #44]	; 0x2c
    3408:	6811      	ldr	r1, [r2, #0]
    340a:	428b      	cmp	r3, r1
    340c:	d900      	bls.n	3410 <vTaskResume+0x34>
    340e:	6013      	str	r3, [r2, #0]
    3410:	2014      	movs	r0, #20
    3412:	4343      	muls	r3, r0
    3414:	480c      	ldr	r0, [pc, #48]	; (3448 <vTaskResume+0x6c>)
    3416:	0031      	movs	r1, r6
    3418:	18c0      	adds	r0, r0, r3
    341a:	4b0c      	ldr	r3, [pc, #48]	; (344c <vTaskResume+0x70>)
    341c:	4798      	blx	r3
    341e:	682b      	ldr	r3, [r5, #0]
    3420:	6ae2      	ldr	r2, [r4, #44]	; 0x2c
    3422:	6adb      	ldr	r3, [r3, #44]	; 0x2c
    3424:	429a      	cmp	r2, r3
    3426:	d301      	bcc.n	342c <vTaskResume+0x50>
    3428:	4b09      	ldr	r3, [pc, #36]	; (3450 <vTaskResume+0x74>)
    342a:	4798      	blx	r3
    342c:	4b09      	ldr	r3, [pc, #36]	; (3454 <vTaskResume+0x78>)
    342e:	4798      	blx	r3
    3430:	bd70      	pop	{r4, r5, r6, pc}
    3432:	46c0      	nop			; (mov r8, r8)
    3434:	20005240 	.word	0x20005240
    3438:	00000e95 	.word	0x00000e95
    343c:	000030e1 	.word	0x000030e1
    3440:	00002a83 	.word	0x00002a83
    3444:	200052c4 	.word	0x200052c4
    3448:	2000524c 	.word	0x2000524c
    344c:	00002a3d 	.word	0x00002a3d
    3450:	00000e7d 	.word	0x00000e7d
    3454:	00000ead 	.word	0x00000ead

00003458 <xTaskResumeFromISR>:
    3458:	b5f7      	push	{r0, r1, r2, r4, r5, r6, r7, lr}
    345a:	1e04      	subs	r4, r0, #0
    345c:	d101      	bne.n	3462 <xTaskResumeFromISR+0xa>
    345e:	b672      	cpsid	i
    3460:	e7fe      	b.n	3460 <xTaskResumeFromISR+0x8>
    3462:	4b16      	ldr	r3, [pc, #88]	; (34bc <xTaskResumeFromISR+0x64>)
    3464:	4798      	blx	r3
    3466:	4b16      	ldr	r3, [pc, #88]	; (34c0 <xTaskResumeFromISR+0x68>)
    3468:	9001      	str	r0, [sp, #4]
    346a:	0020      	movs	r0, r4
    346c:	4798      	blx	r3
    346e:	2500      	movs	r5, #0
    3470:	42a8      	cmp	r0, r5
    3472:	d01a      	beq.n	34aa <xTaskResumeFromISR+0x52>
    3474:	4b13      	ldr	r3, [pc, #76]	; (34c4 <xTaskResumeFromISR+0x6c>)
    3476:	4f14      	ldr	r7, [pc, #80]	; (34c8 <xTaskResumeFromISR+0x70>)
    3478:	681b      	ldr	r3, [r3, #0]
    347a:	42ab      	cmp	r3, r5
    347c:	d11a      	bne.n	34b4 <xTaskResumeFromISR+0x5c>
    347e:	4b13      	ldr	r3, [pc, #76]	; (34cc <xTaskResumeFromISR+0x74>)
    3480:	6ae2      	ldr	r2, [r4, #44]	; 0x2c
    3482:	681b      	ldr	r3, [r3, #0]
    3484:	1d26      	adds	r6, r4, #4
    3486:	6adb      	ldr	r3, [r3, #44]	; 0x2c
    3488:	0030      	movs	r0, r6
    348a:	429a      	cmp	r2, r3
    348c:	416d      	adcs	r5, r5
    348e:	4b10      	ldr	r3, [pc, #64]	; (34d0 <xTaskResumeFromISR+0x78>)
    3490:	4798      	blx	r3
    3492:	4a10      	ldr	r2, [pc, #64]	; (34d4 <xTaskResumeFromISR+0x7c>)
    3494:	6ae3      	ldr	r3, [r4, #44]	; 0x2c
    3496:	6811      	ldr	r1, [r2, #0]
    3498:	428b      	cmp	r3, r1
    349a:	d900      	bls.n	349e <xTaskResumeFromISR+0x46>
    349c:	6013      	str	r3, [r2, #0]
    349e:	2014      	movs	r0, #20
    34a0:	0031      	movs	r1, r6
    34a2:	4343      	muls	r3, r0
    34a4:	480c      	ldr	r0, [pc, #48]	; (34d8 <xTaskResumeFromISR+0x80>)
    34a6:	18c0      	adds	r0, r0, r3
    34a8:	47b8      	blx	r7
    34aa:	9801      	ldr	r0, [sp, #4]
    34ac:	4b0b      	ldr	r3, [pc, #44]	; (34dc <xTaskResumeFromISR+0x84>)
    34ae:	4798      	blx	r3
    34b0:	0028      	movs	r0, r5
    34b2:	bdfe      	pop	{r1, r2, r3, r4, r5, r6, r7, pc}
    34b4:	0021      	movs	r1, r4
    34b6:	480a      	ldr	r0, [pc, #40]	; (34e0 <xTaskResumeFromISR+0x88>)
    34b8:	3118      	adds	r1, #24
    34ba:	e7f5      	b.n	34a8 <xTaskResumeFromISR+0x50>
    34bc:	00000ec9 	.word	0x00000ec9
    34c0:	000030e1 	.word	0x000030e1
    34c4:	200052bc 	.word	0x200052bc
    34c8:	00002a3d 	.word	0x00002a3d
    34cc:	20005240 	.word	0x20005240
    34d0:	00002a83 	.word	0x00002a83
    34d4:	200052c4 	.word	0x200052c4
    34d8:	2000524c 	.word	0x2000524c
    34dc:	00000ed1 	.word	0x00000ed1
    34e0:	200052fc 	.word	0x200052fc

000034e4 <vTaskStartScheduler>:
    34e4:	b537      	push	{r0, r1, r2, r4, r5, lr}
    34e6:	2400      	movs	r4, #0
    34e8:	4b0f      	ldr	r3, [pc, #60]	; (3528 <vTaskStartScheduler+0x44>)
    34ea:	9400      	str	r4, [sp, #0]
    34ec:	9301      	str	r3, [sp, #4]
    34ee:	2282      	movs	r2, #130	; 0x82
    34f0:	0023      	movs	r3, r4
    34f2:	490e      	ldr	r1, [pc, #56]	; (352c <vTaskStartScheduler+0x48>)
    34f4:	480e      	ldr	r0, [pc, #56]	; (3530 <vTaskStartScheduler+0x4c>)
    34f6:	4d0f      	ldr	r5, [pc, #60]	; (3534 <vTaskStartScheduler+0x50>)
    34f8:	47a8      	blx	r5
    34fa:	2801      	cmp	r0, #1
    34fc:	d10f      	bne.n	351e <vTaskStartScheduler+0x3a>
    34fe:	4b0e      	ldr	r3, [pc, #56]	; (3538 <vTaskStartScheduler+0x54>)
    3500:	4798      	blx	r3
    3502:	2801      	cmp	r0, #1
    3504:	d10b      	bne.n	351e <vTaskStartScheduler+0x3a>
    3506:	b672      	cpsid	i
    3508:	2201      	movs	r2, #1
    350a:	4b0c      	ldr	r3, [pc, #48]	; (353c <vTaskStartScheduler+0x58>)
    350c:	4252      	negs	r2, r2
    350e:	601a      	str	r2, [r3, #0]
    3510:	4b0b      	ldr	r3, [pc, #44]	; (3540 <vTaskStartScheduler+0x5c>)
    3512:	6018      	str	r0, [r3, #0]
    3514:	4b0b      	ldr	r3, [pc, #44]	; (3544 <vTaskStartScheduler+0x60>)
    3516:	601c      	str	r4, [r3, #0]
    3518:	4b0b      	ldr	r3, [pc, #44]	; (3548 <vTaskStartScheduler+0x64>)
    351a:	4798      	blx	r3
    351c:	bd37      	pop	{r0, r1, r2, r4, r5, pc}
    351e:	1c43      	adds	r3, r0, #1
    3520:	d1fc      	bne.n	351c <vTaskStartScheduler+0x38>
    3522:	b672      	cpsid	i
    3524:	e7fe      	b.n	3524 <vTaskStartScheduler+0x40>
    3526:	46c0      	nop			; (mov r8, r8)
    3528:	200052f0 	.word	0x200052f0
    352c:	00008e59 	.word	0x00008e59
    3530:	000031ad 	.word	0x000031ad
    3534:	00003221 	.word	0x00003221
    3538:	00003c39 	.word	0x00003c39
    353c:	200052f4 	.word	0x200052f4
    3540:	20005310 	.word	0x20005310
    3544:	2000533c 	.word	0x2000533c
    3548:	00000e19 	.word	0x00000e19

0000354c <vTaskSuspendAll>:
    354c:	4a02      	ldr	r2, [pc, #8]	; (3558 <vTaskSuspendAll+0xc>)
    354e:	6813      	ldr	r3, [r2, #0]
    3550:	3301      	adds	r3, #1
    3552:	6013      	str	r3, [r2, #0]
    3554:	4770      	bx	lr
    3556:	46c0      	nop			; (mov r8, r8)
    3558:	200052bc 	.word	0x200052bc

0000355c <xTaskGetTickCount>:
    355c:	4b01      	ldr	r3, [pc, #4]	; (3564 <xTaskGetTickCount+0x8>)
    355e:	6818      	ldr	r0, [r3, #0]
    3560:	4770      	bx	lr
    3562:	46c0      	nop			; (mov r8, r8)
    3564:	2000533c 	.word	0x2000533c

00003568 <xTaskIncrementTick>:
    3568:	b5f7      	push	{r0, r1, r2, r4, r5, r6, r7, lr}
    356a:	4b37      	ldr	r3, [pc, #220]	; (3648 <xTaskIncrementTick+0xe0>)
    356c:	681b      	ldr	r3, [r3, #0]
    356e:	2b00      	cmp	r3, #0
    3570:	d13b      	bne.n	35ea <xTaskIncrementTick+0x82>
    3572:	4b36      	ldr	r3, [pc, #216]	; (364c <xTaskIncrementTick+0xe4>)
    3574:	681f      	ldr	r7, [r3, #0]
    3576:	3701      	adds	r7, #1
    3578:	601f      	str	r7, [r3, #0]
    357a:	2f00      	cmp	r7, #0
    357c:	d111      	bne.n	35a2 <xTaskIncrementTick+0x3a>
    357e:	4b34      	ldr	r3, [pc, #208]	; (3650 <xTaskIncrementTick+0xe8>)
    3580:	681a      	ldr	r2, [r3, #0]
    3582:	6812      	ldr	r2, [r2, #0]
    3584:	2a00      	cmp	r2, #0
    3586:	d001      	beq.n	358c <xTaskIncrementTick+0x24>
    3588:	b672      	cpsid	i
    358a:	e7fe      	b.n	358a <xTaskIncrementTick+0x22>
    358c:	4a31      	ldr	r2, [pc, #196]	; (3654 <xTaskIncrementTick+0xec>)
    358e:	6819      	ldr	r1, [r3, #0]
    3590:	6810      	ldr	r0, [r2, #0]
    3592:	6018      	str	r0, [r3, #0]
    3594:	6011      	str	r1, [r2, #0]
    3596:	4a30      	ldr	r2, [pc, #192]	; (3658 <xTaskIncrementTick+0xf0>)
    3598:	6813      	ldr	r3, [r2, #0]
    359a:	3301      	adds	r3, #1
    359c:	6013      	str	r3, [r2, #0]
    359e:	4b2f      	ldr	r3, [pc, #188]	; (365c <xTaskIncrementTick+0xf4>)
    35a0:	4798      	blx	r3
    35a2:	4e2f      	ldr	r6, [pc, #188]	; (3660 <xTaskIncrementTick+0xf8>)
    35a4:	2500      	movs	r5, #0
    35a6:	6833      	ldr	r3, [r6, #0]
    35a8:	429f      	cmp	r7, r3
    35aa:	d307      	bcc.n	35bc <xTaskIncrementTick+0x54>
    35ac:	4b28      	ldr	r3, [pc, #160]	; (3650 <xTaskIncrementTick+0xe8>)
    35ae:	681a      	ldr	r2, [r3, #0]
    35b0:	6812      	ldr	r2, [r2, #0]
    35b2:	2a00      	cmp	r2, #0
    35b4:	d121      	bne.n	35fa <xTaskIncrementTick+0x92>
    35b6:	2301      	movs	r3, #1
    35b8:	425b      	negs	r3, r3
    35ba:	6033      	str	r3, [r6, #0]
    35bc:	4b29      	ldr	r3, [pc, #164]	; (3664 <xTaskIncrementTick+0xfc>)
    35be:	681b      	ldr	r3, [r3, #0]
    35c0:	6ada      	ldr	r2, [r3, #44]	; 0x2c
    35c2:	2314      	movs	r3, #20
    35c4:	4353      	muls	r3, r2
    35c6:	4a28      	ldr	r2, [pc, #160]	; (3668 <xTaskIncrementTick+0x100>)
    35c8:	58d3      	ldr	r3, [r2, r3]
    35ca:	2b01      	cmp	r3, #1
    35cc:	d900      	bls.n	35d0 <xTaskIncrementTick+0x68>
    35ce:	2501      	movs	r5, #1
    35d0:	4b26      	ldr	r3, [pc, #152]	; (366c <xTaskIncrementTick+0x104>)
    35d2:	681b      	ldr	r3, [r3, #0]
    35d4:	2b00      	cmp	r3, #0
    35d6:	d101      	bne.n	35dc <xTaskIncrementTick+0x74>
    35d8:	4b25      	ldr	r3, [pc, #148]	; (3670 <xTaskIncrementTick+0x108>)
    35da:	4798      	blx	r3
    35dc:	4b25      	ldr	r3, [pc, #148]	; (3674 <xTaskIncrementTick+0x10c>)
    35de:	681b      	ldr	r3, [r3, #0]
    35e0:	2b00      	cmp	r3, #0
    35e2:	d000      	beq.n	35e6 <xTaskIncrementTick+0x7e>
    35e4:	2501      	movs	r5, #1
    35e6:	0028      	movs	r0, r5
    35e8:	bdfe      	pop	{r1, r2, r3, r4, r5, r6, r7, pc}
    35ea:	4a20      	ldr	r2, [pc, #128]	; (366c <xTaskIncrementTick+0x104>)
    35ec:	2500      	movs	r5, #0
    35ee:	6813      	ldr	r3, [r2, #0]
    35f0:	3301      	adds	r3, #1
    35f2:	6013      	str	r3, [r2, #0]
    35f4:	4b1e      	ldr	r3, [pc, #120]	; (3670 <xTaskIncrementTick+0x108>)
    35f6:	4798      	blx	r3
    35f8:	e7f0      	b.n	35dc <xTaskIncrementTick+0x74>
    35fa:	681b      	ldr	r3, [r3, #0]
    35fc:	68db      	ldr	r3, [r3, #12]
    35fe:	68dc      	ldr	r4, [r3, #12]
    3600:	6863      	ldr	r3, [r4, #4]
    3602:	429f      	cmp	r7, r3
    3604:	d3d9      	bcc.n	35ba <xTaskIncrementTick+0x52>
    3606:	1d23      	adds	r3, r4, #4
    3608:	9301      	str	r3, [sp, #4]
    360a:	0018      	movs	r0, r3
    360c:	4b1a      	ldr	r3, [pc, #104]	; (3678 <xTaskIncrementTick+0x110>)
    360e:	4798      	blx	r3
    3610:	6aa3      	ldr	r3, [r4, #40]	; 0x28
    3612:	2b00      	cmp	r3, #0
    3614:	d003      	beq.n	361e <xTaskIncrementTick+0xb6>
    3616:	0020      	movs	r0, r4
    3618:	4b17      	ldr	r3, [pc, #92]	; (3678 <xTaskIncrementTick+0x110>)
    361a:	3018      	adds	r0, #24
    361c:	4798      	blx	r3
    361e:	4b17      	ldr	r3, [pc, #92]	; (367c <xTaskIncrementTick+0x114>)
    3620:	6ae0      	ldr	r0, [r4, #44]	; 0x2c
    3622:	681a      	ldr	r2, [r3, #0]
    3624:	4290      	cmp	r0, r2
    3626:	d900      	bls.n	362a <xTaskIncrementTick+0xc2>
    3628:	6018      	str	r0, [r3, #0]
    362a:	2314      	movs	r3, #20
    362c:	4358      	muls	r0, r3
    362e:	4b0e      	ldr	r3, [pc, #56]	; (3668 <xTaskIncrementTick+0x100>)
    3630:	1d21      	adds	r1, r4, #4
    3632:	1818      	adds	r0, r3, r0
    3634:	4b12      	ldr	r3, [pc, #72]	; (3680 <xTaskIncrementTick+0x118>)
    3636:	4798      	blx	r3
    3638:	4b0a      	ldr	r3, [pc, #40]	; (3664 <xTaskIncrementTick+0xfc>)
    363a:	6ae2      	ldr	r2, [r4, #44]	; 0x2c
    363c:	681b      	ldr	r3, [r3, #0]
    363e:	6adb      	ldr	r3, [r3, #44]	; 0x2c
    3640:	429a      	cmp	r2, r3
    3642:	d3b3      	bcc.n	35ac <xTaskIncrementTick+0x44>
    3644:	2501      	movs	r5, #1
    3646:	e7b1      	b.n	35ac <xTaskIncrementTick+0x44>
    3648:	200052bc 	.word	0x200052bc
    364c:	2000533c 	.word	0x2000533c
    3650:	20005244 	.word	0x20005244
    3654:	20005248 	.word	0x20005248
    3658:	200052f8 	.word	0x200052f8
    365c:	0000310d 	.word	0x0000310d
    3660:	200052f4 	.word	0x200052f4
    3664:	20005240 	.word	0x20005240
    3668:	2000524c 	.word	0x2000524c
    366c:	200052b8 	.word	0x200052b8
    3670:	00005421 	.word	0x00005421
    3674:	20005340 	.word	0x20005340
    3678:	00002a83 	.word	0x00002a83
    367c:	200052c4 	.word	0x200052c4
    3680:	00002a3d 	.word	0x00002a3d

00003684 <xTaskResumeAll>:
    3684:	b5f8      	push	{r3, r4, r5, r6, r7, lr}
    3686:	4c2b      	ldr	r4, [pc, #172]	; (3734 <xTaskResumeAll+0xb0>)
    3688:	6823      	ldr	r3, [r4, #0]
    368a:	2b00      	cmp	r3, #0
    368c:	d101      	bne.n	3692 <xTaskResumeAll+0xe>
    368e:	b672      	cpsid	i
    3690:	e7fe      	b.n	3690 <xTaskResumeAll+0xc>
    3692:	4b29      	ldr	r3, [pc, #164]	; (3738 <xTaskResumeAll+0xb4>)
    3694:	4798      	blx	r3
    3696:	6823      	ldr	r3, [r4, #0]
    3698:	3b01      	subs	r3, #1
    369a:	6023      	str	r3, [r4, #0]
    369c:	6824      	ldr	r4, [r4, #0]
    369e:	2c00      	cmp	r4, #0
    36a0:	d004      	beq.n	36ac <xTaskResumeAll+0x28>
    36a2:	2400      	movs	r4, #0
    36a4:	4b25      	ldr	r3, [pc, #148]	; (373c <xTaskResumeAll+0xb8>)
    36a6:	4798      	blx	r3
    36a8:	0020      	movs	r0, r4
    36aa:	bdf8      	pop	{r3, r4, r5, r6, r7, pc}
    36ac:	4b24      	ldr	r3, [pc, #144]	; (3740 <xTaskResumeAll+0xbc>)
    36ae:	2701      	movs	r7, #1
    36b0:	681b      	ldr	r3, [r3, #0]
    36b2:	2b00      	cmp	r3, #0
    36b4:	d0f5      	beq.n	36a2 <xTaskResumeAll+0x1e>
    36b6:	4b23      	ldr	r3, [pc, #140]	; (3744 <xTaskResumeAll+0xc0>)
    36b8:	681a      	ldr	r2, [r3, #0]
    36ba:	2a00      	cmp	r2, #0
    36bc:	d11a      	bne.n	36f4 <xTaskResumeAll+0x70>
    36be:	2c00      	cmp	r4, #0
    36c0:	d001      	beq.n	36c6 <xTaskResumeAll+0x42>
    36c2:	4b21      	ldr	r3, [pc, #132]	; (3748 <xTaskResumeAll+0xc4>)
    36c4:	4798      	blx	r3
    36c6:	4d21      	ldr	r5, [pc, #132]	; (374c <xTaskResumeAll+0xc8>)
    36c8:	682c      	ldr	r4, [r5, #0]
    36ca:	2c00      	cmp	r4, #0
    36cc:	d00a      	beq.n	36e4 <xTaskResumeAll+0x60>
    36ce:	2601      	movs	r6, #1
    36d0:	4b1f      	ldr	r3, [pc, #124]	; (3750 <xTaskResumeAll+0xcc>)
    36d2:	4798      	blx	r3
    36d4:	2800      	cmp	r0, #0
    36d6:	d001      	beq.n	36dc <xTaskResumeAll+0x58>
    36d8:	4b1e      	ldr	r3, [pc, #120]	; (3754 <xTaskResumeAll+0xd0>)
    36da:	601e      	str	r6, [r3, #0]
    36dc:	3c01      	subs	r4, #1
    36de:	2c00      	cmp	r4, #0
    36e0:	d1f6      	bne.n	36d0 <xTaskResumeAll+0x4c>
    36e2:	602c      	str	r4, [r5, #0]
    36e4:	4b1b      	ldr	r3, [pc, #108]	; (3754 <xTaskResumeAll+0xd0>)
    36e6:	681b      	ldr	r3, [r3, #0]
    36e8:	2b00      	cmp	r3, #0
    36ea:	d0da      	beq.n	36a2 <xTaskResumeAll+0x1e>
    36ec:	4b1a      	ldr	r3, [pc, #104]	; (3758 <xTaskResumeAll+0xd4>)
    36ee:	4798      	blx	r3
    36f0:	2401      	movs	r4, #1
    36f2:	e7d7      	b.n	36a4 <xTaskResumeAll+0x20>
    36f4:	68db      	ldr	r3, [r3, #12]
    36f6:	4e19      	ldr	r6, [pc, #100]	; (375c <xTaskResumeAll+0xd8>)
    36f8:	68dc      	ldr	r4, [r3, #12]
    36fa:	0020      	movs	r0, r4
    36fc:	1d25      	adds	r5, r4, #4
    36fe:	3018      	adds	r0, #24
    3700:	47b0      	blx	r6
    3702:	0028      	movs	r0, r5
    3704:	47b0      	blx	r6
    3706:	4b16      	ldr	r3, [pc, #88]	; (3760 <xTaskResumeAll+0xdc>)
    3708:	6ae0      	ldr	r0, [r4, #44]	; 0x2c
    370a:	681a      	ldr	r2, [r3, #0]
    370c:	4290      	cmp	r0, r2
    370e:	d900      	bls.n	3712 <xTaskResumeAll+0x8e>
    3710:	6018      	str	r0, [r3, #0]
    3712:	2314      	movs	r3, #20
    3714:	4358      	muls	r0, r3
    3716:	4b13      	ldr	r3, [pc, #76]	; (3764 <xTaskResumeAll+0xe0>)
    3718:	0029      	movs	r1, r5
    371a:	1818      	adds	r0, r3, r0
    371c:	4b12      	ldr	r3, [pc, #72]	; (3768 <xTaskResumeAll+0xe4>)
    371e:	4798      	blx	r3
    3720:	4b12      	ldr	r3, [pc, #72]	; (376c <xTaskResumeAll+0xe8>)
    3722:	6ae2      	ldr	r2, [r4, #44]	; 0x2c
    3724:	681b      	ldr	r3, [r3, #0]
    3726:	6adb      	ldr	r3, [r3, #44]	; 0x2c
    3728:	429a      	cmp	r2, r3
    372a:	d3c4      	bcc.n	36b6 <xTaskResumeAll+0x32>
    372c:	4b09      	ldr	r3, [pc, #36]	; (3754 <xTaskResumeAll+0xd0>)
    372e:	601f      	str	r7, [r3, #0]
    3730:	e7c1      	b.n	36b6 <xTaskResumeAll+0x32>
    3732:	46c0      	nop			; (mov r8, r8)
    3734:	200052bc 	.word	0x200052bc
    3738:	00000e95 	.word	0x00000e95
    373c:	00000ead 	.word	0x00000ead
    3740:	200052b0 	.word	0x200052b0
    3744:	200052fc 	.word	0x200052fc
    3748:	0000310d 	.word	0x0000310d
    374c:	200052b8 	.word	0x200052b8
    3750:	00003569 	.word	0x00003569
    3754:	20005340 	.word	0x20005340
    3758:	00000e7d 	.word	0x00000e7d
    375c:	00002a83 	.word	0x00002a83
    3760:	200052c4 	.word	0x200052c4
    3764:	2000524c 	.word	0x2000524c
    3768:	00002a3d 	.word	0x00002a3d
    376c:	20005240 	.word	0x20005240

00003770 <vTaskDelayUntil>:
    3770:	b570      	push	{r4, r5, r6, lr}
    3772:	0005      	movs	r5, r0
    3774:	000c      	movs	r4, r1
    3776:	2800      	cmp	r0, #0
    3778:	d101      	bne.n	377e <vTaskDelayUntil+0xe>
    377a:	b672      	cpsid	i
    377c:	e7fe      	b.n	377c <vTaskDelayUntil+0xc>
    377e:	2900      	cmp	r1, #0
    3780:	d101      	bne.n	3786 <vTaskDelayUntil+0x16>
    3782:	b672      	cpsid	i
    3784:	e7fe      	b.n	3784 <vTaskDelayUntil+0x14>
    3786:	4b12      	ldr	r3, [pc, #72]	; (37d0 <vTaskDelayUntil+0x60>)
    3788:	681e      	ldr	r6, [r3, #0]
    378a:	2e00      	cmp	r6, #0
    378c:	d001      	beq.n	3792 <vTaskDelayUntil+0x22>
    378e:	b672      	cpsid	i
    3790:	e7fe      	b.n	3790 <vTaskDelayUntil+0x20>
    3792:	4b10      	ldr	r3, [pc, #64]	; (37d4 <vTaskDelayUntil+0x64>)
    3794:	4798      	blx	r3
    3796:	4b10      	ldr	r3, [pc, #64]	; (37d8 <vTaskDelayUntil+0x68>)
    3798:	682a      	ldr	r2, [r5, #0]
    379a:	6818      	ldr	r0, [r3, #0]
    379c:	18a4      	adds	r4, r4, r2
    379e:	4290      	cmp	r0, r2
    37a0:	d205      	bcs.n	37ae <vTaskDelayUntil+0x3e>
    37a2:	42a2      	cmp	r2, r4
    37a4:	d906      	bls.n	37b4 <vTaskDelayUntil+0x44>
    37a6:	42a0      	cmp	r0, r4
    37a8:	41b6      	sbcs	r6, r6
    37aa:	4276      	negs	r6, r6
    37ac:	e002      	b.n	37b4 <vTaskDelayUntil+0x44>
    37ae:	2601      	movs	r6, #1
    37b0:	42a2      	cmp	r2, r4
    37b2:	d9f8      	bls.n	37a6 <vTaskDelayUntil+0x36>
    37b4:	602c      	str	r4, [r5, #0]
    37b6:	2e00      	cmp	r6, #0
    37b8:	d003      	beq.n	37c2 <vTaskDelayUntil+0x52>
    37ba:	1a20      	subs	r0, r4, r0
    37bc:	2100      	movs	r1, #0
    37be:	4b07      	ldr	r3, [pc, #28]	; (37dc <vTaskDelayUntil+0x6c>)
    37c0:	4798      	blx	r3
    37c2:	4b07      	ldr	r3, [pc, #28]	; (37e0 <vTaskDelayUntil+0x70>)
    37c4:	4798      	blx	r3
    37c6:	2800      	cmp	r0, #0
    37c8:	d101      	bne.n	37ce <vTaskDelayUntil+0x5e>
    37ca:	4b06      	ldr	r3, [pc, #24]	; (37e4 <vTaskDelayUntil+0x74>)
    37cc:	4798      	blx	r3
    37ce:	bd70      	pop	{r4, r5, r6, pc}
    37d0:	200052bc 	.word	0x200052bc
    37d4:	0000354d 	.word	0x0000354d
    37d8:	2000533c 	.word	0x2000533c
    37dc:	00003135 	.word	0x00003135
    37e0:	00003685 	.word	0x00003685
    37e4:	00000e7d 	.word	0x00000e7d

000037e8 <vTaskDelay>:
    37e8:	b570      	push	{r4, r5, r6, lr}
    37ea:	1e04      	subs	r4, r0, #0
    37ec:	d102      	bne.n	37f4 <vTaskDelay+0xc>
    37ee:	4b0a      	ldr	r3, [pc, #40]	; (3818 <vTaskDelay+0x30>)
    37f0:	4798      	blx	r3
    37f2:	bd70      	pop	{r4, r5, r6, pc}
    37f4:	4b09      	ldr	r3, [pc, #36]	; (381c <vTaskDelay+0x34>)
    37f6:	681d      	ldr	r5, [r3, #0]
    37f8:	2d00      	cmp	r5, #0
    37fa:	d001      	beq.n	3800 <vTaskDelay+0x18>
    37fc:	b672      	cpsid	i
    37fe:	e7fe      	b.n	37fe <vTaskDelay+0x16>
    3800:	4b07      	ldr	r3, [pc, #28]	; (3820 <vTaskDelay+0x38>)
    3802:	4798      	blx	r3
    3804:	4b07      	ldr	r3, [pc, #28]	; (3824 <vTaskDelay+0x3c>)
    3806:	0029      	movs	r1, r5
    3808:	0020      	movs	r0, r4
    380a:	4798      	blx	r3
    380c:	4b06      	ldr	r3, [pc, #24]	; (3828 <vTaskDelay+0x40>)
    380e:	4798      	blx	r3
    3810:	2800      	cmp	r0, #0
    3812:	d1ee      	bne.n	37f2 <vTaskDelay+0xa>
    3814:	e7eb      	b.n	37ee <vTaskDelay+0x6>
    3816:	46c0      	nop			; (mov r8, r8)
    3818:	00000e7d 	.word	0x00000e7d
    381c:	200052bc 	.word	0x200052bc
    3820:	0000354d 	.word	0x0000354d
    3824:	00003135 	.word	0x00003135
    3828:	00003685 	.word	0x00003685

0000382c <vTaskSwitchContext>:
    382c:	b570      	push	{r4, r5, r6, lr}
    382e:	4b1f      	ldr	r3, [pc, #124]	; (38ac <vTaskSwitchContext+0x80>)
    3830:	681a      	ldr	r2, [r3, #0]
    3832:	4b1f      	ldr	r3, [pc, #124]	; (38b0 <vTaskSwitchContext+0x84>)
    3834:	2a00      	cmp	r2, #0
    3836:	d002      	beq.n	383e <vTaskSwitchContext+0x12>
    3838:	2201      	movs	r2, #1
    383a:	601a      	str	r2, [r3, #0]
    383c:	bd70      	pop	{r4, r5, r6, pc}
    383e:	4c1d      	ldr	r4, [pc, #116]	; (38b4 <vTaskSwitchContext+0x88>)
    3840:	601a      	str	r2, [r3, #0]
    3842:	6823      	ldr	r3, [r4, #0]
    3844:	491c      	ldr	r1, [pc, #112]	; (38b8 <vTaskSwitchContext+0x8c>)
    3846:	6b1b      	ldr	r3, [r3, #48]	; 0x30
    3848:	681a      	ldr	r2, [r3, #0]
    384a:	428a      	cmp	r2, r1
    384c:	d108      	bne.n	3860 <vTaskSwitchContext+0x34>
    384e:	6859      	ldr	r1, [r3, #4]
    3850:	4291      	cmp	r1, r2
    3852:	d105      	bne.n	3860 <vTaskSwitchContext+0x34>
    3854:	689a      	ldr	r2, [r3, #8]
    3856:	428a      	cmp	r2, r1
    3858:	d102      	bne.n	3860 <vTaskSwitchContext+0x34>
    385a:	68db      	ldr	r3, [r3, #12]
    385c:	4293      	cmp	r3, r2
    385e:	d004      	beq.n	386a <vTaskSwitchContext+0x3e>
    3860:	6820      	ldr	r0, [r4, #0]
    3862:	6821      	ldr	r1, [r4, #0]
    3864:	4b15      	ldr	r3, [pc, #84]	; (38bc <vTaskSwitchContext+0x90>)
    3866:	3134      	adds	r1, #52	; 0x34
    3868:	4798      	blx	r3
    386a:	2614      	movs	r6, #20
    386c:	4814      	ldr	r0, [pc, #80]	; (38c0 <vTaskSwitchContext+0x94>)
    386e:	4915      	ldr	r1, [pc, #84]	; (38c4 <vTaskSwitchContext+0x98>)
    3870:	6802      	ldr	r2, [r0, #0]
    3872:	0033      	movs	r3, r6
    3874:	4353      	muls	r3, r2
    3876:	585d      	ldr	r5, [r3, r1]
    3878:	2d00      	cmp	r5, #0
    387a:	d011      	beq.n	38a0 <vTaskSwitchContext+0x74>
    387c:	18cd      	adds	r5, r1, r3
    387e:	686e      	ldr	r6, [r5, #4]
    3880:	3308      	adds	r3, #8
    3882:	6876      	ldr	r6, [r6, #4]
    3884:	18cb      	adds	r3, r1, r3
    3886:	606e      	str	r6, [r5, #4]
    3888:	429e      	cmp	r6, r3
    388a:	d101      	bne.n	3890 <vTaskSwitchContext+0x64>
    388c:	6873      	ldr	r3, [r6, #4]
    388e:	606b      	str	r3, [r5, #4]
    3890:	2314      	movs	r3, #20
    3892:	4353      	muls	r3, r2
    3894:	18c9      	adds	r1, r1, r3
    3896:	684b      	ldr	r3, [r1, #4]
    3898:	68db      	ldr	r3, [r3, #12]
    389a:	6023      	str	r3, [r4, #0]
    389c:	6002      	str	r2, [r0, #0]
    389e:	e7cd      	b.n	383c <vTaskSwitchContext+0x10>
    38a0:	2a00      	cmp	r2, #0
    38a2:	d101      	bne.n	38a8 <vTaskSwitchContext+0x7c>
    38a4:	b672      	cpsid	i
    38a6:	e7fe      	b.n	38a6 <vTaskSwitchContext+0x7a>
    38a8:	3a01      	subs	r2, #1
    38aa:	e7e2      	b.n	3872 <vTaskSwitchContext+0x46>
    38ac:	200052bc 	.word	0x200052bc
    38b0:	20005340 	.word	0x20005340
    38b4:	20005240 	.word	0x20005240
    38b8:	a5a5a5a5 	.word	0xa5a5a5a5
    38bc:	00005423 	.word	0x00005423
    38c0:	200052c4 	.word	0x200052c4
    38c4:	2000524c 	.word	0x2000524c

000038c8 <vTaskSuspend>:
    38c8:	b5f8      	push	{r3, r4, r5, r6, r7, lr}
    38ca:	4b21      	ldr	r3, [pc, #132]	; (3950 <vTaskSuspend+0x88>)
    38cc:	0004      	movs	r4, r0
    38ce:	4798      	blx	r3
    38d0:	4d20      	ldr	r5, [pc, #128]	; (3954 <vTaskSuspend+0x8c>)
    38d2:	2c00      	cmp	r4, #0
    38d4:	d100      	bne.n	38d8 <vTaskSuspend+0x10>
    38d6:	682c      	ldr	r4, [r5, #0]
    38d8:	1d27      	adds	r7, r4, #4
    38da:	0038      	movs	r0, r7
    38dc:	4e1e      	ldr	r6, [pc, #120]	; (3958 <vTaskSuspend+0x90>)
    38de:	47b0      	blx	r6
    38e0:	6aa3      	ldr	r3, [r4, #40]	; 0x28
    38e2:	2b00      	cmp	r3, #0
    38e4:	d002      	beq.n	38ec <vTaskSuspend+0x24>
    38e6:	0020      	movs	r0, r4
    38e8:	3018      	adds	r0, #24
    38ea:	47b0      	blx	r6
    38ec:	4e1b      	ldr	r6, [pc, #108]	; (395c <vTaskSuspend+0x94>)
    38ee:	4b1c      	ldr	r3, [pc, #112]	; (3960 <vTaskSuspend+0x98>)
    38f0:	0039      	movs	r1, r7
    38f2:	0030      	movs	r0, r6
    38f4:	4798      	blx	r3
    38f6:	0023      	movs	r3, r4
    38f8:	3354      	adds	r3, #84	; 0x54
    38fa:	781a      	ldrb	r2, [r3, #0]
    38fc:	2a01      	cmp	r2, #1
    38fe:	d101      	bne.n	3904 <vTaskSuspend+0x3c>
    3900:	2200      	movs	r2, #0
    3902:	701a      	strb	r2, [r3, #0]
    3904:	4b17      	ldr	r3, [pc, #92]	; (3964 <vTaskSuspend+0x9c>)
    3906:	4798      	blx	r3
    3908:	4f17      	ldr	r7, [pc, #92]	; (3968 <vTaskSuspend+0xa0>)
    390a:	683b      	ldr	r3, [r7, #0]
    390c:	2b00      	cmp	r3, #0
    390e:	d005      	beq.n	391c <vTaskSuspend+0x54>
    3910:	4b0f      	ldr	r3, [pc, #60]	; (3950 <vTaskSuspend+0x88>)
    3912:	4798      	blx	r3
    3914:	4b15      	ldr	r3, [pc, #84]	; (396c <vTaskSuspend+0xa4>)
    3916:	4798      	blx	r3
    3918:	4b12      	ldr	r3, [pc, #72]	; (3964 <vTaskSuspend+0x9c>)
    391a:	4798      	blx	r3
    391c:	682b      	ldr	r3, [r5, #0]
    391e:	429c      	cmp	r4, r3
    3920:	d10a      	bne.n	3938 <vTaskSuspend+0x70>
    3922:	683b      	ldr	r3, [r7, #0]
    3924:	2b00      	cmp	r3, #0
    3926:	d008      	beq.n	393a <vTaskSuspend+0x72>
    3928:	4b11      	ldr	r3, [pc, #68]	; (3970 <vTaskSuspend+0xa8>)
    392a:	681b      	ldr	r3, [r3, #0]
    392c:	2b00      	cmp	r3, #0
    392e:	d001      	beq.n	3934 <vTaskSuspend+0x6c>
    3930:	b672      	cpsid	i
    3932:	e7fe      	b.n	3932 <vTaskSuspend+0x6a>
    3934:	4b0f      	ldr	r3, [pc, #60]	; (3974 <vTaskSuspend+0xac>)
    3936:	4798      	blx	r3
    3938:	bdf8      	pop	{r3, r4, r5, r6, r7, pc}
    393a:	4a0f      	ldr	r2, [pc, #60]	; (3978 <vTaskSuspend+0xb0>)
    393c:	6831      	ldr	r1, [r6, #0]
    393e:	6812      	ldr	r2, [r2, #0]
    3940:	4291      	cmp	r1, r2
    3942:	d101      	bne.n	3948 <vTaskSuspend+0x80>
    3944:	602b      	str	r3, [r5, #0]
    3946:	e7f7      	b.n	3938 <vTaskSuspend+0x70>
    3948:	4b0c      	ldr	r3, [pc, #48]	; (397c <vTaskSuspend+0xb4>)
    394a:	4798      	blx	r3
    394c:	e7f4      	b.n	3938 <vTaskSuspend+0x70>
    394e:	46c0      	nop			; (mov r8, r8)
    3950:	00000e95 	.word	0x00000e95
    3954:	20005240 	.word	0x20005240
    3958:	00002a83 	.word	0x00002a83
    395c:	20005314 	.word	0x20005314
    3960:	00002a3d 	.word	0x00002a3d
    3964:	00000ead 	.word	0x00000ead
    3968:	20005310 	.word	0x20005310
    396c:	0000310d 	.word	0x0000310d
    3970:	200052bc 	.word	0x200052bc
    3974:	00000e7d 	.word	0x00000e7d
    3978:	200052b0 	.word	0x200052b0
    397c:	0000382d 	.word	0x0000382d

00003980 <vTaskPlaceOnEventList>:
    3980:	b510      	push	{r4, lr}
    3982:	000c      	movs	r4, r1
    3984:	2800      	cmp	r0, #0
    3986:	d101      	bne.n	398c <vTaskPlaceOnEventList+0xc>
    3988:	b672      	cpsid	i
    398a:	e7fe      	b.n	398a <vTaskPlaceOnEventList+0xa>
    398c:	4b04      	ldr	r3, [pc, #16]	; (39a0 <vTaskPlaceOnEventList+0x20>)
    398e:	6819      	ldr	r1, [r3, #0]
    3990:	4b04      	ldr	r3, [pc, #16]	; (39a4 <vTaskPlaceOnEventList+0x24>)
    3992:	3118      	adds	r1, #24
    3994:	4798      	blx	r3
    3996:	2101      	movs	r1, #1
    3998:	0020      	movs	r0, r4
    399a:	4b03      	ldr	r3, [pc, #12]	; (39a8 <vTaskPlaceOnEventList+0x28>)
    399c:	4798      	blx	r3
    399e:	bd10      	pop	{r4, pc}
    39a0:	20005240 	.word	0x20005240
    39a4:	00002a55 	.word	0x00002a55
    39a8:	00003135 	.word	0x00003135

000039ac <vTaskPlaceOnEventListRestricted>:
    39ac:	b570      	push	{r4, r5, r6, lr}
    39ae:	000c      	movs	r4, r1
    39b0:	0015      	movs	r5, r2
    39b2:	2800      	cmp	r0, #0
    39b4:	d101      	bne.n	39ba <vTaskPlaceOnEventListRestricted+0xe>
    39b6:	b672      	cpsid	i
    39b8:	e7fe      	b.n	39b8 <vTaskPlaceOnEventListRestricted+0xc>
    39ba:	4b07      	ldr	r3, [pc, #28]	; (39d8 <vTaskPlaceOnEventListRestricted+0x2c>)
    39bc:	6819      	ldr	r1, [r3, #0]
    39be:	4b07      	ldr	r3, [pc, #28]	; (39dc <vTaskPlaceOnEventListRestricted+0x30>)
    39c0:	3118      	adds	r1, #24
    39c2:	4798      	blx	r3
    39c4:	2d00      	cmp	r5, #0
    39c6:	d001      	beq.n	39cc <vTaskPlaceOnEventListRestricted+0x20>
    39c8:	2401      	movs	r4, #1
    39ca:	4264      	negs	r4, r4
    39cc:	0029      	movs	r1, r5
    39ce:	0020      	movs	r0, r4
    39d0:	4b03      	ldr	r3, [pc, #12]	; (39e0 <vTaskPlaceOnEventListRestricted+0x34>)
    39d2:	4798      	blx	r3
    39d4:	bd70      	pop	{r4, r5, r6, pc}
    39d6:	46c0      	nop			; (mov r8, r8)
    39d8:	20005240 	.word	0x20005240
    39dc:	00002a3d 	.word	0x00002a3d
    39e0:	00003135 	.word	0x00003135

000039e4 <xTaskRemoveFromEventList>:
    39e4:	b5f8      	push	{r3, r4, r5, r6, r7, lr}
    39e6:	68c3      	ldr	r3, [r0, #12]
    39e8:	68dc      	ldr	r4, [r3, #12]
    39ea:	2c00      	cmp	r4, #0
    39ec:	d101      	bne.n	39f2 <xTaskRemoveFromEventList+0xe>
    39ee:	b672      	cpsid	i
    39f0:	e7fe      	b.n	39f0 <xTaskRemoveFromEventList+0xc>
    39f2:	0026      	movs	r6, r4
    39f4:	3618      	adds	r6, #24
    39f6:	0030      	movs	r0, r6
    39f8:	4f11      	ldr	r7, [pc, #68]	; (3a40 <xTaskRemoveFromEventList+0x5c>)
    39fa:	47b8      	blx	r7
    39fc:	4b11      	ldr	r3, [pc, #68]	; (3a44 <xTaskRemoveFromEventList+0x60>)
    39fe:	4d12      	ldr	r5, [pc, #72]	; (3a48 <xTaskRemoveFromEventList+0x64>)
    3a00:	681b      	ldr	r3, [r3, #0]
    3a02:	2b00      	cmp	r3, #0
    3a04:	d119      	bne.n	3a3a <xTaskRemoveFromEventList+0x56>
    3a06:	1d26      	adds	r6, r4, #4
    3a08:	0030      	movs	r0, r6
    3a0a:	47b8      	blx	r7
    3a0c:	4a0f      	ldr	r2, [pc, #60]	; (3a4c <xTaskRemoveFromEventList+0x68>)
    3a0e:	6ae3      	ldr	r3, [r4, #44]	; 0x2c
    3a10:	6811      	ldr	r1, [r2, #0]
    3a12:	428b      	cmp	r3, r1
    3a14:	d900      	bls.n	3a18 <xTaskRemoveFromEventList+0x34>
    3a16:	6013      	str	r3, [r2, #0]
    3a18:	2014      	movs	r0, #20
    3a1a:	0031      	movs	r1, r6
    3a1c:	4343      	muls	r3, r0
    3a1e:	480c      	ldr	r0, [pc, #48]	; (3a50 <xTaskRemoveFromEventList+0x6c>)
    3a20:	18c0      	adds	r0, r0, r3
    3a22:	47a8      	blx	r5
    3a24:	4b0b      	ldr	r3, [pc, #44]	; (3a54 <xTaskRemoveFromEventList+0x70>)
    3a26:	6ae2      	ldr	r2, [r4, #44]	; 0x2c
    3a28:	681b      	ldr	r3, [r3, #0]
    3a2a:	2000      	movs	r0, #0
    3a2c:	6adb      	ldr	r3, [r3, #44]	; 0x2c
    3a2e:	429a      	cmp	r2, r3
    3a30:	d902      	bls.n	3a38 <xTaskRemoveFromEventList+0x54>
    3a32:	4b09      	ldr	r3, [pc, #36]	; (3a58 <xTaskRemoveFromEventList+0x74>)
    3a34:	3001      	adds	r0, #1
    3a36:	6018      	str	r0, [r3, #0]
    3a38:	bdf8      	pop	{r3, r4, r5, r6, r7, pc}
    3a3a:	0031      	movs	r1, r6
    3a3c:	4807      	ldr	r0, [pc, #28]	; (3a5c <xTaskRemoveFromEventList+0x78>)
    3a3e:	e7f0      	b.n	3a22 <xTaskRemoveFromEventList+0x3e>
    3a40:	00002a83 	.word	0x00002a83
    3a44:	200052bc 	.word	0x200052bc
    3a48:	00002a3d 	.word	0x00002a3d
    3a4c:	200052c4 	.word	0x200052c4
    3a50:	2000524c 	.word	0x2000524c
    3a54:	20005240 	.word	0x20005240
    3a58:	20005340 	.word	0x20005340
    3a5c:	200052fc 	.word	0x200052fc

00003a60 <vTaskInternalSetTimeOutState>:
    3a60:	4b03      	ldr	r3, [pc, #12]	; (3a70 <vTaskInternalSetTimeOutState+0x10>)
    3a62:	681b      	ldr	r3, [r3, #0]
    3a64:	6003      	str	r3, [r0, #0]
    3a66:	4b03      	ldr	r3, [pc, #12]	; (3a74 <vTaskInternalSetTimeOutState+0x14>)
    3a68:	681b      	ldr	r3, [r3, #0]
    3a6a:	6043      	str	r3, [r0, #4]
    3a6c:	4770      	bx	lr
    3a6e:	46c0      	nop			; (mov r8, r8)
    3a70:	200052f8 	.word	0x200052f8
    3a74:	2000533c 	.word	0x2000533c

00003a78 <xTaskCheckForTimeOut>:
    3a78:	b570      	push	{r4, r5, r6, lr}
    3a7a:	0005      	movs	r5, r0
    3a7c:	000c      	movs	r4, r1
    3a7e:	2800      	cmp	r0, #0
    3a80:	d101      	bne.n	3a86 <xTaskCheckForTimeOut+0xe>
    3a82:	b672      	cpsid	i
    3a84:	e7fe      	b.n	3a84 <xTaskCheckForTimeOut+0xc>
    3a86:	2900      	cmp	r1, #0
    3a88:	d101      	bne.n	3a8e <xTaskCheckForTimeOut+0x16>
    3a8a:	b672      	cpsid	i
    3a8c:	e7fe      	b.n	3a8c <xTaskCheckForTimeOut+0x14>
    3a8e:	4b11      	ldr	r3, [pc, #68]	; (3ad4 <xTaskCheckForTimeOut+0x5c>)
    3a90:	4798      	blx	r3
    3a92:	4b11      	ldr	r3, [pc, #68]	; (3ad8 <xTaskCheckForTimeOut+0x60>)
    3a94:	6869      	ldr	r1, [r5, #4]
    3a96:	681a      	ldr	r2, [r3, #0]
    3a98:	6823      	ldr	r3, [r4, #0]
    3a9a:	2600      	movs	r6, #0
    3a9c:	1c58      	adds	r0, r3, #1
    3a9e:	d010      	beq.n	3ac2 <xTaskCheckForTimeOut+0x4a>
    3aa0:	480e      	ldr	r0, [pc, #56]	; (3adc <xTaskCheckForTimeOut+0x64>)
    3aa2:	682e      	ldr	r6, [r5, #0]
    3aa4:	6800      	ldr	r0, [r0, #0]
    3aa6:	4286      	cmp	r6, r0
    3aa8:	d002      	beq.n	3ab0 <xTaskCheckForTimeOut+0x38>
    3aaa:	2601      	movs	r6, #1
    3aac:	428a      	cmp	r2, r1
    3aae:	d208      	bcs.n	3ac2 <xTaskCheckForTimeOut+0x4a>
    3ab0:	1a52      	subs	r2, r2, r1
    3ab2:	429a      	cmp	r2, r3
    3ab4:	d209      	bcs.n	3aca <xTaskCheckForTimeOut+0x52>
    3ab6:	1a9b      	subs	r3, r3, r2
    3ab8:	6023      	str	r3, [r4, #0]
    3aba:	0028      	movs	r0, r5
    3abc:	4b08      	ldr	r3, [pc, #32]	; (3ae0 <xTaskCheckForTimeOut+0x68>)
    3abe:	4798      	blx	r3
    3ac0:	2600      	movs	r6, #0
    3ac2:	4b08      	ldr	r3, [pc, #32]	; (3ae4 <xTaskCheckForTimeOut+0x6c>)
    3ac4:	4798      	blx	r3
    3ac6:	0030      	movs	r0, r6
    3ac8:	bd70      	pop	{r4, r5, r6, pc}
    3aca:	2300      	movs	r3, #0
    3acc:	2601      	movs	r6, #1
    3ace:	6023      	str	r3, [r4, #0]
    3ad0:	e7f7      	b.n	3ac2 <xTaskCheckForTimeOut+0x4a>
    3ad2:	46c0      	nop			; (mov r8, r8)
    3ad4:	00000e95 	.word	0x00000e95
    3ad8:	2000533c 	.word	0x2000533c
    3adc:	200052f8 	.word	0x200052f8
    3ae0:	00003a61 	.word	0x00003a61
    3ae4:	00000ead 	.word	0x00000ead

00003ae8 <vTaskMissedYield>:
    3ae8:	2201      	movs	r2, #1
    3aea:	4b01      	ldr	r3, [pc, #4]	; (3af0 <vTaskMissedYield+0x8>)
    3aec:	601a      	str	r2, [r3, #0]
    3aee:	4770      	bx	lr
    3af0:	20005340 	.word	0x20005340

00003af4 <xTaskGetSchedulerState>:
    3af4:	4b05      	ldr	r3, [pc, #20]	; (3b0c <xTaskGetSchedulerState+0x18>)
    3af6:	2001      	movs	r0, #1
    3af8:	681b      	ldr	r3, [r3, #0]
    3afa:	2b00      	cmp	r3, #0
    3afc:	d004      	beq.n	3b08 <xTaskGetSchedulerState+0x14>
    3afe:	4b04      	ldr	r3, [pc, #16]	; (3b10 <xTaskGetSchedulerState+0x1c>)
    3b00:	6818      	ldr	r0, [r3, #0]
    3b02:	4243      	negs	r3, r0
    3b04:	4158      	adcs	r0, r3
    3b06:	0040      	lsls	r0, r0, #1
    3b08:	4770      	bx	lr
    3b0a:	46c0      	nop			; (mov r8, r8)
    3b0c:	20005310 	.word	0x20005310
    3b10:	200052bc 	.word	0x200052bc

00003b14 <xTaskPriorityDisinherit>:
    3b14:	b570      	push	{r4, r5, r6, lr}
    3b16:	1e04      	subs	r4, r0, #0
    3b18:	d101      	bne.n	3b1e <xTaskPriorityDisinherit+0xa>
    3b1a:	2000      	movs	r0, #0
    3b1c:	bd70      	pop	{r4, r5, r6, pc}
    3b1e:	4b15      	ldr	r3, [pc, #84]	; (3b74 <xTaskPriorityDisinherit+0x60>)
    3b20:	681b      	ldr	r3, [r3, #0]
    3b22:	4298      	cmp	r0, r3
    3b24:	d001      	beq.n	3b2a <xTaskPriorityDisinherit+0x16>
    3b26:	b672      	cpsid	i
    3b28:	e7fe      	b.n	3b28 <xTaskPriorityDisinherit+0x14>
    3b2a:	6cc3      	ldr	r3, [r0, #76]	; 0x4c
    3b2c:	2b00      	cmp	r3, #0
    3b2e:	d101      	bne.n	3b34 <xTaskPriorityDisinherit+0x20>
    3b30:	b672      	cpsid	i
    3b32:	e7fe      	b.n	3b32 <xTaskPriorityDisinherit+0x1e>
    3b34:	6ac2      	ldr	r2, [r0, #44]	; 0x2c
    3b36:	6c81      	ldr	r1, [r0, #72]	; 0x48
    3b38:	3b01      	subs	r3, #1
    3b3a:	64c3      	str	r3, [r0, #76]	; 0x4c
    3b3c:	428a      	cmp	r2, r1
    3b3e:	d0ec      	beq.n	3b1a <xTaskPriorityDisinherit+0x6>
    3b40:	2b00      	cmp	r3, #0
    3b42:	d1ea      	bne.n	3b1a <xTaskPriorityDisinherit+0x6>
    3b44:	1d05      	adds	r5, r0, #4
    3b46:	4b0c      	ldr	r3, [pc, #48]	; (3b78 <xTaskPriorityDisinherit+0x64>)
    3b48:	0028      	movs	r0, r5
    3b4a:	4798      	blx	r3
    3b4c:	2305      	movs	r3, #5
    3b4e:	6ca0      	ldr	r0, [r4, #72]	; 0x48
    3b50:	1a1b      	subs	r3, r3, r0
    3b52:	61a3      	str	r3, [r4, #24]
    3b54:	4b09      	ldr	r3, [pc, #36]	; (3b7c <xTaskPriorityDisinherit+0x68>)
    3b56:	62e0      	str	r0, [r4, #44]	; 0x2c
    3b58:	681a      	ldr	r2, [r3, #0]
    3b5a:	4290      	cmp	r0, r2
    3b5c:	d900      	bls.n	3b60 <xTaskPriorityDisinherit+0x4c>
    3b5e:	6018      	str	r0, [r3, #0]
    3b60:	2314      	movs	r3, #20
    3b62:	4343      	muls	r3, r0
    3b64:	4806      	ldr	r0, [pc, #24]	; (3b80 <xTaskPriorityDisinherit+0x6c>)
    3b66:	0029      	movs	r1, r5
    3b68:	18c0      	adds	r0, r0, r3
    3b6a:	4b06      	ldr	r3, [pc, #24]	; (3b84 <xTaskPriorityDisinherit+0x70>)
    3b6c:	4798      	blx	r3
    3b6e:	2001      	movs	r0, #1
    3b70:	e7d4      	b.n	3b1c <xTaskPriorityDisinherit+0x8>
    3b72:	46c0      	nop			; (mov r8, r8)
    3b74:	20005240 	.word	0x20005240
    3b78:	00002a83 	.word	0x00002a83
    3b7c:	200052c4 	.word	0x200052c4
    3b80:	2000524c 	.word	0x2000524c
    3b84:	00002a3d 	.word	0x00002a3d

00003b88 <prvCheckForValidListAndQueue>:
    3b88:	b5f7      	push	{r0, r1, r2, r4, r5, r6, r7, lr}
    3b8a:	4b10      	ldr	r3, [pc, #64]	; (3bcc <prvCheckForValidListAndQueue+0x44>)
    3b8c:	4798      	blx	r3
    3b8e:	4c10      	ldr	r4, [pc, #64]	; (3bd0 <prvCheckForValidListAndQueue+0x48>)
    3b90:	6823      	ldr	r3, [r4, #0]
    3b92:	9301      	str	r3, [sp, #4]
    3b94:	2b00      	cmp	r3, #0
    3b96:	d115      	bne.n	3bc4 <prvCheckForValidListAndQueue+0x3c>
    3b98:	4e0e      	ldr	r6, [pc, #56]	; (3bd4 <prvCheckForValidListAndQueue+0x4c>)
    3b9a:	4f0f      	ldr	r7, [pc, #60]	; (3bd8 <prvCheckForValidListAndQueue+0x50>)
    3b9c:	0030      	movs	r0, r6
    3b9e:	47b8      	blx	r7
    3ba0:	4d0e      	ldr	r5, [pc, #56]	; (3bdc <prvCheckForValidListAndQueue+0x54>)
    3ba2:	0028      	movs	r0, r5
    3ba4:	47b8      	blx	r7
    3ba6:	4b0e      	ldr	r3, [pc, #56]	; (3be0 <prvCheckForValidListAndQueue+0x58>)
    3ba8:	9a01      	ldr	r2, [sp, #4]
    3baa:	601e      	str	r6, [r3, #0]
    3bac:	4b0d      	ldr	r3, [pc, #52]	; (3be4 <prvCheckForValidListAndQueue+0x5c>)
    3bae:	2110      	movs	r1, #16
    3bb0:	601d      	str	r5, [r3, #0]
    3bb2:	2005      	movs	r0, #5
    3bb4:	4b0c      	ldr	r3, [pc, #48]	; (3be8 <prvCheckForValidListAndQueue+0x60>)
    3bb6:	4798      	blx	r3
    3bb8:	6020      	str	r0, [r4, #0]
    3bba:	2800      	cmp	r0, #0
    3bbc:	d002      	beq.n	3bc4 <prvCheckForValidListAndQueue+0x3c>
    3bbe:	490b      	ldr	r1, [pc, #44]	; (3bec <prvCheckForValidListAndQueue+0x64>)
    3bc0:	4b0b      	ldr	r3, [pc, #44]	; (3bf0 <prvCheckForValidListAndQueue+0x68>)
    3bc2:	4798      	blx	r3
    3bc4:	4b0b      	ldr	r3, [pc, #44]	; (3bf4 <prvCheckForValidListAndQueue+0x6c>)
    3bc6:	4798      	blx	r3
    3bc8:	bdf7      	pop	{r0, r1, r2, r4, r5, r6, r7, pc}
    3bca:	46c0      	nop			; (mov r8, r8)
    3bcc:	00000e95 	.word	0x00000e95
    3bd0:	20005378 	.word	0x20005378
    3bd4:	2000534c 	.word	0x2000534c
    3bd8:	00002a21 	.word	0x00002a21
    3bdc:	20005360 	.word	0x20005360
    3be0:	20005344 	.word	0x20005344
    3be4:	20005348 	.word	0x20005348
    3be8:	00002cd1 	.word	0x00002cd1
    3bec:	00008e5e 	.word	0x00008e5e
    3bf0:	00003061 	.word	0x00003061
    3bf4:	00000ead 	.word	0x00000ead

00003bf8 <prvInsertTimerInActiveList>:
    3bf8:	b510      	push	{r4, lr}
    3bfa:	6041      	str	r1, [r0, #4]
    3bfc:	6100      	str	r0, [r0, #16]
    3bfe:	4291      	cmp	r1, r2
    3c00:	d80c      	bhi.n	3c1c <prvInsertTimerInActiveList+0x24>
    3c02:	1ad2      	subs	r2, r2, r3
    3c04:	6983      	ldr	r3, [r0, #24]
    3c06:	2401      	movs	r4, #1
    3c08:	429a      	cmp	r2, r3
    3c0a:	d205      	bcs.n	3c18 <prvInsertTimerInActiveList+0x20>
    3c0c:	4b07      	ldr	r3, [pc, #28]	; (3c2c <prvInsertTimerInActiveList+0x34>)
    3c0e:	1d01      	adds	r1, r0, #4
    3c10:	6818      	ldr	r0, [r3, #0]
    3c12:	4b07      	ldr	r3, [pc, #28]	; (3c30 <prvInsertTimerInActiveList+0x38>)
    3c14:	4798      	blx	r3
    3c16:	2400      	movs	r4, #0
    3c18:	0020      	movs	r0, r4
    3c1a:	bd10      	pop	{r4, pc}
    3c1c:	429a      	cmp	r2, r3
    3c1e:	d202      	bcs.n	3c26 <prvInsertTimerInActiveList+0x2e>
    3c20:	2401      	movs	r4, #1
    3c22:	4299      	cmp	r1, r3
    3c24:	d2f8      	bcs.n	3c18 <prvInsertTimerInActiveList+0x20>
    3c26:	1d01      	adds	r1, r0, #4
    3c28:	4b02      	ldr	r3, [pc, #8]	; (3c34 <prvInsertTimerInActiveList+0x3c>)
    3c2a:	e7f1      	b.n	3c10 <prvInsertTimerInActiveList+0x18>
    3c2c:	20005348 	.word	0x20005348
    3c30:	00002a55 	.word	0x00002a55
    3c34:	20005344 	.word	0x20005344

00003c38 <xTimerCreateTimerTask>:
    3c38:	4b0b      	ldr	r3, [pc, #44]	; (3c68 <xTimerCreateTimerTask+0x30>)
    3c3a:	b513      	push	{r0, r1, r4, lr}
    3c3c:	4798      	blx	r3
    3c3e:	4b0b      	ldr	r3, [pc, #44]	; (3c6c <xTimerCreateTimerTask+0x34>)
    3c40:	681b      	ldr	r3, [r3, #0]
    3c42:	2b00      	cmp	r3, #0
    3c44:	d101      	bne.n	3c4a <xTimerCreateTimerTask+0x12>
    3c46:	b672      	cpsid	i
    3c48:	e7fe      	b.n	3c48 <xTimerCreateTimerTask+0x10>
    3c4a:	4b09      	ldr	r3, [pc, #36]	; (3c70 <xTimerCreateTimerTask+0x38>)
    3c4c:	2282      	movs	r2, #130	; 0x82
    3c4e:	9301      	str	r3, [sp, #4]
    3c50:	2304      	movs	r3, #4
    3c52:	0052      	lsls	r2, r2, #1
    3c54:	9300      	str	r3, [sp, #0]
    3c56:	4907      	ldr	r1, [pc, #28]	; (3c74 <xTimerCreateTimerTask+0x3c>)
    3c58:	2300      	movs	r3, #0
    3c5a:	4807      	ldr	r0, [pc, #28]	; (3c78 <xTimerCreateTimerTask+0x40>)
    3c5c:	4c07      	ldr	r4, [pc, #28]	; (3c7c <xTimerCreateTimerTask+0x44>)
    3c5e:	47a0      	blx	r4
    3c60:	2800      	cmp	r0, #0
    3c62:	d0f0      	beq.n	3c46 <xTimerCreateTimerTask+0xe>
    3c64:	bd16      	pop	{r1, r2, r4, pc}
    3c66:	46c0      	nop			; (mov r8, r8)
    3c68:	00003b89 	.word	0x00003b89
    3c6c:	20005378 	.word	0x20005378
    3c70:	2000537c 	.word	0x2000537c
    3c74:	00008e63 	.word	0x00008e63
    3c78:	00003d8d 	.word	0x00003d8d
    3c7c:	00003221 	.word	0x00003221

00003c80 <xTimerCreate>:
    3c80:	b5f7      	push	{r0, r1, r2, r4, r5, r6, r7, lr}
    3c82:	0007      	movs	r7, r0
    3c84:	9301      	str	r3, [sp, #4]
    3c86:	202c      	movs	r0, #44	; 0x2c
    3c88:	4b0b      	ldr	r3, [pc, #44]	; (3cb8 <xTimerCreate+0x38>)
    3c8a:	000d      	movs	r5, r1
    3c8c:	0016      	movs	r6, r2
    3c8e:	4798      	blx	r3
    3c90:	1e04      	subs	r4, r0, #0
    3c92:	d00f      	beq.n	3cb4 <xTimerCreate+0x34>
    3c94:	2d00      	cmp	r5, #0
    3c96:	d101      	bne.n	3c9c <xTimerCreate+0x1c>
    3c98:	b672      	cpsid	i
    3c9a:	e7fe      	b.n	3c9a <xTimerCreate+0x1a>
    3c9c:	4b07      	ldr	r3, [pc, #28]	; (3cbc <xTimerCreate+0x3c>)
    3c9e:	4798      	blx	r3
    3ca0:	9b01      	ldr	r3, [sp, #4]
    3ca2:	6027      	str	r7, [r4, #0]
    3ca4:	6223      	str	r3, [r4, #32]
    3ca6:	9b08      	ldr	r3, [sp, #32]
    3ca8:	61a5      	str	r5, [r4, #24]
    3caa:	6263      	str	r3, [r4, #36]	; 0x24
    3cac:	61e6      	str	r6, [r4, #28]
    3cae:	1d20      	adds	r0, r4, #4
    3cb0:	4b03      	ldr	r3, [pc, #12]	; (3cc0 <xTimerCreate+0x40>)
    3cb2:	4798      	blx	r3
    3cb4:	0020      	movs	r0, r4
    3cb6:	bdfe      	pop	{r1, r2, r3, r4, r5, r6, r7, pc}
    3cb8:	00000fa1 	.word	0x00000fa1
    3cbc:	00003b89 	.word	0x00003b89
    3cc0:	00002a37 	.word	0x00002a37

00003cc4 <xTimerGenericCommand>:
    3cc4:	b5f0      	push	{r4, r5, r6, r7, lr}
    3cc6:	0017      	movs	r7, r2
    3cc8:	b085      	sub	sp, #20
    3cca:	0006      	movs	r6, r0
    3ccc:	001a      	movs	r2, r3
    3cce:	2800      	cmp	r0, #0
    3cd0:	d101      	bne.n	3cd6 <xTimerGenericCommand+0x12>
    3cd2:	b672      	cpsid	i
    3cd4:	e7fe      	b.n	3cd4 <xTimerGenericCommand+0x10>
    3cd6:	4d0d      	ldr	r5, [pc, #52]	; (3d0c <xTimerGenericCommand+0x48>)
    3cd8:	682c      	ldr	r4, [r5, #0]
    3cda:	1e20      	subs	r0, r4, #0
    3cdc:	d00f      	beq.n	3cfe <xTimerGenericCommand+0x3a>
    3cde:	9100      	str	r1, [sp, #0]
    3ce0:	9701      	str	r7, [sp, #4]
    3ce2:	9602      	str	r6, [sp, #8]
    3ce4:	2905      	cmp	r1, #5
    3ce6:	dc0c      	bgt.n	3d02 <xTimerGenericCommand+0x3e>
    3ce8:	4b09      	ldr	r3, [pc, #36]	; (3d10 <xTimerGenericCommand+0x4c>)
    3cea:	4798      	blx	r3
    3cec:	4c09      	ldr	r4, [pc, #36]	; (3d14 <xTimerGenericCommand+0x50>)
    3cee:	2300      	movs	r3, #0
    3cf0:	9a0a      	ldr	r2, [sp, #40]	; 0x28
    3cf2:	2802      	cmp	r0, #2
    3cf4:	d000      	beq.n	3cf8 <xTimerGenericCommand+0x34>
    3cf6:	001a      	movs	r2, r3
    3cf8:	4669      	mov	r1, sp
    3cfa:	6828      	ldr	r0, [r5, #0]
    3cfc:	47a0      	blx	r4
    3cfe:	b005      	add	sp, #20
    3d00:	bdf0      	pop	{r4, r5, r6, r7, pc}
    3d02:	0020      	movs	r0, r4
    3d04:	2300      	movs	r3, #0
    3d06:	4669      	mov	r1, sp
    3d08:	4c03      	ldr	r4, [pc, #12]	; (3d18 <xTimerGenericCommand+0x54>)
    3d0a:	e7f7      	b.n	3cfc <xTimerGenericCommand+0x38>
    3d0c:	20005378 	.word	0x20005378
    3d10:	00003af5 	.word	0x00003af5
    3d14:	00002d21 	.word	0x00002d21
    3d18:	00002e7d 	.word	0x00002e7d

00003d1c <prvSwitchTimerLists>:
    3d1c:	b5f7      	push	{r0, r1, r2, r4, r5, r6, r7, lr}
    3d1e:	4d16      	ldr	r5, [pc, #88]	; (3d78 <prvSwitchTimerLists+0x5c>)
    3d20:	682b      	ldr	r3, [r5, #0]
    3d22:	681a      	ldr	r2, [r3, #0]
    3d24:	2a00      	cmp	r2, #0
    3d26:	d104      	bne.n	3d32 <prvSwitchTimerLists+0x16>
    3d28:	4a14      	ldr	r2, [pc, #80]	; (3d7c <prvSwitchTimerLists+0x60>)
    3d2a:	6811      	ldr	r1, [r2, #0]
    3d2c:	6013      	str	r3, [r2, #0]
    3d2e:	6029      	str	r1, [r5, #0]
    3d30:	bdf7      	pop	{r0, r1, r2, r4, r5, r6, r7, pc}
    3d32:	68db      	ldr	r3, [r3, #12]
    3d34:	68dc      	ldr	r4, [r3, #12]
    3d36:	681e      	ldr	r6, [r3, #0]
    3d38:	1d27      	adds	r7, r4, #4
    3d3a:	4b11      	ldr	r3, [pc, #68]	; (3d80 <prvSwitchTimerLists+0x64>)
    3d3c:	0038      	movs	r0, r7
    3d3e:	4798      	blx	r3
    3d40:	6a63      	ldr	r3, [r4, #36]	; 0x24
    3d42:	0020      	movs	r0, r4
    3d44:	4798      	blx	r3
    3d46:	69e3      	ldr	r3, [r4, #28]
    3d48:	2b01      	cmp	r3, #1
    3d4a:	d1e8      	bne.n	3d1e <prvSwitchTimerLists+0x2>
    3d4c:	69a3      	ldr	r3, [r4, #24]
    3d4e:	18f3      	adds	r3, r6, r3
    3d50:	429e      	cmp	r6, r3
    3d52:	d206      	bcs.n	3d62 <prvSwitchTimerLists+0x46>
    3d54:	6063      	str	r3, [r4, #4]
    3d56:	6124      	str	r4, [r4, #16]
    3d58:	0039      	movs	r1, r7
    3d5a:	6828      	ldr	r0, [r5, #0]
    3d5c:	4b09      	ldr	r3, [pc, #36]	; (3d84 <prvSwitchTimerLists+0x68>)
    3d5e:	4798      	blx	r3
    3d60:	e7dd      	b.n	3d1e <prvSwitchTimerLists+0x2>
    3d62:	2100      	movs	r1, #0
    3d64:	0020      	movs	r0, r4
    3d66:	9100      	str	r1, [sp, #0]
    3d68:	000b      	movs	r3, r1
    3d6a:	0032      	movs	r2, r6
    3d6c:	4c06      	ldr	r4, [pc, #24]	; (3d88 <prvSwitchTimerLists+0x6c>)
    3d6e:	47a0      	blx	r4
    3d70:	2800      	cmp	r0, #0
    3d72:	d1d4      	bne.n	3d1e <prvSwitchTimerLists+0x2>
    3d74:	b672      	cpsid	i
    3d76:	e7fe      	b.n	3d76 <prvSwitchTimerLists+0x5a>
    3d78:	20005344 	.word	0x20005344
    3d7c:	20005348 	.word	0x20005348
    3d80:	00002a83 	.word	0x00002a83
    3d84:	00002a55 	.word	0x00002a55
    3d88:	00003cc5 	.word	0x00003cc5

00003d8c <prvTimerTask>:
    3d8c:	b5f0      	push	{r4, r5, r6, r7, lr}
    3d8e:	b089      	sub	sp, #36	; 0x24
    3d90:	2700      	movs	r7, #0
    3d92:	4b5b      	ldr	r3, [pc, #364]	; (3f00 <prvTimerTask+0x174>)
    3d94:	681b      	ldr	r3, [r3, #0]
    3d96:	681a      	ldr	r2, [r3, #0]
    3d98:	9203      	str	r2, [sp, #12]
    3d9a:	42ba      	cmp	r2, r7
    3d9c:	d001      	beq.n	3da2 <prvTimerTask+0x16>
    3d9e:	68db      	ldr	r3, [r3, #12]
    3da0:	681f      	ldr	r7, [r3, #0]
    3da2:	4b58      	ldr	r3, [pc, #352]	; (3f04 <prvTimerTask+0x178>)
    3da4:	4798      	blx	r3
    3da6:	4b58      	ldr	r3, [pc, #352]	; (3f08 <prvTimerTask+0x17c>)
    3da8:	4798      	blx	r3
    3daa:	4d58      	ldr	r5, [pc, #352]	; (3f0c <prvTimerTask+0x180>)
    3dac:	0004      	movs	r4, r0
    3dae:	682b      	ldr	r3, [r5, #0]
    3db0:	2600      	movs	r6, #0
    3db2:	4298      	cmp	r0, r3
    3db4:	d202      	bcs.n	3dbc <prvTimerTask+0x30>
    3db6:	4b56      	ldr	r3, [pc, #344]	; (3f10 <prvTimerTask+0x184>)
    3db8:	4798      	blx	r3
    3dba:	3601      	adds	r6, #1
    3dbc:	602c      	str	r4, [r5, #0]
    3dbe:	4d55      	ldr	r5, [pc, #340]	; (3f14 <prvTimerTask+0x188>)
    3dc0:	2e00      	cmp	r6, #0
    3dc2:	d171      	bne.n	3ea8 <prvTimerTask+0x11c>
    3dc4:	9b03      	ldr	r3, [sp, #12]
    3dc6:	2b00      	cmp	r3, #0
    3dc8:	d05d      	beq.n	3e86 <prvTimerTask+0xfa>
    3dca:	0030      	movs	r0, r6
    3dcc:	42a7      	cmp	r7, r4
    3dce:	d85f      	bhi.n	3e90 <prvTimerTask+0x104>
    3dd0:	47a8      	blx	r5
    3dd2:	4b4b      	ldr	r3, [pc, #300]	; (3f00 <prvTimerTask+0x174>)
    3dd4:	681b      	ldr	r3, [r3, #0]
    3dd6:	68db      	ldr	r3, [r3, #12]
    3dd8:	68dd      	ldr	r5, [r3, #12]
    3dda:	4b4f      	ldr	r3, [pc, #316]	; (3f18 <prvTimerTask+0x18c>)
    3ddc:	1d28      	adds	r0, r5, #4
    3dde:	4798      	blx	r3
    3de0:	69eb      	ldr	r3, [r5, #28]
    3de2:	2b01      	cmp	r3, #1
    3de4:	d113      	bne.n	3e0e <prvTimerTask+0x82>
    3de6:	69ab      	ldr	r3, [r5, #24]
    3de8:	0022      	movs	r2, r4
    3dea:	18f9      	adds	r1, r7, r3
    3dec:	0028      	movs	r0, r5
    3dee:	003b      	movs	r3, r7
    3df0:	4c4a      	ldr	r4, [pc, #296]	; (3f1c <prvTimerTask+0x190>)
    3df2:	47a0      	blx	r4
    3df4:	2800      	cmp	r0, #0
    3df6:	d00a      	beq.n	3e0e <prvTimerTask+0x82>
    3df8:	9600      	str	r6, [sp, #0]
    3dfa:	0033      	movs	r3, r6
    3dfc:	003a      	movs	r2, r7
    3dfe:	0031      	movs	r1, r6
    3e00:	0028      	movs	r0, r5
    3e02:	4c47      	ldr	r4, [pc, #284]	; (3f20 <prvTimerTask+0x194>)
    3e04:	47a0      	blx	r4
    3e06:	2800      	cmp	r0, #0
    3e08:	d101      	bne.n	3e0e <prvTimerTask+0x82>
    3e0a:	b672      	cpsid	i
    3e0c:	e7fe      	b.n	3e0c <prvTimerTask+0x80>
    3e0e:	6a6b      	ldr	r3, [r5, #36]	; 0x24
    3e10:	0028      	movs	r0, r5
    3e12:	4798      	blx	r3
    3e14:	2784      	movs	r7, #132	; 0x84
    3e16:	00bf      	lsls	r7, r7, #2
    3e18:	4b42      	ldr	r3, [pc, #264]	; (3f24 <prvTimerTask+0x198>)
    3e1a:	2200      	movs	r2, #0
    3e1c:	6818      	ldr	r0, [r3, #0]
    3e1e:	a904      	add	r1, sp, #16
    3e20:	4b41      	ldr	r3, [pc, #260]	; (3f28 <prvTimerTask+0x19c>)
    3e22:	4798      	blx	r3
    3e24:	2800      	cmp	r0, #0
    3e26:	d0b3      	beq.n	3d90 <prvTimerTask+0x4>
    3e28:	9b04      	ldr	r3, [sp, #16]
    3e2a:	2b00      	cmp	r3, #0
    3e2c:	da04      	bge.n	3e38 <prvTimerTask+0xac>
    3e2e:	9b05      	ldr	r3, [sp, #20]
    3e30:	9907      	ldr	r1, [sp, #28]
    3e32:	9806      	ldr	r0, [sp, #24]
    3e34:	9303      	str	r3, [sp, #12]
    3e36:	4798      	blx	r3
    3e38:	9b04      	ldr	r3, [sp, #16]
    3e3a:	9303      	str	r3, [sp, #12]
    3e3c:	2b00      	cmp	r3, #0
    3e3e:	dbeb      	blt.n	3e18 <prvTimerTask+0x8c>
    3e40:	9c06      	ldr	r4, [sp, #24]
    3e42:	6963      	ldr	r3, [r4, #20]
    3e44:	2b00      	cmp	r3, #0
    3e46:	d002      	beq.n	3e4e <prvTimerTask+0xc2>
    3e48:	1d20      	adds	r0, r4, #4
    3e4a:	4b33      	ldr	r3, [pc, #204]	; (3f18 <prvTimerTask+0x18c>)
    3e4c:	4798      	blx	r3
    3e4e:	4b2e      	ldr	r3, [pc, #184]	; (3f08 <prvTimerTask+0x17c>)
    3e50:	4798      	blx	r3
    3e52:	4e2e      	ldr	r6, [pc, #184]	; (3f0c <prvTimerTask+0x180>)
    3e54:	0005      	movs	r5, r0
    3e56:	6833      	ldr	r3, [r6, #0]
    3e58:	4298      	cmp	r0, r3
    3e5a:	d201      	bcs.n	3e60 <prvTimerTask+0xd4>
    3e5c:	4b2c      	ldr	r3, [pc, #176]	; (3f10 <prvTimerTask+0x184>)
    3e5e:	4798      	blx	r3
    3e60:	9b04      	ldr	r3, [sp, #16]
    3e62:	6035      	str	r5, [r6, #0]
    3e64:	2b09      	cmp	r3, #9
    3e66:	d8d7      	bhi.n	3e18 <prvTimerTask+0x8c>
    3e68:	2201      	movs	r2, #1
    3e6a:	409a      	lsls	r2, r3
    3e6c:	0016      	movs	r6, r2
    3e6e:	0013      	movs	r3, r2
    3e70:	403e      	ands	r6, r7
    3e72:	d138      	bne.n	3ee6 <prvTimerTask+0x15a>
    3e74:	22c7      	movs	r2, #199	; 0xc7
    3e76:	4213      	tst	r3, r2
    3e78:	d118      	bne.n	3eac <prvTimerTask+0x120>
    3e7a:	069b      	lsls	r3, r3, #26
    3e7c:	d5cc      	bpl.n	3e18 <prvTimerTask+0x8c>
    3e7e:	0020      	movs	r0, r4
    3e80:	4b2a      	ldr	r3, [pc, #168]	; (3f2c <prvTimerTask+0x1a0>)
    3e82:	4798      	blx	r3
    3e84:	e7c8      	b.n	3e18 <prvTimerTask+0x8c>
    3e86:	4b2a      	ldr	r3, [pc, #168]	; (3f30 <prvTimerTask+0x1a4>)
    3e88:	681b      	ldr	r3, [r3, #0]
    3e8a:	681a      	ldr	r2, [r3, #0]
    3e8c:	4250      	negs	r0, r2
    3e8e:	4150      	adcs	r0, r2
    3e90:	4b24      	ldr	r3, [pc, #144]	; (3f24 <prvTimerTask+0x198>)
    3e92:	0002      	movs	r2, r0
    3e94:	1b39      	subs	r1, r7, r4
    3e96:	6818      	ldr	r0, [r3, #0]
    3e98:	4b26      	ldr	r3, [pc, #152]	; (3f34 <prvTimerTask+0x1a8>)
    3e9a:	4798      	blx	r3
    3e9c:	47a8      	blx	r5
    3e9e:	2800      	cmp	r0, #0
    3ea0:	d1b8      	bne.n	3e14 <prvTimerTask+0x88>
    3ea2:	4b25      	ldr	r3, [pc, #148]	; (3f38 <prvTimerTask+0x1ac>)
    3ea4:	4798      	blx	r3
    3ea6:	e7b5      	b.n	3e14 <prvTimerTask+0x88>
    3ea8:	47a8      	blx	r5
    3eaa:	e7b3      	b.n	3e14 <prvTimerTask+0x88>
    3eac:	9b05      	ldr	r3, [sp, #20]
    3eae:	69a2      	ldr	r2, [r4, #24]
    3eb0:	0020      	movs	r0, r4
    3eb2:	1899      	adds	r1, r3, r2
    3eb4:	002a      	movs	r2, r5
    3eb6:	4d19      	ldr	r5, [pc, #100]	; (3f1c <prvTimerTask+0x190>)
    3eb8:	9303      	str	r3, [sp, #12]
    3eba:	47a8      	blx	r5
    3ebc:	2800      	cmp	r0, #0
    3ebe:	d0ab      	beq.n	3e18 <prvTimerTask+0x8c>
    3ec0:	6a63      	ldr	r3, [r4, #36]	; 0x24
    3ec2:	0020      	movs	r0, r4
    3ec4:	4798      	blx	r3
    3ec6:	69e3      	ldr	r3, [r4, #28]
    3ec8:	2b01      	cmp	r3, #1
    3eca:	d1a5      	bne.n	3e18 <prvTimerTask+0x8c>
    3ecc:	69a3      	ldr	r3, [r4, #24]
    3ece:	9a05      	ldr	r2, [sp, #20]
    3ed0:	0020      	movs	r0, r4
    3ed2:	18d2      	adds	r2, r2, r3
    3ed4:	9600      	str	r6, [sp, #0]
    3ed6:	0033      	movs	r3, r6
    3ed8:	0031      	movs	r1, r6
    3eda:	4c11      	ldr	r4, [pc, #68]	; (3f20 <prvTimerTask+0x194>)
    3edc:	47a0      	blx	r4
    3ede:	2800      	cmp	r0, #0
    3ee0:	d19a      	bne.n	3e18 <prvTimerTask+0x8c>
    3ee2:	b672      	cpsid	i
    3ee4:	e7fe      	b.n	3ee4 <prvTimerTask+0x158>
    3ee6:	9905      	ldr	r1, [sp, #20]
    3ee8:	61a1      	str	r1, [r4, #24]
    3eea:	2900      	cmp	r1, #0
    3eec:	d101      	bne.n	3ef2 <prvTimerTask+0x166>
    3eee:	b672      	cpsid	i
    3ef0:	e7fe      	b.n	3ef0 <prvTimerTask+0x164>
    3ef2:	1949      	adds	r1, r1, r5
    3ef4:	002b      	movs	r3, r5
    3ef6:	002a      	movs	r2, r5
    3ef8:	0020      	movs	r0, r4
    3efa:	4c08      	ldr	r4, [pc, #32]	; (3f1c <prvTimerTask+0x190>)
    3efc:	47a0      	blx	r4
    3efe:	e78b      	b.n	3e18 <prvTimerTask+0x8c>
    3f00:	20005344 	.word	0x20005344
    3f04:	0000354d 	.word	0x0000354d
    3f08:	0000355d 	.word	0x0000355d
    3f0c:	20005374 	.word	0x20005374
    3f10:	00003d1d 	.word	0x00003d1d
    3f14:	00003685 	.word	0x00003685
    3f18:	00002a83 	.word	0x00002a83
    3f1c:	00003bf9 	.word	0x00003bf9
    3f20:	00003cc5 	.word	0x00003cc5
    3f24:	20005378 	.word	0x20005378
    3f28:	00002f35 	.word	0x00002f35
    3f2c:	000010b9 	.word	0x000010b9
    3f30:	20005348 	.word	0x20005348
    3f34:	00003085 	.word	0x00003085
    3f38:	00000e7d 	.word	0x00000e7d

00003f3c <wdt_set_config>:
    3f3c:	b537      	push	{r0, r1, r2, r4, r5, lr}
    3f3e:	0005      	movs	r5, r0
    3f40:	2010      	movs	r0, #16
    3f42:	4a2f      	ldr	r2, [pc, #188]	; (4000 <wdt_set_config+0xc4>)
    3f44:	4c2f      	ldr	r4, [pc, #188]	; (4004 <wdt_set_config+0xc8>)
    3f46:	6993      	ldr	r3, [r2, #24]
    3f48:	4303      	orrs	r3, r0
    3f4a:	6193      	str	r3, [r2, #24]
    3f4c:	7823      	ldrb	r3, [r4, #0]
    3f4e:	b25b      	sxtb	r3, r3
    3f50:	2b00      	cmp	r3, #0
    3f52:	db45      	blt.n	3fe0 <wdt_set_config+0xa4>
    3f54:	78eb      	ldrb	r3, [r5, #3]
    3f56:	3007      	adds	r0, #7
    3f58:	2b00      	cmp	r3, #0
    3f5a:	d041      	beq.n	3fe0 <wdt_set_config+0xa4>
    3f5c:	792a      	ldrb	r2, [r5, #4]
    3f5e:	429a      	cmp	r2, r3
    3f60:	d83e      	bhi.n	3fe0 <wdt_set_config+0xa4>
    3f62:	796a      	ldrb	r2, [r5, #5]
    3f64:	429a      	cmp	r2, r3
    3f66:	d83b      	bhi.n	3fe0 <wdt_set_config+0xa4>
    3f68:	2202      	movs	r2, #2
    3f6a:	7823      	ldrb	r3, [r4, #0]
    3f6c:	4393      	bics	r3, r2
    3f6e:	7023      	strb	r3, [r4, #0]
    3f70:	79e3      	ldrb	r3, [r4, #7]
    3f72:	b25b      	sxtb	r3, r3
    3f74:	2b00      	cmp	r3, #0
    3f76:	dbfb      	blt.n	3f70 <wdt_set_config+0x34>
    3f78:	786b      	ldrb	r3, [r5, #1]
    3f7a:	2b00      	cmp	r3, #0
    3f7c:	d02f      	beq.n	3fde <wdt_set_config+0xa2>
    3f7e:	78ab      	ldrb	r3, [r5, #2]
    3f80:	a901      	add	r1, sp, #4
    3f82:	700b      	strb	r3, [r1, #0]
    3f84:	2003      	movs	r0, #3
    3f86:	4b20      	ldr	r3, [pc, #128]	; (4008 <wdt_set_config+0xcc>)
    3f88:	4798      	blx	r3
    3f8a:	4b20      	ldr	r3, [pc, #128]	; (400c <wdt_set_config+0xd0>)
    3f8c:	2003      	movs	r0, #3
    3f8e:	4798      	blx	r3
    3f90:	782b      	ldrb	r3, [r5, #0]
    3f92:	2b00      	cmp	r3, #0
    3f94:	d002      	beq.n	3f9c <wdt_set_config+0x60>
    3f96:	2003      	movs	r0, #3
    3f98:	4b1d      	ldr	r3, [pc, #116]	; (4010 <wdt_set_config+0xd4>)
    3f9a:	4798      	blx	r3
    3f9c:	78eb      	ldrb	r3, [r5, #3]
    3f9e:	7929      	ldrb	r1, [r5, #4]
    3fa0:	3b01      	subs	r3, #1
    3fa2:	2204      	movs	r2, #4
    3fa4:	2900      	cmp	r1, #0
    3fa6:	d01c      	beq.n	3fe2 <wdt_set_config+0xa6>
    3fa8:	7821      	ldrb	r1, [r4, #0]
    3faa:	430a      	orrs	r2, r1
    3fac:	7022      	strb	r2, [r4, #0]
    3fae:	792a      	ldrb	r2, [r5, #4]
    3fb0:	3a01      	subs	r2, #1
    3fb2:	0112      	lsls	r2, r2, #4
    3fb4:	4313      	orrs	r3, r2
    3fb6:	79e2      	ldrb	r2, [r4, #7]
    3fb8:	b252      	sxtb	r2, r2
    3fba:	2a00      	cmp	r2, #0
    3fbc:	dbfb      	blt.n	3fb6 <wdt_set_config+0x7a>
    3fbe:	b2db      	uxtb	r3, r3
    3fc0:	7063      	strb	r3, [r4, #1]
    3fc2:	796b      	ldrb	r3, [r5, #5]
    3fc4:	2b00      	cmp	r3, #0
    3fc6:	d110      	bne.n	3fea <wdt_set_config+0xae>
    3fc8:	782b      	ldrb	r3, [r5, #0]
    3fca:	2b00      	cmp	r3, #0
    3fcc:	d015      	beq.n	3ffa <wdt_set_config+0xbe>
    3fce:	2280      	movs	r2, #128	; 0x80
    3fd0:	7823      	ldrb	r3, [r4, #0]
    3fd2:	4313      	orrs	r3, r2
    3fd4:	7023      	strb	r3, [r4, #0]
    3fd6:	79e3      	ldrb	r3, [r4, #7]
    3fd8:	b25b      	sxtb	r3, r3
    3fda:	2b00      	cmp	r3, #0
    3fdc:	dbfb      	blt.n	3fd6 <wdt_set_config+0x9a>
    3fde:	2000      	movs	r0, #0
    3fe0:	bd3e      	pop	{r1, r2, r3, r4, r5, pc}
    3fe2:	7821      	ldrb	r1, [r4, #0]
    3fe4:	4391      	bics	r1, r2
    3fe6:	7021      	strb	r1, [r4, #0]
    3fe8:	e7e5      	b.n	3fb6 <wdt_set_config+0x7a>
    3fea:	79e2      	ldrb	r2, [r4, #7]
    3fec:	b252      	sxtb	r2, r2
    3fee:	2a00      	cmp	r2, #0
    3ff0:	dbfb      	blt.n	3fea <wdt_set_config+0xae>
    3ff2:	3b01      	subs	r3, #1
    3ff4:	b2db      	uxtb	r3, r3
    3ff6:	70a3      	strb	r3, [r4, #2]
    3ff8:	e7e6      	b.n	3fc8 <wdt_set_config+0x8c>
    3ffa:	7822      	ldrb	r2, [r4, #0]
    3ffc:	2302      	movs	r3, #2
    3ffe:	e7e8      	b.n	3fd2 <wdt_set_config+0x96>
    4000:	40000400 	.word	0x40000400
    4004:	40001000 	.word	0x40001000
    4008:	00005159 	.word	0x00005159
    400c:	000050d1 	.word	0x000050d1
    4010:	00005175 	.word	0x00005175

00004014 <wdt_reset_count>:
    4014:	22a5      	movs	r2, #165	; 0xa5
    4016:	4b03      	ldr	r3, [pc, #12]	; (4024 <wdt_reset_count+0x10>)
    4018:	721a      	strb	r2, [r3, #8]
    401a:	79da      	ldrb	r2, [r3, #7]
    401c:	b252      	sxtb	r2, r2
    401e:	2a00      	cmp	r2, #0
    4020:	dbfb      	blt.n	401a <wdt_reset_count+0x6>
    4022:	4770      	bx	lr
    4024:	40001000 	.word	0x40001000

00004028 <WDT_Handler>:
    4028:	2201      	movs	r2, #1
    402a:	b510      	push	{r4, lr}
    402c:	4b03      	ldr	r3, [pc, #12]	; (403c <WDT_Handler+0x14>)
    402e:	719a      	strb	r2, [r3, #6]
    4030:	4b03      	ldr	r3, [pc, #12]	; (4040 <WDT_Handler+0x18>)
    4032:	681b      	ldr	r3, [r3, #0]
    4034:	2b00      	cmp	r3, #0
    4036:	d000      	beq.n	403a <WDT_Handler+0x12>
    4038:	4798      	blx	r3
    403a:	bd10      	pop	{r4, pc}
    403c:	40001000 	.word	0x40001000
    4040:	20005410 	.word	0x20005410

00004044 <port_pin_set_output_level>:
    4044:	2200      	movs	r2, #0
    4046:	b510      	push	{r4, lr}
    4048:	0943      	lsrs	r3, r0, #5
    404a:	09c4      	lsrs	r4, r0, #7
    404c:	4294      	cmp	r4, r2
    404e:	d102      	bne.n	4056 <port_pin_set_output_level+0x12>
    4050:	01da      	lsls	r2, r3, #7
    4052:	4b06      	ldr	r3, [pc, #24]	; (406c <port_pin_set_output_level+0x28>)
    4054:	18d2      	adds	r2, r2, r3
    4056:	231f      	movs	r3, #31
    4058:	4018      	ands	r0, r3
    405a:	3b1e      	subs	r3, #30
    405c:	4083      	lsls	r3, r0
    405e:	2900      	cmp	r1, #0
    4060:	d001      	beq.n	4066 <port_pin_set_output_level+0x22>
    4062:	6193      	str	r3, [r2, #24]
    4064:	bd10      	pop	{r4, pc}
    4066:	6153      	str	r3, [r2, #20]
    4068:	e7fc      	b.n	4064 <port_pin_set_output_level+0x20>
    406a:	46c0      	nop			; (mov r8, r8)
    406c:	41004400 	.word	0x41004400

00004070 <spi_is_ready_to_write>:
    4070:	6803      	ldr	r3, [r0, #0]
    4072:	7e18      	ldrb	r0, [r3, #24]
    4074:	2301      	movs	r3, #1
    4076:	4018      	ands	r0, r3
    4078:	4770      	bx	lr

0000407a <spi_is_ready_to_read>:
    407a:	6803      	ldr	r3, [r0, #0]
    407c:	7e18      	ldrb	r0, [r3, #24]
    407e:	0740      	lsls	r0, r0, #29
    4080:	0fc0      	lsrs	r0, r0, #31
    4082:	4770      	bx	lr

00004084 <spi_write>:
    4084:	b570      	push	{r4, r5, r6, lr}
    4086:	4b06      	ldr	r3, [pc, #24]	; (40a0 <spi_write+0x1c>)
    4088:	000c      	movs	r4, r1
    408a:	6805      	ldr	r5, [r0, #0]
    408c:	4798      	blx	r3
    408e:	2305      	movs	r3, #5
    4090:	2800      	cmp	r0, #0
    4092:	d003      	beq.n	409c <spi_write+0x18>
    4094:	2300      	movs	r3, #0
    4096:	05e4      	lsls	r4, r4, #23
    4098:	0de4      	lsrs	r4, r4, #23
    409a:	62ac      	str	r4, [r5, #40]	; 0x28
    409c:	0018      	movs	r0, r3
    409e:	bd70      	pop	{r4, r5, r6, pc}
    40a0:	00004071 	.word	0x00004071

000040a4 <spi_read>:
    40a4:	b570      	push	{r4, r5, r6, lr}
    40a6:	4b0d      	ldr	r3, [pc, #52]	; (40dc <spi_read+0x38>)
    40a8:	0006      	movs	r6, r0
    40aa:	000c      	movs	r4, r1
    40ac:	6805      	ldr	r5, [r0, #0]
    40ae:	4798      	blx	r3
    40b0:	2210      	movs	r2, #16
    40b2:	2800      	cmp	r0, #0
    40b4:	d00d      	beq.n	40d2 <spi_read+0x2e>
    40b6:	2304      	movs	r3, #4
    40b8:	8b69      	ldrh	r1, [r5, #26]
    40ba:	2200      	movs	r2, #0
    40bc:	4219      	tst	r1, r3
    40be:	d001      	beq.n	40c4 <spi_read+0x20>
    40c0:	836b      	strh	r3, [r5, #26]
    40c2:	321e      	adds	r2, #30
    40c4:	79b3      	ldrb	r3, [r6, #6]
    40c6:	2b01      	cmp	r3, #1
    40c8:	d105      	bne.n	40d6 <spi_read+0x32>
    40ca:	6aab      	ldr	r3, [r5, #40]	; 0x28
    40cc:	05db      	lsls	r3, r3, #23
    40ce:	0ddb      	lsrs	r3, r3, #23
    40d0:	8023      	strh	r3, [r4, #0]
    40d2:	0010      	movs	r0, r2
    40d4:	bd70      	pop	{r4, r5, r6, pc}
    40d6:	6aab      	ldr	r3, [r5, #40]	; 0x28
    40d8:	b2db      	uxtb	r3, r3
    40da:	e7f9      	b.n	40d0 <spi_read+0x2c>
    40dc:	0000407b 	.word	0x0000407b

000040e0 <spi_init>:
    40e0:	b5f0      	push	{r4, r5, r6, r7, lr}
    40e2:	0005      	movs	r5, r0
    40e4:	6029      	str	r1, [r5, #0]
    40e6:	0014      	movs	r4, r2
    40e8:	680a      	ldr	r2, [r1, #0]
    40ea:	b089      	sub	sp, #36	; 0x24
    40ec:	000e      	movs	r6, r1
    40ee:	231c      	movs	r3, #28
    40f0:	0792      	lsls	r2, r2, #30
    40f2:	d500      	bpl.n	40f6 <spi_init+0x16>
    40f4:	e0d4      	b.n	42a0 <spi_init+0x1c0>
    40f6:	2701      	movs	r7, #1
    40f8:	680b      	ldr	r3, [r1, #0]
    40fa:	403b      	ands	r3, r7
    40fc:	9301      	str	r3, [sp, #4]
    40fe:	9a01      	ldr	r2, [sp, #4]
    4100:	2305      	movs	r3, #5
    4102:	2a00      	cmp	r2, #0
    4104:	d000      	beq.n	4108 <spi_init+0x28>
    4106:	e0cb      	b.n	42a0 <spi_init+0x1c0>
    4108:	0008      	movs	r0, r1
    410a:	4b6a      	ldr	r3, [pc, #424]	; (42b4 <spi_init+0x1d4>)
    410c:	4798      	blx	r3
    410e:	1c81      	adds	r1, r0, #2
    4110:	408f      	lsls	r7, r1
    4112:	4b69      	ldr	r3, [pc, #420]	; (42b8 <spi_init+0x1d8>)
    4114:	3014      	adds	r0, #20
    4116:	6a1a      	ldr	r2, [r3, #32]
    4118:	4317      	orrs	r7, r2
    411a:	621f      	str	r7, [r3, #32]
    411c:	1d63      	adds	r3, r4, #5
    411e:	7fdb      	ldrb	r3, [r3, #31]
    4120:	aa02      	add	r2, sp, #8
    4122:	b2c7      	uxtb	r7, r0
    4124:	7013      	strb	r3, [r2, #0]
    4126:	0011      	movs	r1, r2
    4128:	0038      	movs	r0, r7
    412a:	4b64      	ldr	r3, [pc, #400]	; (42bc <spi_init+0x1dc>)
    412c:	4798      	blx	r3
    412e:	0038      	movs	r0, r7
    4130:	4b63      	ldr	r3, [pc, #396]	; (42c0 <spi_init+0x1e0>)
    4132:	4798      	blx	r3
    4134:	1d63      	adds	r3, r4, #5
    4136:	7fd8      	ldrb	r0, [r3, #31]
    4138:	9901      	ldr	r1, [sp, #4]
    413a:	4b62      	ldr	r3, [pc, #392]	; (42c4 <spi_init+0x1e4>)
    413c:	4798      	blx	r3
    413e:	7823      	ldrb	r3, [r4, #0]
    4140:	2b01      	cmp	r3, #1
    4142:	d103      	bne.n	414c <spi_init+0x6c>
    4144:	6832      	ldr	r2, [r6, #0]
    4146:	330b      	adds	r3, #11
    4148:	4313      	orrs	r3, r2
    414a:	6033      	str	r3, [r6, #0]
    414c:	7823      	ldrb	r3, [r4, #0]
    414e:	2b00      	cmp	r3, #0
    4150:	d103      	bne.n	415a <spi_init+0x7a>
    4152:	6832      	ldr	r2, [r6, #0]
    4154:	3308      	adds	r3, #8
    4156:	4313      	orrs	r3, r2
    4158:	6033      	str	r3, [r6, #0]
    415a:	002b      	movs	r3, r5
    415c:	002a      	movs	r2, r5
    415e:	2600      	movs	r6, #0
    4160:	330c      	adds	r3, #12
    4162:	3228      	adds	r2, #40	; 0x28
    4164:	c340      	stmia	r3!, {r6}
    4166:	429a      	cmp	r2, r3
    4168:	d1fc      	bne.n	4164 <spi_init+0x84>
    416a:	002b      	movs	r3, r5
    416c:	3336      	adds	r3, #54	; 0x36
    416e:	86ae      	strh	r6, [r5, #52]	; 0x34
    4170:	62ee      	str	r6, [r5, #44]	; 0x2c
    4172:	862e      	strh	r6, [r5, #48]	; 0x30
    4174:	62ae      	str	r6, [r5, #40]	; 0x28
    4176:	701e      	strb	r6, [r3, #0]
    4178:	705e      	strb	r6, [r3, #1]
    417a:	709e      	strb	r6, [r3, #2]
    417c:	2303      	movs	r3, #3
    417e:	6828      	ldr	r0, [r5, #0]
    4180:	726b      	strb	r3, [r5, #9]
    4182:	4b4c      	ldr	r3, [pc, #304]	; (42b4 <spi_init+0x1d4>)
    4184:	712e      	strb	r6, [r5, #4]
    4186:	4798      	blx	r3
    4188:	0007      	movs	r7, r0
    418a:	4b4f      	ldr	r3, [pc, #316]	; (42c8 <spi_init+0x1e8>)
    418c:	494f      	ldr	r1, [pc, #316]	; (42cc <spi_init+0x1ec>)
    418e:	4798      	blx	r3
    4190:	4b4f      	ldr	r3, [pc, #316]	; (42d0 <spi_init+0x1f0>)
    4192:	00bf      	lsls	r7, r7, #2
    4194:	50fd      	str	r5, [r7, r3]
    4196:	2380      	movs	r3, #128	; 0x80
    4198:	aa02      	add	r2, sp, #8
    419a:	7113      	strb	r3, [r2, #4]
    419c:	2301      	movs	r3, #1
    419e:	7193      	strb	r3, [r2, #6]
    41a0:	7823      	ldrb	r3, [r4, #0]
    41a2:	682f      	ldr	r7, [r5, #0]
    41a4:	7156      	strb	r6, [r2, #5]
    41a6:	71d6      	strb	r6, [r2, #7]
    41a8:	2b00      	cmp	r3, #0
    41aa:	d100      	bne.n	41ae <spi_init+0xce>
    41ac:	7196      	strb	r6, [r2, #6]
    41ae:	2600      	movs	r6, #0
    41b0:	6aa3      	ldr	r3, [r4, #40]	; 0x28
    41b2:	9304      	str	r3, [sp, #16]
    41b4:	6ae3      	ldr	r3, [r4, #44]	; 0x2c
    41b6:	9305      	str	r3, [sp, #20]
    41b8:	6b23      	ldr	r3, [r4, #48]	; 0x30
    41ba:	9306      	str	r3, [sp, #24]
    41bc:	6b63      	ldr	r3, [r4, #52]	; 0x34
    41be:	9307      	str	r3, [sp, #28]
    41c0:	00b3      	lsls	r3, r6, #2
    41c2:	aa04      	add	r2, sp, #16
    41c4:	5898      	ldr	r0, [r3, r2]
    41c6:	b2f1      	uxtb	r1, r6
    41c8:	2800      	cmp	r0, #0
    41ca:	d102      	bne.n	41d2 <spi_init+0xf2>
    41cc:	0038      	movs	r0, r7
    41ce:	4b41      	ldr	r3, [pc, #260]	; (42d4 <spi_init+0x1f4>)
    41d0:	4798      	blx	r3
    41d2:	1c43      	adds	r3, r0, #1
    41d4:	d006      	beq.n	41e4 <spi_init+0x104>
    41d6:	ab02      	add	r3, sp, #8
    41d8:	7118      	strb	r0, [r3, #4]
    41da:	0c00      	lsrs	r0, r0, #16
    41dc:	b2c0      	uxtb	r0, r0
    41de:	a903      	add	r1, sp, #12
    41e0:	4b3d      	ldr	r3, [pc, #244]	; (42d8 <spi_init+0x1f8>)
    41e2:	4798      	blx	r3
    41e4:	3601      	adds	r6, #1
    41e6:	2e04      	cmp	r6, #4
    41e8:	d1ea      	bne.n	41c0 <spi_init+0xe0>
    41ea:	7823      	ldrb	r3, [r4, #0]
    41ec:	716b      	strb	r3, [r5, #5]
    41ee:	7c23      	ldrb	r3, [r4, #16]
    41f0:	71ab      	strb	r3, [r5, #6]
    41f2:	7ca3      	ldrb	r3, [r4, #18]
    41f4:	71eb      	strb	r3, [r5, #7]
    41f6:	7d23      	ldrb	r3, [r4, #20]
    41f8:	722b      	strb	r3, [r5, #8]
    41fa:	ab02      	add	r3, sp, #8
    41fc:	1c9e      	adds	r6, r3, #2
    41fe:	2300      	movs	r3, #0
    4200:	8033      	strh	r3, [r6, #0]
    4202:	7823      	ldrb	r3, [r4, #0]
    4204:	2b01      	cmp	r3, #1
    4206:	d110      	bne.n	422a <spi_init+0x14a>
    4208:	4b2a      	ldr	r3, [pc, #168]	; (42b4 <spi_init+0x1d4>)
    420a:	6828      	ldr	r0, [r5, #0]
    420c:	4798      	blx	r3
    420e:	3014      	adds	r0, #20
    4210:	4b32      	ldr	r3, [pc, #200]	; (42dc <spi_init+0x1fc>)
    4212:	b2c0      	uxtb	r0, r0
    4214:	4798      	blx	r3
    4216:	4b32      	ldr	r3, [pc, #200]	; (42e0 <spi_init+0x200>)
    4218:	0001      	movs	r1, r0
    421a:	0032      	movs	r2, r6
    421c:	69a0      	ldr	r0, [r4, #24]
    421e:	4798      	blx	r3
    4220:	2317      	movs	r3, #23
    4222:	2800      	cmp	r0, #0
    4224:	d13c      	bne.n	42a0 <spi_init+0x1c0>
    4226:	7833      	ldrb	r3, [r6, #0]
    4228:	733b      	strb	r3, [r7, #12]
    422a:	7823      	ldrb	r3, [r4, #0]
    422c:	2b00      	cmp	r3, #0
    422e:	d13d      	bne.n	42ac <spi_init+0x1cc>
    4230:	7fe1      	ldrb	r1, [r4, #31]
    4232:	7fa5      	ldrb	r5, [r4, #30]
    4234:	6a7b      	ldr	r3, [r7, #36]	; 0x24
    4236:	0409      	lsls	r1, r1, #16
    4238:	4329      	orrs	r1, r5
    423a:	4319      	orrs	r1, r3
    423c:	69a0      	ldr	r0, [r4, #24]
    423e:	8ba2      	ldrh	r2, [r4, #28]
    4240:	1c63      	adds	r3, r4, #1
    4242:	6279      	str	r1, [r7, #36]	; 0x24
    4244:	7fdb      	ldrb	r3, [r3, #31]
    4246:	2b00      	cmp	r3, #0
    4248:	d12d      	bne.n	42a6 <spi_init+0x1c6>
    424a:	0013      	movs	r3, r2
    424c:	68a1      	ldr	r1, [r4, #8]
    424e:	6862      	ldr	r2, [r4, #4]
    4250:	430a      	orrs	r2, r1
    4252:	68e1      	ldr	r1, [r4, #12]
    4254:	430a      	orrs	r2, r1
    4256:	7c21      	ldrb	r1, [r4, #16]
    4258:	4302      	orrs	r2, r0
    425a:	430b      	orrs	r3, r1
    425c:	7c61      	ldrb	r1, [r4, #17]
    425e:	2900      	cmp	r1, #0
    4260:	d103      	bne.n	426a <spi_init+0x18a>
    4262:	4920      	ldr	r1, [pc, #128]	; (42e4 <spi_init+0x204>)
    4264:	7889      	ldrb	r1, [r1, #2]
    4266:	0789      	lsls	r1, r1, #30
    4268:	d501      	bpl.n	426e <spi_init+0x18e>
    426a:	2180      	movs	r1, #128	; 0x80
    426c:	430a      	orrs	r2, r1
    426e:	7ca1      	ldrb	r1, [r4, #18]
    4270:	2900      	cmp	r1, #0
    4272:	d002      	beq.n	427a <spi_init+0x19a>
    4274:	2180      	movs	r1, #128	; 0x80
    4276:	0289      	lsls	r1, r1, #10
    4278:	430b      	orrs	r3, r1
    427a:	7ce1      	ldrb	r1, [r4, #19]
    427c:	2900      	cmp	r1, #0
    427e:	d002      	beq.n	4286 <spi_init+0x1a6>
    4280:	2180      	movs	r1, #128	; 0x80
    4282:	0089      	lsls	r1, r1, #2
    4284:	430b      	orrs	r3, r1
    4286:	7d21      	ldrb	r1, [r4, #20]
    4288:	2900      	cmp	r1, #0
    428a:	d002      	beq.n	4292 <spi_init+0x1b2>
    428c:	2180      	movs	r1, #128	; 0x80
    428e:	0189      	lsls	r1, r1, #6
    4290:	430b      	orrs	r3, r1
    4292:	6839      	ldr	r1, [r7, #0]
    4294:	430a      	orrs	r2, r1
    4296:	603a      	str	r2, [r7, #0]
    4298:	687a      	ldr	r2, [r7, #4]
    429a:	4313      	orrs	r3, r2
    429c:	607b      	str	r3, [r7, #4]
    429e:	2300      	movs	r3, #0
    42a0:	0018      	movs	r0, r3
    42a2:	b009      	add	sp, #36	; 0x24
    42a4:	bdf0      	pop	{r4, r5, r6, r7, pc}
    42a6:	2340      	movs	r3, #64	; 0x40
    42a8:	4313      	orrs	r3, r2
    42aa:	e7cf      	b.n	424c <spi_init+0x16c>
    42ac:	2300      	movs	r3, #0
    42ae:	0018      	movs	r0, r3
    42b0:	e7cc      	b.n	424c <spi_init+0x16c>
    42b2:	46c0      	nop			; (mov r8, r8)
    42b4:	0000479d 	.word	0x0000479d
    42b8:	40000400 	.word	0x40000400
    42bc:	00005159 	.word	0x00005159
    42c0:	000050d1 	.word	0x000050d1
    42c4:	000045fd 	.word	0x000045fd
    42c8:	000047d1 	.word	0x000047d1
    42cc:	000043d9 	.word	0x000043d9
    42d0:	20005418 	.word	0x20005418
    42d4:	00004641 	.word	0x00004641
    42d8:	0000525d 	.word	0x0000525d
    42dc:	000051a5 	.word	0x000051a5
    42e0:	000045d5 	.word	0x000045d5
    42e4:	41002000 	.word	0x41002000

000042e8 <spi_select_slave>:
    42e8:	b5f0      	push	{r4, r5, r6, r7, lr}
    42ea:	7943      	ldrb	r3, [r0, #5]
    42ec:	b085      	sub	sp, #20
    42ee:	0005      	movs	r5, r0
    42f0:	000e      	movs	r6, r1
    42f2:	0014      	movs	r4, r2
    42f4:	9300      	str	r3, [sp, #0]
    42f6:	2015      	movs	r0, #21
    42f8:	2b01      	cmp	r3, #1
    42fa:	d104      	bne.n	4306 <spi_select_slave+0x1e>
    42fc:	7a2b      	ldrb	r3, [r5, #8]
    42fe:	9301      	str	r3, [sp, #4]
    4300:	2b00      	cmp	r3, #0
    4302:	d002      	beq.n	430a <spi_select_slave+0x22>
    4304:	2000      	movs	r0, #0
    4306:	b005      	add	sp, #20
    4308:	bdf0      	pop	{r4, r5, r6, r7, pc}
    430a:	4f18      	ldr	r7, [pc, #96]	; (436c <spi_select_slave+0x84>)
    430c:	2a00      	cmp	r2, #0
    430e:	d027      	beq.n	4360 <spi_select_slave+0x78>
    4310:	784c      	ldrb	r4, [r1, #1]
    4312:	2c00      	cmp	r4, #0
    4314:	d020      	beq.n	4358 <spi_select_slave+0x70>
    4316:	4b16      	ldr	r3, [pc, #88]	; (4370 <spi_select_slave+0x88>)
    4318:	0028      	movs	r0, r5
    431a:	4798      	blx	r3
    431c:	0003      	movs	r3, r0
    431e:	7830      	ldrb	r0, [r6, #0]
    4320:	2b00      	cmp	r3, #0
    4322:	d103      	bne.n	432c <spi_select_slave+0x44>
    4324:	9900      	ldr	r1, [sp, #0]
    4326:	47b8      	blx	r7
    4328:	2005      	movs	r0, #5
    432a:	e7ec      	b.n	4306 <spi_select_slave+0x1e>
    432c:	9901      	ldr	r1, [sp, #4]
    432e:	47b8      	blx	r7
    4330:	4b10      	ldr	r3, [pc, #64]	; (4374 <spi_select_slave+0x8c>)
    4332:	78b1      	ldrb	r1, [r6, #2]
    4334:	0028      	movs	r0, r5
    4336:	4798      	blx	r3
    4338:	79eb      	ldrb	r3, [r5, #7]
    433a:	2b00      	cmp	r3, #0
    433c:	d1e2      	bne.n	4304 <spi_select_slave+0x1c>
    433e:	0028      	movs	r0, r5
    4340:	4b0d      	ldr	r3, [pc, #52]	; (4378 <spi_select_slave+0x90>)
    4342:	4798      	blx	r3
    4344:	2800      	cmp	r0, #0
    4346:	d0fa      	beq.n	433e <spi_select_slave+0x56>
    4348:	2400      	movs	r4, #0
    434a:	ab02      	add	r3, sp, #8
    434c:	1d99      	adds	r1, r3, #6
    434e:	0028      	movs	r0, r5
    4350:	4b0a      	ldr	r3, [pc, #40]	; (437c <spi_select_slave+0x94>)
    4352:	800c      	strh	r4, [r1, #0]
    4354:	4798      	blx	r3
    4356:	e7d5      	b.n	4304 <spi_select_slave+0x1c>
    4358:	7808      	ldrb	r0, [r1, #0]
    435a:	0021      	movs	r1, r4
    435c:	47b8      	blx	r7
    435e:	e7d1      	b.n	4304 <spi_select_slave+0x1c>
    4360:	7808      	ldrb	r0, [r1, #0]
    4362:	9900      	ldr	r1, [sp, #0]
    4364:	47b8      	blx	r7
    4366:	0020      	movs	r0, r4
    4368:	e7cd      	b.n	4306 <spi_select_slave+0x1e>
    436a:	46c0      	nop			; (mov r8, r8)
    436c:	00004045 	.word	0x00004045
    4370:	00004071 	.word	0x00004071
    4374:	00004085 	.word	0x00004085
    4378:	0000407b 	.word	0x0000407b
    437c:	000040a5 	.word	0x000040a5

00004380 <spi_register_callback>:
    4380:	1c93      	adds	r3, r2, #2
    4382:	009b      	lsls	r3, r3, #2
    4384:	18c3      	adds	r3, r0, r3
    4386:	6059      	str	r1, [r3, #4]
    4388:	2301      	movs	r3, #1
    438a:	4093      	lsls	r3, r2
    438c:	001a      	movs	r2, r3
    438e:	3036      	adds	r0, #54	; 0x36
    4390:	7803      	ldrb	r3, [r0, #0]
    4392:	4313      	orrs	r3, r2
    4394:	7003      	strb	r3, [r0, #0]
    4396:	4770      	bx	lr

00004398 <spi_transceive_buffer_job>:
    4398:	b570      	push	{r4, r5, r6, lr}
    439a:	2417      	movs	r4, #23
    439c:	2b00      	cmp	r3, #0
    439e:	d018      	beq.n	43d2 <spi_transceive_buffer_job+0x3a>
    43a0:	79c5      	ldrb	r5, [r0, #7]
    43a2:	3405      	adds	r4, #5
    43a4:	2d00      	cmp	r5, #0
    43a6:	d014      	beq.n	43d2 <spi_transceive_buffer_job+0x3a>
    43a8:	0005      	movs	r5, r0
    43aa:	3538      	adds	r5, #56	; 0x38
    43ac:	782e      	ldrb	r6, [r5, #0]
    43ae:	3c17      	subs	r4, #23
    43b0:	42a6      	cmp	r6, r4
    43b2:	d00e      	beq.n	43d2 <spi_transceive_buffer_job+0x3a>
    43b4:	6282      	str	r2, [r0, #40]	; 0x28
    43b6:	2202      	movs	r2, #2
    43b8:	8683      	strh	r3, [r0, #52]	; 0x34
    43ba:	62c1      	str	r1, [r0, #44]	; 0x2c
    43bc:	8603      	strh	r3, [r0, #48]	; 0x30
    43be:	702c      	strb	r4, [r5, #0]
    43c0:	6803      	ldr	r3, [r0, #0]
    43c2:	7242      	strb	r2, [r0, #9]
    43c4:	759c      	strb	r4, [r3, #22]
    43c6:	2400      	movs	r4, #0
    43c8:	7941      	ldrb	r1, [r0, #5]
    43ca:	42a1      	cmp	r1, r4
    43cc:	d101      	bne.n	43d2 <spi_transceive_buffer_job+0x3a>
    43ce:	761a      	strb	r2, [r3, #24]
    43d0:	759a      	strb	r2, [r3, #22]
    43d2:	0020      	movs	r0, r4
    43d4:	bd70      	pop	{r4, r5, r6, pc}
	...

000043d8 <_spi_interrupt_handler>:
    43d8:	b5f8      	push	{r3, r4, r5, r6, r7, lr}
    43da:	4b7c      	ldr	r3, [pc, #496]	; (45cc <_spi_interrupt_handler+0x1f4>)
    43dc:	0080      	lsls	r0, r0, #2
    43de:	58c4      	ldr	r4, [r0, r3]
    43e0:	0023      	movs	r3, r4
    43e2:	0022      	movs	r2, r4
    43e4:	3337      	adds	r3, #55	; 0x37
    43e6:	3236      	adds	r2, #54	; 0x36
    43e8:	6825      	ldr	r5, [r4, #0]
    43ea:	781b      	ldrb	r3, [r3, #0]
    43ec:	7816      	ldrb	r6, [r2, #0]
    43ee:	401e      	ands	r6, r3
    43f0:	7e2b      	ldrb	r3, [r5, #24]
    43f2:	7daf      	ldrb	r7, [r5, #22]
    43f4:	401f      	ands	r7, r3
    43f6:	07fb      	lsls	r3, r7, #31
    43f8:	d539      	bpl.n	446e <_spi_interrupt_handler+0x96>
    43fa:	7962      	ldrb	r2, [r4, #5]
    43fc:	0013      	movs	r3, r2
    43fe:	2a01      	cmp	r2, #1
    4400:	d133      	bne.n	446a <_spi_interrupt_handler+0x92>
    4402:	7a63      	ldrb	r3, [r4, #9]
    4404:	2b00      	cmp	r3, #0
    4406:	d10d      	bne.n	4424 <_spi_interrupt_handler+0x4c>
    4408:	4b71      	ldr	r3, [pc, #452]	; (45d0 <_spi_interrupt_handler+0x1f8>)
    440a:	881b      	ldrh	r3, [r3, #0]
    440c:	62ab      	str	r3, [r5, #40]	; 0x28
    440e:	8e63      	ldrh	r3, [r4, #50]	; 0x32
    4410:	3b01      	subs	r3, #1
    4412:	b29b      	uxth	r3, r3
    4414:	8663      	strh	r3, [r4, #50]	; 0x32
    4416:	8e63      	ldrh	r3, [r4, #50]	; 0x32
    4418:	2b00      	cmp	r3, #0
    441a:	d100      	bne.n	441e <_spi_interrupt_handler+0x46>
    441c:	752a      	strb	r2, [r5, #20]
    441e:	7963      	ldrb	r3, [r4, #5]
    4420:	2b01      	cmp	r3, #1
    4422:	d122      	bne.n	446a <_spi_interrupt_handler+0x92>
    4424:	7a63      	ldrb	r3, [r4, #9]
    4426:	2b00      	cmp	r3, #0
    4428:	d021      	beq.n	446e <_spi_interrupt_handler+0x96>
    442a:	6ae1      	ldr	r1, [r4, #44]	; 0x2c
    442c:	6822      	ldr	r2, [r4, #0]
    442e:	1c48      	adds	r0, r1, #1
    4430:	780b      	ldrb	r3, [r1, #0]
    4432:	62e0      	str	r0, [r4, #44]	; 0x2c
    4434:	79a0      	ldrb	r0, [r4, #6]
    4436:	b2db      	uxtb	r3, r3
    4438:	2801      	cmp	r0, #1
    443a:	d100      	bne.n	443e <_spi_interrupt_handler+0x66>
    443c:	e074      	b.n	4528 <_spi_interrupt_handler+0x150>
    443e:	b29b      	uxth	r3, r3
    4440:	05db      	lsls	r3, r3, #23
    4442:	0ddb      	lsrs	r3, r3, #23
    4444:	6293      	str	r3, [r2, #40]	; 0x28
    4446:	8ea3      	ldrh	r3, [r4, #52]	; 0x34
    4448:	3b01      	subs	r3, #1
    444a:	b29b      	uxth	r3, r3
    444c:	86a3      	strh	r3, [r4, #52]	; 0x34
    444e:	8ea3      	ldrh	r3, [r4, #52]	; 0x34
    4450:	2b00      	cmp	r3, #0
    4452:	d10c      	bne.n	446e <_spi_interrupt_handler+0x96>
    4454:	3301      	adds	r3, #1
    4456:	752b      	strb	r3, [r5, #20]
    4458:	7a63      	ldrb	r3, [r4, #9]
    445a:	2b01      	cmp	r3, #1
    445c:	d107      	bne.n	446e <_spi_interrupt_handler+0x96>
    445e:	79e3      	ldrb	r3, [r4, #7]
    4460:	2b00      	cmp	r3, #0
    4462:	d104      	bne.n	446e <_spi_interrupt_handler+0x96>
    4464:	3302      	adds	r3, #2
    4466:	75ab      	strb	r3, [r5, #22]
    4468:	e001      	b.n	446e <_spi_interrupt_handler+0x96>
    446a:	2b00      	cmp	r3, #0
    446c:	d0da      	beq.n	4424 <_spi_interrupt_handler+0x4c>
    446e:	2104      	movs	r1, #4
    4470:	420f      	tst	r7, r1
    4472:	d015      	beq.n	44a0 <_spi_interrupt_handler+0xc8>
    4474:	8b6b      	ldrh	r3, [r5, #26]
    4476:	420b      	tst	r3, r1
    4478:	d05c      	beq.n	4534 <_spi_interrupt_handler+0x15c>
    447a:	7a63      	ldrb	r3, [r4, #9]
    447c:	2b01      	cmp	r3, #1
    447e:	d00c      	beq.n	449a <_spi_interrupt_handler+0xc2>
    4480:	0023      	movs	r3, r4
    4482:	221e      	movs	r2, #30
    4484:	3338      	adds	r3, #56	; 0x38
    4486:	701a      	strb	r2, [r3, #0]
    4488:	2303      	movs	r3, #3
    448a:	7263      	strb	r3, [r4, #9]
    448c:	3302      	adds	r3, #2
    448e:	752b      	strb	r3, [r5, #20]
    4490:	0733      	lsls	r3, r6, #28
    4492:	d502      	bpl.n	449a <_spi_interrupt_handler+0xc2>
    4494:	0020      	movs	r0, r4
    4496:	69a3      	ldr	r3, [r4, #24]
    4498:	4798      	blx	r3
    449a:	6aab      	ldr	r3, [r5, #40]	; 0x28
    449c:	2304      	movs	r3, #4
    449e:	836b      	strh	r3, [r5, #26]
    44a0:	2202      	movs	r2, #2
    44a2:	4217      	tst	r7, r2
    44a4:	d027      	beq.n	44f6 <_spi_interrupt_handler+0x11e>
    44a6:	7963      	ldrb	r3, [r4, #5]
    44a8:	2b00      	cmp	r3, #0
    44aa:	d10e      	bne.n	44ca <_spi_interrupt_handler+0xf2>
    44ac:	2107      	movs	r1, #7
    44ae:	7529      	strb	r1, [r5, #20]
    44b0:	762a      	strb	r2, [r5, #24]
    44b2:	3201      	adds	r2, #1
    44b4:	7262      	strb	r2, [r4, #9]
    44b6:	0022      	movs	r2, r4
    44b8:	3238      	adds	r2, #56	; 0x38
    44ba:	86a3      	strh	r3, [r4, #52]	; 0x34
    44bc:	8623      	strh	r3, [r4, #48]	; 0x30
    44be:	7013      	strb	r3, [r2, #0]
    44c0:	06f3      	lsls	r3, r6, #27
    44c2:	d502      	bpl.n	44ca <_spi_interrupt_handler+0xf2>
    44c4:	0020      	movs	r0, r4
    44c6:	69e3      	ldr	r3, [r4, #28]
    44c8:	4798      	blx	r3
    44ca:	7963      	ldrb	r3, [r4, #5]
    44cc:	2b01      	cmp	r3, #1
    44ce:	d112      	bne.n	44f6 <_spi_interrupt_handler+0x11e>
    44d0:	7a63      	ldrb	r3, [r4, #9]
    44d2:	b2db      	uxtb	r3, r3
    44d4:	2b01      	cmp	r3, #1
    44d6:	d10e      	bne.n	44f6 <_spi_interrupt_handler+0x11e>
    44d8:	79e2      	ldrb	r2, [r4, #7]
    44da:	2a00      	cmp	r2, #0
    44dc:	d10b      	bne.n	44f6 <_spi_interrupt_handler+0x11e>
    44de:	2102      	movs	r1, #2
    44e0:	7529      	strb	r1, [r5, #20]
    44e2:	3101      	adds	r1, #1
    44e4:	7261      	strb	r1, [r4, #9]
    44e6:	0021      	movs	r1, r4
    44e8:	3138      	adds	r1, #56	; 0x38
    44ea:	700a      	strb	r2, [r1, #0]
    44ec:	421e      	tst	r6, r3
    44ee:	d002      	beq.n	44f6 <_spi_interrupt_handler+0x11e>
    44f0:	0020      	movs	r0, r4
    44f2:	68e3      	ldr	r3, [r4, #12]
    44f4:	4798      	blx	r3
    44f6:	2308      	movs	r3, #8
    44f8:	421f      	tst	r7, r3
    44fa:	d009      	beq.n	4510 <_spi_interrupt_handler+0x138>
    44fc:	7962      	ldrb	r2, [r4, #5]
    44fe:	2a00      	cmp	r2, #0
    4500:	d106      	bne.n	4510 <_spi_interrupt_handler+0x138>
    4502:	752b      	strb	r3, [r5, #20]
    4504:	762b      	strb	r3, [r5, #24]
    4506:	06b3      	lsls	r3, r6, #26
    4508:	d502      	bpl.n	4510 <_spi_interrupt_handler+0x138>
    450a:	0020      	movs	r0, r4
    450c:	6a23      	ldr	r3, [r4, #32]
    450e:	4798      	blx	r3
    4510:	b27f      	sxtb	r7, r7
    4512:	2f00      	cmp	r7, #0
    4514:	da07      	bge.n	4526 <_spi_interrupt_handler+0x14e>
    4516:	2380      	movs	r3, #128	; 0x80
    4518:	752b      	strb	r3, [r5, #20]
    451a:	762b      	strb	r3, [r5, #24]
    451c:	0673      	lsls	r3, r6, #25
    451e:	d502      	bpl.n	4526 <_spi_interrupt_handler+0x14e>
    4520:	6a63      	ldr	r3, [r4, #36]	; 0x24
    4522:	0020      	movs	r0, r4
    4524:	4798      	blx	r3
    4526:	bdf8      	pop	{r3, r4, r5, r6, r7, pc}
    4528:	7848      	ldrb	r0, [r1, #1]
    452a:	3102      	adds	r1, #2
    452c:	0200      	lsls	r0, r0, #8
    452e:	4303      	orrs	r3, r0
    4530:	62e1      	str	r1, [r4, #44]	; 0x2c
    4532:	e785      	b.n	4440 <_spi_interrupt_handler+0x68>
    4534:	7a62      	ldrb	r2, [r4, #9]
    4536:	6823      	ldr	r3, [r4, #0]
    4538:	b2d2      	uxtb	r2, r2
    453a:	6a9b      	ldr	r3, [r3, #40]	; 0x28
    453c:	2a01      	cmp	r2, #1
    453e:	d113      	bne.n	4568 <_spi_interrupt_handler+0x190>
    4540:	8e63      	ldrh	r3, [r4, #50]	; 0x32
    4542:	3b01      	subs	r3, #1
    4544:	b29b      	uxth	r3, r3
    4546:	8663      	strh	r3, [r4, #50]	; 0x32
    4548:	8e63      	ldrh	r3, [r4, #50]	; 0x32
    454a:	b29b      	uxth	r3, r3
    454c:	2b00      	cmp	r3, #0
    454e:	d1a7      	bne.n	44a0 <_spi_interrupt_handler+0xc8>
    4550:	7529      	strb	r1, [r5, #20]
    4552:	0021      	movs	r1, r4
    4554:	3138      	adds	r1, #56	; 0x38
    4556:	700b      	strb	r3, [r1, #0]
    4558:	3303      	adds	r3, #3
    455a:	7263      	strb	r3, [r4, #9]
    455c:	4216      	tst	r6, r2
    455e:	d09f      	beq.n	44a0 <_spi_interrupt_handler+0xc8>
    4560:	0020      	movs	r0, r4
    4562:	68e3      	ldr	r3, [r4, #12]
    4564:	4798      	blx	r3
    4566:	e79b      	b.n	44a0 <_spi_interrupt_handler+0xc8>
    4568:	05db      	lsls	r3, r3, #23
    456a:	6aa1      	ldr	r1, [r4, #40]	; 0x28
    456c:	0ddb      	lsrs	r3, r3, #23
    456e:	b2da      	uxtb	r2, r3
    4570:	700a      	strb	r2, [r1, #0]
    4572:	6aa2      	ldr	r2, [r4, #40]	; 0x28
    4574:	1c51      	adds	r1, r2, #1
    4576:	62a1      	str	r1, [r4, #40]	; 0x28
    4578:	79a1      	ldrb	r1, [r4, #6]
    457a:	2901      	cmp	r1, #1
    457c:	d104      	bne.n	4588 <_spi_interrupt_handler+0x1b0>
    457e:	0a1b      	lsrs	r3, r3, #8
    4580:	7053      	strb	r3, [r2, #1]
    4582:	6aa3      	ldr	r3, [r4, #40]	; 0x28
    4584:	3301      	adds	r3, #1
    4586:	62a3      	str	r3, [r4, #40]	; 0x28
    4588:	8e23      	ldrh	r3, [r4, #48]	; 0x30
    458a:	3b01      	subs	r3, #1
    458c:	b29b      	uxth	r3, r3
    458e:	8623      	strh	r3, [r4, #48]	; 0x30
    4590:	8e23      	ldrh	r3, [r4, #48]	; 0x30
    4592:	b29b      	uxth	r3, r3
    4594:	2b00      	cmp	r3, #0
    4596:	d000      	beq.n	459a <_spi_interrupt_handler+0x1c2>
    4598:	e782      	b.n	44a0 <_spi_interrupt_handler+0xc8>
    459a:	0022      	movs	r2, r4
    459c:	3238      	adds	r2, #56	; 0x38
    459e:	7013      	strb	r3, [r2, #0]
    45a0:	3304      	adds	r3, #4
    45a2:	752b      	strb	r3, [r5, #20]
    45a4:	7a62      	ldrb	r2, [r4, #9]
    45a6:	2a02      	cmp	r2, #2
    45a8:	d105      	bne.n	45b6 <_spi_interrupt_handler+0x1de>
    45aa:	421e      	tst	r6, r3
    45ac:	d100      	bne.n	45b0 <_spi_interrupt_handler+0x1d8>
    45ae:	e777      	b.n	44a0 <_spi_interrupt_handler+0xc8>
    45b0:	0020      	movs	r0, r4
    45b2:	6963      	ldr	r3, [r4, #20]
    45b4:	e7d6      	b.n	4564 <_spi_interrupt_handler+0x18c>
    45b6:	7a63      	ldrb	r3, [r4, #9]
    45b8:	2b00      	cmp	r3, #0
    45ba:	d000      	beq.n	45be <_spi_interrupt_handler+0x1e6>
    45bc:	e770      	b.n	44a0 <_spi_interrupt_handler+0xc8>
    45be:	07b3      	lsls	r3, r6, #30
    45c0:	d400      	bmi.n	45c4 <_spi_interrupt_handler+0x1ec>
    45c2:	e76d      	b.n	44a0 <_spi_interrupt_handler+0xc8>
    45c4:	0020      	movs	r0, r4
    45c6:	6923      	ldr	r3, [r4, #16]
    45c8:	e7cc      	b.n	4564 <_spi_interrupt_handler+0x18c>
    45ca:	46c0      	nop			; (mov r8, r8)
    45cc:	20005418 	.word	0x20005418
    45d0:	20005414 	.word	0x20005414

000045d4 <_sercom_get_sync_baud_val>:
    45d4:	b510      	push	{r4, lr}
    45d6:	0849      	lsrs	r1, r1, #1
    45d8:	0004      	movs	r4, r0
    45da:	2300      	movs	r3, #0
    45dc:	2040      	movs	r0, #64	; 0x40
    45de:	42a1      	cmp	r1, r4
    45e0:	d201      	bcs.n	45e6 <_sercom_get_sync_baud_val+0x12>
    45e2:	bd10      	pop	{r4, pc}
    45e4:	0003      	movs	r3, r0
    45e6:	1c58      	adds	r0, r3, #1
    45e8:	1b09      	subs	r1, r1, r4
    45ea:	b280      	uxth	r0, r0
    45ec:	428c      	cmp	r4, r1
    45ee:	d9f9      	bls.n	45e4 <_sercom_get_sync_baud_val+0x10>
    45f0:	2040      	movs	r0, #64	; 0x40
    45f2:	2bff      	cmp	r3, #255	; 0xff
    45f4:	d8f5      	bhi.n	45e2 <_sercom_get_sync_baud_val+0xe>
    45f6:	8013      	strh	r3, [r2, #0]
    45f8:	2000      	movs	r0, #0
    45fa:	e7f2      	b.n	45e2 <_sercom_get_sync_baud_val+0xe>

000045fc <sercom_set_gclk_generator>:
    45fc:	b537      	push	{r0, r1, r2, r4, r5, lr}
    45fe:	4c0d      	ldr	r4, [pc, #52]	; (4634 <sercom_set_gclk_generator+0x38>)
    4600:	0005      	movs	r5, r0
    4602:	7823      	ldrb	r3, [r4, #0]
    4604:	2b00      	cmp	r3, #0
    4606:	d001      	beq.n	460c <sercom_set_gclk_generator+0x10>
    4608:	2900      	cmp	r1, #0
    460a:	d00c      	beq.n	4626 <sercom_set_gclk_generator+0x2a>
    460c:	a901      	add	r1, sp, #4
    460e:	2013      	movs	r0, #19
    4610:	4b09      	ldr	r3, [pc, #36]	; (4638 <sercom_set_gclk_generator+0x3c>)
    4612:	700d      	strb	r5, [r1, #0]
    4614:	4798      	blx	r3
    4616:	2013      	movs	r0, #19
    4618:	4b08      	ldr	r3, [pc, #32]	; (463c <sercom_set_gclk_generator+0x40>)
    461a:	4798      	blx	r3
    461c:	2301      	movs	r3, #1
    461e:	2000      	movs	r0, #0
    4620:	7065      	strb	r5, [r4, #1]
    4622:	7023      	strb	r3, [r4, #0]
    4624:	bd3e      	pop	{r1, r2, r3, r4, r5, pc}
    4626:	7863      	ldrb	r3, [r4, #1]
    4628:	0008      	movs	r0, r1
    462a:	42ab      	cmp	r3, r5
    462c:	d0fa      	beq.n	4624 <sercom_set_gclk_generator+0x28>
    462e:	201d      	movs	r0, #29
    4630:	e7f8      	b.n	4624 <sercom_set_gclk_generator+0x28>
    4632:	46c0      	nop			; (mov r8, r8)
    4634:	20005380 	.word	0x20005380
    4638:	00005159 	.word	0x00005159
    463c:	000050d1 	.word	0x000050d1

00004640 <_sercom_get_default_pad>:
    4640:	4a39      	ldr	r2, [pc, #228]	; (4728 <_sercom_get_default_pad+0xe8>)
    4642:	0003      	movs	r3, r0
    4644:	b500      	push	{lr}
    4646:	0008      	movs	r0, r1
    4648:	4293      	cmp	r3, r2
    464a:	d033      	beq.n	46b4 <_sercom_get_default_pad+0x74>
    464c:	d807      	bhi.n	465e <_sercom_get_default_pad+0x1e>
    464e:	4a37      	ldr	r2, [pc, #220]	; (472c <_sercom_get_default_pad+0xec>)
    4650:	4293      	cmp	r3, r2
    4652:	d014      	beq.n	467e <_sercom_get_default_pad+0x3e>
    4654:	4a36      	ldr	r2, [pc, #216]	; (4730 <_sercom_get_default_pad+0xf0>)
    4656:	4293      	cmp	r3, r2
    4658:	d01f      	beq.n	469a <_sercom_get_default_pad+0x5a>
    465a:	2300      	movs	r3, #0
    465c:	e017      	b.n	468e <_sercom_get_default_pad+0x4e>
    465e:	4a35      	ldr	r2, [pc, #212]	; (4734 <_sercom_get_default_pad+0xf4>)
    4660:	4293      	cmp	r3, r2
    4662:	d03a      	beq.n	46da <_sercom_get_default_pad+0x9a>
    4664:	4a34      	ldr	r2, [pc, #208]	; (4738 <_sercom_get_default_pad+0xf8>)
    4666:	4293      	cmp	r3, r2
    4668:	d044      	beq.n	46f4 <_sercom_get_default_pad+0xb4>
    466a:	4a34      	ldr	r2, [pc, #208]	; (473c <_sercom_get_default_pad+0xfc>)
    466c:	4293      	cmp	r3, r2
    466e:	d1f4      	bne.n	465a <_sercom_get_default_pad+0x1a>
    4670:	2300      	movs	r3, #0
    4672:	2903      	cmp	r1, #3
    4674:	d80b      	bhi.n	468e <_sercom_get_default_pad+0x4e>
    4676:	f000 fed9 	bl	542c <__gnu_thumb1_case_uqi>
    467a:	2a50      	.short	0x2a50
    467c:	2e2c      	.short	0x2e2c
    467e:	2300      	movs	r3, #0
    4680:	2903      	cmp	r1, #3
    4682:	d804      	bhi.n	468e <_sercom_get_default_pad+0x4e>
    4684:	f000 fed2 	bl	542c <__gnu_thumb1_case_uqi>
    4688:	07050243 	.word	0x07050243
    468c:	4b2c      	ldr	r3, [pc, #176]	; (4740 <_sercom_get_default_pad+0x100>)
    468e:	0018      	movs	r0, r3
    4690:	bd00      	pop	{pc}
    4692:	4b2c      	ldr	r3, [pc, #176]	; (4744 <_sercom_get_default_pad+0x104>)
    4694:	e7fb      	b.n	468e <_sercom_get_default_pad+0x4e>
    4696:	4b2c      	ldr	r3, [pc, #176]	; (4748 <_sercom_get_default_pad+0x108>)
    4698:	e7f9      	b.n	468e <_sercom_get_default_pad+0x4e>
    469a:	2300      	movs	r3, #0
    469c:	2903      	cmp	r1, #3
    469e:	d8f6      	bhi.n	468e <_sercom_get_default_pad+0x4e>
    46a0:	f000 fec4 	bl	542c <__gnu_thumb1_case_uqi>
    46a4:	06040237 	.word	0x06040237
    46a8:	4b28      	ldr	r3, [pc, #160]	; (474c <_sercom_get_default_pad+0x10c>)
    46aa:	e7f0      	b.n	468e <_sercom_get_default_pad+0x4e>
    46ac:	4b28      	ldr	r3, [pc, #160]	; (4750 <_sercom_get_default_pad+0x110>)
    46ae:	e7ee      	b.n	468e <_sercom_get_default_pad+0x4e>
    46b0:	4b28      	ldr	r3, [pc, #160]	; (4754 <_sercom_get_default_pad+0x114>)
    46b2:	e7ec      	b.n	468e <_sercom_get_default_pad+0x4e>
    46b4:	2300      	movs	r3, #0
    46b6:	2903      	cmp	r1, #3
    46b8:	d8e9      	bhi.n	468e <_sercom_get_default_pad+0x4e>
    46ba:	f000 feb7 	bl	542c <__gnu_thumb1_case_uqi>
    46be:	022c      	.short	0x022c
    46c0:	0604      	.short	0x0604
    46c2:	4b25      	ldr	r3, [pc, #148]	; (4758 <_sercom_get_default_pad+0x118>)
    46c4:	e7e3      	b.n	468e <_sercom_get_default_pad+0x4e>
    46c6:	4b25      	ldr	r3, [pc, #148]	; (475c <_sercom_get_default_pad+0x11c>)
    46c8:	e7e1      	b.n	468e <_sercom_get_default_pad+0x4e>
    46ca:	4b25      	ldr	r3, [pc, #148]	; (4760 <_sercom_get_default_pad+0x120>)
    46cc:	e7df      	b.n	468e <_sercom_get_default_pad+0x4e>
    46ce:	4b25      	ldr	r3, [pc, #148]	; (4764 <_sercom_get_default_pad+0x124>)
    46d0:	e7dd      	b.n	468e <_sercom_get_default_pad+0x4e>
    46d2:	4b25      	ldr	r3, [pc, #148]	; (4768 <_sercom_get_default_pad+0x128>)
    46d4:	e7db      	b.n	468e <_sercom_get_default_pad+0x4e>
    46d6:	4b25      	ldr	r3, [pc, #148]	; (476c <_sercom_get_default_pad+0x12c>)
    46d8:	e7d9      	b.n	468e <_sercom_get_default_pad+0x4e>
    46da:	2300      	movs	r3, #0
    46dc:	2903      	cmp	r1, #3
    46de:	d8d6      	bhi.n	468e <_sercom_get_default_pad+0x4e>
    46e0:	f000 fea4 	bl	542c <__gnu_thumb1_case_uqi>
    46e4:	0604021d 	.word	0x0604021d
    46e8:	4b21      	ldr	r3, [pc, #132]	; (4770 <_sercom_get_default_pad+0x130>)
    46ea:	e7d0      	b.n	468e <_sercom_get_default_pad+0x4e>
    46ec:	4b21      	ldr	r3, [pc, #132]	; (4774 <_sercom_get_default_pad+0x134>)
    46ee:	e7ce      	b.n	468e <_sercom_get_default_pad+0x4e>
    46f0:	4b21      	ldr	r3, [pc, #132]	; (4778 <_sercom_get_default_pad+0x138>)
    46f2:	e7cc      	b.n	468e <_sercom_get_default_pad+0x4e>
    46f4:	2300      	movs	r3, #0
    46f6:	2903      	cmp	r1, #3
    46f8:	d8c9      	bhi.n	468e <_sercom_get_default_pad+0x4e>
    46fa:	f000 fe97 	bl	542c <__gnu_thumb1_case_uqi>
    46fe:	0212      	.short	0x0212
    4700:	0604      	.short	0x0604
    4702:	4b1e      	ldr	r3, [pc, #120]	; (477c <_sercom_get_default_pad+0x13c>)
    4704:	e7c3      	b.n	468e <_sercom_get_default_pad+0x4e>
    4706:	4b1e      	ldr	r3, [pc, #120]	; (4780 <_sercom_get_default_pad+0x140>)
    4708:	e7c1      	b.n	468e <_sercom_get_default_pad+0x4e>
    470a:	4b1e      	ldr	r3, [pc, #120]	; (4784 <_sercom_get_default_pad+0x144>)
    470c:	e7bf      	b.n	468e <_sercom_get_default_pad+0x4e>
    470e:	4b1e      	ldr	r3, [pc, #120]	; (4788 <_sercom_get_default_pad+0x148>)
    4710:	e7bd      	b.n	468e <_sercom_get_default_pad+0x4e>
    4712:	2303      	movs	r3, #3
    4714:	e7bb      	b.n	468e <_sercom_get_default_pad+0x4e>
    4716:	4b1d      	ldr	r3, [pc, #116]	; (478c <_sercom_get_default_pad+0x14c>)
    4718:	e7b9      	b.n	468e <_sercom_get_default_pad+0x4e>
    471a:	4b1d      	ldr	r3, [pc, #116]	; (4790 <_sercom_get_default_pad+0x150>)
    471c:	e7b7      	b.n	468e <_sercom_get_default_pad+0x4e>
    471e:	4b1d      	ldr	r3, [pc, #116]	; (4794 <_sercom_get_default_pad+0x154>)
    4720:	e7b5      	b.n	468e <_sercom_get_default_pad+0x4e>
    4722:	4b1d      	ldr	r3, [pc, #116]	; (4798 <_sercom_get_default_pad+0x158>)
    4724:	e7b3      	b.n	468e <_sercom_get_default_pad+0x4e>
    4726:	46c0      	nop			; (mov r8, r8)
    4728:	42001000 	.word	0x42001000
    472c:	42000800 	.word	0x42000800
    4730:	42000c00 	.word	0x42000c00
    4734:	42001800 	.word	0x42001800
    4738:	42001c00 	.word	0x42001c00
    473c:	42001400 	.word	0x42001400
    4740:	00050003 	.word	0x00050003
    4744:	00060003 	.word	0x00060003
    4748:	00070003 	.word	0x00070003
    474c:	00010003 	.word	0x00010003
    4750:	001e0003 	.word	0x001e0003
    4754:	001f0003 	.word	0x001f0003
    4758:	00090003 	.word	0x00090003
    475c:	000a0003 	.word	0x000a0003
    4760:	000b0003 	.word	0x000b0003
    4764:	00110003 	.word	0x00110003
    4768:	00120003 	.word	0x00120003
    476c:	00130003 	.word	0x00130003
    4770:	000d0003 	.word	0x000d0003
    4774:	000e0003 	.word	0x000e0003
    4778:	000f0003 	.word	0x000f0003
    477c:	00170003 	.word	0x00170003
    4780:	00180003 	.word	0x00180003
    4784:	00190003 	.word	0x00190003
    4788:	00040003 	.word	0x00040003
    478c:	00080003 	.word	0x00080003
    4790:	00100003 	.word	0x00100003
    4794:	000c0003 	.word	0x000c0003
    4798:	00160003 	.word	0x00160003

0000479c <_sercom_get_sercom_inst_index>:
    479c:	b570      	push	{r4, r5, r6, lr}
    479e:	b086      	sub	sp, #24
    47a0:	4669      	mov	r1, sp
    47a2:	4b09      	ldr	r3, [pc, #36]	; (47c8 <_sercom_get_sercom_inst_index+0x2c>)
    47a4:	466a      	mov	r2, sp
    47a6:	cb70      	ldmia	r3!, {r4, r5, r6}
    47a8:	c170      	stmia	r1!, {r4, r5, r6}
    47aa:	cb70      	ldmia	r3!, {r4, r5, r6}
    47ac:	c170      	stmia	r1!, {r4, r5, r6}
    47ae:	2300      	movs	r3, #0
    47b0:	0099      	lsls	r1, r3, #2
    47b2:	5851      	ldr	r1, [r2, r1]
    47b4:	4281      	cmp	r1, r0
    47b6:	d102      	bne.n	47be <_sercom_get_sercom_inst_index+0x22>
    47b8:	b2d8      	uxtb	r0, r3
    47ba:	b006      	add	sp, #24
    47bc:	bd70      	pop	{r4, r5, r6, pc}
    47be:	3301      	adds	r3, #1
    47c0:	2b06      	cmp	r3, #6
    47c2:	d1f5      	bne.n	47b0 <_sercom_get_sercom_inst_index+0x14>
    47c4:	2000      	movs	r0, #0
    47c6:	e7f8      	b.n	47ba <_sercom_get_sercom_inst_index+0x1e>
    47c8:	00008e6c 	.word	0x00008e6c

000047cc <_sercom_default_handler>:
    47cc:	4770      	bx	lr
	...

000047d0 <_sercom_set_handler>:
    47d0:	b5f0      	push	{r4, r5, r6, r7, lr}
    47d2:	4c09      	ldr	r4, [pc, #36]	; (47f8 <_sercom_set_handler+0x28>)
    47d4:	4a09      	ldr	r2, [pc, #36]	; (47fc <_sercom_set_handler+0x2c>)
    47d6:	7823      	ldrb	r3, [r4, #0]
    47d8:	2b00      	cmp	r3, #0
    47da:	d109      	bne.n	47f0 <_sercom_set_handler+0x20>
    47dc:	001e      	movs	r6, r3
    47de:	4f08      	ldr	r7, [pc, #32]	; (4800 <_sercom_set_handler+0x30>)
    47e0:	4d08      	ldr	r5, [pc, #32]	; (4804 <_sercom_set_handler+0x34>)
    47e2:	50d7      	str	r7, [r2, r3]
    47e4:	50ee      	str	r6, [r5, r3]
    47e6:	3304      	adds	r3, #4
    47e8:	2b18      	cmp	r3, #24
    47ea:	d1fa      	bne.n	47e2 <_sercom_set_handler+0x12>
    47ec:	3b17      	subs	r3, #23
    47ee:	7023      	strb	r3, [r4, #0]
    47f0:	0080      	lsls	r0, r0, #2
    47f2:	5011      	str	r1, [r2, r0]
    47f4:	bdf0      	pop	{r4, r5, r6, r7, pc}
    47f6:	46c0      	nop			; (mov r8, r8)
    47f8:	20005382 	.word	0x20005382
    47fc:	20005384 	.word	0x20005384
    4800:	000047cd 	.word	0x000047cd
    4804:	20005418 	.word	0x20005418

00004808 <_sercom_get_interrupt_vector>:
    4808:	b507      	push	{r0, r1, r2, lr}
    480a:	2309      	movs	r3, #9
    480c:	466a      	mov	r2, sp
    480e:	7013      	strb	r3, [r2, #0]
    4810:	3301      	adds	r3, #1
    4812:	7053      	strb	r3, [r2, #1]
    4814:	3301      	adds	r3, #1
    4816:	7093      	strb	r3, [r2, #2]
    4818:	3301      	adds	r3, #1
    481a:	70d3      	strb	r3, [r2, #3]
    481c:	3301      	adds	r3, #1
    481e:	7113      	strb	r3, [r2, #4]
    4820:	3301      	adds	r3, #1
    4822:	7153      	strb	r3, [r2, #5]
    4824:	4b02      	ldr	r3, [pc, #8]	; (4830 <_sercom_get_interrupt_vector+0x28>)
    4826:	4798      	blx	r3
    4828:	466b      	mov	r3, sp
    482a:	5618      	ldrsb	r0, [r3, r0]
    482c:	bd0e      	pop	{r1, r2, r3, pc}
    482e:	46c0      	nop			; (mov r8, r8)
    4830:	0000479d 	.word	0x0000479d

00004834 <SERCOM0_Handler>:
    4834:	b510      	push	{r4, lr}
    4836:	4b02      	ldr	r3, [pc, #8]	; (4840 <SERCOM0_Handler+0xc>)
    4838:	2000      	movs	r0, #0
    483a:	681b      	ldr	r3, [r3, #0]
    483c:	4798      	blx	r3
    483e:	bd10      	pop	{r4, pc}
    4840:	20005384 	.word	0x20005384

00004844 <SERCOM1_Handler>:
    4844:	b510      	push	{r4, lr}
    4846:	4b02      	ldr	r3, [pc, #8]	; (4850 <SERCOM1_Handler+0xc>)
    4848:	2001      	movs	r0, #1
    484a:	685b      	ldr	r3, [r3, #4]
    484c:	4798      	blx	r3
    484e:	bd10      	pop	{r4, pc}
    4850:	20005384 	.word	0x20005384

00004854 <SERCOM2_Handler>:
    4854:	b510      	push	{r4, lr}
    4856:	4b02      	ldr	r3, [pc, #8]	; (4860 <SERCOM2_Handler+0xc>)
    4858:	2002      	movs	r0, #2
    485a:	689b      	ldr	r3, [r3, #8]
    485c:	4798      	blx	r3
    485e:	bd10      	pop	{r4, pc}
    4860:	20005384 	.word	0x20005384

00004864 <SERCOM3_Handler>:
    4864:	b510      	push	{r4, lr}
    4866:	4b02      	ldr	r3, [pc, #8]	; (4870 <SERCOM3_Handler+0xc>)
    4868:	2003      	movs	r0, #3
    486a:	68db      	ldr	r3, [r3, #12]
    486c:	4798      	blx	r3
    486e:	bd10      	pop	{r4, pc}
    4870:	20005384 	.word	0x20005384

00004874 <SERCOM4_Handler>:
    4874:	b510      	push	{r4, lr}
    4876:	4b02      	ldr	r3, [pc, #8]	; (4880 <SERCOM4_Handler+0xc>)
    4878:	2004      	movs	r0, #4
    487a:	691b      	ldr	r3, [r3, #16]
    487c:	4798      	blx	r3
    487e:	bd10      	pop	{r4, pc}
    4880:	20005384 	.word	0x20005384

00004884 <SERCOM5_Handler>:
    4884:	b510      	push	{r4, lr}
    4886:	4b02      	ldr	r3, [pc, #8]	; (4890 <SERCOM5_Handler+0xc>)
    4888:	2005      	movs	r0, #5
    488a:	695b      	ldr	r3, [r3, #20]
    488c:	4798      	blx	r3
    488e:	bd10      	pop	{r4, pc}
    4890:	20005384 	.word	0x20005384

00004894 <delay_init>:
    4894:	4770      	bx	lr
	...

00004898 <port_pin_set_config>:
    4898:	b507      	push	{r0, r1, r2, lr}
    489a:	2280      	movs	r2, #128	; 0x80
    489c:	ab01      	add	r3, sp, #4
    489e:	701a      	strb	r2, [r3, #0]
    48a0:	780a      	ldrb	r2, [r1, #0]
    48a2:	705a      	strb	r2, [r3, #1]
    48a4:	784a      	ldrb	r2, [r1, #1]
    48a6:	709a      	strb	r2, [r3, #2]
    48a8:	788a      	ldrb	r2, [r1, #2]
    48aa:	0019      	movs	r1, r3
    48ac:	70da      	strb	r2, [r3, #3]
    48ae:	4b01      	ldr	r3, [pc, #4]	; (48b4 <port_pin_set_config+0x1c>)
    48b0:	4798      	blx	r3
    48b2:	bd07      	pop	{r0, r1, r2, pc}
    48b4:	0000525d 	.word	0x0000525d

000048b8 <arch_ioport_disable_pin>:
    48b8:	2201      	movs	r2, #1
    48ba:	231f      	movs	r3, #31
    48bc:	b530      	push	{r4, r5, lr}
    48be:	0014      	movs	r4, r2
    48c0:	4003      	ands	r3, r0
    48c2:	409c      	lsls	r4, r3
    48c4:	0940      	lsrs	r0, r0, #5
    48c6:	4b08      	ldr	r3, [pc, #32]	; (48e8 <arch_ioport_disable_pin+0x30>)
    48c8:	01c0      	lsls	r0, r0, #7
    48ca:	18c0      	adds	r0, r0, r3
    48cc:	2300      	movs	r3, #0
    48ce:	0011      	movs	r1, r2
    48d0:	4099      	lsls	r1, r3
    48d2:	420c      	tst	r4, r1
    48d4:	d004      	beq.n	48e0 <arch_ioport_disable_pin+0x28>
    48d6:	18c1      	adds	r1, r0, r3
    48d8:	3140      	adds	r1, #64	; 0x40
    48da:	780d      	ldrb	r5, [r1, #0]
    48dc:	4315      	orrs	r5, r2
    48de:	700d      	strb	r5, [r1, #0]
    48e0:	3301      	adds	r3, #1
    48e2:	2b20      	cmp	r3, #32
    48e4:	d1f3      	bne.n	48ce <arch_ioport_disable_pin+0x16>
    48e6:	bd30      	pop	{r4, r5, pc}
    48e8:	41004400 	.word	0x41004400

000048ec <arch_ioport_set_pin_mode>:
    48ec:	231f      	movs	r3, #31
    48ee:	b570      	push	{r4, r5, r6, lr}
    48f0:	2401      	movs	r4, #1
    48f2:	4003      	ands	r3, r0
    48f4:	409c      	lsls	r4, r3
    48f6:	0940      	lsrs	r0, r0, #5
    48f8:	4b14      	ldr	r3, [pc, #80]	; (494c <arch_ioport_set_pin_mode+0x60>)
    48fa:	01c0      	lsls	r0, r0, #7
    48fc:	18c0      	adds	r0, r0, r3
    48fe:	2330      	movs	r3, #48	; 0x30
    4900:	4219      	tst	r1, r3
    4902:	d01c      	beq.n	493e <arch_ioport_set_pin_mode+0x52>
    4904:	25c0      	movs	r5, #192	; 0xc0
    4906:	02ed      	lsls	r5, r5, #11
    4908:	060b      	lsls	r3, r1, #24
    490a:	d502      	bpl.n	4912 <arch_ioport_set_pin_mode+0x26>
    490c:	2380      	movs	r3, #128	; 0x80
    490e:	03db      	lsls	r3, r3, #15
    4910:	431d      	orrs	r5, r3
    4912:	23f0      	movs	r3, #240	; 0xf0
    4914:	060e      	lsls	r6, r1, #24
    4916:	051b      	lsls	r3, r3, #20
    4918:	401e      	ands	r6, r3
    491a:	23a0      	movs	r3, #160	; 0xa0
    491c:	05db      	lsls	r3, r3, #23
    491e:	4333      	orrs	r3, r6
    4920:	b2a2      	uxth	r2, r4
    4922:	431a      	orrs	r2, r3
    4924:	23d0      	movs	r3, #208	; 0xd0
    4926:	432a      	orrs	r2, r5
    4928:	061b      	lsls	r3, r3, #24
    492a:	6282      	str	r2, [r0, #40]	; 0x28
    492c:	4333      	orrs	r3, r6
    492e:	0c22      	lsrs	r2, r4, #16
    4930:	4313      	orrs	r3, r2
    4932:	432b      	orrs	r3, r5
    4934:	6283      	str	r3, [r0, #40]	; 0x28
    4936:	068b      	lsls	r3, r1, #26
    4938:	d504      	bpl.n	4944 <arch_ioport_set_pin_mode+0x58>
    493a:	6144      	str	r4, [r0, #20]
    493c:	bd70      	pop	{r4, r5, r6, pc}
    493e:	2580      	movs	r5, #128	; 0x80
    4940:	02ad      	lsls	r5, r5, #10
    4942:	e7e1      	b.n	4908 <arch_ioport_set_pin_mode+0x1c>
    4944:	06cb      	lsls	r3, r1, #27
    4946:	d5f9      	bpl.n	493c <arch_ioport_set_pin_mode+0x50>
    4948:	6184      	str	r4, [r0, #24]
    494a:	e7f7      	b.n	493c <arch_ioport_set_pin_mode+0x50>
    494c:	41004400 	.word	0x41004400

00004950 <system_board_init>:
    4950:	b5f8      	push	{r3, r4, r5, r6, r7, lr}
    4952:	4e4f      	ldr	r6, [pc, #316]	; (4a90 <system_board_init+0x140>)
    4954:	2301      	movs	r3, #1
    4956:	0032      	movs	r2, r6
    4958:	2502      	movs	r5, #2
    495a:	3240      	adds	r2, #64	; 0x40
    495c:	60b3      	str	r3, [r6, #8]
    495e:	7813      	ldrb	r3, [r2, #0]
    4960:	4c4c      	ldr	r4, [pc, #304]	; (4a94 <system_board_init+0x144>)
    4962:	432b      	orrs	r3, r5
    4964:	7013      	strb	r3, [r2, #0]
    4966:	2301      	movs	r3, #1
    4968:	6173      	str	r3, [r6, #20]
    496a:	6075      	str	r5, [r6, #4]
    496c:	7853      	ldrb	r3, [r2, #1]
    496e:	2120      	movs	r1, #32
    4970:	432b      	orrs	r3, r5
    4972:	7053      	strb	r3, [r2, #1]
    4974:	2001      	movs	r0, #1
    4976:	47a0      	blx	r4
    4978:	0028      	movs	r0, r5
    497a:	2101      	movs	r1, #1
    497c:	47a0      	blx	r4
    497e:	4f46      	ldr	r7, [pc, #280]	; (4a98 <system_board_init+0x148>)
    4980:	0028      	movs	r0, r5
    4982:	47b8      	blx	r7
    4984:	2101      	movs	r1, #1
    4986:	2028      	movs	r0, #40	; 0x28
    4988:	47a0      	blx	r4
    498a:	2028      	movs	r0, #40	; 0x28
    498c:	47b8      	blx	r7
    498e:	2101      	movs	r1, #1
    4990:	2029      	movs	r0, #41	; 0x29
    4992:	47a0      	blx	r4
    4994:	2029      	movs	r0, #41	; 0x29
    4996:	47b8      	blx	r7
    4998:	2380      	movs	r3, #128	; 0x80
    499a:	0032      	movs	r2, r6
    499c:	015b      	lsls	r3, r3, #5
    499e:	6073      	str	r3, [r6, #4]
    49a0:	324c      	adds	r2, #76	; 0x4c
    49a2:	7813      	ldrb	r3, [r2, #0]
    49a4:	2120      	movs	r1, #32
    49a6:	432b      	orrs	r3, r5
    49a8:	7013      	strb	r3, [r2, #0]
    49aa:	200c      	movs	r0, #12
    49ac:	47a0      	blx	r4
    49ae:	2280      	movs	r2, #128	; 0x80
    49b0:	4b3a      	ldr	r3, [pc, #232]	; (4a9c <system_board_init+0x14c>)
    49b2:	0112      	lsls	r2, r2, #4
    49b4:	605a      	str	r2, [r3, #4]
    49b6:	001a      	movs	r2, r3
    49b8:	326b      	adds	r2, #107	; 0x6b
    49ba:	7813      	ldrb	r3, [r2, #0]
    49bc:	2120      	movs	r1, #32
    49be:	432b      	orrs	r3, r5
    49c0:	7013      	strb	r3, [r2, #0]
    49c2:	202b      	movs	r0, #43	; 0x2b
    49c4:	47a0      	blx	r4
    49c6:	2101      	movs	r1, #1
    49c8:	2004      	movs	r0, #4
    49ca:	47a0      	blx	r4
    49cc:	2004      	movs	r0, #4
    49ce:	47b8      	blx	r7
    49d0:	2101      	movs	r1, #1
    49d2:	2005      	movs	r0, #5
    49d4:	47a0      	blx	r4
    49d6:	2005      	movs	r0, #5
    49d8:	47b8      	blx	r7
    49da:	2101      	movs	r1, #1
    49dc:	2006      	movs	r0, #6
    49de:	47a0      	blx	r4
    49e0:	2006      	movs	r0, #6
    49e2:	47b8      	blx	r7
    49e4:	0029      	movs	r1, r5
    49e6:	2016      	movs	r0, #22
    49e8:	47a0      	blx	r4
    49ea:	2016      	movs	r0, #22
    49ec:	47b8      	blx	r7
    49ee:	0029      	movs	r1, r5
    49f0:	2017      	movs	r0, #23
    49f2:	47a0      	blx	r4
    49f4:	2017      	movs	r0, #23
    49f6:	47b8      	blx	r7
    49f8:	2101      	movs	r1, #1
    49fa:	2022      	movs	r0, #34	; 0x22
    49fc:	47a0      	blx	r4
    49fe:	2022      	movs	r0, #34	; 0x22
    4a00:	47b8      	blx	r7
    4a02:	0029      	movs	r1, r5
    4a04:	2010      	movs	r0, #16
    4a06:	47a0      	blx	r4
    4a08:	2010      	movs	r0, #16
    4a0a:	47b8      	blx	r7
    4a0c:	0029      	movs	r1, r5
    4a0e:	2011      	movs	r0, #17
    4a10:	47a0      	blx	r4
    4a12:	2011      	movs	r0, #17
    4a14:	47b8      	blx	r7
    4a16:	2380      	movs	r3, #128	; 0x80
    4a18:	0032      	movs	r2, r6
    4a1a:	011b      	lsls	r3, r3, #4
    4a1c:	324b      	adds	r2, #75	; 0x4b
    4a1e:	60b3      	str	r3, [r6, #8]
    4a20:	7813      	ldrb	r3, [r2, #0]
    4a22:	0029      	movs	r1, r5
    4a24:	432b      	orrs	r3, r5
    4a26:	7013      	strb	r3, [r2, #0]
    4a28:	2380      	movs	r3, #128	; 0x80
    4a2a:	011b      	lsls	r3, r3, #4
    4a2c:	61b3      	str	r3, [r6, #24]
    4a2e:	2009      	movs	r0, #9
    4a30:	47a0      	blx	r4
    4a32:	2009      	movs	r0, #9
    4a34:	47b8      	blx	r7
    4a36:	0029      	movs	r1, r5
    4a38:	200a      	movs	r0, #10
    4a3a:	47a0      	blx	r4
    4a3c:	200a      	movs	r0, #10
    4a3e:	47b8      	blx	r7
    4a40:	0029      	movs	r1, r5
    4a42:	2008      	movs	r0, #8
    4a44:	47a0      	blx	r4
    4a46:	2008      	movs	r0, #8
    4a48:	47b8      	blx	r7
    4a4a:	4b14      	ldr	r3, [pc, #80]	; (4a9c <system_board_init+0x14c>)
    4a4c:	2280      	movs	r2, #128	; 0x80
    4a4e:	0019      	movs	r1, r3
    4a50:	03d2      	lsls	r2, r2, #15
    4a52:	609a      	str	r2, [r3, #8]
    4a54:	3176      	adds	r1, #118	; 0x76
    4a56:	780b      	ldrb	r3, [r1, #0]
    4a58:	201c      	movs	r0, #28
    4a5a:	432b      	orrs	r3, r5
    4a5c:	700b      	strb	r3, [r1, #0]
    4a5e:	4b0f      	ldr	r3, [pc, #60]	; (4a9c <system_board_init+0x14c>)
    4a60:	39a1      	subs	r1, #161	; 0xa1
    4a62:	615a      	str	r2, [r3, #20]
    4a64:	2280      	movs	r2, #128	; 0x80
    4a66:	0392      	lsls	r2, r2, #14
    4a68:	60b2      	str	r2, [r6, #8]
    4a6a:	780b      	ldrb	r3, [r1, #0]
    4a6c:	432b      	orrs	r3, r5
    4a6e:	700b      	strb	r3, [r1, #0]
    4a70:	2380      	movs	r3, #128	; 0x80
    4a72:	055b      	lsls	r3, r3, #21
    4a74:	6172      	str	r2, [r6, #20]
    4a76:	6073      	str	r3, [r6, #4]
    4a78:	365c      	adds	r6, #92	; 0x5c
    4a7a:	7833      	ldrb	r3, [r6, #0]
    4a7c:	2120      	movs	r1, #32
    4a7e:	432b      	orrs	r3, r5
    4a80:	7033      	strb	r3, [r6, #0]
    4a82:	47a0      	blx	r4
    4a84:	0029      	movs	r1, r5
    4a86:	2003      	movs	r0, #3
    4a88:	47a0      	blx	r4
    4a8a:	2003      	movs	r0, #3
    4a8c:	47b8      	blx	r7
    4a8e:	bdf8      	pop	{r3, r4, r5, r6, r7, pc}
    4a90:	41004400 	.word	0x41004400
    4a94:	000048ed 	.word	0x000048ed
    4a98:	000048b9 	.word	0x000048b9
    4a9c:	41004480 	.word	0x41004480

00004aa0 <cpu_irq_enter_critical>:
    4aa0:	4b09      	ldr	r3, [pc, #36]	; (4ac8 <cpu_irq_enter_critical+0x28>)
    4aa2:	6819      	ldr	r1, [r3, #0]
    4aa4:	2900      	cmp	r1, #0
    4aa6:	d10b      	bne.n	4ac0 <cpu_irq_enter_critical+0x20>
    4aa8:	f3ef 8010 	mrs	r0, PRIMASK
    4aac:	4a07      	ldr	r2, [pc, #28]	; (4acc <cpu_irq_enter_critical+0x2c>)
    4aae:	2800      	cmp	r0, #0
    4ab0:	d105      	bne.n	4abe <cpu_irq_enter_critical+0x1e>
    4ab2:	b672      	cpsid	i
    4ab4:	f3bf 8f5f 	dmb	sy
    4ab8:	4905      	ldr	r1, [pc, #20]	; (4ad0 <cpu_irq_enter_critical+0x30>)
    4aba:	7008      	strb	r0, [r1, #0]
    4abc:	2101      	movs	r1, #1
    4abe:	7011      	strb	r1, [r2, #0]
    4ac0:	681a      	ldr	r2, [r3, #0]
    4ac2:	3201      	adds	r2, #1
    4ac4:	601a      	str	r2, [r3, #0]
    4ac6:	4770      	bx	lr
    4ac8:	2000539c 	.word	0x2000539c
    4acc:	200053a0 	.word	0x200053a0
    4ad0:	20000018 	.word	0x20000018

00004ad4 <cpu_irq_leave_critical>:
    4ad4:	4b08      	ldr	r3, [pc, #32]	; (4af8 <cpu_irq_leave_critical+0x24>)
    4ad6:	681a      	ldr	r2, [r3, #0]
    4ad8:	3a01      	subs	r2, #1
    4ada:	601a      	str	r2, [r3, #0]
    4adc:	681b      	ldr	r3, [r3, #0]
    4ade:	2b00      	cmp	r3, #0
    4ae0:	d109      	bne.n	4af6 <cpu_irq_leave_critical+0x22>
    4ae2:	4b06      	ldr	r3, [pc, #24]	; (4afc <cpu_irq_leave_critical+0x28>)
    4ae4:	781b      	ldrb	r3, [r3, #0]
    4ae6:	2b00      	cmp	r3, #0
    4ae8:	d005      	beq.n	4af6 <cpu_irq_leave_critical+0x22>
    4aea:	2201      	movs	r2, #1
    4aec:	4b04      	ldr	r3, [pc, #16]	; (4b00 <cpu_irq_leave_critical+0x2c>)
    4aee:	701a      	strb	r2, [r3, #0]
    4af0:	f3bf 8f5f 	dmb	sy
    4af4:	b662      	cpsie	i
    4af6:	4770      	bx	lr
    4af8:	2000539c 	.word	0x2000539c
    4afc:	200053a0 	.word	0x200053a0
    4b00:	20000018 	.word	0x20000018

00004b04 <_system_dfll_wait_for_sync>:
    4b04:	2310      	movs	r3, #16
    4b06:	4902      	ldr	r1, [pc, #8]	; (4b10 <_system_dfll_wait_for_sync+0xc>)
    4b08:	68ca      	ldr	r2, [r1, #12]
    4b0a:	421a      	tst	r2, r3
    4b0c:	d0fc      	beq.n	4b08 <_system_dfll_wait_for_sync+0x4>
    4b0e:	4770      	bx	lr
    4b10:	40000800 	.word	0x40000800

00004b14 <system_clock_source_enable.part.0>:
    4b14:	2202      	movs	r2, #2
    4b16:	b5f8      	push	{r3, r4, r5, r6, r7, lr}
    4b18:	2600      	movs	r6, #0
    4b1a:	4d09      	ldr	r5, [pc, #36]	; (4b40 <system_clock_source_enable.part.0+0x2c>)
    4b1c:	4c09      	ldr	r4, [pc, #36]	; (4b44 <system_clock_source_enable.part.0+0x30>)
    4b1e:	682b      	ldr	r3, [r5, #0]
    4b20:	4f09      	ldr	r7, [pc, #36]	; (4b48 <system_clock_source_enable.part.0+0x34>)
    4b22:	4313      	orrs	r3, r2
    4b24:	602b      	str	r3, [r5, #0]
    4b26:	84a2      	strh	r2, [r4, #36]	; 0x24
    4b28:	47b8      	blx	r7
    4b2a:	68ab      	ldr	r3, [r5, #8]
    4b2c:	62e3      	str	r3, [r4, #44]	; 0x2c
    4b2e:	686b      	ldr	r3, [r5, #4]
    4b30:	62a3      	str	r3, [r4, #40]	; 0x28
    4b32:	84a6      	strh	r6, [r4, #36]	; 0x24
    4b34:	47b8      	blx	r7
    4b36:	682b      	ldr	r3, [r5, #0]
    4b38:	0030      	movs	r0, r6
    4b3a:	b29b      	uxth	r3, r3
    4b3c:	84a3      	strh	r3, [r4, #36]	; 0x24
    4b3e:	bdf8      	pop	{r3, r4, r5, r6, r7, pc}
    4b40:	200053a4 	.word	0x200053a4
    4b44:	40000800 	.word	0x40000800
    4b48:	00004b05 	.word	0x00004b05

00004b4c <system_clock_source_get_hz>:
    4b4c:	b570      	push	{r4, r5, r6, lr}
    4b4e:	2808      	cmp	r0, #8
    4b50:	d806      	bhi.n	4b60 <system_clock_source_get_hz+0x14>
    4b52:	f000 fc6b 	bl	542c <__gnu_thumb1_case_uqi>
    4b56:	0508      	.short	0x0508
    4b58:	12303005 	.word	0x12303005
    4b5c:	150b      	.short	0x150b
    4b5e:	28          	.byte	0x28
    4b5f:	00          	.byte	0x00
    4b60:	2400      	movs	r4, #0
    4b62:	0020      	movs	r0, r4
    4b64:	bd70      	pop	{r4, r5, r6, pc}
    4b66:	4b16      	ldr	r3, [pc, #88]	; (4bc0 <system_clock_source_get_hz+0x74>)
    4b68:	691c      	ldr	r4, [r3, #16]
    4b6a:	e7fa      	b.n	4b62 <system_clock_source_get_hz+0x16>
    4b6c:	4b15      	ldr	r3, [pc, #84]	; (4bc4 <system_clock_source_get_hz+0x78>)
    4b6e:	4c16      	ldr	r4, [pc, #88]	; (4bc8 <system_clock_source_get_hz+0x7c>)
    4b70:	6a1b      	ldr	r3, [r3, #32]
    4b72:	059b      	lsls	r3, r3, #22
    4b74:	0f9b      	lsrs	r3, r3, #30
    4b76:	40dc      	lsrs	r4, r3
    4b78:	e7f3      	b.n	4b62 <system_clock_source_get_hz+0x16>
    4b7a:	4b11      	ldr	r3, [pc, #68]	; (4bc0 <system_clock_source_get_hz+0x74>)
    4b7c:	695c      	ldr	r4, [r3, #20]
    4b7e:	e7f0      	b.n	4b62 <system_clock_source_get_hz+0x16>
    4b80:	4d0f      	ldr	r5, [pc, #60]	; (4bc0 <system_clock_source_get_hz+0x74>)
    4b82:	2400      	movs	r4, #0
    4b84:	682b      	ldr	r3, [r5, #0]
    4b86:	079b      	lsls	r3, r3, #30
    4b88:	d5eb      	bpl.n	4b62 <system_clock_source_get_hz+0x16>
    4b8a:	4b10      	ldr	r3, [pc, #64]	; (4bcc <system_clock_source_get_hz+0x80>)
    4b8c:	4798      	blx	r3
    4b8e:	2224      	movs	r2, #36	; 0x24
    4b90:	682b      	ldr	r3, [r5, #0]
    4b92:	4013      	ands	r3, r2
    4b94:	2b04      	cmp	r3, #4
    4b96:	d111      	bne.n	4bbc <system_clock_source_get_hz+0x70>
    4b98:	0020      	movs	r0, r4
    4b9a:	4b0d      	ldr	r3, [pc, #52]	; (4bd0 <system_clock_source_get_hz+0x84>)
    4b9c:	4798      	blx	r3
    4b9e:	68ac      	ldr	r4, [r5, #8]
    4ba0:	b2a4      	uxth	r4, r4
    4ba2:	4344      	muls	r4, r0
    4ba4:	e7dd      	b.n	4b62 <system_clock_source_get_hz+0x16>
    4ba6:	4b0b      	ldr	r3, [pc, #44]	; (4bd4 <system_clock_source_get_hz+0x88>)
    4ba8:	2400      	movs	r4, #0
    4baa:	781b      	ldrb	r3, [r3, #0]
    4bac:	075b      	lsls	r3, r3, #29
    4bae:	d5d8      	bpl.n	4b62 <system_clock_source_get_hz+0x16>
    4bb0:	4b03      	ldr	r3, [pc, #12]	; (4bc0 <system_clock_source_get_hz+0x74>)
    4bb2:	68dc      	ldr	r4, [r3, #12]
    4bb4:	e7d5      	b.n	4b62 <system_clock_source_get_hz+0x16>
    4bb6:	2480      	movs	r4, #128	; 0x80
    4bb8:	0224      	lsls	r4, r4, #8
    4bba:	e7d2      	b.n	4b62 <system_clock_source_get_hz+0x16>
    4bbc:	4c06      	ldr	r4, [pc, #24]	; (4bd8 <system_clock_source_get_hz+0x8c>)
    4bbe:	e7d0      	b.n	4b62 <system_clock_source_get_hz+0x16>
    4bc0:	200053a4 	.word	0x200053a4
    4bc4:	40000800 	.word	0x40000800
    4bc8:	007a1200 	.word	0x007a1200
    4bcc:	00004b05 	.word	0x00004b05
    4bd0:	000051a5 	.word	0x000051a5
    4bd4:	40000850 	.word	0x40000850
    4bd8:	02dc6c00 	.word	0x02dc6c00

00004bdc <system_clock_source_osc8m_set_config>:
    4bdc:	b570      	push	{r4, r5, r6, lr}
    4bde:	7884      	ldrb	r4, [r0, #2]
    4be0:	7802      	ldrb	r2, [r0, #0]
    4be2:	7845      	ldrb	r5, [r0, #1]
    4be4:	2001      	movs	r0, #1
    4be6:	2640      	movs	r6, #64	; 0x40
    4be8:	4005      	ands	r5, r0
    4bea:	4020      	ands	r0, r4
    4bec:	2480      	movs	r4, #128	; 0x80
    4bee:	4908      	ldr	r1, [pc, #32]	; (4c10 <system_clock_source_osc8m_set_config+0x34>)
    4bf0:	01ad      	lsls	r5, r5, #6
    4bf2:	6a0b      	ldr	r3, [r1, #32]
    4bf4:	01c0      	lsls	r0, r0, #7
    4bf6:	43b3      	bics	r3, r6
    4bf8:	432b      	orrs	r3, r5
    4bfa:	43a3      	bics	r3, r4
    4bfc:	4303      	orrs	r3, r0
    4bfe:	2003      	movs	r0, #3
    4c00:	4002      	ands	r2, r0
    4c02:	4804      	ldr	r0, [pc, #16]	; (4c14 <system_clock_source_osc8m_set_config+0x38>)
    4c04:	0212      	lsls	r2, r2, #8
    4c06:	4003      	ands	r3, r0
    4c08:	4313      	orrs	r3, r2
    4c0a:	620b      	str	r3, [r1, #32]
    4c0c:	bd70      	pop	{r4, r5, r6, pc}
    4c0e:	46c0      	nop			; (mov r8, r8)
    4c10:	40000800 	.word	0x40000800
    4c14:	fffffcff 	.word	0xfffffcff

00004c18 <system_clock_source_xosc_set_config>:
    4c18:	b5f7      	push	{r0, r1, r2, r4, r5, r6, r7, lr}
    4c1a:	210f      	movs	r1, #15
    4c1c:	4b28      	ldr	r3, [pc, #160]	; (4cc0 <system_clock_source_xosc_set_config+0xa8>)
    4c1e:	7845      	ldrb	r5, [r0, #1]
    4c20:	469c      	mov	ip, r3
    4c22:	400d      	ands	r5, r1
    4c24:	7801      	ldrb	r1, [r0, #0]
    4c26:	8a1b      	ldrh	r3, [r3, #16]
    4c28:	424c      	negs	r4, r1
    4c2a:	4161      	adcs	r1, r4
    4c2c:	4664      	mov	r4, ip
    4c2e:	b2c9      	uxtb	r1, r1
    4c30:	9100      	str	r1, [sp, #0]
    4c32:	4f24      	ldr	r7, [pc, #144]	; (4cc4 <system_clock_source_xosc_set_config+0xac>)
    4c34:	6841      	ldr	r1, [r0, #4]
    4c36:	055a      	lsls	r2, r3, #21
    4c38:	7886      	ldrb	r6, [r0, #2]
    4c3a:	0f52      	lsrs	r2, r2, #29
    4c3c:	9401      	str	r4, [sp, #4]
    4c3e:	42b9      	cmp	r1, r7
    4c40:	d936      	bls.n	4cb0 <system_clock_source_xosc_set_config+0x98>
    4c42:	4f21      	ldr	r7, [pc, #132]	; (4cc8 <system_clock_source_xosc_set_config+0xb0>)
    4c44:	42b9      	cmp	r1, r7
    4c46:	d935      	bls.n	4cb4 <system_clock_source_xosc_set_config+0x9c>
    4c48:	4f20      	ldr	r7, [pc, #128]	; (4ccc <system_clock_source_xosc_set_config+0xb4>)
    4c4a:	42b9      	cmp	r1, r7
    4c4c:	d934      	bls.n	4cb8 <system_clock_source_xosc_set_config+0xa0>
    4c4e:	4f20      	ldr	r7, [pc, #128]	; (4cd0 <system_clock_source_xosc_set_config+0xb8>)
    4c50:	42b9      	cmp	r1, r7
    4c52:	d933      	bls.n	4cbc <system_clock_source_xosc_set_config+0xa4>
    4c54:	4f1f      	ldr	r7, [pc, #124]	; (4cd4 <system_clock_source_xosc_set_config+0xbc>)
    4c56:	42b9      	cmp	r1, r7
    4c58:	d800      	bhi.n	4c5c <system_clock_source_xosc_set_config+0x44>
    4c5a:	2204      	movs	r2, #4
    4c5c:	4c1e      	ldr	r4, [pc, #120]	; (4cd8 <system_clock_source_xosc_set_config+0xc0>)
    4c5e:	7a47      	ldrb	r7, [r0, #9]
    4c60:	7a00      	ldrb	r0, [r0, #8]
    4c62:	6121      	str	r1, [r4, #16]
    4c64:	2101      	movs	r1, #1
    4c66:	2404      	movs	r4, #4
    4c68:	468c      	mov	ip, r1
    4c6a:	9900      	ldr	r1, [sp, #0]
    4c6c:	43a3      	bics	r3, r4
    4c6e:	0089      	lsls	r1, r1, #2
    4c70:	430b      	orrs	r3, r1
    4c72:	4661      	mov	r1, ip
    4c74:	4008      	ands	r0, r1
    4c76:	313f      	adds	r1, #63	; 0x3f
    4c78:	438b      	bics	r3, r1
    4c7a:	0184      	lsls	r4, r0, #6
    4c7c:	0018      	movs	r0, r3
    4c7e:	4663      	mov	r3, ip
    4c80:	4320      	orrs	r0, r4
    4c82:	401f      	ands	r7, r3
    4c84:	337f      	adds	r3, #127	; 0x7f
    4c86:	4398      	bics	r0, r3
    4c88:	01f9      	lsls	r1, r7, #7
    4c8a:	0007      	movs	r7, r0
    4c8c:	0213      	lsls	r3, r2, #8
    4c8e:	4a13      	ldr	r2, [pc, #76]	; (4cdc <system_clock_source_xosc_set_config+0xc4>)
    4c90:	430f      	orrs	r7, r1
    4c92:	403a      	ands	r2, r7
    4c94:	431a      	orrs	r2, r3
    4c96:	4663      	mov	r3, ip
    4c98:	401e      	ands	r6, r3
    4c9a:	02f3      	lsls	r3, r6, #11
    4c9c:	4e10      	ldr	r6, [pc, #64]	; (4ce0 <system_clock_source_xosc_set_config+0xc8>)
    4c9e:	4016      	ands	r6, r2
    4ca0:	431e      	orrs	r6, r3
    4ca2:	032b      	lsls	r3, r5, #12
    4ca4:	0535      	lsls	r5, r6, #20
    4ca6:	0d2d      	lsrs	r5, r5, #20
    4ca8:	431d      	orrs	r5, r3
    4caa:	9b01      	ldr	r3, [sp, #4]
    4cac:	821d      	strh	r5, [r3, #16]
    4cae:	bdf7      	pop	{r0, r1, r2, r4, r5, r6, r7, pc}
    4cb0:	2200      	movs	r2, #0
    4cb2:	e7d3      	b.n	4c5c <system_clock_source_xosc_set_config+0x44>
    4cb4:	2201      	movs	r2, #1
    4cb6:	e7d1      	b.n	4c5c <system_clock_source_xosc_set_config+0x44>
    4cb8:	2202      	movs	r2, #2
    4cba:	e7cf      	b.n	4c5c <system_clock_source_xosc_set_config+0x44>
    4cbc:	2203      	movs	r2, #3
    4cbe:	e7cd      	b.n	4c5c <system_clock_source_xosc_set_config+0x44>
    4cc0:	40000800 	.word	0x40000800
    4cc4:	001e8480 	.word	0x001e8480
    4cc8:	003d0900 	.word	0x003d0900
    4ccc:	007a1200 	.word	0x007a1200
    4cd0:	00f42400 	.word	0x00f42400
    4cd4:	01e84800 	.word	0x01e84800
    4cd8:	200053a4 	.word	0x200053a4
    4cdc:	fffff8ff 	.word	0xfffff8ff
    4ce0:	fffff7ff 	.word	0xfffff7ff

00004ce4 <system_clock_source_dfll_set_config>:
    4ce4:	b510      	push	{r4, lr}
    4ce6:	7a02      	ldrb	r2, [r0, #8]
    4ce8:	8943      	ldrh	r3, [r0, #10]
    4cea:	0692      	lsls	r2, r2, #26
    4cec:	059b      	lsls	r3, r3, #22
    4cee:	0d9b      	lsrs	r3, r3, #22
    4cf0:	0c12      	lsrs	r2, r2, #16
    4cf2:	431a      	orrs	r2, r3
    4cf4:	4b17      	ldr	r3, [pc, #92]	; (4d54 <system_clock_source_dfll_set_config+0x70>)
    4cf6:	605a      	str	r2, [r3, #4]
    4cf8:	79c1      	ldrb	r1, [r0, #7]
    4cfa:	7982      	ldrb	r2, [r0, #6]
    4cfc:	8884      	ldrh	r4, [r0, #4]
    4cfe:	430a      	orrs	r2, r1
    4d00:	8841      	ldrh	r1, [r0, #2]
    4d02:	4321      	orrs	r1, r4
    4d04:	430a      	orrs	r2, r1
    4d06:	7841      	ldrb	r1, [r0, #1]
    4d08:	7804      	ldrb	r4, [r0, #0]
    4d0a:	01c9      	lsls	r1, r1, #7
    4d0c:	430a      	orrs	r2, r1
    4d0e:	601a      	str	r2, [r3, #0]
    4d10:	2c04      	cmp	r4, #4
    4d12:	d10d      	bne.n	4d30 <system_clock_source_dfll_set_config+0x4c>
    4d14:	7b02      	ldrb	r2, [r0, #12]
    4d16:	8a01      	ldrh	r1, [r0, #16]
    4d18:	0692      	lsls	r2, r2, #26
    4d1a:	430a      	orrs	r2, r1
    4d1c:	89c1      	ldrh	r1, [r0, #14]
    4d1e:	480e      	ldr	r0, [pc, #56]	; (4d58 <system_clock_source_dfll_set_config+0x74>)
    4d20:	0409      	lsls	r1, r1, #16
    4d22:	4001      	ands	r1, r0
    4d24:	430a      	orrs	r2, r1
    4d26:	609a      	str	r2, [r3, #8]
    4d28:	681a      	ldr	r2, [r3, #0]
    4d2a:	4314      	orrs	r4, r2
    4d2c:	601c      	str	r4, [r3, #0]
    4d2e:	bd10      	pop	{r4, pc}
    4d30:	2c20      	cmp	r4, #32
    4d32:	d1fc      	bne.n	4d2e <system_clock_source_dfll_set_config+0x4a>
    4d34:	7b02      	ldrb	r2, [r0, #12]
    4d36:	8a01      	ldrh	r1, [r0, #16]
    4d38:	0692      	lsls	r2, r2, #26
    4d3a:	430a      	orrs	r2, r1
    4d3c:	89c1      	ldrh	r1, [r0, #14]
    4d3e:	4806      	ldr	r0, [pc, #24]	; (4d58 <system_clock_source_dfll_set_config+0x74>)
    4d40:	0409      	lsls	r1, r1, #16
    4d42:	4001      	ands	r1, r0
    4d44:	430a      	orrs	r2, r1
    4d46:	609a      	str	r2, [r3, #8]
    4d48:	6819      	ldr	r1, [r3, #0]
    4d4a:	4a04      	ldr	r2, [pc, #16]	; (4d5c <system_clock_source_dfll_set_config+0x78>)
    4d4c:	430a      	orrs	r2, r1
    4d4e:	601a      	str	r2, [r3, #0]
    4d50:	e7ed      	b.n	4d2e <system_clock_source_dfll_set_config+0x4a>
    4d52:	46c0      	nop			; (mov r8, r8)
    4d54:	200053a4 	.word	0x200053a4
    4d58:	03ff0000 	.word	0x03ff0000
    4d5c:	00000424 	.word	0x00000424

00004d60 <system_clock_source_enable>:
    4d60:	b510      	push	{r4, lr}
    4d62:	2808      	cmp	r0, #8
    4d64:	d806      	bhi.n	4d74 <system_clock_source_enable+0x14>
    4d66:	f000 fb61 	bl	542c <__gnu_thumb1_case_uqi>
    4d6a:	0514      	.short	0x0514
    4d6c:	1a0e0c05 	.word	0x1a0e0c05
    4d70:	2007      	.short	0x2007
    4d72:	23          	.byte	0x23
    4d73:	00          	.byte	0x00
    4d74:	2017      	movs	r0, #23
    4d76:	bd10      	pop	{r4, pc}
    4d78:	2302      	movs	r3, #2
    4d7a:	4a10      	ldr	r2, [pc, #64]	; (4dbc <system_clock_source_enable+0x5c>)
    4d7c:	6a11      	ldr	r1, [r2, #32]
    4d7e:	430b      	orrs	r3, r1
    4d80:	6213      	str	r3, [r2, #32]
    4d82:	2000      	movs	r0, #0
    4d84:	e7f7      	b.n	4d76 <system_clock_source_enable+0x16>
    4d86:	2302      	movs	r3, #2
    4d88:	4a0c      	ldr	r2, [pc, #48]	; (4dbc <system_clock_source_enable+0x5c>)
    4d8a:	6991      	ldr	r1, [r2, #24]
    4d8c:	430b      	orrs	r3, r1
    4d8e:	6193      	str	r3, [r2, #24]
    4d90:	e7f7      	b.n	4d82 <system_clock_source_enable+0x22>
    4d92:	2302      	movs	r3, #2
    4d94:	4a09      	ldr	r2, [pc, #36]	; (4dbc <system_clock_source_enable+0x5c>)
    4d96:	8a11      	ldrh	r1, [r2, #16]
    4d98:	430b      	orrs	r3, r1
    4d9a:	8213      	strh	r3, [r2, #16]
    4d9c:	e7f1      	b.n	4d82 <system_clock_source_enable+0x22>
    4d9e:	2302      	movs	r3, #2
    4da0:	4a06      	ldr	r2, [pc, #24]	; (4dbc <system_clock_source_enable+0x5c>)
    4da2:	8a91      	ldrh	r1, [r2, #20]
    4da4:	430b      	orrs	r3, r1
    4da6:	8293      	strh	r3, [r2, #20]
    4da8:	e7eb      	b.n	4d82 <system_clock_source_enable+0x22>
    4daa:	4b05      	ldr	r3, [pc, #20]	; (4dc0 <system_clock_source_enable+0x60>)
    4dac:	4798      	blx	r3
    4dae:	e7e2      	b.n	4d76 <system_clock_source_enable+0x16>
    4db0:	2302      	movs	r3, #2
    4db2:	4a04      	ldr	r2, [pc, #16]	; (4dc4 <system_clock_source_enable+0x64>)
    4db4:	7811      	ldrb	r1, [r2, #0]
    4db6:	430b      	orrs	r3, r1
    4db8:	7013      	strb	r3, [r2, #0]
    4dba:	e7e2      	b.n	4d82 <system_clock_source_enable+0x22>
    4dbc:	40000800 	.word	0x40000800
    4dc0:	00004b15 	.word	0x00004b15
    4dc4:	40000844 	.word	0x40000844

00004dc8 <system_clock_init>:
    4dc8:	23c2      	movs	r3, #194	; 0xc2
    4dca:	221e      	movs	r2, #30
    4dcc:	b5f0      	push	{r4, r5, r6, r7, lr}
    4dce:	2400      	movs	r4, #0
    4dd0:	4e4b      	ldr	r6, [pc, #300]	; (4f00 <system_clock_init+0x138>)
    4dd2:	00db      	lsls	r3, r3, #3
    4dd4:	494b      	ldr	r1, [pc, #300]	; (4f04 <system_clock_init+0x13c>)
    4dd6:	60b3      	str	r3, [r6, #8]
    4dd8:	684b      	ldr	r3, [r1, #4]
    4dda:	b08d      	sub	sp, #52	; 0x34
    4ddc:	4393      	bics	r3, r2
    4dde:	3a1c      	subs	r2, #28
    4de0:	4313      	orrs	r3, r2
    4de2:	ad07      	add	r5, sp, #28
    4de4:	604b      	str	r3, [r1, #4]
    4de6:	702a      	strb	r2, [r5, #0]
    4de8:	b2e0      	uxtb	r0, r4
    4dea:	0029      	movs	r1, r5
    4dec:	4b46      	ldr	r3, [pc, #280]	; (4f08 <system_clock_init+0x140>)
    4dee:	3401      	adds	r4, #1
    4df0:	4798      	blx	r3
    4df2:	2c25      	cmp	r4, #37	; 0x25
    4df4:	d1f8      	bne.n	4de8 <system_clock_init+0x20>
    4df6:	4b45      	ldr	r3, [pc, #276]	; (4f0c <system_clock_init+0x144>)
    4df8:	a801      	add	r0, sp, #4
    4dfa:	6043      	str	r3, [r0, #4]
    4dfc:	230f      	movs	r3, #15
    4dfe:	2400      	movs	r4, #0
    4e00:	7043      	strb	r3, [r0, #1]
    4e02:	4b43      	ldr	r3, [pc, #268]	; (4f10 <system_clock_init+0x148>)
    4e04:	7004      	strb	r4, [r0, #0]
    4e06:	7084      	strb	r4, [r0, #2]
    4e08:	7204      	strb	r4, [r0, #8]
    4e0a:	7244      	strb	r4, [r0, #9]
    4e0c:	4798      	blx	r3
    4e0e:	0020      	movs	r0, r4
    4e10:	4c40      	ldr	r4, [pc, #256]	; (4f14 <system_clock_init+0x14c>)
    4e12:	47a0      	blx	r4
    4e14:	2301      	movs	r3, #1
    4e16:	68f2      	ldr	r2, [r6, #12]
    4e18:	421a      	tst	r2, r3
    4e1a:	d0fc      	beq.n	4e16 <system_clock_init+0x4e>
    4e1c:	2388      	movs	r3, #136	; 0x88
    4e1e:	8a32      	ldrh	r2, [r6, #16]
    4e20:	011b      	lsls	r3, r3, #4
    4e22:	4313      	orrs	r3, r2
    4e24:	8233      	strh	r3, [r6, #16]
    4e26:	2300      	movs	r3, #0
    4e28:	2206      	movs	r2, #6
    4e2a:	702b      	strb	r3, [r5, #0]
    4e2c:	806b      	strh	r3, [r5, #2]
    4e2e:	80ab      	strh	r3, [r5, #4]
    4e30:	71ab      	strb	r3, [r5, #6]
    4e32:	71eb      	strb	r3, [r5, #7]
    4e34:	706b      	strb	r3, [r5, #1]
    4e36:	4b38      	ldr	r3, [pc, #224]	; (4f18 <system_clock_init+0x150>)
    4e38:	822a      	strh	r2, [r5, #16]
    4e3a:	681b      	ldr	r3, [r3, #0]
    4e3c:	0e9b      	lsrs	r3, r3, #26
    4e3e:	2b3f      	cmp	r3, #63	; 0x3f
    4e40:	d100      	bne.n	4e44 <system_clock_init+0x7c>
    4e42:	3b20      	subs	r3, #32
    4e44:	722b      	strb	r3, [r5, #8]
    4e46:	2380      	movs	r3, #128	; 0x80
    4e48:	009b      	lsls	r3, r3, #2
    4e4a:	816b      	strh	r3, [r5, #10]
    4e4c:	3bfa      	subs	r3, #250	; 0xfa
    4e4e:	3bff      	subs	r3, #255	; 0xff
    4e50:	732b      	strb	r3, [r5, #12]
    4e52:	3338      	adds	r3, #56	; 0x38
    4e54:	81eb      	strh	r3, [r5, #14]
    4e56:	0028      	movs	r0, r5
    4e58:	4b30      	ldr	r3, [pc, #192]	; (4f1c <system_clock_init+0x154>)
    4e5a:	2500      	movs	r5, #0
    4e5c:	4798      	blx	r3
    4e5e:	2701      	movs	r7, #1
    4e60:	466b      	mov	r3, sp
    4e62:	4668      	mov	r0, sp
    4e64:	705d      	strb	r5, [r3, #1]
    4e66:	709f      	strb	r7, [r3, #2]
    4e68:	701d      	strb	r5, [r3, #0]
    4e6a:	4b2d      	ldr	r3, [pc, #180]	; (4f20 <system_clock_init+0x158>)
    4e6c:	4798      	blx	r3
    4e6e:	2006      	movs	r0, #6
    4e70:	47a0      	blx	r4
    4e72:	4b2c      	ldr	r3, [pc, #176]	; (4f24 <system_clock_init+0x15c>)
    4e74:	4798      	blx	r3
    4e76:	2306      	movs	r3, #6
    4e78:	ac04      	add	r4, sp, #16
    4e7a:	0021      	movs	r1, r4
    4e7c:	7023      	strb	r3, [r4, #0]
    4e7e:	0038      	movs	r0, r7
    4e80:	4b29      	ldr	r3, [pc, #164]	; (4f28 <system_clock_init+0x160>)
    4e82:	6067      	str	r7, [r4, #4]
    4e84:	7065      	strb	r5, [r4, #1]
    4e86:	7225      	strb	r5, [r4, #8]
    4e88:	7265      	strb	r5, [r4, #9]
    4e8a:	4798      	blx	r3
    4e8c:	0038      	movs	r0, r7
    4e8e:	4b27      	ldr	r3, [pc, #156]	; (4f2c <system_clock_init+0x164>)
    4e90:	4798      	blx	r3
    4e92:	0021      	movs	r1, r4
    4e94:	2003      	movs	r0, #3
    4e96:	4b24      	ldr	r3, [pc, #144]	; (4f28 <system_clock_init+0x160>)
    4e98:	6067      	str	r7, [r4, #4]
    4e9a:	7065      	strb	r5, [r4, #1]
    4e9c:	7225      	strb	r5, [r4, #8]
    4e9e:	7265      	strb	r5, [r4, #9]
    4ea0:	7025      	strb	r5, [r4, #0]
    4ea2:	4798      	blx	r3
    4ea4:	2003      	movs	r0, #3
    4ea6:	4b21      	ldr	r3, [pc, #132]	; (4f2c <system_clock_init+0x164>)
    4ea8:	4798      	blx	r3
    4eaa:	2306      	movs	r3, #6
    4eac:	7023      	strb	r3, [r4, #0]
    4eae:	23ff      	movs	r3, #255	; 0xff
    4eb0:	0021      	movs	r1, r4
    4eb2:	6063      	str	r3, [r4, #4]
    4eb4:	2004      	movs	r0, #4
    4eb6:	4b1c      	ldr	r3, [pc, #112]	; (4f28 <system_clock_init+0x160>)
    4eb8:	7065      	strb	r5, [r4, #1]
    4eba:	7225      	strb	r5, [r4, #8]
    4ebc:	7265      	strb	r5, [r4, #9]
    4ebe:	4798      	blx	r3
    4ec0:	2004      	movs	r0, #4
    4ec2:	4b1a      	ldr	r3, [pc, #104]	; (4f2c <system_clock_init+0x164>)
    4ec4:	4798      	blx	r3
    4ec6:	4b1a      	ldr	r3, [pc, #104]	; (4f30 <system_clock_init+0x168>)
    4ec8:	4798      	blx	r3
    4eca:	2310      	movs	r3, #16
    4ecc:	68f2      	ldr	r2, [r6, #12]
    4ece:	421a      	tst	r2, r3
    4ed0:	d0fc      	beq.n	4ecc <system_clock_init+0x104>
    4ed2:	2500      	movs	r5, #0
    4ed4:	4b17      	ldr	r3, [pc, #92]	; (4f34 <system_clock_init+0x16c>)
    4ed6:	0021      	movs	r1, r4
    4ed8:	721d      	strb	r5, [r3, #8]
    4eda:	725d      	strb	r5, [r3, #9]
    4edc:	729d      	strb	r5, [r3, #10]
    4ede:	72dd      	strb	r5, [r3, #11]
    4ee0:	2301      	movs	r3, #1
    4ee2:	6063      	str	r3, [r4, #4]
    4ee4:	3306      	adds	r3, #6
    4ee6:	7023      	strb	r3, [r4, #0]
    4ee8:	0028      	movs	r0, r5
    4eea:	4b0f      	ldr	r3, [pc, #60]	; (4f28 <system_clock_init+0x160>)
    4eec:	7065      	strb	r5, [r4, #1]
    4eee:	7225      	strb	r5, [r4, #8]
    4ef0:	7265      	strb	r5, [r4, #9]
    4ef2:	4798      	blx	r3
    4ef4:	0028      	movs	r0, r5
    4ef6:	4b0d      	ldr	r3, [pc, #52]	; (4f2c <system_clock_init+0x164>)
    4ef8:	4798      	blx	r3
    4efa:	b00d      	add	sp, #52	; 0x34
    4efc:	bdf0      	pop	{r4, r5, r6, r7, pc}
    4efe:	46c0      	nop			; (mov r8, r8)
    4f00:	40000800 	.word	0x40000800
    4f04:	41004000 	.word	0x41004000
    4f08:	00005159 	.word	0x00005159
    4f0c:	00b71b00 	.word	0x00b71b00
    4f10:	00004c19 	.word	0x00004c19
    4f14:	00004d61 	.word	0x00004d61
    4f18:	00806024 	.word	0x00806024
    4f1c:	00004ce5 	.word	0x00004ce5
    4f20:	00004bdd 	.word	0x00004bdd
    4f24:	00004f45 	.word	0x00004f45
    4f28:	00004f65 	.word	0x00004f65
    4f2c:	00005009 	.word	0x00005009
    4f30:	00004b15 	.word	0x00004b15
    4f34:	40000400 	.word	0x40000400

00004f38 <system_gclk_is_syncing>:
    4f38:	4b01      	ldr	r3, [pc, #4]	; (4f40 <system_gclk_is_syncing+0x8>)
    4f3a:	7858      	ldrb	r0, [r3, #1]
    4f3c:	09c0      	lsrs	r0, r0, #7
    4f3e:	4770      	bx	lr
    4f40:	40000c00 	.word	0x40000c00

00004f44 <system_gclk_init>:
    4f44:	2308      	movs	r3, #8
    4f46:	4a05      	ldr	r2, [pc, #20]	; (4f5c <system_gclk_init+0x18>)
    4f48:	6991      	ldr	r1, [r2, #24]
    4f4a:	430b      	orrs	r3, r1
    4f4c:	6193      	str	r3, [r2, #24]
    4f4e:	2301      	movs	r3, #1
    4f50:	4a03      	ldr	r2, [pc, #12]	; (4f60 <system_gclk_init+0x1c>)
    4f52:	7013      	strb	r3, [r2, #0]
    4f54:	7811      	ldrb	r1, [r2, #0]
    4f56:	4219      	tst	r1, r3
    4f58:	d1fc      	bne.n	4f54 <system_gclk_init+0x10>
    4f5a:	4770      	bx	lr
    4f5c:	40000400 	.word	0x40000400
    4f60:	40000c00 	.word	0x40000c00

00004f64 <system_gclk_gen_set_config>:
    4f64:	b5f8      	push	{r3, r4, r5, r6, r7, lr}
    4f66:	780c      	ldrb	r4, [r1, #0]
    4f68:	784b      	ldrb	r3, [r1, #1]
    4f6a:	0224      	lsls	r4, r4, #8
    4f6c:	0006      	movs	r6, r0
    4f6e:	0005      	movs	r5, r0
    4f70:	4304      	orrs	r4, r0
    4f72:	2b00      	cmp	r3, #0
    4f74:	d002      	beq.n	4f7c <system_gclk_gen_set_config+0x18>
    4f76:	2380      	movs	r3, #128	; 0x80
    4f78:	02db      	lsls	r3, r3, #11
    4f7a:	431c      	orrs	r4, r3
    4f7c:	7a4b      	ldrb	r3, [r1, #9]
    4f7e:	2b00      	cmp	r3, #0
    4f80:	d002      	beq.n	4f88 <system_gclk_gen_set_config+0x24>
    4f82:	2380      	movs	r3, #128	; 0x80
    4f84:	031b      	lsls	r3, r3, #12
    4f86:	431c      	orrs	r4, r3
    4f88:	684b      	ldr	r3, [r1, #4]
    4f8a:	2b01      	cmp	r3, #1
    4f8c:	d912      	bls.n	4fb4 <system_gclk_gen_set_config+0x50>
    4f8e:	1e5d      	subs	r5, r3, #1
    4f90:	401d      	ands	r5, r3
    4f92:	2202      	movs	r2, #2
    4f94:	2d00      	cmp	r5, #0
    4f96:	d006      	beq.n	4fa6 <system_gclk_gen_set_config+0x42>
    4f98:	021d      	lsls	r5, r3, #8
    4f9a:	2380      	movs	r3, #128	; 0x80
    4f9c:	4335      	orrs	r5, r6
    4f9e:	029b      	lsls	r3, r3, #10
    4fa0:	e007      	b.n	4fb2 <system_gclk_gen_set_config+0x4e>
    4fa2:	3501      	adds	r5, #1
    4fa4:	0052      	lsls	r2, r2, #1
    4fa6:	429a      	cmp	r2, r3
    4fa8:	d3fb      	bcc.n	4fa2 <system_gclk_gen_set_config+0x3e>
    4faa:	2380      	movs	r3, #128	; 0x80
    4fac:	022d      	lsls	r5, r5, #8
    4fae:	4335      	orrs	r5, r6
    4fb0:	035b      	lsls	r3, r3, #13
    4fb2:	431c      	orrs	r4, r3
    4fb4:	7a0b      	ldrb	r3, [r1, #8]
    4fb6:	2b00      	cmp	r3, #0
    4fb8:	d002      	beq.n	4fc0 <system_gclk_gen_set_config+0x5c>
    4fba:	2380      	movs	r3, #128	; 0x80
    4fbc:	039b      	lsls	r3, r3, #14
    4fbe:	431c      	orrs	r4, r3
    4fc0:	4f0c      	ldr	r7, [pc, #48]	; (4ff4 <system_gclk_gen_set_config+0x90>)
    4fc2:	47b8      	blx	r7
    4fc4:	2800      	cmp	r0, #0
    4fc6:	d1fb      	bne.n	4fc0 <system_gclk_gen_set_config+0x5c>
    4fc8:	4b0b      	ldr	r3, [pc, #44]	; (4ff8 <system_gclk_gen_set_config+0x94>)
    4fca:	4798      	blx	r3
    4fcc:	4b0b      	ldr	r3, [pc, #44]	; (4ffc <system_gclk_gen_set_config+0x98>)
    4fce:	701e      	strb	r6, [r3, #0]
    4fd0:	47b8      	blx	r7
    4fd2:	2800      	cmp	r0, #0
    4fd4:	d1fc      	bne.n	4fd0 <system_gclk_gen_set_config+0x6c>
    4fd6:	4b0a      	ldr	r3, [pc, #40]	; (5000 <system_gclk_gen_set_config+0x9c>)
    4fd8:	609d      	str	r5, [r3, #8]
    4fda:	001d      	movs	r5, r3
    4fdc:	47b8      	blx	r7
    4fde:	2800      	cmp	r0, #0
    4fe0:	d1fc      	bne.n	4fdc <system_gclk_gen_set_config+0x78>
    4fe2:	2280      	movs	r2, #128	; 0x80
    4fe4:	686b      	ldr	r3, [r5, #4]
    4fe6:	0252      	lsls	r2, r2, #9
    4fe8:	4013      	ands	r3, r2
    4fea:	431c      	orrs	r4, r3
    4fec:	606c      	str	r4, [r5, #4]
    4fee:	4b05      	ldr	r3, [pc, #20]	; (5004 <system_gclk_gen_set_config+0xa0>)
    4ff0:	4798      	blx	r3
    4ff2:	bdf8      	pop	{r3, r4, r5, r6, r7, pc}
    4ff4:	00004f39 	.word	0x00004f39
    4ff8:	00004aa1 	.word	0x00004aa1
    4ffc:	40000c08 	.word	0x40000c08
    5000:	40000c00 	.word	0x40000c00
    5004:	00004ad5 	.word	0x00004ad5

00005008 <system_gclk_gen_enable>:
    5008:	b570      	push	{r4, r5, r6, lr}
    500a:	0005      	movs	r5, r0
    500c:	4c09      	ldr	r4, [pc, #36]	; (5034 <system_gclk_gen_enable+0x2c>)
    500e:	47a0      	blx	r4
    5010:	2800      	cmp	r0, #0
    5012:	d1fb      	bne.n	500c <system_gclk_gen_enable+0x4>
    5014:	4b08      	ldr	r3, [pc, #32]	; (5038 <system_gclk_gen_enable+0x30>)
    5016:	4798      	blx	r3
    5018:	4b08      	ldr	r3, [pc, #32]	; (503c <system_gclk_gen_enable+0x34>)
    501a:	701d      	strb	r5, [r3, #0]
    501c:	47a0      	blx	r4
    501e:	2800      	cmp	r0, #0
    5020:	d1fc      	bne.n	501c <system_gclk_gen_enable+0x14>
    5022:	2380      	movs	r3, #128	; 0x80
    5024:	4a06      	ldr	r2, [pc, #24]	; (5040 <system_gclk_gen_enable+0x38>)
    5026:	025b      	lsls	r3, r3, #9
    5028:	6851      	ldr	r1, [r2, #4]
    502a:	430b      	orrs	r3, r1
    502c:	6053      	str	r3, [r2, #4]
    502e:	4b05      	ldr	r3, [pc, #20]	; (5044 <system_gclk_gen_enable+0x3c>)
    5030:	4798      	blx	r3
    5032:	bd70      	pop	{r4, r5, r6, pc}
    5034:	00004f39 	.word	0x00004f39
    5038:	00004aa1 	.word	0x00004aa1
    503c:	40000c04 	.word	0x40000c04
    5040:	40000c00 	.word	0x40000c00
    5044:	00004ad5 	.word	0x00004ad5

00005048 <system_gclk_gen_get_hz>:
    5048:	b5f7      	push	{r0, r1, r2, r4, r5, r6, r7, lr}
    504a:	0007      	movs	r7, r0
    504c:	4e18      	ldr	r6, [pc, #96]	; (50b0 <system_gclk_gen_get_hz+0x68>)
    504e:	47b0      	blx	r6
    5050:	2800      	cmp	r0, #0
    5052:	d1fb      	bne.n	504c <system_gclk_gen_get_hz+0x4>
    5054:	4b17      	ldr	r3, [pc, #92]	; (50b4 <system_gclk_gen_get_hz+0x6c>)
    5056:	4798      	blx	r3
    5058:	4b17      	ldr	r3, [pc, #92]	; (50b8 <system_gclk_gen_get_hz+0x70>)
    505a:	701f      	strb	r7, [r3, #0]
    505c:	9301      	str	r3, [sp, #4]
    505e:	47b0      	blx	r6
    5060:	2800      	cmp	r0, #0
    5062:	d1fc      	bne.n	505e <system_gclk_gen_get_hz+0x16>
    5064:	4d15      	ldr	r5, [pc, #84]	; (50bc <system_gclk_gen_get_hz+0x74>)
    5066:	4b16      	ldr	r3, [pc, #88]	; (50c0 <system_gclk_gen_get_hz+0x78>)
    5068:	6868      	ldr	r0, [r5, #4]
    506a:	04c0      	lsls	r0, r0, #19
    506c:	0ec0      	lsrs	r0, r0, #27
    506e:	4798      	blx	r3
    5070:	0004      	movs	r4, r0
    5072:	9b01      	ldr	r3, [sp, #4]
    5074:	701f      	strb	r7, [r3, #0]
    5076:	686b      	ldr	r3, [r5, #4]
    5078:	02db      	lsls	r3, r3, #11
    507a:	0fdb      	lsrs	r3, r3, #31
    507c:	9301      	str	r3, [sp, #4]
    507e:	4b11      	ldr	r3, [pc, #68]	; (50c4 <system_gclk_gen_get_hz+0x7c>)
    5080:	701f      	strb	r7, [r3, #0]
    5082:	47b0      	blx	r6
    5084:	2800      	cmp	r0, #0
    5086:	d1fc      	bne.n	5082 <system_gclk_gen_get_hz+0x3a>
    5088:	68ad      	ldr	r5, [r5, #8]
    508a:	4b0f      	ldr	r3, [pc, #60]	; (50c8 <system_gclk_gen_get_hz+0x80>)
    508c:	4798      	blx	r3
    508e:	9b01      	ldr	r3, [sp, #4]
    5090:	022d      	lsls	r5, r5, #8
    5092:	0c2d      	lsrs	r5, r5, #16
    5094:	2b00      	cmp	r3, #0
    5096:	d108      	bne.n	50aa <system_gclk_gen_get_hz+0x62>
    5098:	2d01      	cmp	r5, #1
    509a:	d904      	bls.n	50a6 <system_gclk_gen_get_hz+0x5e>
    509c:	0020      	movs	r0, r4
    509e:	0029      	movs	r1, r5
    50a0:	4b0a      	ldr	r3, [pc, #40]	; (50cc <system_gclk_gen_get_hz+0x84>)
    50a2:	4798      	blx	r3
    50a4:	0004      	movs	r4, r0
    50a6:	0020      	movs	r0, r4
    50a8:	bdfe      	pop	{r1, r2, r3, r4, r5, r6, r7, pc}
    50aa:	3501      	adds	r5, #1
    50ac:	40ec      	lsrs	r4, r5
    50ae:	e7fa      	b.n	50a6 <system_gclk_gen_get_hz+0x5e>
    50b0:	00004f39 	.word	0x00004f39
    50b4:	00004aa1 	.word	0x00004aa1
    50b8:	40000c04 	.word	0x40000c04
    50bc:	40000c00 	.word	0x40000c00
    50c0:	00004b4d 	.word	0x00004b4d
    50c4:	40000c08 	.word	0x40000c08
    50c8:	00004ad5 	.word	0x00004ad5
    50cc:	00005441 	.word	0x00005441

000050d0 <system_gclk_chan_enable>:
    50d0:	b510      	push	{r4, lr}
    50d2:	0004      	movs	r4, r0
    50d4:	4b06      	ldr	r3, [pc, #24]	; (50f0 <system_gclk_chan_enable+0x20>)
    50d6:	4798      	blx	r3
    50d8:	4b06      	ldr	r3, [pc, #24]	; (50f4 <system_gclk_chan_enable+0x24>)
    50da:	4a07      	ldr	r2, [pc, #28]	; (50f8 <system_gclk_chan_enable+0x28>)
    50dc:	701c      	strb	r4, [r3, #0]
    50de:	2380      	movs	r3, #128	; 0x80
    50e0:	8851      	ldrh	r1, [r2, #2]
    50e2:	01db      	lsls	r3, r3, #7
    50e4:	430b      	orrs	r3, r1
    50e6:	8053      	strh	r3, [r2, #2]
    50e8:	4b04      	ldr	r3, [pc, #16]	; (50fc <system_gclk_chan_enable+0x2c>)
    50ea:	4798      	blx	r3
    50ec:	bd10      	pop	{r4, pc}
    50ee:	46c0      	nop			; (mov r8, r8)
    50f0:	00004aa1 	.word	0x00004aa1
    50f4:	40000c02 	.word	0x40000c02
    50f8:	40000c00 	.word	0x40000c00
    50fc:	00004ad5 	.word	0x00004ad5

00005100 <system_gclk_chan_disable>:
    5100:	b510      	push	{r4, lr}
    5102:	0004      	movs	r4, r0
    5104:	4b0e      	ldr	r3, [pc, #56]	; (5140 <system_gclk_chan_disable+0x40>)
    5106:	4798      	blx	r3
    5108:	4b0e      	ldr	r3, [pc, #56]	; (5144 <system_gclk_chan_disable+0x44>)
    510a:	4a0f      	ldr	r2, [pc, #60]	; (5148 <system_gclk_chan_disable+0x48>)
    510c:	701c      	strb	r4, [r3, #0]
    510e:	4b0f      	ldr	r3, [pc, #60]	; (514c <system_gclk_chan_disable+0x4c>)
    5110:	4c0f      	ldr	r4, [pc, #60]	; (5150 <system_gclk_chan_disable+0x50>)
    5112:	8858      	ldrh	r0, [r3, #2]
    5114:	8859      	ldrh	r1, [r3, #2]
    5116:	0500      	lsls	r0, r0, #20
    5118:	4011      	ands	r1, r2
    511a:	8059      	strh	r1, [r3, #2]
    511c:	8859      	ldrh	r1, [r3, #2]
    511e:	0f00      	lsrs	r0, r0, #28
    5120:	4021      	ands	r1, r4
    5122:	8059      	strh	r1, [r3, #2]
    5124:	0011      	movs	r1, r2
    5126:	2280      	movs	r2, #128	; 0x80
    5128:	01d2      	lsls	r2, r2, #7
    512a:	885c      	ldrh	r4, [r3, #2]
    512c:	4214      	tst	r4, r2
    512e:	d1fc      	bne.n	512a <system_gclk_chan_disable+0x2a>
    5130:	885a      	ldrh	r2, [r3, #2]
    5132:	0200      	lsls	r0, r0, #8
    5134:	400a      	ands	r2, r1
    5136:	4302      	orrs	r2, r0
    5138:	805a      	strh	r2, [r3, #2]
    513a:	4b06      	ldr	r3, [pc, #24]	; (5154 <system_gclk_chan_disable+0x54>)
    513c:	4798      	blx	r3
    513e:	bd10      	pop	{r4, pc}
    5140:	00004aa1 	.word	0x00004aa1
    5144:	40000c02 	.word	0x40000c02
    5148:	fffff0ff 	.word	0xfffff0ff
    514c:	40000c00 	.word	0x40000c00
    5150:	ffffbfff 	.word	0xffffbfff
    5154:	00004ad5 	.word	0x00004ad5

00005158 <system_gclk_chan_set_config>:
    5158:	b510      	push	{r4, lr}
    515a:	780c      	ldrb	r4, [r1, #0]
    515c:	4b03      	ldr	r3, [pc, #12]	; (516c <system_gclk_chan_set_config+0x14>)
    515e:	0224      	lsls	r4, r4, #8
    5160:	4304      	orrs	r4, r0
    5162:	4798      	blx	r3
    5164:	4b02      	ldr	r3, [pc, #8]	; (5170 <system_gclk_chan_set_config+0x18>)
    5166:	b2a4      	uxth	r4, r4
    5168:	805c      	strh	r4, [r3, #2]
    516a:	bd10      	pop	{r4, pc}
    516c:	00005101 	.word	0x00005101
    5170:	40000c00 	.word	0x40000c00

00005174 <system_gclk_chan_lock>:
    5174:	b510      	push	{r4, lr}
    5176:	0004      	movs	r4, r0
    5178:	4b06      	ldr	r3, [pc, #24]	; (5194 <system_gclk_chan_lock+0x20>)
    517a:	4798      	blx	r3
    517c:	21c0      	movs	r1, #192	; 0xc0
    517e:	4b06      	ldr	r3, [pc, #24]	; (5198 <system_gclk_chan_lock+0x24>)
    5180:	4a06      	ldr	r2, [pc, #24]	; (519c <system_gclk_chan_lock+0x28>)
    5182:	701c      	strb	r4, [r3, #0]
    5184:	8853      	ldrh	r3, [r2, #2]
    5186:	0209      	lsls	r1, r1, #8
    5188:	430b      	orrs	r3, r1
    518a:	8053      	strh	r3, [r2, #2]
    518c:	4b04      	ldr	r3, [pc, #16]	; (51a0 <system_gclk_chan_lock+0x2c>)
    518e:	4798      	blx	r3
    5190:	bd10      	pop	{r4, pc}
    5192:	46c0      	nop			; (mov r8, r8)
    5194:	00004aa1 	.word	0x00004aa1
    5198:	40000c02 	.word	0x40000c02
    519c:	40000c00 	.word	0x40000c00
    51a0:	00004ad5 	.word	0x00004ad5

000051a4 <system_gclk_chan_get_hz>:
    51a4:	b510      	push	{r4, lr}
    51a6:	0004      	movs	r4, r0
    51a8:	4b06      	ldr	r3, [pc, #24]	; (51c4 <system_gclk_chan_get_hz+0x20>)
    51aa:	4798      	blx	r3
    51ac:	4b06      	ldr	r3, [pc, #24]	; (51c8 <system_gclk_chan_get_hz+0x24>)
    51ae:	701c      	strb	r4, [r3, #0]
    51b0:	4b06      	ldr	r3, [pc, #24]	; (51cc <system_gclk_chan_get_hz+0x28>)
    51b2:	885c      	ldrh	r4, [r3, #2]
    51b4:	4b06      	ldr	r3, [pc, #24]	; (51d0 <system_gclk_chan_get_hz+0x2c>)
    51b6:	0524      	lsls	r4, r4, #20
    51b8:	0f24      	lsrs	r4, r4, #28
    51ba:	4798      	blx	r3
    51bc:	0020      	movs	r0, r4
    51be:	4b05      	ldr	r3, [pc, #20]	; (51d4 <system_gclk_chan_get_hz+0x30>)
    51c0:	4798      	blx	r3
    51c2:	bd10      	pop	{r4, pc}
    51c4:	00004aa1 	.word	0x00004aa1
    51c8:	40000c02 	.word	0x40000c02
    51cc:	40000c00 	.word	0x40000c00
    51d0:	00004ad5 	.word	0x00004ad5
    51d4:	00005049 	.word	0x00005049

000051d8 <_system_pinmux_config>:
    51d8:	78d3      	ldrb	r3, [r2, #3]
    51da:	b530      	push	{r4, r5, lr}
    51dc:	2b00      	cmp	r3, #0
    51de:	d135      	bne.n	524c <_system_pinmux_config+0x74>
    51e0:	7814      	ldrb	r4, [r2, #0]
    51e2:	2c80      	cmp	r4, #128	; 0x80
    51e4:	d003      	beq.n	51ee <_system_pinmux_config+0x16>
    51e6:	2380      	movs	r3, #128	; 0x80
    51e8:	0624      	lsls	r4, r4, #24
    51ea:	025b      	lsls	r3, r3, #9
    51ec:	4323      	orrs	r3, r4
    51ee:	2502      	movs	r5, #2
    51f0:	7854      	ldrb	r4, [r2, #1]
    51f2:	43ac      	bics	r4, r5
    51f4:	d106      	bne.n	5204 <_system_pinmux_config+0x2c>
    51f6:	7894      	ldrb	r4, [r2, #2]
    51f8:	2c00      	cmp	r4, #0
    51fa:	d124      	bne.n	5246 <_system_pinmux_config+0x6e>
    51fc:	2480      	movs	r4, #128	; 0x80
    51fe:	02a4      	lsls	r4, r4, #10
    5200:	4323      	orrs	r3, r4
    5202:	6041      	str	r1, [r0, #4]
    5204:	7854      	ldrb	r4, [r2, #1]
    5206:	3c01      	subs	r4, #1
    5208:	2c01      	cmp	r4, #1
    520a:	d801      	bhi.n	5210 <_system_pinmux_config+0x38>
    520c:	4c12      	ldr	r4, [pc, #72]	; (5258 <_system_pinmux_config+0x80>)
    520e:	4023      	ands	r3, r4
    5210:	24a0      	movs	r4, #160	; 0xa0
    5212:	b28d      	uxth	r5, r1
    5214:	05e4      	lsls	r4, r4, #23
    5216:	432c      	orrs	r4, r5
    5218:	431c      	orrs	r4, r3
    521a:	6284      	str	r4, [r0, #40]	; 0x28
    521c:	24d0      	movs	r4, #208	; 0xd0
    521e:	0c0d      	lsrs	r5, r1, #16
    5220:	0624      	lsls	r4, r4, #24
    5222:	432c      	orrs	r4, r5
    5224:	431c      	orrs	r4, r3
    5226:	6284      	str	r4, [r0, #40]	; 0x28
    5228:	78d4      	ldrb	r4, [r2, #3]
    522a:	2c00      	cmp	r4, #0
    522c:	d10a      	bne.n	5244 <_system_pinmux_config+0x6c>
    522e:	035b      	lsls	r3, r3, #13
    5230:	d503      	bpl.n	523a <_system_pinmux_config+0x62>
    5232:	7893      	ldrb	r3, [r2, #2]
    5234:	2b01      	cmp	r3, #1
    5236:	d10c      	bne.n	5252 <_system_pinmux_config+0x7a>
    5238:	6181      	str	r1, [r0, #24]
    523a:	7853      	ldrb	r3, [r2, #1]
    523c:	3b01      	subs	r3, #1
    523e:	2b01      	cmp	r3, #1
    5240:	d800      	bhi.n	5244 <_system_pinmux_config+0x6c>
    5242:	6081      	str	r1, [r0, #8]
    5244:	bd30      	pop	{r4, r5, pc}
    5246:	24c0      	movs	r4, #192	; 0xc0
    5248:	02e4      	lsls	r4, r4, #11
    524a:	e7d9      	b.n	5200 <_system_pinmux_config+0x28>
    524c:	6041      	str	r1, [r0, #4]
    524e:	2300      	movs	r3, #0
    5250:	e7de      	b.n	5210 <_system_pinmux_config+0x38>
    5252:	6141      	str	r1, [r0, #20]
    5254:	e7f1      	b.n	523a <_system_pinmux_config+0x62>
    5256:	46c0      	nop			; (mov r8, r8)
    5258:	fffbffff 	.word	0xfffbffff

0000525c <system_pinmux_pin_set_config>:
    525c:	b510      	push	{r4, lr}
    525e:	0003      	movs	r3, r0
    5260:	000a      	movs	r2, r1
    5262:	0944      	lsrs	r4, r0, #5
    5264:	09c1      	lsrs	r1, r0, #7
    5266:	2000      	movs	r0, #0
    5268:	4281      	cmp	r1, r0
    526a:	d102      	bne.n	5272 <system_pinmux_pin_set_config+0x16>
    526c:	4904      	ldr	r1, [pc, #16]	; (5280 <system_pinmux_pin_set_config+0x24>)
    526e:	01e0      	lsls	r0, r4, #7
    5270:	1840      	adds	r0, r0, r1
    5272:	211f      	movs	r1, #31
    5274:	400b      	ands	r3, r1
    5276:	391e      	subs	r1, #30
    5278:	4099      	lsls	r1, r3
    527a:	4b02      	ldr	r3, [pc, #8]	; (5284 <system_pinmux_pin_set_config+0x28>)
    527c:	4798      	blx	r3
    527e:	bd10      	pop	{r4, pc}
    5280:	41004400 	.word	0x41004400
    5284:	000051d9 	.word	0x000051d9

00005288 <_system_dummy_init>:
    5288:	4770      	bx	lr
	...

0000528c <system_init>:
    528c:	b510      	push	{r4, lr}
    528e:	4b05      	ldr	r3, [pc, #20]	; (52a4 <system_init+0x18>)
    5290:	4798      	blx	r3
    5292:	4b05      	ldr	r3, [pc, #20]	; (52a8 <system_init+0x1c>)
    5294:	4798      	blx	r3
    5296:	4b05      	ldr	r3, [pc, #20]	; (52ac <system_init+0x20>)
    5298:	4798      	blx	r3
    529a:	4b05      	ldr	r3, [pc, #20]	; (52b0 <system_init+0x24>)
    529c:	4798      	blx	r3
    529e:	4b05      	ldr	r3, [pc, #20]	; (52b4 <system_init+0x28>)
    52a0:	4798      	blx	r3
    52a2:	bd10      	pop	{r4, pc}
    52a4:	00004dc9 	.word	0x00004dc9
    52a8:	00004951 	.word	0x00004951
    52ac:	00005289 	.word	0x00005289
    52b0:	00005289 	.word	0x00005289
    52b4:	00005289 	.word	0x00005289

000052b8 <Dummy_Handler>:
    52b8:	e7fe      	b.n	52b8 <Dummy_Handler>
	...

000052bc <Reset_Handler>:
    52bc:	4821      	ldr	r0, [pc, #132]	; (5344 <Reset_Handler+0x88>)
    52be:	4922      	ldr	r1, [pc, #136]	; (5348 <Reset_Handler+0x8c>)
    52c0:	b570      	push	{r4, r5, r6, lr}
    52c2:	4288      	cmp	r0, r1
    52c4:	d004      	beq.n	52d0 <Reset_Handler+0x14>
    52c6:	2300      	movs	r3, #0
    52c8:	4c20      	ldr	r4, [pc, #128]	; (534c <Reset_Handler+0x90>)
    52ca:	18ca      	adds	r2, r1, r3
    52cc:	42a2      	cmp	r2, r4
    52ce:	d332      	bcc.n	5336 <Reset_Handler+0x7a>
    52d0:	2100      	movs	r1, #0
    52d2:	4b1f      	ldr	r3, [pc, #124]	; (5350 <Reset_Handler+0x94>)
    52d4:	4a1f      	ldr	r2, [pc, #124]	; (5354 <Reset_Handler+0x98>)
    52d6:	4293      	cmp	r3, r2
    52d8:	d331      	bcc.n	533e <Reset_Handler+0x82>
    52da:	21ff      	movs	r1, #255	; 0xff
    52dc:	4b1e      	ldr	r3, [pc, #120]	; (5358 <Reset_Handler+0x9c>)
    52de:	4a1f      	ldr	r2, [pc, #124]	; (535c <Reset_Handler+0xa0>)
    52e0:	438b      	bics	r3, r1
    52e2:	6093      	str	r3, [r2, #8]
    52e4:	2202      	movs	r2, #2
    52e6:	250c      	movs	r5, #12
    52e8:	2408      	movs	r4, #8
    52ea:	2630      	movs	r6, #48	; 0x30
    52ec:	4b1c      	ldr	r3, [pc, #112]	; (5360 <Reset_Handler+0xa4>)
    52ee:	481d      	ldr	r0, [pc, #116]	; (5364 <Reset_Handler+0xa8>)
    52f0:	625a      	str	r2, [r3, #36]	; 0x24
    52f2:	78c3      	ldrb	r3, [r0, #3]
    52f4:	39fc      	subs	r1, #252	; 0xfc
    52f6:	438b      	bics	r3, r1
    52f8:	4313      	orrs	r3, r2
    52fa:	70c3      	strb	r3, [r0, #3]
    52fc:	78c3      	ldrb	r3, [r0, #3]
    52fe:	43ab      	bics	r3, r5
    5300:	4323      	orrs	r3, r4
    5302:	70c3      	strb	r3, [r0, #3]
    5304:	4b18      	ldr	r3, [pc, #96]	; (5368 <Reset_Handler+0xac>)
    5306:	7b98      	ldrb	r0, [r3, #14]
    5308:	43b0      	bics	r0, r6
    530a:	0006      	movs	r6, r0
    530c:	2020      	movs	r0, #32
    530e:	4330      	orrs	r0, r6
    5310:	7398      	strb	r0, [r3, #14]
    5312:	7b98      	ldrb	r0, [r3, #14]
    5314:	43a8      	bics	r0, r5
    5316:	4304      	orrs	r4, r0
    5318:	739c      	strb	r4, [r3, #14]
    531a:	7b98      	ldrb	r0, [r3, #14]
    531c:	4388      	bics	r0, r1
    531e:	4302      	orrs	r2, r0
    5320:	739a      	strb	r2, [r3, #14]
    5322:	2380      	movs	r3, #128	; 0x80
    5324:	4a11      	ldr	r2, [pc, #68]	; (536c <Reset_Handler+0xb0>)
    5326:	6851      	ldr	r1, [r2, #4]
    5328:	430b      	orrs	r3, r1
    532a:	6053      	str	r3, [r2, #4]
    532c:	4b10      	ldr	r3, [pc, #64]	; (5370 <Reset_Handler+0xb4>)
    532e:	4798      	blx	r3
    5330:	4b10      	ldr	r3, [pc, #64]	; (5374 <Reset_Handler+0xb8>)
    5332:	4798      	blx	r3
    5334:	e7fe      	b.n	5334 <Reset_Handler+0x78>
    5336:	58c5      	ldr	r5, [r0, r3]
    5338:	3304      	adds	r3, #4
    533a:	6015      	str	r5, [r2, #0]
    533c:	e7c5      	b.n	52ca <Reset_Handler+0xe>
    533e:	c302      	stmia	r3!, {r1}
    5340:	e7c9      	b.n	52d6 <Reset_Handler+0x1a>
    5342:	46c0      	nop			; (mov r8, r8)
    5344:	00009020 	.word	0x00009020
    5348:	20000000 	.word	0x20000000
    534c:	20000080 	.word	0x20000080
    5350:	20000080 	.word	0x20000080
    5354:	20005434 	.word	0x20005434
    5358:	00000000 	.word	0x00000000
    535c:	e000ed00 	.word	0xe000ed00
    5360:	410070fc 	.word	0x410070fc
    5364:	41005000 	.word	0x41005000
    5368:	41004800 	.word	0x41004800
    536c:	41004000 	.word	0x41004000
    5370:	00008305 	.word	0x00008305
    5374:	00005399 	.word	0x00005399

00005378 <_sbrk>:
    5378:	4b05      	ldr	r3, [pc, #20]	; (5390 <_sbrk+0x18>)
    537a:	0002      	movs	r2, r0
    537c:	6819      	ldr	r1, [r3, #0]
    537e:	2900      	cmp	r1, #0
    5380:	d101      	bne.n	5386 <_sbrk+0xe>
    5382:	4904      	ldr	r1, [pc, #16]	; (5394 <_sbrk+0x1c>)
    5384:	6019      	str	r1, [r3, #0]
    5386:	6818      	ldr	r0, [r3, #0]
    5388:	1882      	adds	r2, r0, r2
    538a:	601a      	str	r2, [r3, #0]
    538c:	4770      	bx	lr
    538e:	46c0      	nop			; (mov r8, r8)
    5390:	200053bc 	.word	0x200053bc
    5394:	20007438 	.word	0x20007438

00005398 <main>:
    5398:	b513      	push	{r0, r1, r4, lr}
    539a:	4b15      	ldr	r3, [pc, #84]	; (53f0 <main+0x58>)
    539c:	4798      	blx	r3
    539e:	4b15      	ldr	r3, [pc, #84]	; (53f4 <main+0x5c>)
    53a0:	4798      	blx	r3
    53a2:	2401      	movs	r4, #1
    53a4:	2300      	movs	r3, #0
    53a6:	466a      	mov	r2, sp
    53a8:	4669      	mov	r1, sp
    53aa:	7013      	strb	r3, [r2, #0]
    53ac:	7054      	strb	r4, [r2, #1]
    53ae:	2204      	movs	r2, #4
    53b0:	710b      	strb	r3, [r1, #4]
    53b2:	708a      	strb	r2, [r1, #2]
    53b4:	714b      	strb	r3, [r1, #5]
    53b6:	3208      	adds	r2, #8
    53b8:	4b0f      	ldr	r3, [pc, #60]	; (53f8 <main+0x60>)
    53ba:	4668      	mov	r0, sp
    53bc:	70ca      	strb	r2, [r1, #3]
    53be:	4798      	blx	r3
    53c0:	2080      	movs	r0, #128	; 0x80
    53c2:	2103      	movs	r1, #3
    53c4:	0040      	lsls	r0, r0, #1
    53c6:	4b0d      	ldr	r3, [pc, #52]	; (53fc <main+0x64>)
    53c8:	4798      	blx	r3
    53ca:	2080      	movs	r0, #128	; 0x80
    53cc:	2102      	movs	r1, #2
    53ce:	0080      	lsls	r0, r0, #2
    53d0:	4b0b      	ldr	r3, [pc, #44]	; (5400 <main+0x68>)
    53d2:	4798      	blx	r3
    53d4:	2080      	movs	r0, #128	; 0x80
    53d6:	2102      	movs	r1, #2
    53d8:	0080      	lsls	r0, r0, #2
    53da:	4b0a      	ldr	r3, [pc, #40]	; (5404 <main+0x6c>)
    53dc:	4798      	blx	r3
    53de:	2080      	movs	r0, #128	; 0x80
    53e0:	4b09      	ldr	r3, [pc, #36]	; (5408 <main+0x70>)
    53e2:	0021      	movs	r1, r4
    53e4:	0080      	lsls	r0, r0, #2
    53e6:	4798      	blx	r3
    53e8:	4b08      	ldr	r3, [pc, #32]	; (540c <main+0x74>)
    53ea:	4798      	blx	r3
    53ec:	e7fe      	b.n	53ec <main+0x54>
    53ee:	46c0      	nop			; (mov r8, r8)
    53f0:	0000528d 	.word	0x0000528d
    53f4:	00004895 	.word	0x00004895
    53f8:	00003f3d 	.word	0x00003f3d
    53fc:	00002725 	.word	0x00002725
    5400:	00002279 	.word	0x00002279
    5404:	000029ed 	.word	0x000029ed
    5408:	000023d9 	.word	0x000023d9
    540c:	000034e5 	.word	0x000034e5

00005410 <vApplicationMallocFailedHook>:
    5410:	b672      	cpsid	i
    5412:	e7fe      	b.n	5412 <vApplicationMallocFailedHook+0x2>

00005414 <vApplicationIdleHook>:
    5414:	b510      	push	{r4, lr}
    5416:	4b01      	ldr	r3, [pc, #4]	; (541c <vApplicationIdleHook+0x8>)
    5418:	4798      	blx	r3
    541a:	bd10      	pop	{r4, pc}
    541c:	00004015 	.word	0x00004015

00005420 <vApplicationTickHook>:
    5420:	4770      	bx	lr

00005422 <vApplicationStackOverflowHook>:
    5422:	b672      	cpsid	i
    5424:	e7fe      	b.n	5424 <vApplicationStackOverflowHook+0x2>

00005426 <HardFault_Handler>:
    5426:	e7fe      	b.n	5426 <HardFault_Handler>

00005428 <NMI_Handler>:
    5428:	e7fe      	b.n	5428 <NMI_Handler>
	...

0000542c <__gnu_thumb1_case_uqi>:
    542c:	b402      	push	{r1}
    542e:	4671      	mov	r1, lr
    5430:	0849      	lsrs	r1, r1, #1
    5432:	0049      	lsls	r1, r1, #1
    5434:	5c09      	ldrb	r1, [r1, r0]
    5436:	0049      	lsls	r1, r1, #1
    5438:	448e      	add	lr, r1
    543a:	bc02      	pop	{r1}
    543c:	4770      	bx	lr
    543e:	46c0      	nop			; (mov r8, r8)

00005440 <__udivsi3>:
    5440:	2200      	movs	r2, #0
    5442:	0843      	lsrs	r3, r0, #1
    5444:	428b      	cmp	r3, r1
    5446:	d374      	bcc.n	5532 <__udivsi3+0xf2>
    5448:	0903      	lsrs	r3, r0, #4
    544a:	428b      	cmp	r3, r1
    544c:	d35f      	bcc.n	550e <__udivsi3+0xce>
    544e:	0a03      	lsrs	r3, r0, #8
    5450:	428b      	cmp	r3, r1
    5452:	d344      	bcc.n	54de <__udivsi3+0x9e>
    5454:	0b03      	lsrs	r3, r0, #12
    5456:	428b      	cmp	r3, r1
    5458:	d328      	bcc.n	54ac <__udivsi3+0x6c>
    545a:	0c03      	lsrs	r3, r0, #16
    545c:	428b      	cmp	r3, r1
    545e:	d30d      	bcc.n	547c <__udivsi3+0x3c>
    5460:	22ff      	movs	r2, #255	; 0xff
    5462:	0209      	lsls	r1, r1, #8
    5464:	ba12      	rev	r2, r2
    5466:	0c03      	lsrs	r3, r0, #16
    5468:	428b      	cmp	r3, r1
    546a:	d302      	bcc.n	5472 <__udivsi3+0x32>
    546c:	1212      	asrs	r2, r2, #8
    546e:	0209      	lsls	r1, r1, #8
    5470:	d065      	beq.n	553e <__udivsi3+0xfe>
    5472:	0b03      	lsrs	r3, r0, #12
    5474:	428b      	cmp	r3, r1
    5476:	d319      	bcc.n	54ac <__udivsi3+0x6c>
    5478:	e000      	b.n	547c <__udivsi3+0x3c>
    547a:	0a09      	lsrs	r1, r1, #8
    547c:	0bc3      	lsrs	r3, r0, #15
    547e:	428b      	cmp	r3, r1
    5480:	d301      	bcc.n	5486 <__udivsi3+0x46>
    5482:	03cb      	lsls	r3, r1, #15
    5484:	1ac0      	subs	r0, r0, r3
    5486:	4152      	adcs	r2, r2
    5488:	0b83      	lsrs	r3, r0, #14
    548a:	428b      	cmp	r3, r1
    548c:	d301      	bcc.n	5492 <__udivsi3+0x52>
    548e:	038b      	lsls	r3, r1, #14
    5490:	1ac0      	subs	r0, r0, r3
    5492:	4152      	adcs	r2, r2
    5494:	0b43      	lsrs	r3, r0, #13
    5496:	428b      	cmp	r3, r1
    5498:	d301      	bcc.n	549e <__udivsi3+0x5e>
    549a:	034b      	lsls	r3, r1, #13
    549c:	1ac0      	subs	r0, r0, r3
    549e:	4152      	adcs	r2, r2
    54a0:	0b03      	lsrs	r3, r0, #12
    54a2:	428b      	cmp	r3, r1
    54a4:	d301      	bcc.n	54aa <__udivsi3+0x6a>
    54a6:	030b      	lsls	r3, r1, #12
    54a8:	1ac0      	subs	r0, r0, r3
    54aa:	4152      	adcs	r2, r2
    54ac:	0ac3      	lsrs	r3, r0, #11
    54ae:	428b      	cmp	r3, r1
    54b0:	d301      	bcc.n	54b6 <__udivsi3+0x76>
    54b2:	02cb      	lsls	r3, r1, #11
    54b4:	1ac0      	subs	r0, r0, r3
    54b6:	4152      	adcs	r2, r2
    54b8:	0a83      	lsrs	r3, r0, #10
    54ba:	428b      	cmp	r3, r1
    54bc:	d301      	bcc.n	54c2 <__udivsi3+0x82>
    54be:	028b      	lsls	r3, r1, #10
    54c0:	1ac0      	subs	r0, r0, r3
    54c2:	4152      	adcs	r2, r2
    54c4:	0a43      	lsrs	r3, r0, #9
    54c6:	428b      	cmp	r3, r1
    54c8:	d301      	bcc.n	54ce <__udivsi3+0x8e>
    54ca:	024b      	lsls	r3, r1, #9
    54cc:	1ac0      	subs	r0, r0, r3
    54ce:	4152      	adcs	r2, r2
    54d0:	0a03      	lsrs	r3, r0, #8
    54d2:	428b      	cmp	r3, r1
    54d4:	d301      	bcc.n	54da <__udivsi3+0x9a>
    54d6:	020b      	lsls	r3, r1, #8
    54d8:	1ac0      	subs	r0, r0, r3
    54da:	4152      	adcs	r2, r2
    54dc:	d2cd      	bcs.n	547a <__udivsi3+0x3a>
    54de:	09c3      	lsrs	r3, r0, #7
    54e0:	428b      	cmp	r3, r1
    54e2:	d301      	bcc.n	54e8 <__udivsi3+0xa8>
    54e4:	01cb      	lsls	r3, r1, #7
    54e6:	1ac0      	subs	r0, r0, r3
    54e8:	4152      	adcs	r2, r2
    54ea:	0983      	lsrs	r3, r0, #6
    54ec:	428b      	cmp	r3, r1
    54ee:	d301      	bcc.n	54f4 <__udivsi3+0xb4>
    54f0:	018b      	lsls	r3, r1, #6
    54f2:	1ac0      	subs	r0, r0, r3
    54f4:	4152      	adcs	r2, r2
    54f6:	0943      	lsrs	r3, r0, #5
    54f8:	428b      	cmp	r3, r1
    54fa:	d301      	bcc.n	5500 <__udivsi3+0xc0>
    54fc:	014b      	lsls	r3, r1, #5
    54fe:	1ac0      	subs	r0, r0, r3
    5500:	4152      	adcs	r2, r2
    5502:	0903      	lsrs	r3, r0, #4
    5504:	428b      	cmp	r3, r1
    5506:	d301      	bcc.n	550c <__udivsi3+0xcc>
    5508:	010b      	lsls	r3, r1, #4
    550a:	1ac0      	subs	r0, r0, r3
    550c:	4152      	adcs	r2, r2
    550e:	08c3      	lsrs	r3, r0, #3
    5510:	428b      	cmp	r3, r1
    5512:	d301      	bcc.n	5518 <__udivsi3+0xd8>
    5514:	00cb      	lsls	r3, r1, #3
    5516:	1ac0      	subs	r0, r0, r3
    5518:	4152      	adcs	r2, r2
    551a:	0883      	lsrs	r3, r0, #2
    551c:	428b      	cmp	r3, r1
    551e:	d301      	bcc.n	5524 <__udivsi3+0xe4>
    5520:	008b      	lsls	r3, r1, #2
    5522:	1ac0      	subs	r0, r0, r3
    5524:	4152      	adcs	r2, r2
    5526:	0843      	lsrs	r3, r0, #1
    5528:	428b      	cmp	r3, r1
    552a:	d301      	bcc.n	5530 <__udivsi3+0xf0>
    552c:	004b      	lsls	r3, r1, #1
    552e:	1ac0      	subs	r0, r0, r3
    5530:	4152      	adcs	r2, r2
    5532:	1a41      	subs	r1, r0, r1
    5534:	d200      	bcs.n	5538 <__udivsi3+0xf8>
    5536:	4601      	mov	r1, r0
    5538:	4152      	adcs	r2, r2
    553a:	4610      	mov	r0, r2
    553c:	4770      	bx	lr
    553e:	e7ff      	b.n	5540 <__udivsi3+0x100>
    5540:	b501      	push	{r0, lr}
    5542:	2000      	movs	r0, #0
    5544:	f000 f806 	bl	5554 <__aeabi_idiv0>
    5548:	bd02      	pop	{r1, pc}
    554a:	46c0      	nop			; (mov r8, r8)

0000554c <__aeabi_uidivmod>:
    554c:	2900      	cmp	r1, #0
    554e:	d0f7      	beq.n	5540 <__udivsi3+0x100>
    5550:	e776      	b.n	5440 <__udivsi3>
    5552:	4770      	bx	lr

00005554 <__aeabi_idiv0>:
    5554:	4770      	bx	lr
    5556:	46c0      	nop			; (mov r8, r8)

00005558 <__aeabi_cdrcmple>:
    5558:	4684      	mov	ip, r0
    555a:	1c10      	adds	r0, r2, #0
    555c:	4662      	mov	r2, ip
    555e:	468c      	mov	ip, r1
    5560:	1c19      	adds	r1, r3, #0
    5562:	4663      	mov	r3, ip
    5564:	e000      	b.n	5568 <__aeabi_cdcmpeq>
    5566:	46c0      	nop			; (mov r8, r8)

00005568 <__aeabi_cdcmpeq>:
    5568:	b51f      	push	{r0, r1, r2, r3, r4, lr}
    556a:	f001 ff1f 	bl	73ac <__ledf2>
    556e:	2800      	cmp	r0, #0
    5570:	d401      	bmi.n	5576 <__aeabi_cdcmpeq+0xe>
    5572:	2100      	movs	r1, #0
    5574:	42c8      	cmn	r0, r1
    5576:	bd1f      	pop	{r0, r1, r2, r3, r4, pc}

00005578 <__aeabi_dcmpeq>:
    5578:	b510      	push	{r4, lr}
    557a:	f001 fe79 	bl	7270 <__eqdf2>
    557e:	4240      	negs	r0, r0
    5580:	3001      	adds	r0, #1
    5582:	bd10      	pop	{r4, pc}

00005584 <__aeabi_dcmplt>:
    5584:	b510      	push	{r4, lr}
    5586:	f001 ff11 	bl	73ac <__ledf2>
    558a:	2800      	cmp	r0, #0
    558c:	db01      	blt.n	5592 <__aeabi_dcmplt+0xe>
    558e:	2000      	movs	r0, #0
    5590:	bd10      	pop	{r4, pc}
    5592:	2001      	movs	r0, #1
    5594:	bd10      	pop	{r4, pc}
    5596:	46c0      	nop			; (mov r8, r8)

00005598 <__aeabi_dcmple>:
    5598:	b510      	push	{r4, lr}
    559a:	f001 ff07 	bl	73ac <__ledf2>
    559e:	2800      	cmp	r0, #0
    55a0:	dd01      	ble.n	55a6 <__aeabi_dcmple+0xe>
    55a2:	2000      	movs	r0, #0
    55a4:	bd10      	pop	{r4, pc}
    55a6:	2001      	movs	r0, #1
    55a8:	bd10      	pop	{r4, pc}
    55aa:	46c0      	nop			; (mov r8, r8)

000055ac <__aeabi_dcmpgt>:
    55ac:	b510      	push	{r4, lr}
    55ae:	f001 fe99 	bl	72e4 <__gedf2>
    55b2:	2800      	cmp	r0, #0
    55b4:	dc01      	bgt.n	55ba <__aeabi_dcmpgt+0xe>
    55b6:	2000      	movs	r0, #0
    55b8:	bd10      	pop	{r4, pc}
    55ba:	2001      	movs	r0, #1
    55bc:	bd10      	pop	{r4, pc}
    55be:	46c0      	nop			; (mov r8, r8)

000055c0 <__aeabi_dcmpge>:
    55c0:	b510      	push	{r4, lr}
    55c2:	f001 fe8f 	bl	72e4 <__gedf2>
    55c6:	2800      	cmp	r0, #0
    55c8:	da01      	bge.n	55ce <__aeabi_dcmpge+0xe>
    55ca:	2000      	movs	r0, #0
    55cc:	bd10      	pop	{r4, pc}
    55ce:	2001      	movs	r0, #1
    55d0:	bd10      	pop	{r4, pc}
    55d2:	46c0      	nop			; (mov r8, r8)

000055d4 <__aeabi_cfrcmple>:
    55d4:	4684      	mov	ip, r0
    55d6:	1c08      	adds	r0, r1, #0
    55d8:	4661      	mov	r1, ip
    55da:	e7ff      	b.n	55dc <__aeabi_cfcmpeq>

000055dc <__aeabi_cfcmpeq>:
    55dc:	b51f      	push	{r0, r1, r2, r3, r4, lr}
    55de:	f000 fc95 	bl	5f0c <__lesf2>
    55e2:	2800      	cmp	r0, #0
    55e4:	d401      	bmi.n	55ea <__aeabi_cfcmpeq+0xe>
    55e6:	2100      	movs	r1, #0
    55e8:	42c8      	cmn	r0, r1
    55ea:	bd1f      	pop	{r0, r1, r2, r3, r4, pc}

000055ec <__aeabi_fcmpeq>:
    55ec:	b510      	push	{r4, lr}
    55ee:	f000 fc27 	bl	5e40 <__eqsf2>
    55f2:	4240      	negs	r0, r0
    55f4:	3001      	adds	r0, #1
    55f6:	bd10      	pop	{r4, pc}

000055f8 <__aeabi_fcmplt>:
    55f8:	b510      	push	{r4, lr}
    55fa:	f000 fc87 	bl	5f0c <__lesf2>
    55fe:	2800      	cmp	r0, #0
    5600:	db01      	blt.n	5606 <__aeabi_fcmplt+0xe>
    5602:	2000      	movs	r0, #0
    5604:	bd10      	pop	{r4, pc}
    5606:	2001      	movs	r0, #1
    5608:	bd10      	pop	{r4, pc}
    560a:	46c0      	nop			; (mov r8, r8)

0000560c <__aeabi_fcmple>:
    560c:	b510      	push	{r4, lr}
    560e:	f000 fc7d 	bl	5f0c <__lesf2>
    5612:	2800      	cmp	r0, #0
    5614:	dd01      	ble.n	561a <__aeabi_fcmple+0xe>
    5616:	2000      	movs	r0, #0
    5618:	bd10      	pop	{r4, pc}
    561a:	2001      	movs	r0, #1
    561c:	bd10      	pop	{r4, pc}
    561e:	46c0      	nop			; (mov r8, r8)

00005620 <__aeabi_fcmpgt>:
    5620:	b510      	push	{r4, lr}
    5622:	f000 fc33 	bl	5e8c <__gesf2>
    5626:	2800      	cmp	r0, #0
    5628:	dc01      	bgt.n	562e <__aeabi_fcmpgt+0xe>
    562a:	2000      	movs	r0, #0
    562c:	bd10      	pop	{r4, pc}
    562e:	2001      	movs	r0, #1
    5630:	bd10      	pop	{r4, pc}
    5632:	46c0      	nop			; (mov r8, r8)

00005634 <__aeabi_fcmpge>:
    5634:	b510      	push	{r4, lr}
    5636:	f000 fc29 	bl	5e8c <__gesf2>
    563a:	2800      	cmp	r0, #0
    563c:	da01      	bge.n	5642 <__aeabi_fcmpge+0xe>
    563e:	2000      	movs	r0, #0
    5640:	bd10      	pop	{r4, pc}
    5642:	2001      	movs	r0, #1
    5644:	bd10      	pop	{r4, pc}
    5646:	46c0      	nop			; (mov r8, r8)

00005648 <__aeabi_uldivmod>:
    5648:	2b00      	cmp	r3, #0
    564a:	d111      	bne.n	5670 <__aeabi_uldivmod+0x28>
    564c:	2a00      	cmp	r2, #0
    564e:	d10f      	bne.n	5670 <__aeabi_uldivmod+0x28>
    5650:	2900      	cmp	r1, #0
    5652:	d100      	bne.n	5656 <__aeabi_uldivmod+0xe>
    5654:	2800      	cmp	r0, #0
    5656:	d002      	beq.n	565e <__aeabi_uldivmod+0x16>
    5658:	2100      	movs	r1, #0
    565a:	43c9      	mvns	r1, r1
    565c:	1c08      	adds	r0, r1, #0
    565e:	b407      	push	{r0, r1, r2}
    5660:	4802      	ldr	r0, [pc, #8]	; (566c <__aeabi_uldivmod+0x24>)
    5662:	a102      	add	r1, pc, #8	; (adr r1, 566c <__aeabi_uldivmod+0x24>)
    5664:	1840      	adds	r0, r0, r1
    5666:	9002      	str	r0, [sp, #8]
    5668:	bd03      	pop	{r0, r1, pc}
    566a:	46c0      	nop			; (mov r8, r8)
    566c:	fffffee9 	.word	0xfffffee9
    5670:	b403      	push	{r0, r1}
    5672:	4668      	mov	r0, sp
    5674:	b501      	push	{r0, lr}
    5676:	9802      	ldr	r0, [sp, #8]
    5678:	f000 f848 	bl	570c <__udivmoddi4>
    567c:	9b01      	ldr	r3, [sp, #4]
    567e:	469e      	mov	lr, r3
    5680:	b002      	add	sp, #8
    5682:	bc0c      	pop	{r2, r3}
    5684:	4770      	bx	lr
    5686:	46c0      	nop			; (mov r8, r8)

00005688 <__aeabi_lmul>:
    5688:	b5f0      	push	{r4, r5, r6, r7, lr}
    568a:	46ce      	mov	lr, r9
    568c:	4647      	mov	r7, r8
    568e:	0415      	lsls	r5, r2, #16
    5690:	0c2d      	lsrs	r5, r5, #16
    5692:	002e      	movs	r6, r5
    5694:	b580      	push	{r7, lr}
    5696:	0407      	lsls	r7, r0, #16
    5698:	0c14      	lsrs	r4, r2, #16
    569a:	0c3f      	lsrs	r7, r7, #16
    569c:	4699      	mov	r9, r3
    569e:	0c03      	lsrs	r3, r0, #16
    56a0:	437e      	muls	r6, r7
    56a2:	435d      	muls	r5, r3
    56a4:	4367      	muls	r7, r4
    56a6:	4363      	muls	r3, r4
    56a8:	197f      	adds	r7, r7, r5
    56aa:	0c34      	lsrs	r4, r6, #16
    56ac:	19e4      	adds	r4, r4, r7
    56ae:	469c      	mov	ip, r3
    56b0:	42a5      	cmp	r5, r4
    56b2:	d903      	bls.n	56bc <__aeabi_lmul+0x34>
    56b4:	2380      	movs	r3, #128	; 0x80
    56b6:	025b      	lsls	r3, r3, #9
    56b8:	4698      	mov	r8, r3
    56ba:	44c4      	add	ip, r8
    56bc:	464b      	mov	r3, r9
    56be:	4351      	muls	r1, r2
    56c0:	4343      	muls	r3, r0
    56c2:	0436      	lsls	r6, r6, #16
    56c4:	0c36      	lsrs	r6, r6, #16
    56c6:	0c25      	lsrs	r5, r4, #16
    56c8:	0424      	lsls	r4, r4, #16
    56ca:	4465      	add	r5, ip
    56cc:	19a4      	adds	r4, r4, r6
    56ce:	1859      	adds	r1, r3, r1
    56d0:	1949      	adds	r1, r1, r5
    56d2:	0020      	movs	r0, r4
    56d4:	bc0c      	pop	{r2, r3}
    56d6:	4690      	mov	r8, r2
    56d8:	4699      	mov	r9, r3
    56da:	bdf0      	pop	{r4, r5, r6, r7, pc}

000056dc <__aeabi_f2uiz>:
    56dc:	219e      	movs	r1, #158	; 0x9e
    56de:	b510      	push	{r4, lr}
    56e0:	05c9      	lsls	r1, r1, #23
    56e2:	1c04      	adds	r4, r0, #0
    56e4:	f7ff ffa6 	bl	5634 <__aeabi_fcmpge>
    56e8:	2800      	cmp	r0, #0
    56ea:	d103      	bne.n	56f4 <__aeabi_f2uiz+0x18>
    56ec:	1c20      	adds	r0, r4, #0
    56ee:	f000 ff0b 	bl	6508 <__aeabi_f2iz>
    56f2:	bd10      	pop	{r4, pc}
    56f4:	219e      	movs	r1, #158	; 0x9e
    56f6:	1c20      	adds	r0, r4, #0
    56f8:	05c9      	lsls	r1, r1, #23
    56fa:	f000 fd69 	bl	61d0 <__aeabi_fsub>
    56fe:	f000 ff03 	bl	6508 <__aeabi_f2iz>
    5702:	2380      	movs	r3, #128	; 0x80
    5704:	061b      	lsls	r3, r3, #24
    5706:	469c      	mov	ip, r3
    5708:	4460      	add	r0, ip
    570a:	e7f2      	b.n	56f2 <__aeabi_f2uiz+0x16>

0000570c <__udivmoddi4>:
    570c:	b5f0      	push	{r4, r5, r6, r7, lr}
    570e:	4657      	mov	r7, sl
    5710:	464e      	mov	r6, r9
    5712:	4645      	mov	r5, r8
    5714:	46de      	mov	lr, fp
    5716:	b5e0      	push	{r5, r6, r7, lr}
    5718:	0004      	movs	r4, r0
    571a:	b083      	sub	sp, #12
    571c:	000d      	movs	r5, r1
    571e:	4692      	mov	sl, r2
    5720:	4699      	mov	r9, r3
    5722:	428b      	cmp	r3, r1
    5724:	d82f      	bhi.n	5786 <__udivmoddi4+0x7a>
    5726:	d02c      	beq.n	5782 <__udivmoddi4+0x76>
    5728:	4649      	mov	r1, r9
    572a:	4650      	mov	r0, sl
    572c:	f002 fdde 	bl	82ec <__clzdi2>
    5730:	0029      	movs	r1, r5
    5732:	0006      	movs	r6, r0
    5734:	0020      	movs	r0, r4
    5736:	f002 fdd9 	bl	82ec <__clzdi2>
    573a:	1a33      	subs	r3, r6, r0
    573c:	4698      	mov	r8, r3
    573e:	3b20      	subs	r3, #32
    5740:	469b      	mov	fp, r3
    5742:	d500      	bpl.n	5746 <__udivmoddi4+0x3a>
    5744:	e074      	b.n	5830 <__udivmoddi4+0x124>
    5746:	4653      	mov	r3, sl
    5748:	465a      	mov	r2, fp
    574a:	4093      	lsls	r3, r2
    574c:	001f      	movs	r7, r3
    574e:	4653      	mov	r3, sl
    5750:	4642      	mov	r2, r8
    5752:	4093      	lsls	r3, r2
    5754:	001e      	movs	r6, r3
    5756:	42af      	cmp	r7, r5
    5758:	d829      	bhi.n	57ae <__udivmoddi4+0xa2>
    575a:	d026      	beq.n	57aa <__udivmoddi4+0x9e>
    575c:	465b      	mov	r3, fp
    575e:	1ba4      	subs	r4, r4, r6
    5760:	41bd      	sbcs	r5, r7
    5762:	2b00      	cmp	r3, #0
    5764:	da00      	bge.n	5768 <__udivmoddi4+0x5c>
    5766:	e079      	b.n	585c <__udivmoddi4+0x150>
    5768:	2200      	movs	r2, #0
    576a:	2300      	movs	r3, #0
    576c:	9200      	str	r2, [sp, #0]
    576e:	9301      	str	r3, [sp, #4]
    5770:	2301      	movs	r3, #1
    5772:	465a      	mov	r2, fp
    5774:	4093      	lsls	r3, r2
    5776:	9301      	str	r3, [sp, #4]
    5778:	2301      	movs	r3, #1
    577a:	4642      	mov	r2, r8
    577c:	4093      	lsls	r3, r2
    577e:	9300      	str	r3, [sp, #0]
    5780:	e019      	b.n	57b6 <__udivmoddi4+0xaa>
    5782:	4282      	cmp	r2, r0
    5784:	d9d0      	bls.n	5728 <__udivmoddi4+0x1c>
    5786:	2200      	movs	r2, #0
    5788:	2300      	movs	r3, #0
    578a:	9200      	str	r2, [sp, #0]
    578c:	9301      	str	r3, [sp, #4]
    578e:	9b0c      	ldr	r3, [sp, #48]	; 0x30
    5790:	2b00      	cmp	r3, #0
    5792:	d001      	beq.n	5798 <__udivmoddi4+0x8c>
    5794:	601c      	str	r4, [r3, #0]
    5796:	605d      	str	r5, [r3, #4]
    5798:	9800      	ldr	r0, [sp, #0]
    579a:	9901      	ldr	r1, [sp, #4]
    579c:	b003      	add	sp, #12
    579e:	bc3c      	pop	{r2, r3, r4, r5}
    57a0:	4690      	mov	r8, r2
    57a2:	4699      	mov	r9, r3
    57a4:	46a2      	mov	sl, r4
    57a6:	46ab      	mov	fp, r5
    57a8:	bdf0      	pop	{r4, r5, r6, r7, pc}
    57aa:	42a3      	cmp	r3, r4
    57ac:	d9d6      	bls.n	575c <__udivmoddi4+0x50>
    57ae:	2200      	movs	r2, #0
    57b0:	2300      	movs	r3, #0
    57b2:	9200      	str	r2, [sp, #0]
    57b4:	9301      	str	r3, [sp, #4]
    57b6:	4643      	mov	r3, r8
    57b8:	2b00      	cmp	r3, #0
    57ba:	d0e8      	beq.n	578e <__udivmoddi4+0x82>
    57bc:	07fb      	lsls	r3, r7, #31
    57be:	0872      	lsrs	r2, r6, #1
    57c0:	431a      	orrs	r2, r3
    57c2:	4646      	mov	r6, r8
    57c4:	087b      	lsrs	r3, r7, #1
    57c6:	e00e      	b.n	57e6 <__udivmoddi4+0xda>
    57c8:	42ab      	cmp	r3, r5
    57ca:	d101      	bne.n	57d0 <__udivmoddi4+0xc4>
    57cc:	42a2      	cmp	r2, r4
    57ce:	d80c      	bhi.n	57ea <__udivmoddi4+0xde>
    57d0:	1aa4      	subs	r4, r4, r2
    57d2:	419d      	sbcs	r5, r3
    57d4:	2001      	movs	r0, #1
    57d6:	1924      	adds	r4, r4, r4
    57d8:	416d      	adcs	r5, r5
    57da:	2100      	movs	r1, #0
    57dc:	3e01      	subs	r6, #1
    57de:	1824      	adds	r4, r4, r0
    57e0:	414d      	adcs	r5, r1
    57e2:	2e00      	cmp	r6, #0
    57e4:	d006      	beq.n	57f4 <__udivmoddi4+0xe8>
    57e6:	42ab      	cmp	r3, r5
    57e8:	d9ee      	bls.n	57c8 <__udivmoddi4+0xbc>
    57ea:	3e01      	subs	r6, #1
    57ec:	1924      	adds	r4, r4, r4
    57ee:	416d      	adcs	r5, r5
    57f0:	2e00      	cmp	r6, #0
    57f2:	d1f8      	bne.n	57e6 <__udivmoddi4+0xda>
    57f4:	465b      	mov	r3, fp
    57f6:	9800      	ldr	r0, [sp, #0]
    57f8:	9901      	ldr	r1, [sp, #4]
    57fa:	1900      	adds	r0, r0, r4
    57fc:	4169      	adcs	r1, r5
    57fe:	2b00      	cmp	r3, #0
    5800:	db22      	blt.n	5848 <__udivmoddi4+0x13c>
    5802:	002b      	movs	r3, r5
    5804:	465a      	mov	r2, fp
    5806:	40d3      	lsrs	r3, r2
    5808:	002a      	movs	r2, r5
    580a:	4644      	mov	r4, r8
    580c:	40e2      	lsrs	r2, r4
    580e:	001c      	movs	r4, r3
    5810:	465b      	mov	r3, fp
    5812:	0015      	movs	r5, r2
    5814:	2b00      	cmp	r3, #0
    5816:	db2c      	blt.n	5872 <__udivmoddi4+0x166>
    5818:	0026      	movs	r6, r4
    581a:	409e      	lsls	r6, r3
    581c:	0033      	movs	r3, r6
    581e:	0026      	movs	r6, r4
    5820:	4647      	mov	r7, r8
    5822:	40be      	lsls	r6, r7
    5824:	0032      	movs	r2, r6
    5826:	1a80      	subs	r0, r0, r2
    5828:	4199      	sbcs	r1, r3
    582a:	9000      	str	r0, [sp, #0]
    582c:	9101      	str	r1, [sp, #4]
    582e:	e7ae      	b.n	578e <__udivmoddi4+0x82>
    5830:	4642      	mov	r2, r8
    5832:	2320      	movs	r3, #32
    5834:	1a9b      	subs	r3, r3, r2
    5836:	4652      	mov	r2, sl
    5838:	40da      	lsrs	r2, r3
    583a:	4641      	mov	r1, r8
    583c:	0013      	movs	r3, r2
    583e:	464a      	mov	r2, r9
    5840:	408a      	lsls	r2, r1
    5842:	0017      	movs	r7, r2
    5844:	431f      	orrs	r7, r3
    5846:	e782      	b.n	574e <__udivmoddi4+0x42>
    5848:	4642      	mov	r2, r8
    584a:	2320      	movs	r3, #32
    584c:	1a9b      	subs	r3, r3, r2
    584e:	002a      	movs	r2, r5
    5850:	4646      	mov	r6, r8
    5852:	409a      	lsls	r2, r3
    5854:	0023      	movs	r3, r4
    5856:	40f3      	lsrs	r3, r6
    5858:	4313      	orrs	r3, r2
    585a:	e7d5      	b.n	5808 <__udivmoddi4+0xfc>
    585c:	4642      	mov	r2, r8
    585e:	2320      	movs	r3, #32
    5860:	2100      	movs	r1, #0
    5862:	1a9b      	subs	r3, r3, r2
    5864:	2200      	movs	r2, #0
    5866:	9100      	str	r1, [sp, #0]
    5868:	9201      	str	r2, [sp, #4]
    586a:	2201      	movs	r2, #1
    586c:	40da      	lsrs	r2, r3
    586e:	9201      	str	r2, [sp, #4]
    5870:	e782      	b.n	5778 <__udivmoddi4+0x6c>
    5872:	4642      	mov	r2, r8
    5874:	2320      	movs	r3, #32
    5876:	0026      	movs	r6, r4
    5878:	1a9b      	subs	r3, r3, r2
    587a:	40de      	lsrs	r6, r3
    587c:	002f      	movs	r7, r5
    587e:	46b4      	mov	ip, r6
    5880:	4097      	lsls	r7, r2
    5882:	4666      	mov	r6, ip
    5884:	003b      	movs	r3, r7
    5886:	4333      	orrs	r3, r6
    5888:	e7c9      	b.n	581e <__udivmoddi4+0x112>
    588a:	46c0      	nop			; (mov r8, r8)

0000588c <__aeabi_fadd>:
    588c:	b5f0      	push	{r4, r5, r6, r7, lr}
    588e:	46c6      	mov	lr, r8
    5890:	024e      	lsls	r6, r1, #9
    5892:	0247      	lsls	r7, r0, #9
    5894:	0a76      	lsrs	r6, r6, #9
    5896:	0a7b      	lsrs	r3, r7, #9
    5898:	0044      	lsls	r4, r0, #1
    589a:	0fc5      	lsrs	r5, r0, #31
    589c:	00f7      	lsls	r7, r6, #3
    589e:	0048      	lsls	r0, r1, #1
    58a0:	4698      	mov	r8, r3
    58a2:	b500      	push	{lr}
    58a4:	0e24      	lsrs	r4, r4, #24
    58a6:	002a      	movs	r2, r5
    58a8:	00db      	lsls	r3, r3, #3
    58aa:	0e00      	lsrs	r0, r0, #24
    58ac:	0fc9      	lsrs	r1, r1, #31
    58ae:	46bc      	mov	ip, r7
    58b0:	428d      	cmp	r5, r1
    58b2:	d067      	beq.n	5984 <__aeabi_fadd+0xf8>
    58b4:	1a22      	subs	r2, r4, r0
    58b6:	2a00      	cmp	r2, #0
    58b8:	dc00      	bgt.n	58bc <__aeabi_fadd+0x30>
    58ba:	e0a5      	b.n	5a08 <__aeabi_fadd+0x17c>
    58bc:	2800      	cmp	r0, #0
    58be:	d13a      	bne.n	5936 <__aeabi_fadd+0xaa>
    58c0:	2f00      	cmp	r7, #0
    58c2:	d100      	bne.n	58c6 <__aeabi_fadd+0x3a>
    58c4:	e093      	b.n	59ee <__aeabi_fadd+0x162>
    58c6:	1e51      	subs	r1, r2, #1
    58c8:	2900      	cmp	r1, #0
    58ca:	d000      	beq.n	58ce <__aeabi_fadd+0x42>
    58cc:	e0bc      	b.n	5a48 <__aeabi_fadd+0x1bc>
    58ce:	2401      	movs	r4, #1
    58d0:	1bdb      	subs	r3, r3, r7
    58d2:	015a      	lsls	r2, r3, #5
    58d4:	d546      	bpl.n	5964 <__aeabi_fadd+0xd8>
    58d6:	019b      	lsls	r3, r3, #6
    58d8:	099e      	lsrs	r6, r3, #6
    58da:	0030      	movs	r0, r6
    58dc:	f002 fce8 	bl	82b0 <__clzsi2>
    58e0:	3805      	subs	r0, #5
    58e2:	4086      	lsls	r6, r0
    58e4:	4284      	cmp	r4, r0
    58e6:	dd00      	ble.n	58ea <__aeabi_fadd+0x5e>
    58e8:	e09d      	b.n	5a26 <__aeabi_fadd+0x19a>
    58ea:	1b04      	subs	r4, r0, r4
    58ec:	0032      	movs	r2, r6
    58ee:	2020      	movs	r0, #32
    58f0:	3401      	adds	r4, #1
    58f2:	40e2      	lsrs	r2, r4
    58f4:	1b04      	subs	r4, r0, r4
    58f6:	40a6      	lsls	r6, r4
    58f8:	0033      	movs	r3, r6
    58fa:	1e5e      	subs	r6, r3, #1
    58fc:	41b3      	sbcs	r3, r6
    58fe:	2400      	movs	r4, #0
    5900:	4313      	orrs	r3, r2
    5902:	075a      	lsls	r2, r3, #29
    5904:	d004      	beq.n	5910 <__aeabi_fadd+0x84>
    5906:	220f      	movs	r2, #15
    5908:	401a      	ands	r2, r3
    590a:	2a04      	cmp	r2, #4
    590c:	d000      	beq.n	5910 <__aeabi_fadd+0x84>
    590e:	3304      	adds	r3, #4
    5910:	015a      	lsls	r2, r3, #5
    5912:	d529      	bpl.n	5968 <__aeabi_fadd+0xdc>
    5914:	3401      	adds	r4, #1
    5916:	2cff      	cmp	r4, #255	; 0xff
    5918:	d100      	bne.n	591c <__aeabi_fadd+0x90>
    591a:	e081      	b.n	5a20 <__aeabi_fadd+0x194>
    591c:	002a      	movs	r2, r5
    591e:	019b      	lsls	r3, r3, #6
    5920:	0a5b      	lsrs	r3, r3, #9
    5922:	b2e4      	uxtb	r4, r4
    5924:	025b      	lsls	r3, r3, #9
    5926:	05e4      	lsls	r4, r4, #23
    5928:	0a58      	lsrs	r0, r3, #9
    592a:	07d2      	lsls	r2, r2, #31
    592c:	4320      	orrs	r0, r4
    592e:	4310      	orrs	r0, r2
    5930:	bc04      	pop	{r2}
    5932:	4690      	mov	r8, r2
    5934:	bdf0      	pop	{r4, r5, r6, r7, pc}
    5936:	2cff      	cmp	r4, #255	; 0xff
    5938:	d0e3      	beq.n	5902 <__aeabi_fadd+0x76>
    593a:	2180      	movs	r1, #128	; 0x80
    593c:	0038      	movs	r0, r7
    593e:	04c9      	lsls	r1, r1, #19
    5940:	4308      	orrs	r0, r1
    5942:	4684      	mov	ip, r0
    5944:	2a1b      	cmp	r2, #27
    5946:	dd00      	ble.n	594a <__aeabi_fadd+0xbe>
    5948:	e082      	b.n	5a50 <__aeabi_fadd+0x1c4>
    594a:	2020      	movs	r0, #32
    594c:	4661      	mov	r1, ip
    594e:	40d1      	lsrs	r1, r2
    5950:	1a82      	subs	r2, r0, r2
    5952:	4660      	mov	r0, ip
    5954:	4090      	lsls	r0, r2
    5956:	0002      	movs	r2, r0
    5958:	1e50      	subs	r0, r2, #1
    595a:	4182      	sbcs	r2, r0
    595c:	430a      	orrs	r2, r1
    595e:	1a9b      	subs	r3, r3, r2
    5960:	015a      	lsls	r2, r3, #5
    5962:	d4b8      	bmi.n	58d6 <__aeabi_fadd+0x4a>
    5964:	075a      	lsls	r2, r3, #29
    5966:	d1ce      	bne.n	5906 <__aeabi_fadd+0x7a>
    5968:	08de      	lsrs	r6, r3, #3
    596a:	002a      	movs	r2, r5
    596c:	2cff      	cmp	r4, #255	; 0xff
    596e:	d13a      	bne.n	59e6 <__aeabi_fadd+0x15a>
    5970:	2e00      	cmp	r6, #0
    5972:	d100      	bne.n	5976 <__aeabi_fadd+0xea>
    5974:	e0ae      	b.n	5ad4 <__aeabi_fadd+0x248>
    5976:	2380      	movs	r3, #128	; 0x80
    5978:	03db      	lsls	r3, r3, #15
    597a:	4333      	orrs	r3, r6
    597c:	025b      	lsls	r3, r3, #9
    597e:	0a5b      	lsrs	r3, r3, #9
    5980:	24ff      	movs	r4, #255	; 0xff
    5982:	e7cf      	b.n	5924 <__aeabi_fadd+0x98>
    5984:	1a21      	subs	r1, r4, r0
    5986:	2900      	cmp	r1, #0
    5988:	dd52      	ble.n	5a30 <__aeabi_fadd+0x1a4>
    598a:	2800      	cmp	r0, #0
    598c:	d031      	beq.n	59f2 <__aeabi_fadd+0x166>
    598e:	2cff      	cmp	r4, #255	; 0xff
    5990:	d0b7      	beq.n	5902 <__aeabi_fadd+0x76>
    5992:	2080      	movs	r0, #128	; 0x80
    5994:	003e      	movs	r6, r7
    5996:	04c0      	lsls	r0, r0, #19
    5998:	4306      	orrs	r6, r0
    599a:	46b4      	mov	ip, r6
    599c:	291b      	cmp	r1, #27
    599e:	dd00      	ble.n	59a2 <__aeabi_fadd+0x116>
    59a0:	e0aa      	b.n	5af8 <__aeabi_fadd+0x26c>
    59a2:	2620      	movs	r6, #32
    59a4:	4660      	mov	r0, ip
    59a6:	40c8      	lsrs	r0, r1
    59a8:	1a71      	subs	r1, r6, r1
    59aa:	4666      	mov	r6, ip
    59ac:	408e      	lsls	r6, r1
    59ae:	0031      	movs	r1, r6
    59b0:	1e4e      	subs	r6, r1, #1
    59b2:	41b1      	sbcs	r1, r6
    59b4:	4301      	orrs	r1, r0
    59b6:	185b      	adds	r3, r3, r1
    59b8:	0159      	lsls	r1, r3, #5
    59ba:	d5d3      	bpl.n	5964 <__aeabi_fadd+0xd8>
    59bc:	3401      	adds	r4, #1
    59be:	2cff      	cmp	r4, #255	; 0xff
    59c0:	d100      	bne.n	59c4 <__aeabi_fadd+0x138>
    59c2:	e087      	b.n	5ad4 <__aeabi_fadd+0x248>
    59c4:	2201      	movs	r2, #1
    59c6:	4978      	ldr	r1, [pc, #480]	; (5ba8 <__aeabi_fadd+0x31c>)
    59c8:	401a      	ands	r2, r3
    59ca:	085b      	lsrs	r3, r3, #1
    59cc:	400b      	ands	r3, r1
    59ce:	4313      	orrs	r3, r2
    59d0:	e797      	b.n	5902 <__aeabi_fadd+0x76>
    59d2:	2c00      	cmp	r4, #0
    59d4:	d000      	beq.n	59d8 <__aeabi_fadd+0x14c>
    59d6:	e0a7      	b.n	5b28 <__aeabi_fadd+0x29c>
    59d8:	2b00      	cmp	r3, #0
    59da:	d000      	beq.n	59de <__aeabi_fadd+0x152>
    59dc:	e0b6      	b.n	5b4c <__aeabi_fadd+0x2c0>
    59de:	1e3b      	subs	r3, r7, #0
    59e0:	d162      	bne.n	5aa8 <__aeabi_fadd+0x21c>
    59e2:	2600      	movs	r6, #0
    59e4:	2200      	movs	r2, #0
    59e6:	0273      	lsls	r3, r6, #9
    59e8:	0a5b      	lsrs	r3, r3, #9
    59ea:	b2e4      	uxtb	r4, r4
    59ec:	e79a      	b.n	5924 <__aeabi_fadd+0x98>
    59ee:	0014      	movs	r4, r2
    59f0:	e787      	b.n	5902 <__aeabi_fadd+0x76>
    59f2:	2f00      	cmp	r7, #0
    59f4:	d04d      	beq.n	5a92 <__aeabi_fadd+0x206>
    59f6:	1e48      	subs	r0, r1, #1
    59f8:	2800      	cmp	r0, #0
    59fa:	d157      	bne.n	5aac <__aeabi_fadd+0x220>
    59fc:	4463      	add	r3, ip
    59fe:	2401      	movs	r4, #1
    5a00:	015a      	lsls	r2, r3, #5
    5a02:	d5af      	bpl.n	5964 <__aeabi_fadd+0xd8>
    5a04:	2402      	movs	r4, #2
    5a06:	e7dd      	b.n	59c4 <__aeabi_fadd+0x138>
    5a08:	2a00      	cmp	r2, #0
    5a0a:	d124      	bne.n	5a56 <__aeabi_fadd+0x1ca>
    5a0c:	1c62      	adds	r2, r4, #1
    5a0e:	b2d2      	uxtb	r2, r2
    5a10:	2a01      	cmp	r2, #1
    5a12:	ddde      	ble.n	59d2 <__aeabi_fadd+0x146>
    5a14:	1bde      	subs	r6, r3, r7
    5a16:	0172      	lsls	r2, r6, #5
    5a18:	d535      	bpl.n	5a86 <__aeabi_fadd+0x1fa>
    5a1a:	1afe      	subs	r6, r7, r3
    5a1c:	000d      	movs	r5, r1
    5a1e:	e75c      	b.n	58da <__aeabi_fadd+0x4e>
    5a20:	002a      	movs	r2, r5
    5a22:	2300      	movs	r3, #0
    5a24:	e77e      	b.n	5924 <__aeabi_fadd+0x98>
    5a26:	0033      	movs	r3, r6
    5a28:	4a60      	ldr	r2, [pc, #384]	; (5bac <__aeabi_fadd+0x320>)
    5a2a:	1a24      	subs	r4, r4, r0
    5a2c:	4013      	ands	r3, r2
    5a2e:	e768      	b.n	5902 <__aeabi_fadd+0x76>
    5a30:	2900      	cmp	r1, #0
    5a32:	d163      	bne.n	5afc <__aeabi_fadd+0x270>
    5a34:	1c61      	adds	r1, r4, #1
    5a36:	b2c8      	uxtb	r0, r1
    5a38:	2801      	cmp	r0, #1
    5a3a:	dd4e      	ble.n	5ada <__aeabi_fadd+0x24e>
    5a3c:	29ff      	cmp	r1, #255	; 0xff
    5a3e:	d049      	beq.n	5ad4 <__aeabi_fadd+0x248>
    5a40:	4463      	add	r3, ip
    5a42:	085b      	lsrs	r3, r3, #1
    5a44:	000c      	movs	r4, r1
    5a46:	e75c      	b.n	5902 <__aeabi_fadd+0x76>
    5a48:	2aff      	cmp	r2, #255	; 0xff
    5a4a:	d041      	beq.n	5ad0 <__aeabi_fadd+0x244>
    5a4c:	000a      	movs	r2, r1
    5a4e:	e779      	b.n	5944 <__aeabi_fadd+0xb8>
    5a50:	2201      	movs	r2, #1
    5a52:	1a9b      	subs	r3, r3, r2
    5a54:	e784      	b.n	5960 <__aeabi_fadd+0xd4>
    5a56:	2c00      	cmp	r4, #0
    5a58:	d01d      	beq.n	5a96 <__aeabi_fadd+0x20a>
    5a5a:	28ff      	cmp	r0, #255	; 0xff
    5a5c:	d022      	beq.n	5aa4 <__aeabi_fadd+0x218>
    5a5e:	2480      	movs	r4, #128	; 0x80
    5a60:	04e4      	lsls	r4, r4, #19
    5a62:	4252      	negs	r2, r2
    5a64:	4323      	orrs	r3, r4
    5a66:	2a1b      	cmp	r2, #27
    5a68:	dd00      	ble.n	5a6c <__aeabi_fadd+0x1e0>
    5a6a:	e08a      	b.n	5b82 <__aeabi_fadd+0x2f6>
    5a6c:	001c      	movs	r4, r3
    5a6e:	2520      	movs	r5, #32
    5a70:	40d4      	lsrs	r4, r2
    5a72:	1aaa      	subs	r2, r5, r2
    5a74:	4093      	lsls	r3, r2
    5a76:	1e5a      	subs	r2, r3, #1
    5a78:	4193      	sbcs	r3, r2
    5a7a:	4323      	orrs	r3, r4
    5a7c:	4662      	mov	r2, ip
    5a7e:	0004      	movs	r4, r0
    5a80:	1ad3      	subs	r3, r2, r3
    5a82:	000d      	movs	r5, r1
    5a84:	e725      	b.n	58d2 <__aeabi_fadd+0x46>
    5a86:	2e00      	cmp	r6, #0
    5a88:	d000      	beq.n	5a8c <__aeabi_fadd+0x200>
    5a8a:	e726      	b.n	58da <__aeabi_fadd+0x4e>
    5a8c:	2200      	movs	r2, #0
    5a8e:	2400      	movs	r4, #0
    5a90:	e7a9      	b.n	59e6 <__aeabi_fadd+0x15a>
    5a92:	000c      	movs	r4, r1
    5a94:	e735      	b.n	5902 <__aeabi_fadd+0x76>
    5a96:	2b00      	cmp	r3, #0
    5a98:	d04d      	beq.n	5b36 <__aeabi_fadd+0x2aa>
    5a9a:	43d2      	mvns	r2, r2
    5a9c:	2a00      	cmp	r2, #0
    5a9e:	d0ed      	beq.n	5a7c <__aeabi_fadd+0x1f0>
    5aa0:	28ff      	cmp	r0, #255	; 0xff
    5aa2:	d1e0      	bne.n	5a66 <__aeabi_fadd+0x1da>
    5aa4:	4663      	mov	r3, ip
    5aa6:	24ff      	movs	r4, #255	; 0xff
    5aa8:	000d      	movs	r5, r1
    5aaa:	e72a      	b.n	5902 <__aeabi_fadd+0x76>
    5aac:	29ff      	cmp	r1, #255	; 0xff
    5aae:	d00f      	beq.n	5ad0 <__aeabi_fadd+0x244>
    5ab0:	0001      	movs	r1, r0
    5ab2:	e773      	b.n	599c <__aeabi_fadd+0x110>
    5ab4:	2b00      	cmp	r3, #0
    5ab6:	d061      	beq.n	5b7c <__aeabi_fadd+0x2f0>
    5ab8:	24ff      	movs	r4, #255	; 0xff
    5aba:	2f00      	cmp	r7, #0
    5abc:	d100      	bne.n	5ac0 <__aeabi_fadd+0x234>
    5abe:	e720      	b.n	5902 <__aeabi_fadd+0x76>
    5ac0:	2280      	movs	r2, #128	; 0x80
    5ac2:	4641      	mov	r1, r8
    5ac4:	03d2      	lsls	r2, r2, #15
    5ac6:	4211      	tst	r1, r2
    5ac8:	d002      	beq.n	5ad0 <__aeabi_fadd+0x244>
    5aca:	4216      	tst	r6, r2
    5acc:	d100      	bne.n	5ad0 <__aeabi_fadd+0x244>
    5ace:	003b      	movs	r3, r7
    5ad0:	24ff      	movs	r4, #255	; 0xff
    5ad2:	e716      	b.n	5902 <__aeabi_fadd+0x76>
    5ad4:	24ff      	movs	r4, #255	; 0xff
    5ad6:	2300      	movs	r3, #0
    5ad8:	e724      	b.n	5924 <__aeabi_fadd+0x98>
    5ada:	2c00      	cmp	r4, #0
    5adc:	d1ea      	bne.n	5ab4 <__aeabi_fadd+0x228>
    5ade:	2b00      	cmp	r3, #0
    5ae0:	d058      	beq.n	5b94 <__aeabi_fadd+0x308>
    5ae2:	2f00      	cmp	r7, #0
    5ae4:	d100      	bne.n	5ae8 <__aeabi_fadd+0x25c>
    5ae6:	e70c      	b.n	5902 <__aeabi_fadd+0x76>
    5ae8:	4463      	add	r3, ip
    5aea:	015a      	lsls	r2, r3, #5
    5aec:	d400      	bmi.n	5af0 <__aeabi_fadd+0x264>
    5aee:	e739      	b.n	5964 <__aeabi_fadd+0xd8>
    5af0:	4a2e      	ldr	r2, [pc, #184]	; (5bac <__aeabi_fadd+0x320>)
    5af2:	000c      	movs	r4, r1
    5af4:	4013      	ands	r3, r2
    5af6:	e704      	b.n	5902 <__aeabi_fadd+0x76>
    5af8:	2101      	movs	r1, #1
    5afa:	e75c      	b.n	59b6 <__aeabi_fadd+0x12a>
    5afc:	2c00      	cmp	r4, #0
    5afe:	d11e      	bne.n	5b3e <__aeabi_fadd+0x2b2>
    5b00:	2b00      	cmp	r3, #0
    5b02:	d040      	beq.n	5b86 <__aeabi_fadd+0x2fa>
    5b04:	43c9      	mvns	r1, r1
    5b06:	2900      	cmp	r1, #0
    5b08:	d00b      	beq.n	5b22 <__aeabi_fadd+0x296>
    5b0a:	28ff      	cmp	r0, #255	; 0xff
    5b0c:	d036      	beq.n	5b7c <__aeabi_fadd+0x2f0>
    5b0e:	291b      	cmp	r1, #27
    5b10:	dc47      	bgt.n	5ba2 <__aeabi_fadd+0x316>
    5b12:	001c      	movs	r4, r3
    5b14:	2620      	movs	r6, #32
    5b16:	40cc      	lsrs	r4, r1
    5b18:	1a71      	subs	r1, r6, r1
    5b1a:	408b      	lsls	r3, r1
    5b1c:	1e59      	subs	r1, r3, #1
    5b1e:	418b      	sbcs	r3, r1
    5b20:	4323      	orrs	r3, r4
    5b22:	4463      	add	r3, ip
    5b24:	0004      	movs	r4, r0
    5b26:	e747      	b.n	59b8 <__aeabi_fadd+0x12c>
    5b28:	2b00      	cmp	r3, #0
    5b2a:	d118      	bne.n	5b5e <__aeabi_fadd+0x2d2>
    5b2c:	1e3b      	subs	r3, r7, #0
    5b2e:	d02d      	beq.n	5b8c <__aeabi_fadd+0x300>
    5b30:	000d      	movs	r5, r1
    5b32:	24ff      	movs	r4, #255	; 0xff
    5b34:	e6e5      	b.n	5902 <__aeabi_fadd+0x76>
    5b36:	003b      	movs	r3, r7
    5b38:	0004      	movs	r4, r0
    5b3a:	000d      	movs	r5, r1
    5b3c:	e6e1      	b.n	5902 <__aeabi_fadd+0x76>
    5b3e:	28ff      	cmp	r0, #255	; 0xff
    5b40:	d01c      	beq.n	5b7c <__aeabi_fadd+0x2f0>
    5b42:	2480      	movs	r4, #128	; 0x80
    5b44:	04e4      	lsls	r4, r4, #19
    5b46:	4249      	negs	r1, r1
    5b48:	4323      	orrs	r3, r4
    5b4a:	e7e0      	b.n	5b0e <__aeabi_fadd+0x282>
    5b4c:	2f00      	cmp	r7, #0
    5b4e:	d100      	bne.n	5b52 <__aeabi_fadd+0x2c6>
    5b50:	e6d7      	b.n	5902 <__aeabi_fadd+0x76>
    5b52:	1bde      	subs	r6, r3, r7
    5b54:	0172      	lsls	r2, r6, #5
    5b56:	d51f      	bpl.n	5b98 <__aeabi_fadd+0x30c>
    5b58:	1afb      	subs	r3, r7, r3
    5b5a:	000d      	movs	r5, r1
    5b5c:	e6d1      	b.n	5902 <__aeabi_fadd+0x76>
    5b5e:	24ff      	movs	r4, #255	; 0xff
    5b60:	2f00      	cmp	r7, #0
    5b62:	d100      	bne.n	5b66 <__aeabi_fadd+0x2da>
    5b64:	e6cd      	b.n	5902 <__aeabi_fadd+0x76>
    5b66:	2280      	movs	r2, #128	; 0x80
    5b68:	4640      	mov	r0, r8
    5b6a:	03d2      	lsls	r2, r2, #15
    5b6c:	4210      	tst	r0, r2
    5b6e:	d0af      	beq.n	5ad0 <__aeabi_fadd+0x244>
    5b70:	4216      	tst	r6, r2
    5b72:	d1ad      	bne.n	5ad0 <__aeabi_fadd+0x244>
    5b74:	003b      	movs	r3, r7
    5b76:	000d      	movs	r5, r1
    5b78:	24ff      	movs	r4, #255	; 0xff
    5b7a:	e6c2      	b.n	5902 <__aeabi_fadd+0x76>
    5b7c:	4663      	mov	r3, ip
    5b7e:	24ff      	movs	r4, #255	; 0xff
    5b80:	e6bf      	b.n	5902 <__aeabi_fadd+0x76>
    5b82:	2301      	movs	r3, #1
    5b84:	e77a      	b.n	5a7c <__aeabi_fadd+0x1f0>
    5b86:	003b      	movs	r3, r7
    5b88:	0004      	movs	r4, r0
    5b8a:	e6ba      	b.n	5902 <__aeabi_fadd+0x76>
    5b8c:	2680      	movs	r6, #128	; 0x80
    5b8e:	2200      	movs	r2, #0
    5b90:	03f6      	lsls	r6, r6, #15
    5b92:	e6f0      	b.n	5976 <__aeabi_fadd+0xea>
    5b94:	003b      	movs	r3, r7
    5b96:	e6b4      	b.n	5902 <__aeabi_fadd+0x76>
    5b98:	1e33      	subs	r3, r6, #0
    5b9a:	d000      	beq.n	5b9e <__aeabi_fadd+0x312>
    5b9c:	e6e2      	b.n	5964 <__aeabi_fadd+0xd8>
    5b9e:	2200      	movs	r2, #0
    5ba0:	e721      	b.n	59e6 <__aeabi_fadd+0x15a>
    5ba2:	2301      	movs	r3, #1
    5ba4:	e7bd      	b.n	5b22 <__aeabi_fadd+0x296>
    5ba6:	46c0      	nop			; (mov r8, r8)
    5ba8:	7dffffff 	.word	0x7dffffff
    5bac:	fbffffff 	.word	0xfbffffff

00005bb0 <__aeabi_fdiv>:
    5bb0:	b5f0      	push	{r4, r5, r6, r7, lr}
    5bb2:	4657      	mov	r7, sl
    5bb4:	464e      	mov	r6, r9
    5bb6:	46de      	mov	lr, fp
    5bb8:	4645      	mov	r5, r8
    5bba:	b5e0      	push	{r5, r6, r7, lr}
    5bbc:	0244      	lsls	r4, r0, #9
    5bbe:	0043      	lsls	r3, r0, #1
    5bc0:	0fc6      	lsrs	r6, r0, #31
    5bc2:	b083      	sub	sp, #12
    5bc4:	1c0f      	adds	r7, r1, #0
    5bc6:	0a64      	lsrs	r4, r4, #9
    5bc8:	0e1b      	lsrs	r3, r3, #24
    5bca:	46b2      	mov	sl, r6
    5bcc:	d053      	beq.n	5c76 <__aeabi_fdiv+0xc6>
    5bce:	2bff      	cmp	r3, #255	; 0xff
    5bd0:	d027      	beq.n	5c22 <__aeabi_fdiv+0x72>
    5bd2:	2280      	movs	r2, #128	; 0x80
    5bd4:	00e4      	lsls	r4, r4, #3
    5bd6:	04d2      	lsls	r2, r2, #19
    5bd8:	4314      	orrs	r4, r2
    5bda:	227f      	movs	r2, #127	; 0x7f
    5bdc:	4252      	negs	r2, r2
    5bde:	4690      	mov	r8, r2
    5be0:	4498      	add	r8, r3
    5be2:	2300      	movs	r3, #0
    5be4:	4699      	mov	r9, r3
    5be6:	469b      	mov	fp, r3
    5be8:	027d      	lsls	r5, r7, #9
    5bea:	0078      	lsls	r0, r7, #1
    5bec:	0ffb      	lsrs	r3, r7, #31
    5bee:	0a6d      	lsrs	r5, r5, #9
    5bf0:	0e00      	lsrs	r0, r0, #24
    5bf2:	9300      	str	r3, [sp, #0]
    5bf4:	d024      	beq.n	5c40 <__aeabi_fdiv+0x90>
    5bf6:	28ff      	cmp	r0, #255	; 0xff
    5bf8:	d046      	beq.n	5c88 <__aeabi_fdiv+0xd8>
    5bfa:	2380      	movs	r3, #128	; 0x80
    5bfc:	2100      	movs	r1, #0
    5bfe:	00ed      	lsls	r5, r5, #3
    5c00:	04db      	lsls	r3, r3, #19
    5c02:	431d      	orrs	r5, r3
    5c04:	387f      	subs	r0, #127	; 0x7f
    5c06:	4647      	mov	r7, r8
    5c08:	1a38      	subs	r0, r7, r0
    5c0a:	464f      	mov	r7, r9
    5c0c:	430f      	orrs	r7, r1
    5c0e:	00bf      	lsls	r7, r7, #2
    5c10:	46b9      	mov	r9, r7
    5c12:	0033      	movs	r3, r6
    5c14:	9a00      	ldr	r2, [sp, #0]
    5c16:	4f87      	ldr	r7, [pc, #540]	; (5e34 <__aeabi_fdiv+0x284>)
    5c18:	4053      	eors	r3, r2
    5c1a:	464a      	mov	r2, r9
    5c1c:	58ba      	ldr	r2, [r7, r2]
    5c1e:	9301      	str	r3, [sp, #4]
    5c20:	4697      	mov	pc, r2
    5c22:	2c00      	cmp	r4, #0
    5c24:	d14e      	bne.n	5cc4 <__aeabi_fdiv+0x114>
    5c26:	2308      	movs	r3, #8
    5c28:	4699      	mov	r9, r3
    5c2a:	33f7      	adds	r3, #247	; 0xf7
    5c2c:	4698      	mov	r8, r3
    5c2e:	3bfd      	subs	r3, #253	; 0xfd
    5c30:	469b      	mov	fp, r3
    5c32:	027d      	lsls	r5, r7, #9
    5c34:	0078      	lsls	r0, r7, #1
    5c36:	0ffb      	lsrs	r3, r7, #31
    5c38:	0a6d      	lsrs	r5, r5, #9
    5c3a:	0e00      	lsrs	r0, r0, #24
    5c3c:	9300      	str	r3, [sp, #0]
    5c3e:	d1da      	bne.n	5bf6 <__aeabi_fdiv+0x46>
    5c40:	2d00      	cmp	r5, #0
    5c42:	d126      	bne.n	5c92 <__aeabi_fdiv+0xe2>
    5c44:	2000      	movs	r0, #0
    5c46:	2101      	movs	r1, #1
    5c48:	0033      	movs	r3, r6
    5c4a:	9a00      	ldr	r2, [sp, #0]
    5c4c:	4f7a      	ldr	r7, [pc, #488]	; (5e38 <__aeabi_fdiv+0x288>)
    5c4e:	4053      	eors	r3, r2
    5c50:	4642      	mov	r2, r8
    5c52:	1a10      	subs	r0, r2, r0
    5c54:	464a      	mov	r2, r9
    5c56:	430a      	orrs	r2, r1
    5c58:	0092      	lsls	r2, r2, #2
    5c5a:	58ba      	ldr	r2, [r7, r2]
    5c5c:	001d      	movs	r5, r3
    5c5e:	4697      	mov	pc, r2
    5c60:	9b00      	ldr	r3, [sp, #0]
    5c62:	002c      	movs	r4, r5
    5c64:	469a      	mov	sl, r3
    5c66:	468b      	mov	fp, r1
    5c68:	465b      	mov	r3, fp
    5c6a:	2b02      	cmp	r3, #2
    5c6c:	d131      	bne.n	5cd2 <__aeabi_fdiv+0x122>
    5c6e:	4653      	mov	r3, sl
    5c70:	21ff      	movs	r1, #255	; 0xff
    5c72:	2400      	movs	r4, #0
    5c74:	e038      	b.n	5ce8 <__aeabi_fdiv+0x138>
    5c76:	2c00      	cmp	r4, #0
    5c78:	d117      	bne.n	5caa <__aeabi_fdiv+0xfa>
    5c7a:	2304      	movs	r3, #4
    5c7c:	4699      	mov	r9, r3
    5c7e:	2300      	movs	r3, #0
    5c80:	4698      	mov	r8, r3
    5c82:	3301      	adds	r3, #1
    5c84:	469b      	mov	fp, r3
    5c86:	e7af      	b.n	5be8 <__aeabi_fdiv+0x38>
    5c88:	20ff      	movs	r0, #255	; 0xff
    5c8a:	2d00      	cmp	r5, #0
    5c8c:	d10b      	bne.n	5ca6 <__aeabi_fdiv+0xf6>
    5c8e:	2102      	movs	r1, #2
    5c90:	e7da      	b.n	5c48 <__aeabi_fdiv+0x98>
    5c92:	0028      	movs	r0, r5
    5c94:	f002 fb0c 	bl	82b0 <__clzsi2>
    5c98:	1f43      	subs	r3, r0, #5
    5c9a:	409d      	lsls	r5, r3
    5c9c:	2376      	movs	r3, #118	; 0x76
    5c9e:	425b      	negs	r3, r3
    5ca0:	1a18      	subs	r0, r3, r0
    5ca2:	2100      	movs	r1, #0
    5ca4:	e7af      	b.n	5c06 <__aeabi_fdiv+0x56>
    5ca6:	2103      	movs	r1, #3
    5ca8:	e7ad      	b.n	5c06 <__aeabi_fdiv+0x56>
    5caa:	0020      	movs	r0, r4
    5cac:	f002 fb00 	bl	82b0 <__clzsi2>
    5cb0:	1f43      	subs	r3, r0, #5
    5cb2:	409c      	lsls	r4, r3
    5cb4:	2376      	movs	r3, #118	; 0x76
    5cb6:	425b      	negs	r3, r3
    5cb8:	1a1b      	subs	r3, r3, r0
    5cba:	4698      	mov	r8, r3
    5cbc:	2300      	movs	r3, #0
    5cbe:	4699      	mov	r9, r3
    5cc0:	469b      	mov	fp, r3
    5cc2:	e791      	b.n	5be8 <__aeabi_fdiv+0x38>
    5cc4:	230c      	movs	r3, #12
    5cc6:	4699      	mov	r9, r3
    5cc8:	33f3      	adds	r3, #243	; 0xf3
    5cca:	4698      	mov	r8, r3
    5ccc:	3bfc      	subs	r3, #252	; 0xfc
    5cce:	469b      	mov	fp, r3
    5cd0:	e78a      	b.n	5be8 <__aeabi_fdiv+0x38>
    5cd2:	2b03      	cmp	r3, #3
    5cd4:	d100      	bne.n	5cd8 <__aeabi_fdiv+0x128>
    5cd6:	e0a5      	b.n	5e24 <__aeabi_fdiv+0x274>
    5cd8:	4655      	mov	r5, sl
    5cda:	2b01      	cmp	r3, #1
    5cdc:	d000      	beq.n	5ce0 <__aeabi_fdiv+0x130>
    5cde:	e081      	b.n	5de4 <__aeabi_fdiv+0x234>
    5ce0:	2301      	movs	r3, #1
    5ce2:	2100      	movs	r1, #0
    5ce4:	2400      	movs	r4, #0
    5ce6:	402b      	ands	r3, r5
    5ce8:	0264      	lsls	r4, r4, #9
    5cea:	05c9      	lsls	r1, r1, #23
    5cec:	0a60      	lsrs	r0, r4, #9
    5cee:	07db      	lsls	r3, r3, #31
    5cf0:	4308      	orrs	r0, r1
    5cf2:	4318      	orrs	r0, r3
    5cf4:	b003      	add	sp, #12
    5cf6:	bc3c      	pop	{r2, r3, r4, r5}
    5cf8:	4690      	mov	r8, r2
    5cfa:	4699      	mov	r9, r3
    5cfc:	46a2      	mov	sl, r4
    5cfe:	46ab      	mov	fp, r5
    5d00:	bdf0      	pop	{r4, r5, r6, r7, pc}
    5d02:	2480      	movs	r4, #128	; 0x80
    5d04:	2300      	movs	r3, #0
    5d06:	03e4      	lsls	r4, r4, #15
    5d08:	21ff      	movs	r1, #255	; 0xff
    5d0a:	e7ed      	b.n	5ce8 <__aeabi_fdiv+0x138>
    5d0c:	21ff      	movs	r1, #255	; 0xff
    5d0e:	2400      	movs	r4, #0
    5d10:	e7ea      	b.n	5ce8 <__aeabi_fdiv+0x138>
    5d12:	2301      	movs	r3, #1
    5d14:	1a59      	subs	r1, r3, r1
    5d16:	291b      	cmp	r1, #27
    5d18:	dd66      	ble.n	5de8 <__aeabi_fdiv+0x238>
    5d1a:	9a01      	ldr	r2, [sp, #4]
    5d1c:	4013      	ands	r3, r2
    5d1e:	2100      	movs	r1, #0
    5d20:	2400      	movs	r4, #0
    5d22:	e7e1      	b.n	5ce8 <__aeabi_fdiv+0x138>
    5d24:	2380      	movs	r3, #128	; 0x80
    5d26:	03db      	lsls	r3, r3, #15
    5d28:	421c      	tst	r4, r3
    5d2a:	d038      	beq.n	5d9e <__aeabi_fdiv+0x1ee>
    5d2c:	421d      	tst	r5, r3
    5d2e:	d051      	beq.n	5dd4 <__aeabi_fdiv+0x224>
    5d30:	431c      	orrs	r4, r3
    5d32:	0264      	lsls	r4, r4, #9
    5d34:	0a64      	lsrs	r4, r4, #9
    5d36:	0033      	movs	r3, r6
    5d38:	21ff      	movs	r1, #255	; 0xff
    5d3a:	e7d5      	b.n	5ce8 <__aeabi_fdiv+0x138>
    5d3c:	0163      	lsls	r3, r4, #5
    5d3e:	016c      	lsls	r4, r5, #5
    5d40:	42a3      	cmp	r3, r4
    5d42:	d23b      	bcs.n	5dbc <__aeabi_fdiv+0x20c>
    5d44:	261b      	movs	r6, #27
    5d46:	2100      	movs	r1, #0
    5d48:	3801      	subs	r0, #1
    5d4a:	2501      	movs	r5, #1
    5d4c:	001f      	movs	r7, r3
    5d4e:	0049      	lsls	r1, r1, #1
    5d50:	005b      	lsls	r3, r3, #1
    5d52:	2f00      	cmp	r7, #0
    5d54:	db01      	blt.n	5d5a <__aeabi_fdiv+0x1aa>
    5d56:	429c      	cmp	r4, r3
    5d58:	d801      	bhi.n	5d5e <__aeabi_fdiv+0x1ae>
    5d5a:	1b1b      	subs	r3, r3, r4
    5d5c:	4329      	orrs	r1, r5
    5d5e:	3e01      	subs	r6, #1
    5d60:	2e00      	cmp	r6, #0
    5d62:	d1f3      	bne.n	5d4c <__aeabi_fdiv+0x19c>
    5d64:	001c      	movs	r4, r3
    5d66:	1e63      	subs	r3, r4, #1
    5d68:	419c      	sbcs	r4, r3
    5d6a:	430c      	orrs	r4, r1
    5d6c:	0001      	movs	r1, r0
    5d6e:	317f      	adds	r1, #127	; 0x7f
    5d70:	2900      	cmp	r1, #0
    5d72:	ddce      	ble.n	5d12 <__aeabi_fdiv+0x162>
    5d74:	0763      	lsls	r3, r4, #29
    5d76:	d004      	beq.n	5d82 <__aeabi_fdiv+0x1d2>
    5d78:	230f      	movs	r3, #15
    5d7a:	4023      	ands	r3, r4
    5d7c:	2b04      	cmp	r3, #4
    5d7e:	d000      	beq.n	5d82 <__aeabi_fdiv+0x1d2>
    5d80:	3404      	adds	r4, #4
    5d82:	0123      	lsls	r3, r4, #4
    5d84:	d503      	bpl.n	5d8e <__aeabi_fdiv+0x1de>
    5d86:	0001      	movs	r1, r0
    5d88:	4b2c      	ldr	r3, [pc, #176]	; (5e3c <__aeabi_fdiv+0x28c>)
    5d8a:	3180      	adds	r1, #128	; 0x80
    5d8c:	401c      	ands	r4, r3
    5d8e:	29fe      	cmp	r1, #254	; 0xfe
    5d90:	dd0d      	ble.n	5dae <__aeabi_fdiv+0x1fe>
    5d92:	2301      	movs	r3, #1
    5d94:	9a01      	ldr	r2, [sp, #4]
    5d96:	21ff      	movs	r1, #255	; 0xff
    5d98:	4013      	ands	r3, r2
    5d9a:	2400      	movs	r4, #0
    5d9c:	e7a4      	b.n	5ce8 <__aeabi_fdiv+0x138>
    5d9e:	2380      	movs	r3, #128	; 0x80
    5da0:	03db      	lsls	r3, r3, #15
    5da2:	431c      	orrs	r4, r3
    5da4:	0264      	lsls	r4, r4, #9
    5da6:	0a64      	lsrs	r4, r4, #9
    5da8:	0033      	movs	r3, r6
    5daa:	21ff      	movs	r1, #255	; 0xff
    5dac:	e79c      	b.n	5ce8 <__aeabi_fdiv+0x138>
    5dae:	2301      	movs	r3, #1
    5db0:	9a01      	ldr	r2, [sp, #4]
    5db2:	01a4      	lsls	r4, r4, #6
    5db4:	0a64      	lsrs	r4, r4, #9
    5db6:	b2c9      	uxtb	r1, r1
    5db8:	4013      	ands	r3, r2
    5dba:	e795      	b.n	5ce8 <__aeabi_fdiv+0x138>
    5dbc:	1b1b      	subs	r3, r3, r4
    5dbe:	261a      	movs	r6, #26
    5dc0:	2101      	movs	r1, #1
    5dc2:	e7c2      	b.n	5d4a <__aeabi_fdiv+0x19a>
    5dc4:	9b00      	ldr	r3, [sp, #0]
    5dc6:	468b      	mov	fp, r1
    5dc8:	469a      	mov	sl, r3
    5dca:	2400      	movs	r4, #0
    5dcc:	e74c      	b.n	5c68 <__aeabi_fdiv+0xb8>
    5dce:	0263      	lsls	r3, r4, #9
    5dd0:	d5e5      	bpl.n	5d9e <__aeabi_fdiv+0x1ee>
    5dd2:	2500      	movs	r5, #0
    5dd4:	2480      	movs	r4, #128	; 0x80
    5dd6:	03e4      	lsls	r4, r4, #15
    5dd8:	432c      	orrs	r4, r5
    5dda:	0264      	lsls	r4, r4, #9
    5ddc:	0a64      	lsrs	r4, r4, #9
    5dde:	9b00      	ldr	r3, [sp, #0]
    5de0:	21ff      	movs	r1, #255	; 0xff
    5de2:	e781      	b.n	5ce8 <__aeabi_fdiv+0x138>
    5de4:	9501      	str	r5, [sp, #4]
    5de6:	e7c1      	b.n	5d6c <__aeabi_fdiv+0x1bc>
    5de8:	0023      	movs	r3, r4
    5dea:	2020      	movs	r0, #32
    5dec:	40cb      	lsrs	r3, r1
    5dee:	1a41      	subs	r1, r0, r1
    5df0:	408c      	lsls	r4, r1
    5df2:	1e61      	subs	r1, r4, #1
    5df4:	418c      	sbcs	r4, r1
    5df6:	431c      	orrs	r4, r3
    5df8:	0763      	lsls	r3, r4, #29
    5dfa:	d004      	beq.n	5e06 <__aeabi_fdiv+0x256>
    5dfc:	230f      	movs	r3, #15
    5dfe:	4023      	ands	r3, r4
    5e00:	2b04      	cmp	r3, #4
    5e02:	d000      	beq.n	5e06 <__aeabi_fdiv+0x256>
    5e04:	3404      	adds	r4, #4
    5e06:	0163      	lsls	r3, r4, #5
    5e08:	d505      	bpl.n	5e16 <__aeabi_fdiv+0x266>
    5e0a:	2301      	movs	r3, #1
    5e0c:	9a01      	ldr	r2, [sp, #4]
    5e0e:	2101      	movs	r1, #1
    5e10:	4013      	ands	r3, r2
    5e12:	2400      	movs	r4, #0
    5e14:	e768      	b.n	5ce8 <__aeabi_fdiv+0x138>
    5e16:	2301      	movs	r3, #1
    5e18:	9a01      	ldr	r2, [sp, #4]
    5e1a:	01a4      	lsls	r4, r4, #6
    5e1c:	0a64      	lsrs	r4, r4, #9
    5e1e:	4013      	ands	r3, r2
    5e20:	2100      	movs	r1, #0
    5e22:	e761      	b.n	5ce8 <__aeabi_fdiv+0x138>
    5e24:	2380      	movs	r3, #128	; 0x80
    5e26:	03db      	lsls	r3, r3, #15
    5e28:	431c      	orrs	r4, r3
    5e2a:	0264      	lsls	r4, r4, #9
    5e2c:	0a64      	lsrs	r4, r4, #9
    5e2e:	4653      	mov	r3, sl
    5e30:	21ff      	movs	r1, #255	; 0xff
    5e32:	e759      	b.n	5ce8 <__aeabi_fdiv+0x138>
    5e34:	00008e84 	.word	0x00008e84
    5e38:	00008ec4 	.word	0x00008ec4
    5e3c:	f7ffffff 	.word	0xf7ffffff

00005e40 <__eqsf2>:
    5e40:	b570      	push	{r4, r5, r6, lr}
    5e42:	0042      	lsls	r2, r0, #1
    5e44:	0245      	lsls	r5, r0, #9
    5e46:	024e      	lsls	r6, r1, #9
    5e48:	004c      	lsls	r4, r1, #1
    5e4a:	0fc3      	lsrs	r3, r0, #31
    5e4c:	0a6d      	lsrs	r5, r5, #9
    5e4e:	0e12      	lsrs	r2, r2, #24
    5e50:	0a76      	lsrs	r6, r6, #9
    5e52:	0e24      	lsrs	r4, r4, #24
    5e54:	0fc9      	lsrs	r1, r1, #31
    5e56:	2001      	movs	r0, #1
    5e58:	2aff      	cmp	r2, #255	; 0xff
    5e5a:	d006      	beq.n	5e6a <__eqsf2+0x2a>
    5e5c:	2cff      	cmp	r4, #255	; 0xff
    5e5e:	d003      	beq.n	5e68 <__eqsf2+0x28>
    5e60:	42a2      	cmp	r2, r4
    5e62:	d101      	bne.n	5e68 <__eqsf2+0x28>
    5e64:	42b5      	cmp	r5, r6
    5e66:	d006      	beq.n	5e76 <__eqsf2+0x36>
    5e68:	bd70      	pop	{r4, r5, r6, pc}
    5e6a:	2d00      	cmp	r5, #0
    5e6c:	d1fc      	bne.n	5e68 <__eqsf2+0x28>
    5e6e:	2cff      	cmp	r4, #255	; 0xff
    5e70:	d1fa      	bne.n	5e68 <__eqsf2+0x28>
    5e72:	2e00      	cmp	r6, #0
    5e74:	d1f8      	bne.n	5e68 <__eqsf2+0x28>
    5e76:	428b      	cmp	r3, r1
    5e78:	d006      	beq.n	5e88 <__eqsf2+0x48>
    5e7a:	2001      	movs	r0, #1
    5e7c:	2a00      	cmp	r2, #0
    5e7e:	d1f3      	bne.n	5e68 <__eqsf2+0x28>
    5e80:	0028      	movs	r0, r5
    5e82:	1e45      	subs	r5, r0, #1
    5e84:	41a8      	sbcs	r0, r5
    5e86:	e7ef      	b.n	5e68 <__eqsf2+0x28>
    5e88:	2000      	movs	r0, #0
    5e8a:	e7ed      	b.n	5e68 <__eqsf2+0x28>

00005e8c <__gesf2>:
    5e8c:	b5f0      	push	{r4, r5, r6, r7, lr}
    5e8e:	0042      	lsls	r2, r0, #1
    5e90:	0245      	lsls	r5, r0, #9
    5e92:	024c      	lsls	r4, r1, #9
    5e94:	0fc3      	lsrs	r3, r0, #31
    5e96:	0048      	lsls	r0, r1, #1
    5e98:	0a6d      	lsrs	r5, r5, #9
    5e9a:	0e12      	lsrs	r2, r2, #24
    5e9c:	0a64      	lsrs	r4, r4, #9
    5e9e:	0e00      	lsrs	r0, r0, #24
    5ea0:	0fc9      	lsrs	r1, r1, #31
    5ea2:	2aff      	cmp	r2, #255	; 0xff
    5ea4:	d01e      	beq.n	5ee4 <__gesf2+0x58>
    5ea6:	28ff      	cmp	r0, #255	; 0xff
    5ea8:	d021      	beq.n	5eee <__gesf2+0x62>
    5eaa:	2a00      	cmp	r2, #0
    5eac:	d10a      	bne.n	5ec4 <__gesf2+0x38>
    5eae:	426e      	negs	r6, r5
    5eb0:	416e      	adcs	r6, r5
    5eb2:	b2f6      	uxtb	r6, r6
    5eb4:	2800      	cmp	r0, #0
    5eb6:	d10f      	bne.n	5ed8 <__gesf2+0x4c>
    5eb8:	2c00      	cmp	r4, #0
    5eba:	d10d      	bne.n	5ed8 <__gesf2+0x4c>
    5ebc:	2000      	movs	r0, #0
    5ebe:	2d00      	cmp	r5, #0
    5ec0:	d009      	beq.n	5ed6 <__gesf2+0x4a>
    5ec2:	e005      	b.n	5ed0 <__gesf2+0x44>
    5ec4:	2800      	cmp	r0, #0
    5ec6:	d101      	bne.n	5ecc <__gesf2+0x40>
    5ec8:	2c00      	cmp	r4, #0
    5eca:	d001      	beq.n	5ed0 <__gesf2+0x44>
    5ecc:	428b      	cmp	r3, r1
    5ece:	d011      	beq.n	5ef4 <__gesf2+0x68>
    5ed0:	2101      	movs	r1, #1
    5ed2:	4258      	negs	r0, r3
    5ed4:	4308      	orrs	r0, r1
    5ed6:	bdf0      	pop	{r4, r5, r6, r7, pc}
    5ed8:	2e00      	cmp	r6, #0
    5eda:	d0f7      	beq.n	5ecc <__gesf2+0x40>
    5edc:	2001      	movs	r0, #1
    5ede:	3901      	subs	r1, #1
    5ee0:	4308      	orrs	r0, r1
    5ee2:	e7f8      	b.n	5ed6 <__gesf2+0x4a>
    5ee4:	2d00      	cmp	r5, #0
    5ee6:	d0de      	beq.n	5ea6 <__gesf2+0x1a>
    5ee8:	2002      	movs	r0, #2
    5eea:	4240      	negs	r0, r0
    5eec:	e7f3      	b.n	5ed6 <__gesf2+0x4a>
    5eee:	2c00      	cmp	r4, #0
    5ef0:	d0db      	beq.n	5eaa <__gesf2+0x1e>
    5ef2:	e7f9      	b.n	5ee8 <__gesf2+0x5c>
    5ef4:	4282      	cmp	r2, r0
    5ef6:	dceb      	bgt.n	5ed0 <__gesf2+0x44>
    5ef8:	db04      	blt.n	5f04 <__gesf2+0x78>
    5efa:	42a5      	cmp	r5, r4
    5efc:	d8e8      	bhi.n	5ed0 <__gesf2+0x44>
    5efe:	2000      	movs	r0, #0
    5f00:	42a5      	cmp	r5, r4
    5f02:	d2e8      	bcs.n	5ed6 <__gesf2+0x4a>
    5f04:	2101      	movs	r1, #1
    5f06:	1e58      	subs	r0, r3, #1
    5f08:	4308      	orrs	r0, r1
    5f0a:	e7e4      	b.n	5ed6 <__gesf2+0x4a>

00005f0c <__lesf2>:
    5f0c:	b5f0      	push	{r4, r5, r6, r7, lr}
    5f0e:	0042      	lsls	r2, r0, #1
    5f10:	024d      	lsls	r5, r1, #9
    5f12:	004c      	lsls	r4, r1, #1
    5f14:	0246      	lsls	r6, r0, #9
    5f16:	0a76      	lsrs	r6, r6, #9
    5f18:	0e12      	lsrs	r2, r2, #24
    5f1a:	0fc3      	lsrs	r3, r0, #31
    5f1c:	0a6d      	lsrs	r5, r5, #9
    5f1e:	0e24      	lsrs	r4, r4, #24
    5f20:	0fc9      	lsrs	r1, r1, #31
    5f22:	2aff      	cmp	r2, #255	; 0xff
    5f24:	d016      	beq.n	5f54 <__lesf2+0x48>
    5f26:	2cff      	cmp	r4, #255	; 0xff
    5f28:	d018      	beq.n	5f5c <__lesf2+0x50>
    5f2a:	2a00      	cmp	r2, #0
    5f2c:	d10a      	bne.n	5f44 <__lesf2+0x38>
    5f2e:	4270      	negs	r0, r6
    5f30:	4170      	adcs	r0, r6
    5f32:	b2c0      	uxtb	r0, r0
    5f34:	2c00      	cmp	r4, #0
    5f36:	d015      	beq.n	5f64 <__lesf2+0x58>
    5f38:	2800      	cmp	r0, #0
    5f3a:	d005      	beq.n	5f48 <__lesf2+0x3c>
    5f3c:	2001      	movs	r0, #1
    5f3e:	3901      	subs	r1, #1
    5f40:	4308      	orrs	r0, r1
    5f42:	bdf0      	pop	{r4, r5, r6, r7, pc}
    5f44:	2c00      	cmp	r4, #0
    5f46:	d013      	beq.n	5f70 <__lesf2+0x64>
    5f48:	4299      	cmp	r1, r3
    5f4a:	d014      	beq.n	5f76 <__lesf2+0x6a>
    5f4c:	2001      	movs	r0, #1
    5f4e:	425b      	negs	r3, r3
    5f50:	4318      	orrs	r0, r3
    5f52:	e7f6      	b.n	5f42 <__lesf2+0x36>
    5f54:	2002      	movs	r0, #2
    5f56:	2e00      	cmp	r6, #0
    5f58:	d1f3      	bne.n	5f42 <__lesf2+0x36>
    5f5a:	e7e4      	b.n	5f26 <__lesf2+0x1a>
    5f5c:	2002      	movs	r0, #2
    5f5e:	2d00      	cmp	r5, #0
    5f60:	d1ef      	bne.n	5f42 <__lesf2+0x36>
    5f62:	e7e2      	b.n	5f2a <__lesf2+0x1e>
    5f64:	2d00      	cmp	r5, #0
    5f66:	d1e7      	bne.n	5f38 <__lesf2+0x2c>
    5f68:	2000      	movs	r0, #0
    5f6a:	2e00      	cmp	r6, #0
    5f6c:	d0e9      	beq.n	5f42 <__lesf2+0x36>
    5f6e:	e7ed      	b.n	5f4c <__lesf2+0x40>
    5f70:	2d00      	cmp	r5, #0
    5f72:	d1e9      	bne.n	5f48 <__lesf2+0x3c>
    5f74:	e7ea      	b.n	5f4c <__lesf2+0x40>
    5f76:	42a2      	cmp	r2, r4
    5f78:	dc06      	bgt.n	5f88 <__lesf2+0x7c>
    5f7a:	dbdf      	blt.n	5f3c <__lesf2+0x30>
    5f7c:	42ae      	cmp	r6, r5
    5f7e:	d803      	bhi.n	5f88 <__lesf2+0x7c>
    5f80:	2000      	movs	r0, #0
    5f82:	42ae      	cmp	r6, r5
    5f84:	d3da      	bcc.n	5f3c <__lesf2+0x30>
    5f86:	e7dc      	b.n	5f42 <__lesf2+0x36>
    5f88:	2001      	movs	r0, #1
    5f8a:	4249      	negs	r1, r1
    5f8c:	4308      	orrs	r0, r1
    5f8e:	e7d8      	b.n	5f42 <__lesf2+0x36>

00005f90 <__aeabi_fmul>:
    5f90:	b5f8      	push	{r3, r4, r5, r6, r7, lr}
    5f92:	4657      	mov	r7, sl
    5f94:	464e      	mov	r6, r9
    5f96:	4645      	mov	r5, r8
    5f98:	46de      	mov	lr, fp
    5f9a:	b5e0      	push	{r5, r6, r7, lr}
    5f9c:	0247      	lsls	r7, r0, #9
    5f9e:	0046      	lsls	r6, r0, #1
    5fa0:	4688      	mov	r8, r1
    5fa2:	0a7f      	lsrs	r7, r7, #9
    5fa4:	0e36      	lsrs	r6, r6, #24
    5fa6:	0fc4      	lsrs	r4, r0, #31
    5fa8:	2e00      	cmp	r6, #0
    5faa:	d047      	beq.n	603c <__aeabi_fmul+0xac>
    5fac:	2eff      	cmp	r6, #255	; 0xff
    5fae:	d024      	beq.n	5ffa <__aeabi_fmul+0x6a>
    5fb0:	00fb      	lsls	r3, r7, #3
    5fb2:	2780      	movs	r7, #128	; 0x80
    5fb4:	04ff      	lsls	r7, r7, #19
    5fb6:	431f      	orrs	r7, r3
    5fb8:	2300      	movs	r3, #0
    5fba:	4699      	mov	r9, r3
    5fbc:	469a      	mov	sl, r3
    5fbe:	3e7f      	subs	r6, #127	; 0x7f
    5fc0:	4643      	mov	r3, r8
    5fc2:	025d      	lsls	r5, r3, #9
    5fc4:	0058      	lsls	r0, r3, #1
    5fc6:	0fdb      	lsrs	r3, r3, #31
    5fc8:	0a6d      	lsrs	r5, r5, #9
    5fca:	0e00      	lsrs	r0, r0, #24
    5fcc:	4698      	mov	r8, r3
    5fce:	d043      	beq.n	6058 <__aeabi_fmul+0xc8>
    5fd0:	28ff      	cmp	r0, #255	; 0xff
    5fd2:	d03b      	beq.n	604c <__aeabi_fmul+0xbc>
    5fd4:	00eb      	lsls	r3, r5, #3
    5fd6:	2580      	movs	r5, #128	; 0x80
    5fd8:	2200      	movs	r2, #0
    5fda:	04ed      	lsls	r5, r5, #19
    5fdc:	431d      	orrs	r5, r3
    5fde:	387f      	subs	r0, #127	; 0x7f
    5fe0:	1836      	adds	r6, r6, r0
    5fe2:	1c73      	adds	r3, r6, #1
    5fe4:	4641      	mov	r1, r8
    5fe6:	469b      	mov	fp, r3
    5fe8:	464b      	mov	r3, r9
    5fea:	4061      	eors	r1, r4
    5fec:	4313      	orrs	r3, r2
    5fee:	2b0f      	cmp	r3, #15
    5ff0:	d864      	bhi.n	60bc <__aeabi_fmul+0x12c>
    5ff2:	4875      	ldr	r0, [pc, #468]	; (61c8 <__aeabi_fmul+0x238>)
    5ff4:	009b      	lsls	r3, r3, #2
    5ff6:	58c3      	ldr	r3, [r0, r3]
    5ff8:	469f      	mov	pc, r3
    5ffa:	2f00      	cmp	r7, #0
    5ffc:	d142      	bne.n	6084 <__aeabi_fmul+0xf4>
    5ffe:	2308      	movs	r3, #8
    6000:	4699      	mov	r9, r3
    6002:	3b06      	subs	r3, #6
    6004:	26ff      	movs	r6, #255	; 0xff
    6006:	469a      	mov	sl, r3
    6008:	e7da      	b.n	5fc0 <__aeabi_fmul+0x30>
    600a:	4641      	mov	r1, r8
    600c:	2a02      	cmp	r2, #2
    600e:	d028      	beq.n	6062 <__aeabi_fmul+0xd2>
    6010:	2a03      	cmp	r2, #3
    6012:	d100      	bne.n	6016 <__aeabi_fmul+0x86>
    6014:	e0ce      	b.n	61b4 <__aeabi_fmul+0x224>
    6016:	2a01      	cmp	r2, #1
    6018:	d000      	beq.n	601c <__aeabi_fmul+0x8c>
    601a:	e0ac      	b.n	6176 <__aeabi_fmul+0x1e6>
    601c:	4011      	ands	r1, r2
    601e:	2000      	movs	r0, #0
    6020:	2200      	movs	r2, #0
    6022:	b2cc      	uxtb	r4, r1
    6024:	0240      	lsls	r0, r0, #9
    6026:	05d2      	lsls	r2, r2, #23
    6028:	0a40      	lsrs	r0, r0, #9
    602a:	07e4      	lsls	r4, r4, #31
    602c:	4310      	orrs	r0, r2
    602e:	4320      	orrs	r0, r4
    6030:	bc3c      	pop	{r2, r3, r4, r5}
    6032:	4690      	mov	r8, r2
    6034:	4699      	mov	r9, r3
    6036:	46a2      	mov	sl, r4
    6038:	46ab      	mov	fp, r5
    603a:	bdf8      	pop	{r3, r4, r5, r6, r7, pc}
    603c:	2f00      	cmp	r7, #0
    603e:	d115      	bne.n	606c <__aeabi_fmul+0xdc>
    6040:	2304      	movs	r3, #4
    6042:	4699      	mov	r9, r3
    6044:	3b03      	subs	r3, #3
    6046:	2600      	movs	r6, #0
    6048:	469a      	mov	sl, r3
    604a:	e7b9      	b.n	5fc0 <__aeabi_fmul+0x30>
    604c:	20ff      	movs	r0, #255	; 0xff
    604e:	2202      	movs	r2, #2
    6050:	2d00      	cmp	r5, #0
    6052:	d0c5      	beq.n	5fe0 <__aeabi_fmul+0x50>
    6054:	2203      	movs	r2, #3
    6056:	e7c3      	b.n	5fe0 <__aeabi_fmul+0x50>
    6058:	2d00      	cmp	r5, #0
    605a:	d119      	bne.n	6090 <__aeabi_fmul+0x100>
    605c:	2000      	movs	r0, #0
    605e:	2201      	movs	r2, #1
    6060:	e7be      	b.n	5fe0 <__aeabi_fmul+0x50>
    6062:	2401      	movs	r4, #1
    6064:	22ff      	movs	r2, #255	; 0xff
    6066:	400c      	ands	r4, r1
    6068:	2000      	movs	r0, #0
    606a:	e7db      	b.n	6024 <__aeabi_fmul+0x94>
    606c:	0038      	movs	r0, r7
    606e:	f002 f91f 	bl	82b0 <__clzsi2>
    6072:	2676      	movs	r6, #118	; 0x76
    6074:	1f43      	subs	r3, r0, #5
    6076:	409f      	lsls	r7, r3
    6078:	2300      	movs	r3, #0
    607a:	4276      	negs	r6, r6
    607c:	1a36      	subs	r6, r6, r0
    607e:	4699      	mov	r9, r3
    6080:	469a      	mov	sl, r3
    6082:	e79d      	b.n	5fc0 <__aeabi_fmul+0x30>
    6084:	230c      	movs	r3, #12
    6086:	4699      	mov	r9, r3
    6088:	3b09      	subs	r3, #9
    608a:	26ff      	movs	r6, #255	; 0xff
    608c:	469a      	mov	sl, r3
    608e:	e797      	b.n	5fc0 <__aeabi_fmul+0x30>
    6090:	0028      	movs	r0, r5
    6092:	f002 f90d 	bl	82b0 <__clzsi2>
    6096:	1f43      	subs	r3, r0, #5
    6098:	409d      	lsls	r5, r3
    609a:	2376      	movs	r3, #118	; 0x76
    609c:	425b      	negs	r3, r3
    609e:	1a18      	subs	r0, r3, r0
    60a0:	2200      	movs	r2, #0
    60a2:	e79d      	b.n	5fe0 <__aeabi_fmul+0x50>
    60a4:	2080      	movs	r0, #128	; 0x80
    60a6:	2400      	movs	r4, #0
    60a8:	03c0      	lsls	r0, r0, #15
    60aa:	22ff      	movs	r2, #255	; 0xff
    60ac:	e7ba      	b.n	6024 <__aeabi_fmul+0x94>
    60ae:	003d      	movs	r5, r7
    60b0:	4652      	mov	r2, sl
    60b2:	e7ab      	b.n	600c <__aeabi_fmul+0x7c>
    60b4:	003d      	movs	r5, r7
    60b6:	0021      	movs	r1, r4
    60b8:	4652      	mov	r2, sl
    60ba:	e7a7      	b.n	600c <__aeabi_fmul+0x7c>
    60bc:	0c3b      	lsrs	r3, r7, #16
    60be:	469c      	mov	ip, r3
    60c0:	042a      	lsls	r2, r5, #16
    60c2:	0c12      	lsrs	r2, r2, #16
    60c4:	0c2b      	lsrs	r3, r5, #16
    60c6:	0014      	movs	r4, r2
    60c8:	4660      	mov	r0, ip
    60ca:	4665      	mov	r5, ip
    60cc:	043f      	lsls	r7, r7, #16
    60ce:	0c3f      	lsrs	r7, r7, #16
    60d0:	437c      	muls	r4, r7
    60d2:	4342      	muls	r2, r0
    60d4:	435d      	muls	r5, r3
    60d6:	437b      	muls	r3, r7
    60d8:	0c27      	lsrs	r7, r4, #16
    60da:	189b      	adds	r3, r3, r2
    60dc:	18ff      	adds	r7, r7, r3
    60de:	42ba      	cmp	r2, r7
    60e0:	d903      	bls.n	60ea <__aeabi_fmul+0x15a>
    60e2:	2380      	movs	r3, #128	; 0x80
    60e4:	025b      	lsls	r3, r3, #9
    60e6:	469c      	mov	ip, r3
    60e8:	4465      	add	r5, ip
    60ea:	0424      	lsls	r4, r4, #16
    60ec:	043a      	lsls	r2, r7, #16
    60ee:	0c24      	lsrs	r4, r4, #16
    60f0:	1912      	adds	r2, r2, r4
    60f2:	0193      	lsls	r3, r2, #6
    60f4:	1e5c      	subs	r4, r3, #1
    60f6:	41a3      	sbcs	r3, r4
    60f8:	0c3f      	lsrs	r7, r7, #16
    60fa:	0e92      	lsrs	r2, r2, #26
    60fc:	197d      	adds	r5, r7, r5
    60fe:	431a      	orrs	r2, r3
    6100:	01ad      	lsls	r5, r5, #6
    6102:	4315      	orrs	r5, r2
    6104:	012b      	lsls	r3, r5, #4
    6106:	d504      	bpl.n	6112 <__aeabi_fmul+0x182>
    6108:	2301      	movs	r3, #1
    610a:	465e      	mov	r6, fp
    610c:	086a      	lsrs	r2, r5, #1
    610e:	401d      	ands	r5, r3
    6110:	4315      	orrs	r5, r2
    6112:	0032      	movs	r2, r6
    6114:	327f      	adds	r2, #127	; 0x7f
    6116:	2a00      	cmp	r2, #0
    6118:	dd25      	ble.n	6166 <__aeabi_fmul+0x1d6>
    611a:	076b      	lsls	r3, r5, #29
    611c:	d004      	beq.n	6128 <__aeabi_fmul+0x198>
    611e:	230f      	movs	r3, #15
    6120:	402b      	ands	r3, r5
    6122:	2b04      	cmp	r3, #4
    6124:	d000      	beq.n	6128 <__aeabi_fmul+0x198>
    6126:	3504      	adds	r5, #4
    6128:	012b      	lsls	r3, r5, #4
    612a:	d503      	bpl.n	6134 <__aeabi_fmul+0x1a4>
    612c:	0032      	movs	r2, r6
    612e:	4b27      	ldr	r3, [pc, #156]	; (61cc <__aeabi_fmul+0x23c>)
    6130:	3280      	adds	r2, #128	; 0x80
    6132:	401d      	ands	r5, r3
    6134:	2afe      	cmp	r2, #254	; 0xfe
    6136:	dc94      	bgt.n	6062 <__aeabi_fmul+0xd2>
    6138:	2401      	movs	r4, #1
    613a:	01a8      	lsls	r0, r5, #6
    613c:	0a40      	lsrs	r0, r0, #9
    613e:	b2d2      	uxtb	r2, r2
    6140:	400c      	ands	r4, r1
    6142:	e76f      	b.n	6024 <__aeabi_fmul+0x94>
    6144:	2080      	movs	r0, #128	; 0x80
    6146:	03c0      	lsls	r0, r0, #15
    6148:	4207      	tst	r7, r0
    614a:	d007      	beq.n	615c <__aeabi_fmul+0x1cc>
    614c:	4205      	tst	r5, r0
    614e:	d105      	bne.n	615c <__aeabi_fmul+0x1cc>
    6150:	4328      	orrs	r0, r5
    6152:	0240      	lsls	r0, r0, #9
    6154:	0a40      	lsrs	r0, r0, #9
    6156:	4644      	mov	r4, r8
    6158:	22ff      	movs	r2, #255	; 0xff
    615a:	e763      	b.n	6024 <__aeabi_fmul+0x94>
    615c:	4338      	orrs	r0, r7
    615e:	0240      	lsls	r0, r0, #9
    6160:	0a40      	lsrs	r0, r0, #9
    6162:	22ff      	movs	r2, #255	; 0xff
    6164:	e75e      	b.n	6024 <__aeabi_fmul+0x94>
    6166:	2401      	movs	r4, #1
    6168:	1aa3      	subs	r3, r4, r2
    616a:	2b1b      	cmp	r3, #27
    616c:	dd05      	ble.n	617a <__aeabi_fmul+0x1ea>
    616e:	400c      	ands	r4, r1
    6170:	2200      	movs	r2, #0
    6172:	2000      	movs	r0, #0
    6174:	e756      	b.n	6024 <__aeabi_fmul+0x94>
    6176:	465e      	mov	r6, fp
    6178:	e7cb      	b.n	6112 <__aeabi_fmul+0x182>
    617a:	002a      	movs	r2, r5
    617c:	2020      	movs	r0, #32
    617e:	40da      	lsrs	r2, r3
    6180:	1ac3      	subs	r3, r0, r3
    6182:	409d      	lsls	r5, r3
    6184:	002b      	movs	r3, r5
    6186:	1e5d      	subs	r5, r3, #1
    6188:	41ab      	sbcs	r3, r5
    618a:	4313      	orrs	r3, r2
    618c:	075a      	lsls	r2, r3, #29
    618e:	d004      	beq.n	619a <__aeabi_fmul+0x20a>
    6190:	220f      	movs	r2, #15
    6192:	401a      	ands	r2, r3
    6194:	2a04      	cmp	r2, #4
    6196:	d000      	beq.n	619a <__aeabi_fmul+0x20a>
    6198:	3304      	adds	r3, #4
    619a:	015a      	lsls	r2, r3, #5
    619c:	d504      	bpl.n	61a8 <__aeabi_fmul+0x218>
    619e:	2401      	movs	r4, #1
    61a0:	2201      	movs	r2, #1
    61a2:	400c      	ands	r4, r1
    61a4:	2000      	movs	r0, #0
    61a6:	e73d      	b.n	6024 <__aeabi_fmul+0x94>
    61a8:	2401      	movs	r4, #1
    61aa:	019b      	lsls	r3, r3, #6
    61ac:	0a58      	lsrs	r0, r3, #9
    61ae:	400c      	ands	r4, r1
    61b0:	2200      	movs	r2, #0
    61b2:	e737      	b.n	6024 <__aeabi_fmul+0x94>
    61b4:	2080      	movs	r0, #128	; 0x80
    61b6:	2401      	movs	r4, #1
    61b8:	03c0      	lsls	r0, r0, #15
    61ba:	4328      	orrs	r0, r5
    61bc:	0240      	lsls	r0, r0, #9
    61be:	0a40      	lsrs	r0, r0, #9
    61c0:	400c      	ands	r4, r1
    61c2:	22ff      	movs	r2, #255	; 0xff
    61c4:	e72e      	b.n	6024 <__aeabi_fmul+0x94>
    61c6:	46c0      	nop			; (mov r8, r8)
    61c8:	00008f04 	.word	0x00008f04
    61cc:	f7ffffff 	.word	0xf7ffffff

000061d0 <__aeabi_fsub>:
    61d0:	b5f0      	push	{r4, r5, r6, r7, lr}
    61d2:	464f      	mov	r7, r9
    61d4:	46d6      	mov	lr, sl
    61d6:	4646      	mov	r6, r8
    61d8:	0044      	lsls	r4, r0, #1
    61da:	b5c0      	push	{r6, r7, lr}
    61dc:	0fc2      	lsrs	r2, r0, #31
    61de:	0247      	lsls	r7, r0, #9
    61e0:	0248      	lsls	r0, r1, #9
    61e2:	0a40      	lsrs	r0, r0, #9
    61e4:	4684      	mov	ip, r0
    61e6:	4666      	mov	r6, ip
    61e8:	0a7b      	lsrs	r3, r7, #9
    61ea:	0048      	lsls	r0, r1, #1
    61ec:	0fc9      	lsrs	r1, r1, #31
    61ee:	469a      	mov	sl, r3
    61f0:	0e24      	lsrs	r4, r4, #24
    61f2:	0015      	movs	r5, r2
    61f4:	00db      	lsls	r3, r3, #3
    61f6:	0e00      	lsrs	r0, r0, #24
    61f8:	4689      	mov	r9, r1
    61fa:	00f6      	lsls	r6, r6, #3
    61fc:	28ff      	cmp	r0, #255	; 0xff
    61fe:	d100      	bne.n	6202 <__aeabi_fsub+0x32>
    6200:	e08f      	b.n	6322 <__aeabi_fsub+0x152>
    6202:	2101      	movs	r1, #1
    6204:	464f      	mov	r7, r9
    6206:	404f      	eors	r7, r1
    6208:	0039      	movs	r1, r7
    620a:	4291      	cmp	r1, r2
    620c:	d066      	beq.n	62dc <__aeabi_fsub+0x10c>
    620e:	1a22      	subs	r2, r4, r0
    6210:	2a00      	cmp	r2, #0
    6212:	dc00      	bgt.n	6216 <__aeabi_fsub+0x46>
    6214:	e09d      	b.n	6352 <__aeabi_fsub+0x182>
    6216:	2800      	cmp	r0, #0
    6218:	d13d      	bne.n	6296 <__aeabi_fsub+0xc6>
    621a:	2e00      	cmp	r6, #0
    621c:	d100      	bne.n	6220 <__aeabi_fsub+0x50>
    621e:	e08b      	b.n	6338 <__aeabi_fsub+0x168>
    6220:	1e51      	subs	r1, r2, #1
    6222:	2900      	cmp	r1, #0
    6224:	d000      	beq.n	6228 <__aeabi_fsub+0x58>
    6226:	e0b5      	b.n	6394 <__aeabi_fsub+0x1c4>
    6228:	2401      	movs	r4, #1
    622a:	1b9b      	subs	r3, r3, r6
    622c:	015a      	lsls	r2, r3, #5
    622e:	d544      	bpl.n	62ba <__aeabi_fsub+0xea>
    6230:	019b      	lsls	r3, r3, #6
    6232:	099f      	lsrs	r7, r3, #6
    6234:	0038      	movs	r0, r7
    6236:	f002 f83b 	bl	82b0 <__clzsi2>
    623a:	3805      	subs	r0, #5
    623c:	4087      	lsls	r7, r0
    623e:	4284      	cmp	r4, r0
    6240:	dd00      	ble.n	6244 <__aeabi_fsub+0x74>
    6242:	e096      	b.n	6372 <__aeabi_fsub+0x1a2>
    6244:	1b04      	subs	r4, r0, r4
    6246:	003a      	movs	r2, r7
    6248:	2020      	movs	r0, #32
    624a:	3401      	adds	r4, #1
    624c:	40e2      	lsrs	r2, r4
    624e:	1b04      	subs	r4, r0, r4
    6250:	40a7      	lsls	r7, r4
    6252:	003b      	movs	r3, r7
    6254:	1e5f      	subs	r7, r3, #1
    6256:	41bb      	sbcs	r3, r7
    6258:	2400      	movs	r4, #0
    625a:	4313      	orrs	r3, r2
    625c:	075a      	lsls	r2, r3, #29
    625e:	d004      	beq.n	626a <__aeabi_fsub+0x9a>
    6260:	220f      	movs	r2, #15
    6262:	401a      	ands	r2, r3
    6264:	2a04      	cmp	r2, #4
    6266:	d000      	beq.n	626a <__aeabi_fsub+0x9a>
    6268:	3304      	adds	r3, #4
    626a:	015a      	lsls	r2, r3, #5
    626c:	d527      	bpl.n	62be <__aeabi_fsub+0xee>
    626e:	3401      	adds	r4, #1
    6270:	2cff      	cmp	r4, #255	; 0xff
    6272:	d100      	bne.n	6276 <__aeabi_fsub+0xa6>
    6274:	e079      	b.n	636a <__aeabi_fsub+0x19a>
    6276:	2201      	movs	r2, #1
    6278:	019b      	lsls	r3, r3, #6
    627a:	0a5b      	lsrs	r3, r3, #9
    627c:	b2e4      	uxtb	r4, r4
    627e:	402a      	ands	r2, r5
    6280:	025b      	lsls	r3, r3, #9
    6282:	05e4      	lsls	r4, r4, #23
    6284:	0a58      	lsrs	r0, r3, #9
    6286:	07d2      	lsls	r2, r2, #31
    6288:	4320      	orrs	r0, r4
    628a:	4310      	orrs	r0, r2
    628c:	bc1c      	pop	{r2, r3, r4}
    628e:	4690      	mov	r8, r2
    6290:	4699      	mov	r9, r3
    6292:	46a2      	mov	sl, r4
    6294:	bdf0      	pop	{r4, r5, r6, r7, pc}
    6296:	2cff      	cmp	r4, #255	; 0xff
    6298:	d0e0      	beq.n	625c <__aeabi_fsub+0x8c>
    629a:	2180      	movs	r1, #128	; 0x80
    629c:	04c9      	lsls	r1, r1, #19
    629e:	430e      	orrs	r6, r1
    62a0:	2a1b      	cmp	r2, #27
    62a2:	dc7b      	bgt.n	639c <__aeabi_fsub+0x1cc>
    62a4:	0031      	movs	r1, r6
    62a6:	2020      	movs	r0, #32
    62a8:	40d1      	lsrs	r1, r2
    62aa:	1a82      	subs	r2, r0, r2
    62ac:	4096      	lsls	r6, r2
    62ae:	1e72      	subs	r2, r6, #1
    62b0:	4196      	sbcs	r6, r2
    62b2:	430e      	orrs	r6, r1
    62b4:	1b9b      	subs	r3, r3, r6
    62b6:	015a      	lsls	r2, r3, #5
    62b8:	d4ba      	bmi.n	6230 <__aeabi_fsub+0x60>
    62ba:	075a      	lsls	r2, r3, #29
    62bc:	d1d0      	bne.n	6260 <__aeabi_fsub+0x90>
    62be:	2201      	movs	r2, #1
    62c0:	08df      	lsrs	r7, r3, #3
    62c2:	402a      	ands	r2, r5
    62c4:	2cff      	cmp	r4, #255	; 0xff
    62c6:	d133      	bne.n	6330 <__aeabi_fsub+0x160>
    62c8:	2f00      	cmp	r7, #0
    62ca:	d100      	bne.n	62ce <__aeabi_fsub+0xfe>
    62cc:	e0a8      	b.n	6420 <__aeabi_fsub+0x250>
    62ce:	2380      	movs	r3, #128	; 0x80
    62d0:	03db      	lsls	r3, r3, #15
    62d2:	433b      	orrs	r3, r7
    62d4:	025b      	lsls	r3, r3, #9
    62d6:	0a5b      	lsrs	r3, r3, #9
    62d8:	24ff      	movs	r4, #255	; 0xff
    62da:	e7d1      	b.n	6280 <__aeabi_fsub+0xb0>
    62dc:	1a21      	subs	r1, r4, r0
    62de:	2900      	cmp	r1, #0
    62e0:	dd4c      	ble.n	637c <__aeabi_fsub+0x1ac>
    62e2:	2800      	cmp	r0, #0
    62e4:	d02a      	beq.n	633c <__aeabi_fsub+0x16c>
    62e6:	2cff      	cmp	r4, #255	; 0xff
    62e8:	d0b8      	beq.n	625c <__aeabi_fsub+0x8c>
    62ea:	2080      	movs	r0, #128	; 0x80
    62ec:	04c0      	lsls	r0, r0, #19
    62ee:	4306      	orrs	r6, r0
    62f0:	291b      	cmp	r1, #27
    62f2:	dd00      	ble.n	62f6 <__aeabi_fsub+0x126>
    62f4:	e0af      	b.n	6456 <__aeabi_fsub+0x286>
    62f6:	0030      	movs	r0, r6
    62f8:	2720      	movs	r7, #32
    62fa:	40c8      	lsrs	r0, r1
    62fc:	1a79      	subs	r1, r7, r1
    62fe:	408e      	lsls	r6, r1
    6300:	1e71      	subs	r1, r6, #1
    6302:	418e      	sbcs	r6, r1
    6304:	4306      	orrs	r6, r0
    6306:	199b      	adds	r3, r3, r6
    6308:	0159      	lsls	r1, r3, #5
    630a:	d5d6      	bpl.n	62ba <__aeabi_fsub+0xea>
    630c:	3401      	adds	r4, #1
    630e:	2cff      	cmp	r4, #255	; 0xff
    6310:	d100      	bne.n	6314 <__aeabi_fsub+0x144>
    6312:	e085      	b.n	6420 <__aeabi_fsub+0x250>
    6314:	2201      	movs	r2, #1
    6316:	497a      	ldr	r1, [pc, #488]	; (6500 <__aeabi_fsub+0x330>)
    6318:	401a      	ands	r2, r3
    631a:	085b      	lsrs	r3, r3, #1
    631c:	400b      	ands	r3, r1
    631e:	4313      	orrs	r3, r2
    6320:	e79c      	b.n	625c <__aeabi_fsub+0x8c>
    6322:	2e00      	cmp	r6, #0
    6324:	d000      	beq.n	6328 <__aeabi_fsub+0x158>
    6326:	e770      	b.n	620a <__aeabi_fsub+0x3a>
    6328:	e76b      	b.n	6202 <__aeabi_fsub+0x32>
    632a:	1e3b      	subs	r3, r7, #0
    632c:	d1c5      	bne.n	62ba <__aeabi_fsub+0xea>
    632e:	2200      	movs	r2, #0
    6330:	027b      	lsls	r3, r7, #9
    6332:	0a5b      	lsrs	r3, r3, #9
    6334:	b2e4      	uxtb	r4, r4
    6336:	e7a3      	b.n	6280 <__aeabi_fsub+0xb0>
    6338:	0014      	movs	r4, r2
    633a:	e78f      	b.n	625c <__aeabi_fsub+0x8c>
    633c:	2e00      	cmp	r6, #0
    633e:	d04d      	beq.n	63dc <__aeabi_fsub+0x20c>
    6340:	1e48      	subs	r0, r1, #1
    6342:	2800      	cmp	r0, #0
    6344:	d157      	bne.n	63f6 <__aeabi_fsub+0x226>
    6346:	199b      	adds	r3, r3, r6
    6348:	2401      	movs	r4, #1
    634a:	015a      	lsls	r2, r3, #5
    634c:	d5b5      	bpl.n	62ba <__aeabi_fsub+0xea>
    634e:	2402      	movs	r4, #2
    6350:	e7e0      	b.n	6314 <__aeabi_fsub+0x144>
    6352:	2a00      	cmp	r2, #0
    6354:	d125      	bne.n	63a2 <__aeabi_fsub+0x1d2>
    6356:	1c62      	adds	r2, r4, #1
    6358:	b2d2      	uxtb	r2, r2
    635a:	2a01      	cmp	r2, #1
    635c:	dd72      	ble.n	6444 <__aeabi_fsub+0x274>
    635e:	1b9f      	subs	r7, r3, r6
    6360:	017a      	lsls	r2, r7, #5
    6362:	d535      	bpl.n	63d0 <__aeabi_fsub+0x200>
    6364:	1af7      	subs	r7, r6, r3
    6366:	000d      	movs	r5, r1
    6368:	e764      	b.n	6234 <__aeabi_fsub+0x64>
    636a:	2201      	movs	r2, #1
    636c:	2300      	movs	r3, #0
    636e:	402a      	ands	r2, r5
    6370:	e786      	b.n	6280 <__aeabi_fsub+0xb0>
    6372:	003b      	movs	r3, r7
    6374:	4a63      	ldr	r2, [pc, #396]	; (6504 <__aeabi_fsub+0x334>)
    6376:	1a24      	subs	r4, r4, r0
    6378:	4013      	ands	r3, r2
    637a:	e76f      	b.n	625c <__aeabi_fsub+0x8c>
    637c:	2900      	cmp	r1, #0
    637e:	d16c      	bne.n	645a <__aeabi_fsub+0x28a>
    6380:	1c61      	adds	r1, r4, #1
    6382:	b2c8      	uxtb	r0, r1
    6384:	2801      	cmp	r0, #1
    6386:	dd4e      	ble.n	6426 <__aeabi_fsub+0x256>
    6388:	29ff      	cmp	r1, #255	; 0xff
    638a:	d049      	beq.n	6420 <__aeabi_fsub+0x250>
    638c:	199b      	adds	r3, r3, r6
    638e:	085b      	lsrs	r3, r3, #1
    6390:	000c      	movs	r4, r1
    6392:	e763      	b.n	625c <__aeabi_fsub+0x8c>
    6394:	2aff      	cmp	r2, #255	; 0xff
    6396:	d041      	beq.n	641c <__aeabi_fsub+0x24c>
    6398:	000a      	movs	r2, r1
    639a:	e781      	b.n	62a0 <__aeabi_fsub+0xd0>
    639c:	2601      	movs	r6, #1
    639e:	1b9b      	subs	r3, r3, r6
    63a0:	e789      	b.n	62b6 <__aeabi_fsub+0xe6>
    63a2:	2c00      	cmp	r4, #0
    63a4:	d01c      	beq.n	63e0 <__aeabi_fsub+0x210>
    63a6:	28ff      	cmp	r0, #255	; 0xff
    63a8:	d021      	beq.n	63ee <__aeabi_fsub+0x21e>
    63aa:	2480      	movs	r4, #128	; 0x80
    63ac:	04e4      	lsls	r4, r4, #19
    63ae:	4252      	negs	r2, r2
    63b0:	4323      	orrs	r3, r4
    63b2:	2a1b      	cmp	r2, #27
    63b4:	dd00      	ble.n	63b8 <__aeabi_fsub+0x1e8>
    63b6:	e096      	b.n	64e6 <__aeabi_fsub+0x316>
    63b8:	001c      	movs	r4, r3
    63ba:	2520      	movs	r5, #32
    63bc:	40d4      	lsrs	r4, r2
    63be:	1aaa      	subs	r2, r5, r2
    63c0:	4093      	lsls	r3, r2
    63c2:	1e5a      	subs	r2, r3, #1
    63c4:	4193      	sbcs	r3, r2
    63c6:	4323      	orrs	r3, r4
    63c8:	1af3      	subs	r3, r6, r3
    63ca:	0004      	movs	r4, r0
    63cc:	000d      	movs	r5, r1
    63ce:	e72d      	b.n	622c <__aeabi_fsub+0x5c>
    63d0:	2f00      	cmp	r7, #0
    63d2:	d000      	beq.n	63d6 <__aeabi_fsub+0x206>
    63d4:	e72e      	b.n	6234 <__aeabi_fsub+0x64>
    63d6:	2200      	movs	r2, #0
    63d8:	2400      	movs	r4, #0
    63da:	e7a9      	b.n	6330 <__aeabi_fsub+0x160>
    63dc:	000c      	movs	r4, r1
    63de:	e73d      	b.n	625c <__aeabi_fsub+0x8c>
    63e0:	2b00      	cmp	r3, #0
    63e2:	d058      	beq.n	6496 <__aeabi_fsub+0x2c6>
    63e4:	43d2      	mvns	r2, r2
    63e6:	2a00      	cmp	r2, #0
    63e8:	d0ee      	beq.n	63c8 <__aeabi_fsub+0x1f8>
    63ea:	28ff      	cmp	r0, #255	; 0xff
    63ec:	d1e1      	bne.n	63b2 <__aeabi_fsub+0x1e2>
    63ee:	0033      	movs	r3, r6
    63f0:	24ff      	movs	r4, #255	; 0xff
    63f2:	000d      	movs	r5, r1
    63f4:	e732      	b.n	625c <__aeabi_fsub+0x8c>
    63f6:	29ff      	cmp	r1, #255	; 0xff
    63f8:	d010      	beq.n	641c <__aeabi_fsub+0x24c>
    63fa:	0001      	movs	r1, r0
    63fc:	e778      	b.n	62f0 <__aeabi_fsub+0x120>
    63fe:	2b00      	cmp	r3, #0
    6400:	d06e      	beq.n	64e0 <__aeabi_fsub+0x310>
    6402:	24ff      	movs	r4, #255	; 0xff
    6404:	2e00      	cmp	r6, #0
    6406:	d100      	bne.n	640a <__aeabi_fsub+0x23a>
    6408:	e728      	b.n	625c <__aeabi_fsub+0x8c>
    640a:	2280      	movs	r2, #128	; 0x80
    640c:	4651      	mov	r1, sl
    640e:	03d2      	lsls	r2, r2, #15
    6410:	4211      	tst	r1, r2
    6412:	d003      	beq.n	641c <__aeabi_fsub+0x24c>
    6414:	4661      	mov	r1, ip
    6416:	4211      	tst	r1, r2
    6418:	d100      	bne.n	641c <__aeabi_fsub+0x24c>
    641a:	0033      	movs	r3, r6
    641c:	24ff      	movs	r4, #255	; 0xff
    641e:	e71d      	b.n	625c <__aeabi_fsub+0x8c>
    6420:	24ff      	movs	r4, #255	; 0xff
    6422:	2300      	movs	r3, #0
    6424:	e72c      	b.n	6280 <__aeabi_fsub+0xb0>
    6426:	2c00      	cmp	r4, #0
    6428:	d1e9      	bne.n	63fe <__aeabi_fsub+0x22e>
    642a:	2b00      	cmp	r3, #0
    642c:	d063      	beq.n	64f6 <__aeabi_fsub+0x326>
    642e:	2e00      	cmp	r6, #0
    6430:	d100      	bne.n	6434 <__aeabi_fsub+0x264>
    6432:	e713      	b.n	625c <__aeabi_fsub+0x8c>
    6434:	199b      	adds	r3, r3, r6
    6436:	015a      	lsls	r2, r3, #5
    6438:	d400      	bmi.n	643c <__aeabi_fsub+0x26c>
    643a:	e73e      	b.n	62ba <__aeabi_fsub+0xea>
    643c:	4a31      	ldr	r2, [pc, #196]	; (6504 <__aeabi_fsub+0x334>)
    643e:	000c      	movs	r4, r1
    6440:	4013      	ands	r3, r2
    6442:	e70b      	b.n	625c <__aeabi_fsub+0x8c>
    6444:	2c00      	cmp	r4, #0
    6446:	d11e      	bne.n	6486 <__aeabi_fsub+0x2b6>
    6448:	2b00      	cmp	r3, #0
    644a:	d12f      	bne.n	64ac <__aeabi_fsub+0x2dc>
    644c:	2e00      	cmp	r6, #0
    644e:	d04f      	beq.n	64f0 <__aeabi_fsub+0x320>
    6450:	0033      	movs	r3, r6
    6452:	000d      	movs	r5, r1
    6454:	e702      	b.n	625c <__aeabi_fsub+0x8c>
    6456:	2601      	movs	r6, #1
    6458:	e755      	b.n	6306 <__aeabi_fsub+0x136>
    645a:	2c00      	cmp	r4, #0
    645c:	d11f      	bne.n	649e <__aeabi_fsub+0x2ce>
    645e:	2b00      	cmp	r3, #0
    6460:	d043      	beq.n	64ea <__aeabi_fsub+0x31a>
    6462:	43c9      	mvns	r1, r1
    6464:	2900      	cmp	r1, #0
    6466:	d00b      	beq.n	6480 <__aeabi_fsub+0x2b0>
    6468:	28ff      	cmp	r0, #255	; 0xff
    646a:	d039      	beq.n	64e0 <__aeabi_fsub+0x310>
    646c:	291b      	cmp	r1, #27
    646e:	dc44      	bgt.n	64fa <__aeabi_fsub+0x32a>
    6470:	001c      	movs	r4, r3
    6472:	2720      	movs	r7, #32
    6474:	40cc      	lsrs	r4, r1
    6476:	1a79      	subs	r1, r7, r1
    6478:	408b      	lsls	r3, r1
    647a:	1e59      	subs	r1, r3, #1
    647c:	418b      	sbcs	r3, r1
    647e:	4323      	orrs	r3, r4
    6480:	199b      	adds	r3, r3, r6
    6482:	0004      	movs	r4, r0
    6484:	e740      	b.n	6308 <__aeabi_fsub+0x138>
    6486:	2b00      	cmp	r3, #0
    6488:	d11a      	bne.n	64c0 <__aeabi_fsub+0x2f0>
    648a:	2e00      	cmp	r6, #0
    648c:	d124      	bne.n	64d8 <__aeabi_fsub+0x308>
    648e:	2780      	movs	r7, #128	; 0x80
    6490:	2200      	movs	r2, #0
    6492:	03ff      	lsls	r7, r7, #15
    6494:	e71b      	b.n	62ce <__aeabi_fsub+0xfe>
    6496:	0033      	movs	r3, r6
    6498:	0004      	movs	r4, r0
    649a:	000d      	movs	r5, r1
    649c:	e6de      	b.n	625c <__aeabi_fsub+0x8c>
    649e:	28ff      	cmp	r0, #255	; 0xff
    64a0:	d01e      	beq.n	64e0 <__aeabi_fsub+0x310>
    64a2:	2480      	movs	r4, #128	; 0x80
    64a4:	04e4      	lsls	r4, r4, #19
    64a6:	4249      	negs	r1, r1
    64a8:	4323      	orrs	r3, r4
    64aa:	e7df      	b.n	646c <__aeabi_fsub+0x29c>
    64ac:	2e00      	cmp	r6, #0
    64ae:	d100      	bne.n	64b2 <__aeabi_fsub+0x2e2>
    64b0:	e6d4      	b.n	625c <__aeabi_fsub+0x8c>
    64b2:	1b9f      	subs	r7, r3, r6
    64b4:	017a      	lsls	r2, r7, #5
    64b6:	d400      	bmi.n	64ba <__aeabi_fsub+0x2ea>
    64b8:	e737      	b.n	632a <__aeabi_fsub+0x15a>
    64ba:	1af3      	subs	r3, r6, r3
    64bc:	000d      	movs	r5, r1
    64be:	e6cd      	b.n	625c <__aeabi_fsub+0x8c>
    64c0:	24ff      	movs	r4, #255	; 0xff
    64c2:	2e00      	cmp	r6, #0
    64c4:	d100      	bne.n	64c8 <__aeabi_fsub+0x2f8>
    64c6:	e6c9      	b.n	625c <__aeabi_fsub+0x8c>
    64c8:	2280      	movs	r2, #128	; 0x80
    64ca:	4650      	mov	r0, sl
    64cc:	03d2      	lsls	r2, r2, #15
    64ce:	4210      	tst	r0, r2
    64d0:	d0a4      	beq.n	641c <__aeabi_fsub+0x24c>
    64d2:	4660      	mov	r0, ip
    64d4:	4210      	tst	r0, r2
    64d6:	d1a1      	bne.n	641c <__aeabi_fsub+0x24c>
    64d8:	0033      	movs	r3, r6
    64da:	000d      	movs	r5, r1
    64dc:	24ff      	movs	r4, #255	; 0xff
    64de:	e6bd      	b.n	625c <__aeabi_fsub+0x8c>
    64e0:	0033      	movs	r3, r6
    64e2:	24ff      	movs	r4, #255	; 0xff
    64e4:	e6ba      	b.n	625c <__aeabi_fsub+0x8c>
    64e6:	2301      	movs	r3, #1
    64e8:	e76e      	b.n	63c8 <__aeabi_fsub+0x1f8>
    64ea:	0033      	movs	r3, r6
    64ec:	0004      	movs	r4, r0
    64ee:	e6b5      	b.n	625c <__aeabi_fsub+0x8c>
    64f0:	2700      	movs	r7, #0
    64f2:	2200      	movs	r2, #0
    64f4:	e71c      	b.n	6330 <__aeabi_fsub+0x160>
    64f6:	0033      	movs	r3, r6
    64f8:	e6b0      	b.n	625c <__aeabi_fsub+0x8c>
    64fa:	2301      	movs	r3, #1
    64fc:	e7c0      	b.n	6480 <__aeabi_fsub+0x2b0>
    64fe:	46c0      	nop			; (mov r8, r8)
    6500:	7dffffff 	.word	0x7dffffff
    6504:	fbffffff 	.word	0xfbffffff

00006508 <__aeabi_f2iz>:
    6508:	0241      	lsls	r1, r0, #9
    650a:	0043      	lsls	r3, r0, #1
    650c:	0fc2      	lsrs	r2, r0, #31
    650e:	0a49      	lsrs	r1, r1, #9
    6510:	0e1b      	lsrs	r3, r3, #24
    6512:	2000      	movs	r0, #0
    6514:	2b7e      	cmp	r3, #126	; 0x7e
    6516:	dd0d      	ble.n	6534 <__aeabi_f2iz+0x2c>
    6518:	2b9d      	cmp	r3, #157	; 0x9d
    651a:	dc0c      	bgt.n	6536 <__aeabi_f2iz+0x2e>
    651c:	2080      	movs	r0, #128	; 0x80
    651e:	0400      	lsls	r0, r0, #16
    6520:	4301      	orrs	r1, r0
    6522:	2b95      	cmp	r3, #149	; 0x95
    6524:	dc0a      	bgt.n	653c <__aeabi_f2iz+0x34>
    6526:	2096      	movs	r0, #150	; 0x96
    6528:	1ac3      	subs	r3, r0, r3
    652a:	40d9      	lsrs	r1, r3
    652c:	4248      	negs	r0, r1
    652e:	2a00      	cmp	r2, #0
    6530:	d100      	bne.n	6534 <__aeabi_f2iz+0x2c>
    6532:	0008      	movs	r0, r1
    6534:	4770      	bx	lr
    6536:	4b03      	ldr	r3, [pc, #12]	; (6544 <__aeabi_f2iz+0x3c>)
    6538:	18d0      	adds	r0, r2, r3
    653a:	e7fb      	b.n	6534 <__aeabi_f2iz+0x2c>
    653c:	3b96      	subs	r3, #150	; 0x96
    653e:	4099      	lsls	r1, r3
    6540:	e7f4      	b.n	652c <__aeabi_f2iz+0x24>
    6542:	46c0      	nop			; (mov r8, r8)
    6544:	7fffffff 	.word	0x7fffffff

00006548 <__aeabi_i2f>:
    6548:	b570      	push	{r4, r5, r6, lr}
    654a:	2800      	cmp	r0, #0
    654c:	d030      	beq.n	65b0 <__aeabi_i2f+0x68>
    654e:	17c3      	asrs	r3, r0, #31
    6550:	18c4      	adds	r4, r0, r3
    6552:	405c      	eors	r4, r3
    6554:	0fc5      	lsrs	r5, r0, #31
    6556:	0020      	movs	r0, r4
    6558:	f001 feaa 	bl	82b0 <__clzsi2>
    655c:	239e      	movs	r3, #158	; 0x9e
    655e:	1a1b      	subs	r3, r3, r0
    6560:	2b96      	cmp	r3, #150	; 0x96
    6562:	dc0d      	bgt.n	6580 <__aeabi_i2f+0x38>
    6564:	2296      	movs	r2, #150	; 0x96
    6566:	1ad2      	subs	r2, r2, r3
    6568:	4094      	lsls	r4, r2
    656a:	002a      	movs	r2, r5
    656c:	0264      	lsls	r4, r4, #9
    656e:	0a64      	lsrs	r4, r4, #9
    6570:	b2db      	uxtb	r3, r3
    6572:	0264      	lsls	r4, r4, #9
    6574:	05db      	lsls	r3, r3, #23
    6576:	0a60      	lsrs	r0, r4, #9
    6578:	07d2      	lsls	r2, r2, #31
    657a:	4318      	orrs	r0, r3
    657c:	4310      	orrs	r0, r2
    657e:	bd70      	pop	{r4, r5, r6, pc}
    6580:	2b99      	cmp	r3, #153	; 0x99
    6582:	dc19      	bgt.n	65b8 <__aeabi_i2f+0x70>
    6584:	2299      	movs	r2, #153	; 0x99
    6586:	1ad2      	subs	r2, r2, r3
    6588:	2a00      	cmp	r2, #0
    658a:	dd29      	ble.n	65e0 <__aeabi_i2f+0x98>
    658c:	4094      	lsls	r4, r2
    658e:	0022      	movs	r2, r4
    6590:	4c14      	ldr	r4, [pc, #80]	; (65e4 <__aeabi_i2f+0x9c>)
    6592:	4014      	ands	r4, r2
    6594:	0751      	lsls	r1, r2, #29
    6596:	d004      	beq.n	65a2 <__aeabi_i2f+0x5a>
    6598:	210f      	movs	r1, #15
    659a:	400a      	ands	r2, r1
    659c:	2a04      	cmp	r2, #4
    659e:	d000      	beq.n	65a2 <__aeabi_i2f+0x5a>
    65a0:	3404      	adds	r4, #4
    65a2:	0162      	lsls	r2, r4, #5
    65a4:	d413      	bmi.n	65ce <__aeabi_i2f+0x86>
    65a6:	01a4      	lsls	r4, r4, #6
    65a8:	0a64      	lsrs	r4, r4, #9
    65aa:	b2db      	uxtb	r3, r3
    65ac:	002a      	movs	r2, r5
    65ae:	e7e0      	b.n	6572 <__aeabi_i2f+0x2a>
    65b0:	2200      	movs	r2, #0
    65b2:	2300      	movs	r3, #0
    65b4:	2400      	movs	r4, #0
    65b6:	e7dc      	b.n	6572 <__aeabi_i2f+0x2a>
    65b8:	2205      	movs	r2, #5
    65ba:	0021      	movs	r1, r4
    65bc:	1a12      	subs	r2, r2, r0
    65be:	40d1      	lsrs	r1, r2
    65c0:	22b9      	movs	r2, #185	; 0xb9
    65c2:	1ad2      	subs	r2, r2, r3
    65c4:	4094      	lsls	r4, r2
    65c6:	1e62      	subs	r2, r4, #1
    65c8:	4194      	sbcs	r4, r2
    65ca:	430c      	orrs	r4, r1
    65cc:	e7da      	b.n	6584 <__aeabi_i2f+0x3c>
    65ce:	4b05      	ldr	r3, [pc, #20]	; (65e4 <__aeabi_i2f+0x9c>)
    65d0:	002a      	movs	r2, r5
    65d2:	401c      	ands	r4, r3
    65d4:	239f      	movs	r3, #159	; 0x9f
    65d6:	01a4      	lsls	r4, r4, #6
    65d8:	1a1b      	subs	r3, r3, r0
    65da:	0a64      	lsrs	r4, r4, #9
    65dc:	b2db      	uxtb	r3, r3
    65de:	e7c8      	b.n	6572 <__aeabi_i2f+0x2a>
    65e0:	0022      	movs	r2, r4
    65e2:	e7d5      	b.n	6590 <__aeabi_i2f+0x48>
    65e4:	fbffffff 	.word	0xfbffffff

000065e8 <__aeabi_dadd>:
    65e8:	b5f8      	push	{r3, r4, r5, r6, r7, lr}
    65ea:	4645      	mov	r5, r8
    65ec:	46de      	mov	lr, fp
    65ee:	4657      	mov	r7, sl
    65f0:	464e      	mov	r6, r9
    65f2:	030c      	lsls	r4, r1, #12
    65f4:	b5e0      	push	{r5, r6, r7, lr}
    65f6:	004e      	lsls	r6, r1, #1
    65f8:	0fc9      	lsrs	r1, r1, #31
    65fa:	4688      	mov	r8, r1
    65fc:	000d      	movs	r5, r1
    65fe:	0a61      	lsrs	r1, r4, #9
    6600:	0f44      	lsrs	r4, r0, #29
    6602:	430c      	orrs	r4, r1
    6604:	00c7      	lsls	r7, r0, #3
    6606:	0319      	lsls	r1, r3, #12
    6608:	0058      	lsls	r0, r3, #1
    660a:	0fdb      	lsrs	r3, r3, #31
    660c:	469b      	mov	fp, r3
    660e:	0a4b      	lsrs	r3, r1, #9
    6610:	0f51      	lsrs	r1, r2, #29
    6612:	430b      	orrs	r3, r1
    6614:	0d76      	lsrs	r6, r6, #21
    6616:	0d40      	lsrs	r0, r0, #21
    6618:	0019      	movs	r1, r3
    661a:	00d2      	lsls	r2, r2, #3
    661c:	45d8      	cmp	r8, fp
    661e:	d100      	bne.n	6622 <__aeabi_dadd+0x3a>
    6620:	e0ae      	b.n	6780 <__aeabi_dadd+0x198>
    6622:	1a35      	subs	r5, r6, r0
    6624:	2d00      	cmp	r5, #0
    6626:	dc00      	bgt.n	662a <__aeabi_dadd+0x42>
    6628:	e0f6      	b.n	6818 <__aeabi_dadd+0x230>
    662a:	2800      	cmp	r0, #0
    662c:	d10f      	bne.n	664e <__aeabi_dadd+0x66>
    662e:	4313      	orrs	r3, r2
    6630:	d100      	bne.n	6634 <__aeabi_dadd+0x4c>
    6632:	e0db      	b.n	67ec <__aeabi_dadd+0x204>
    6634:	1e6b      	subs	r3, r5, #1
    6636:	2b00      	cmp	r3, #0
    6638:	d000      	beq.n	663c <__aeabi_dadd+0x54>
    663a:	e137      	b.n	68ac <__aeabi_dadd+0x2c4>
    663c:	1aba      	subs	r2, r7, r2
    663e:	4297      	cmp	r7, r2
    6640:	41bf      	sbcs	r7, r7
    6642:	1a64      	subs	r4, r4, r1
    6644:	427f      	negs	r7, r7
    6646:	1be4      	subs	r4, r4, r7
    6648:	2601      	movs	r6, #1
    664a:	0017      	movs	r7, r2
    664c:	e024      	b.n	6698 <__aeabi_dadd+0xb0>
    664e:	4bc6      	ldr	r3, [pc, #792]	; (6968 <__aeabi_dadd+0x380>)
    6650:	429e      	cmp	r6, r3
    6652:	d04d      	beq.n	66f0 <__aeabi_dadd+0x108>
    6654:	2380      	movs	r3, #128	; 0x80
    6656:	041b      	lsls	r3, r3, #16
    6658:	4319      	orrs	r1, r3
    665a:	2d38      	cmp	r5, #56	; 0x38
    665c:	dd00      	ble.n	6660 <__aeabi_dadd+0x78>
    665e:	e107      	b.n	6870 <__aeabi_dadd+0x288>
    6660:	2d1f      	cmp	r5, #31
    6662:	dd00      	ble.n	6666 <__aeabi_dadd+0x7e>
    6664:	e138      	b.n	68d8 <__aeabi_dadd+0x2f0>
    6666:	2020      	movs	r0, #32
    6668:	1b43      	subs	r3, r0, r5
    666a:	469a      	mov	sl, r3
    666c:	000b      	movs	r3, r1
    666e:	4650      	mov	r0, sl
    6670:	4083      	lsls	r3, r0
    6672:	4699      	mov	r9, r3
    6674:	0013      	movs	r3, r2
    6676:	4648      	mov	r0, r9
    6678:	40eb      	lsrs	r3, r5
    667a:	4318      	orrs	r0, r3
    667c:	0003      	movs	r3, r0
    667e:	4650      	mov	r0, sl
    6680:	4082      	lsls	r2, r0
    6682:	1e50      	subs	r0, r2, #1
    6684:	4182      	sbcs	r2, r0
    6686:	40e9      	lsrs	r1, r5
    6688:	431a      	orrs	r2, r3
    668a:	1aba      	subs	r2, r7, r2
    668c:	1a61      	subs	r1, r4, r1
    668e:	4297      	cmp	r7, r2
    6690:	41a4      	sbcs	r4, r4
    6692:	0017      	movs	r7, r2
    6694:	4264      	negs	r4, r4
    6696:	1b0c      	subs	r4, r1, r4
    6698:	0223      	lsls	r3, r4, #8
    669a:	d562      	bpl.n	6762 <__aeabi_dadd+0x17a>
    669c:	0264      	lsls	r4, r4, #9
    669e:	0a65      	lsrs	r5, r4, #9
    66a0:	2d00      	cmp	r5, #0
    66a2:	d100      	bne.n	66a6 <__aeabi_dadd+0xbe>
    66a4:	e0df      	b.n	6866 <__aeabi_dadd+0x27e>
    66a6:	0028      	movs	r0, r5
    66a8:	f001 fe02 	bl	82b0 <__clzsi2>
    66ac:	0003      	movs	r3, r0
    66ae:	3b08      	subs	r3, #8
    66b0:	2b1f      	cmp	r3, #31
    66b2:	dd00      	ble.n	66b6 <__aeabi_dadd+0xce>
    66b4:	e0d2      	b.n	685c <__aeabi_dadd+0x274>
    66b6:	2220      	movs	r2, #32
    66b8:	003c      	movs	r4, r7
    66ba:	1ad2      	subs	r2, r2, r3
    66bc:	409d      	lsls	r5, r3
    66be:	40d4      	lsrs	r4, r2
    66c0:	409f      	lsls	r7, r3
    66c2:	4325      	orrs	r5, r4
    66c4:	429e      	cmp	r6, r3
    66c6:	dd00      	ble.n	66ca <__aeabi_dadd+0xe2>
    66c8:	e0c4      	b.n	6854 <__aeabi_dadd+0x26c>
    66ca:	1b9e      	subs	r6, r3, r6
    66cc:	1c73      	adds	r3, r6, #1
    66ce:	2b1f      	cmp	r3, #31
    66d0:	dd00      	ble.n	66d4 <__aeabi_dadd+0xec>
    66d2:	e0f1      	b.n	68b8 <__aeabi_dadd+0x2d0>
    66d4:	2220      	movs	r2, #32
    66d6:	0038      	movs	r0, r7
    66d8:	0029      	movs	r1, r5
    66da:	1ad2      	subs	r2, r2, r3
    66dc:	40d8      	lsrs	r0, r3
    66de:	4091      	lsls	r1, r2
    66e0:	4097      	lsls	r7, r2
    66e2:	002c      	movs	r4, r5
    66e4:	4301      	orrs	r1, r0
    66e6:	1e78      	subs	r0, r7, #1
    66e8:	4187      	sbcs	r7, r0
    66ea:	40dc      	lsrs	r4, r3
    66ec:	2600      	movs	r6, #0
    66ee:	430f      	orrs	r7, r1
    66f0:	077b      	lsls	r3, r7, #29
    66f2:	d009      	beq.n	6708 <__aeabi_dadd+0x120>
    66f4:	230f      	movs	r3, #15
    66f6:	403b      	ands	r3, r7
    66f8:	2b04      	cmp	r3, #4
    66fa:	d005      	beq.n	6708 <__aeabi_dadd+0x120>
    66fc:	1d3b      	adds	r3, r7, #4
    66fe:	42bb      	cmp	r3, r7
    6700:	41bf      	sbcs	r7, r7
    6702:	427f      	negs	r7, r7
    6704:	19e4      	adds	r4, r4, r7
    6706:	001f      	movs	r7, r3
    6708:	0223      	lsls	r3, r4, #8
    670a:	d52c      	bpl.n	6766 <__aeabi_dadd+0x17e>
    670c:	4b96      	ldr	r3, [pc, #600]	; (6968 <__aeabi_dadd+0x380>)
    670e:	3601      	adds	r6, #1
    6710:	429e      	cmp	r6, r3
    6712:	d100      	bne.n	6716 <__aeabi_dadd+0x12e>
    6714:	e09a      	b.n	684c <__aeabi_dadd+0x264>
    6716:	4645      	mov	r5, r8
    6718:	4b94      	ldr	r3, [pc, #592]	; (696c <__aeabi_dadd+0x384>)
    671a:	08ff      	lsrs	r7, r7, #3
    671c:	401c      	ands	r4, r3
    671e:	0760      	lsls	r0, r4, #29
    6720:	0576      	lsls	r6, r6, #21
    6722:	0264      	lsls	r4, r4, #9
    6724:	4307      	orrs	r7, r0
    6726:	0b24      	lsrs	r4, r4, #12
    6728:	0d76      	lsrs	r6, r6, #21
    672a:	2100      	movs	r1, #0
    672c:	0324      	lsls	r4, r4, #12
    672e:	0b23      	lsrs	r3, r4, #12
    6730:	0d0c      	lsrs	r4, r1, #20
    6732:	4a8f      	ldr	r2, [pc, #572]	; (6970 <__aeabi_dadd+0x388>)
    6734:	0524      	lsls	r4, r4, #20
    6736:	431c      	orrs	r4, r3
    6738:	4014      	ands	r4, r2
    673a:	0533      	lsls	r3, r6, #20
    673c:	4323      	orrs	r3, r4
    673e:	005b      	lsls	r3, r3, #1
    6740:	07ed      	lsls	r5, r5, #31
    6742:	085b      	lsrs	r3, r3, #1
    6744:	432b      	orrs	r3, r5
    6746:	0038      	movs	r0, r7
    6748:	0019      	movs	r1, r3
    674a:	bc3c      	pop	{r2, r3, r4, r5}
    674c:	4690      	mov	r8, r2
    674e:	4699      	mov	r9, r3
    6750:	46a2      	mov	sl, r4
    6752:	46ab      	mov	fp, r5
    6754:	bdf8      	pop	{r3, r4, r5, r6, r7, pc}
    6756:	4664      	mov	r4, ip
    6758:	4304      	orrs	r4, r0
    675a:	d100      	bne.n	675e <__aeabi_dadd+0x176>
    675c:	e211      	b.n	6b82 <__aeabi_dadd+0x59a>
    675e:	0004      	movs	r4, r0
    6760:	4667      	mov	r7, ip
    6762:	077b      	lsls	r3, r7, #29
    6764:	d1c6      	bne.n	66f4 <__aeabi_dadd+0x10c>
    6766:	4645      	mov	r5, r8
    6768:	0760      	lsls	r0, r4, #29
    676a:	08ff      	lsrs	r7, r7, #3
    676c:	4307      	orrs	r7, r0
    676e:	08e4      	lsrs	r4, r4, #3
    6770:	4b7d      	ldr	r3, [pc, #500]	; (6968 <__aeabi_dadd+0x380>)
    6772:	429e      	cmp	r6, r3
    6774:	d030      	beq.n	67d8 <__aeabi_dadd+0x1f0>
    6776:	0324      	lsls	r4, r4, #12
    6778:	0576      	lsls	r6, r6, #21
    677a:	0b24      	lsrs	r4, r4, #12
    677c:	0d76      	lsrs	r6, r6, #21
    677e:	e7d4      	b.n	672a <__aeabi_dadd+0x142>
    6780:	1a33      	subs	r3, r6, r0
    6782:	469a      	mov	sl, r3
    6784:	2b00      	cmp	r3, #0
    6786:	dd78      	ble.n	687a <__aeabi_dadd+0x292>
    6788:	2800      	cmp	r0, #0
    678a:	d031      	beq.n	67f0 <__aeabi_dadd+0x208>
    678c:	4876      	ldr	r0, [pc, #472]	; (6968 <__aeabi_dadd+0x380>)
    678e:	4286      	cmp	r6, r0
    6790:	d0ae      	beq.n	66f0 <__aeabi_dadd+0x108>
    6792:	2080      	movs	r0, #128	; 0x80
    6794:	0400      	lsls	r0, r0, #16
    6796:	4301      	orrs	r1, r0
    6798:	4653      	mov	r3, sl
    679a:	2b38      	cmp	r3, #56	; 0x38
    679c:	dc00      	bgt.n	67a0 <__aeabi_dadd+0x1b8>
    679e:	e0e9      	b.n	6974 <__aeabi_dadd+0x38c>
    67a0:	430a      	orrs	r2, r1
    67a2:	1e51      	subs	r1, r2, #1
    67a4:	418a      	sbcs	r2, r1
    67a6:	2100      	movs	r1, #0
    67a8:	19d2      	adds	r2, r2, r7
    67aa:	42ba      	cmp	r2, r7
    67ac:	41bf      	sbcs	r7, r7
    67ae:	1909      	adds	r1, r1, r4
    67b0:	427c      	negs	r4, r7
    67b2:	0017      	movs	r7, r2
    67b4:	190c      	adds	r4, r1, r4
    67b6:	0223      	lsls	r3, r4, #8
    67b8:	d5d3      	bpl.n	6762 <__aeabi_dadd+0x17a>
    67ba:	4b6b      	ldr	r3, [pc, #428]	; (6968 <__aeabi_dadd+0x380>)
    67bc:	3601      	adds	r6, #1
    67be:	429e      	cmp	r6, r3
    67c0:	d100      	bne.n	67c4 <__aeabi_dadd+0x1dc>
    67c2:	e13a      	b.n	6a3a <__aeabi_dadd+0x452>
    67c4:	2001      	movs	r0, #1
    67c6:	4b69      	ldr	r3, [pc, #420]	; (696c <__aeabi_dadd+0x384>)
    67c8:	401c      	ands	r4, r3
    67ca:	087b      	lsrs	r3, r7, #1
    67cc:	4007      	ands	r7, r0
    67ce:	431f      	orrs	r7, r3
    67d0:	07e0      	lsls	r0, r4, #31
    67d2:	4307      	orrs	r7, r0
    67d4:	0864      	lsrs	r4, r4, #1
    67d6:	e78b      	b.n	66f0 <__aeabi_dadd+0x108>
    67d8:	0023      	movs	r3, r4
    67da:	433b      	orrs	r3, r7
    67dc:	d100      	bne.n	67e0 <__aeabi_dadd+0x1f8>
    67de:	e1cb      	b.n	6b78 <__aeabi_dadd+0x590>
    67e0:	2280      	movs	r2, #128	; 0x80
    67e2:	0312      	lsls	r2, r2, #12
    67e4:	4314      	orrs	r4, r2
    67e6:	0324      	lsls	r4, r4, #12
    67e8:	0b24      	lsrs	r4, r4, #12
    67ea:	e79e      	b.n	672a <__aeabi_dadd+0x142>
    67ec:	002e      	movs	r6, r5
    67ee:	e77f      	b.n	66f0 <__aeabi_dadd+0x108>
    67f0:	0008      	movs	r0, r1
    67f2:	4310      	orrs	r0, r2
    67f4:	d100      	bne.n	67f8 <__aeabi_dadd+0x210>
    67f6:	e0b4      	b.n	6962 <__aeabi_dadd+0x37a>
    67f8:	1e58      	subs	r0, r3, #1
    67fa:	2800      	cmp	r0, #0
    67fc:	d000      	beq.n	6800 <__aeabi_dadd+0x218>
    67fe:	e0de      	b.n	69be <__aeabi_dadd+0x3d6>
    6800:	18ba      	adds	r2, r7, r2
    6802:	42ba      	cmp	r2, r7
    6804:	419b      	sbcs	r3, r3
    6806:	1864      	adds	r4, r4, r1
    6808:	425b      	negs	r3, r3
    680a:	18e4      	adds	r4, r4, r3
    680c:	0017      	movs	r7, r2
    680e:	2601      	movs	r6, #1
    6810:	0223      	lsls	r3, r4, #8
    6812:	d5a6      	bpl.n	6762 <__aeabi_dadd+0x17a>
    6814:	2602      	movs	r6, #2
    6816:	e7d5      	b.n	67c4 <__aeabi_dadd+0x1dc>
    6818:	2d00      	cmp	r5, #0
    681a:	d16e      	bne.n	68fa <__aeabi_dadd+0x312>
    681c:	1c70      	adds	r0, r6, #1
    681e:	0540      	lsls	r0, r0, #21
    6820:	0d40      	lsrs	r0, r0, #21
    6822:	2801      	cmp	r0, #1
    6824:	dc00      	bgt.n	6828 <__aeabi_dadd+0x240>
    6826:	e0f9      	b.n	6a1c <__aeabi_dadd+0x434>
    6828:	1ab8      	subs	r0, r7, r2
    682a:	4684      	mov	ip, r0
    682c:	4287      	cmp	r7, r0
    682e:	4180      	sbcs	r0, r0
    6830:	1ae5      	subs	r5, r4, r3
    6832:	4240      	negs	r0, r0
    6834:	1a2d      	subs	r5, r5, r0
    6836:	0228      	lsls	r0, r5, #8
    6838:	d400      	bmi.n	683c <__aeabi_dadd+0x254>
    683a:	e089      	b.n	6950 <__aeabi_dadd+0x368>
    683c:	1bd7      	subs	r7, r2, r7
    683e:	42ba      	cmp	r2, r7
    6840:	4192      	sbcs	r2, r2
    6842:	1b1c      	subs	r4, r3, r4
    6844:	4252      	negs	r2, r2
    6846:	1aa5      	subs	r5, r4, r2
    6848:	46d8      	mov	r8, fp
    684a:	e729      	b.n	66a0 <__aeabi_dadd+0xb8>
    684c:	4645      	mov	r5, r8
    684e:	2400      	movs	r4, #0
    6850:	2700      	movs	r7, #0
    6852:	e76a      	b.n	672a <__aeabi_dadd+0x142>
    6854:	4c45      	ldr	r4, [pc, #276]	; (696c <__aeabi_dadd+0x384>)
    6856:	1af6      	subs	r6, r6, r3
    6858:	402c      	ands	r4, r5
    685a:	e749      	b.n	66f0 <__aeabi_dadd+0x108>
    685c:	003d      	movs	r5, r7
    685e:	3828      	subs	r0, #40	; 0x28
    6860:	4085      	lsls	r5, r0
    6862:	2700      	movs	r7, #0
    6864:	e72e      	b.n	66c4 <__aeabi_dadd+0xdc>
    6866:	0038      	movs	r0, r7
    6868:	f001 fd22 	bl	82b0 <__clzsi2>
    686c:	3020      	adds	r0, #32
    686e:	e71d      	b.n	66ac <__aeabi_dadd+0xc4>
    6870:	430a      	orrs	r2, r1
    6872:	1e51      	subs	r1, r2, #1
    6874:	418a      	sbcs	r2, r1
    6876:	2100      	movs	r1, #0
    6878:	e707      	b.n	668a <__aeabi_dadd+0xa2>
    687a:	2b00      	cmp	r3, #0
    687c:	d000      	beq.n	6880 <__aeabi_dadd+0x298>
    687e:	e0f3      	b.n	6a68 <__aeabi_dadd+0x480>
    6880:	1c70      	adds	r0, r6, #1
    6882:	0543      	lsls	r3, r0, #21
    6884:	0d5b      	lsrs	r3, r3, #21
    6886:	2b01      	cmp	r3, #1
    6888:	dc00      	bgt.n	688c <__aeabi_dadd+0x2a4>
    688a:	e0ad      	b.n	69e8 <__aeabi_dadd+0x400>
    688c:	4b36      	ldr	r3, [pc, #216]	; (6968 <__aeabi_dadd+0x380>)
    688e:	4298      	cmp	r0, r3
    6890:	d100      	bne.n	6894 <__aeabi_dadd+0x2ac>
    6892:	e0d1      	b.n	6a38 <__aeabi_dadd+0x450>
    6894:	18ba      	adds	r2, r7, r2
    6896:	42ba      	cmp	r2, r7
    6898:	41bf      	sbcs	r7, r7
    689a:	1864      	adds	r4, r4, r1
    689c:	427f      	negs	r7, r7
    689e:	19e4      	adds	r4, r4, r7
    68a0:	07e7      	lsls	r7, r4, #31
    68a2:	0852      	lsrs	r2, r2, #1
    68a4:	4317      	orrs	r7, r2
    68a6:	0864      	lsrs	r4, r4, #1
    68a8:	0006      	movs	r6, r0
    68aa:	e721      	b.n	66f0 <__aeabi_dadd+0x108>
    68ac:	482e      	ldr	r0, [pc, #184]	; (6968 <__aeabi_dadd+0x380>)
    68ae:	4285      	cmp	r5, r0
    68b0:	d100      	bne.n	68b4 <__aeabi_dadd+0x2cc>
    68b2:	e093      	b.n	69dc <__aeabi_dadd+0x3f4>
    68b4:	001d      	movs	r5, r3
    68b6:	e6d0      	b.n	665a <__aeabi_dadd+0x72>
    68b8:	0029      	movs	r1, r5
    68ba:	3e1f      	subs	r6, #31
    68bc:	40f1      	lsrs	r1, r6
    68be:	2b20      	cmp	r3, #32
    68c0:	d100      	bne.n	68c4 <__aeabi_dadd+0x2dc>
    68c2:	e08d      	b.n	69e0 <__aeabi_dadd+0x3f8>
    68c4:	2240      	movs	r2, #64	; 0x40
    68c6:	1ad3      	subs	r3, r2, r3
    68c8:	409d      	lsls	r5, r3
    68ca:	432f      	orrs	r7, r5
    68cc:	1e7d      	subs	r5, r7, #1
    68ce:	41af      	sbcs	r7, r5
    68d0:	2400      	movs	r4, #0
    68d2:	430f      	orrs	r7, r1
    68d4:	2600      	movs	r6, #0
    68d6:	e744      	b.n	6762 <__aeabi_dadd+0x17a>
    68d8:	002b      	movs	r3, r5
    68da:	0008      	movs	r0, r1
    68dc:	3b20      	subs	r3, #32
    68de:	40d8      	lsrs	r0, r3
    68e0:	0003      	movs	r3, r0
    68e2:	2d20      	cmp	r5, #32
    68e4:	d100      	bne.n	68e8 <__aeabi_dadd+0x300>
    68e6:	e07d      	b.n	69e4 <__aeabi_dadd+0x3fc>
    68e8:	2040      	movs	r0, #64	; 0x40
    68ea:	1b45      	subs	r5, r0, r5
    68ec:	40a9      	lsls	r1, r5
    68ee:	430a      	orrs	r2, r1
    68f0:	1e51      	subs	r1, r2, #1
    68f2:	418a      	sbcs	r2, r1
    68f4:	2100      	movs	r1, #0
    68f6:	431a      	orrs	r2, r3
    68f8:	e6c7      	b.n	668a <__aeabi_dadd+0xa2>
    68fa:	2e00      	cmp	r6, #0
    68fc:	d050      	beq.n	69a0 <__aeabi_dadd+0x3b8>
    68fe:	4e1a      	ldr	r6, [pc, #104]	; (6968 <__aeabi_dadd+0x380>)
    6900:	42b0      	cmp	r0, r6
    6902:	d057      	beq.n	69b4 <__aeabi_dadd+0x3cc>
    6904:	2680      	movs	r6, #128	; 0x80
    6906:	426b      	negs	r3, r5
    6908:	4699      	mov	r9, r3
    690a:	0436      	lsls	r6, r6, #16
    690c:	4334      	orrs	r4, r6
    690e:	464b      	mov	r3, r9
    6910:	2b38      	cmp	r3, #56	; 0x38
    6912:	dd00      	ble.n	6916 <__aeabi_dadd+0x32e>
    6914:	e0d6      	b.n	6ac4 <__aeabi_dadd+0x4dc>
    6916:	2b1f      	cmp	r3, #31
    6918:	dd00      	ble.n	691c <__aeabi_dadd+0x334>
    691a:	e135      	b.n	6b88 <__aeabi_dadd+0x5a0>
    691c:	2620      	movs	r6, #32
    691e:	1af5      	subs	r5, r6, r3
    6920:	0026      	movs	r6, r4
    6922:	40ae      	lsls	r6, r5
    6924:	46b2      	mov	sl, r6
    6926:	003e      	movs	r6, r7
    6928:	40de      	lsrs	r6, r3
    692a:	46ac      	mov	ip, r5
    692c:	0035      	movs	r5, r6
    692e:	4656      	mov	r6, sl
    6930:	432e      	orrs	r6, r5
    6932:	4665      	mov	r5, ip
    6934:	40af      	lsls	r7, r5
    6936:	1e7d      	subs	r5, r7, #1
    6938:	41af      	sbcs	r7, r5
    693a:	40dc      	lsrs	r4, r3
    693c:	4337      	orrs	r7, r6
    693e:	1bd7      	subs	r7, r2, r7
    6940:	42ba      	cmp	r2, r7
    6942:	4192      	sbcs	r2, r2
    6944:	1b0c      	subs	r4, r1, r4
    6946:	4252      	negs	r2, r2
    6948:	1aa4      	subs	r4, r4, r2
    694a:	0006      	movs	r6, r0
    694c:	46d8      	mov	r8, fp
    694e:	e6a3      	b.n	6698 <__aeabi_dadd+0xb0>
    6950:	4664      	mov	r4, ip
    6952:	4667      	mov	r7, ip
    6954:	432c      	orrs	r4, r5
    6956:	d000      	beq.n	695a <__aeabi_dadd+0x372>
    6958:	e6a2      	b.n	66a0 <__aeabi_dadd+0xb8>
    695a:	2500      	movs	r5, #0
    695c:	2600      	movs	r6, #0
    695e:	2700      	movs	r7, #0
    6960:	e706      	b.n	6770 <__aeabi_dadd+0x188>
    6962:	001e      	movs	r6, r3
    6964:	e6c4      	b.n	66f0 <__aeabi_dadd+0x108>
    6966:	46c0      	nop			; (mov r8, r8)
    6968:	000007ff 	.word	0x000007ff
    696c:	ff7fffff 	.word	0xff7fffff
    6970:	800fffff 	.word	0x800fffff
    6974:	2b1f      	cmp	r3, #31
    6976:	dc63      	bgt.n	6a40 <__aeabi_dadd+0x458>
    6978:	2020      	movs	r0, #32
    697a:	1ac3      	subs	r3, r0, r3
    697c:	0008      	movs	r0, r1
    697e:	4098      	lsls	r0, r3
    6980:	469c      	mov	ip, r3
    6982:	4683      	mov	fp, r0
    6984:	4653      	mov	r3, sl
    6986:	0010      	movs	r0, r2
    6988:	40d8      	lsrs	r0, r3
    698a:	0003      	movs	r3, r0
    698c:	4658      	mov	r0, fp
    698e:	4318      	orrs	r0, r3
    6990:	4663      	mov	r3, ip
    6992:	409a      	lsls	r2, r3
    6994:	1e53      	subs	r3, r2, #1
    6996:	419a      	sbcs	r2, r3
    6998:	4653      	mov	r3, sl
    699a:	4302      	orrs	r2, r0
    699c:	40d9      	lsrs	r1, r3
    699e:	e703      	b.n	67a8 <__aeabi_dadd+0x1c0>
    69a0:	0026      	movs	r6, r4
    69a2:	433e      	orrs	r6, r7
    69a4:	d006      	beq.n	69b4 <__aeabi_dadd+0x3cc>
    69a6:	43eb      	mvns	r3, r5
    69a8:	4699      	mov	r9, r3
    69aa:	2b00      	cmp	r3, #0
    69ac:	d0c7      	beq.n	693e <__aeabi_dadd+0x356>
    69ae:	4e94      	ldr	r6, [pc, #592]	; (6c00 <__aeabi_dadd+0x618>)
    69b0:	42b0      	cmp	r0, r6
    69b2:	d1ac      	bne.n	690e <__aeabi_dadd+0x326>
    69b4:	000c      	movs	r4, r1
    69b6:	0017      	movs	r7, r2
    69b8:	0006      	movs	r6, r0
    69ba:	46d8      	mov	r8, fp
    69bc:	e698      	b.n	66f0 <__aeabi_dadd+0x108>
    69be:	4b90      	ldr	r3, [pc, #576]	; (6c00 <__aeabi_dadd+0x618>)
    69c0:	459a      	cmp	sl, r3
    69c2:	d00b      	beq.n	69dc <__aeabi_dadd+0x3f4>
    69c4:	4682      	mov	sl, r0
    69c6:	e6e7      	b.n	6798 <__aeabi_dadd+0x1b0>
    69c8:	2800      	cmp	r0, #0
    69ca:	d000      	beq.n	69ce <__aeabi_dadd+0x3e6>
    69cc:	e09e      	b.n	6b0c <__aeabi_dadd+0x524>
    69ce:	0018      	movs	r0, r3
    69d0:	4310      	orrs	r0, r2
    69d2:	d100      	bne.n	69d6 <__aeabi_dadd+0x3ee>
    69d4:	e0e9      	b.n	6baa <__aeabi_dadd+0x5c2>
    69d6:	001c      	movs	r4, r3
    69d8:	0017      	movs	r7, r2
    69da:	46d8      	mov	r8, fp
    69dc:	4e88      	ldr	r6, [pc, #544]	; (6c00 <__aeabi_dadd+0x618>)
    69de:	e687      	b.n	66f0 <__aeabi_dadd+0x108>
    69e0:	2500      	movs	r5, #0
    69e2:	e772      	b.n	68ca <__aeabi_dadd+0x2e2>
    69e4:	2100      	movs	r1, #0
    69e6:	e782      	b.n	68ee <__aeabi_dadd+0x306>
    69e8:	0023      	movs	r3, r4
    69ea:	433b      	orrs	r3, r7
    69ec:	2e00      	cmp	r6, #0
    69ee:	d000      	beq.n	69f2 <__aeabi_dadd+0x40a>
    69f0:	e0ab      	b.n	6b4a <__aeabi_dadd+0x562>
    69f2:	2b00      	cmp	r3, #0
    69f4:	d100      	bne.n	69f8 <__aeabi_dadd+0x410>
    69f6:	e0e7      	b.n	6bc8 <__aeabi_dadd+0x5e0>
    69f8:	000b      	movs	r3, r1
    69fa:	4313      	orrs	r3, r2
    69fc:	d100      	bne.n	6a00 <__aeabi_dadd+0x418>
    69fe:	e677      	b.n	66f0 <__aeabi_dadd+0x108>
    6a00:	18ba      	adds	r2, r7, r2
    6a02:	42ba      	cmp	r2, r7
    6a04:	41bf      	sbcs	r7, r7
    6a06:	1864      	adds	r4, r4, r1
    6a08:	427f      	negs	r7, r7
    6a0a:	19e4      	adds	r4, r4, r7
    6a0c:	0223      	lsls	r3, r4, #8
    6a0e:	d400      	bmi.n	6a12 <__aeabi_dadd+0x42a>
    6a10:	e0f2      	b.n	6bf8 <__aeabi_dadd+0x610>
    6a12:	4b7c      	ldr	r3, [pc, #496]	; (6c04 <__aeabi_dadd+0x61c>)
    6a14:	0017      	movs	r7, r2
    6a16:	401c      	ands	r4, r3
    6a18:	0006      	movs	r6, r0
    6a1a:	e669      	b.n	66f0 <__aeabi_dadd+0x108>
    6a1c:	0020      	movs	r0, r4
    6a1e:	4338      	orrs	r0, r7
    6a20:	2e00      	cmp	r6, #0
    6a22:	d1d1      	bne.n	69c8 <__aeabi_dadd+0x3e0>
    6a24:	2800      	cmp	r0, #0
    6a26:	d15b      	bne.n	6ae0 <__aeabi_dadd+0x4f8>
    6a28:	001c      	movs	r4, r3
    6a2a:	4314      	orrs	r4, r2
    6a2c:	d100      	bne.n	6a30 <__aeabi_dadd+0x448>
    6a2e:	e0a8      	b.n	6b82 <__aeabi_dadd+0x59a>
    6a30:	001c      	movs	r4, r3
    6a32:	0017      	movs	r7, r2
    6a34:	46d8      	mov	r8, fp
    6a36:	e65b      	b.n	66f0 <__aeabi_dadd+0x108>
    6a38:	0006      	movs	r6, r0
    6a3a:	2400      	movs	r4, #0
    6a3c:	2700      	movs	r7, #0
    6a3e:	e697      	b.n	6770 <__aeabi_dadd+0x188>
    6a40:	4650      	mov	r0, sl
    6a42:	000b      	movs	r3, r1
    6a44:	3820      	subs	r0, #32
    6a46:	40c3      	lsrs	r3, r0
    6a48:	4699      	mov	r9, r3
    6a4a:	4653      	mov	r3, sl
    6a4c:	2b20      	cmp	r3, #32
    6a4e:	d100      	bne.n	6a52 <__aeabi_dadd+0x46a>
    6a50:	e095      	b.n	6b7e <__aeabi_dadd+0x596>
    6a52:	2340      	movs	r3, #64	; 0x40
    6a54:	4650      	mov	r0, sl
    6a56:	1a1b      	subs	r3, r3, r0
    6a58:	4099      	lsls	r1, r3
    6a5a:	430a      	orrs	r2, r1
    6a5c:	1e51      	subs	r1, r2, #1
    6a5e:	418a      	sbcs	r2, r1
    6a60:	464b      	mov	r3, r9
    6a62:	2100      	movs	r1, #0
    6a64:	431a      	orrs	r2, r3
    6a66:	e69f      	b.n	67a8 <__aeabi_dadd+0x1c0>
    6a68:	2e00      	cmp	r6, #0
    6a6a:	d130      	bne.n	6ace <__aeabi_dadd+0x4e6>
    6a6c:	0026      	movs	r6, r4
    6a6e:	433e      	orrs	r6, r7
    6a70:	d067      	beq.n	6b42 <__aeabi_dadd+0x55a>
    6a72:	43db      	mvns	r3, r3
    6a74:	469a      	mov	sl, r3
    6a76:	2b00      	cmp	r3, #0
    6a78:	d01c      	beq.n	6ab4 <__aeabi_dadd+0x4cc>
    6a7a:	4e61      	ldr	r6, [pc, #388]	; (6c00 <__aeabi_dadd+0x618>)
    6a7c:	42b0      	cmp	r0, r6
    6a7e:	d060      	beq.n	6b42 <__aeabi_dadd+0x55a>
    6a80:	4653      	mov	r3, sl
    6a82:	2b38      	cmp	r3, #56	; 0x38
    6a84:	dd00      	ble.n	6a88 <__aeabi_dadd+0x4a0>
    6a86:	e096      	b.n	6bb6 <__aeabi_dadd+0x5ce>
    6a88:	2b1f      	cmp	r3, #31
    6a8a:	dd00      	ble.n	6a8e <__aeabi_dadd+0x4a6>
    6a8c:	e09f      	b.n	6bce <__aeabi_dadd+0x5e6>
    6a8e:	2620      	movs	r6, #32
    6a90:	1af3      	subs	r3, r6, r3
    6a92:	0026      	movs	r6, r4
    6a94:	409e      	lsls	r6, r3
    6a96:	469c      	mov	ip, r3
    6a98:	46b3      	mov	fp, r6
    6a9a:	4653      	mov	r3, sl
    6a9c:	003e      	movs	r6, r7
    6a9e:	40de      	lsrs	r6, r3
    6aa0:	0033      	movs	r3, r6
    6aa2:	465e      	mov	r6, fp
    6aa4:	431e      	orrs	r6, r3
    6aa6:	4663      	mov	r3, ip
    6aa8:	409f      	lsls	r7, r3
    6aaa:	1e7b      	subs	r3, r7, #1
    6aac:	419f      	sbcs	r7, r3
    6aae:	4653      	mov	r3, sl
    6ab0:	40dc      	lsrs	r4, r3
    6ab2:	4337      	orrs	r7, r6
    6ab4:	18bf      	adds	r7, r7, r2
    6ab6:	4297      	cmp	r7, r2
    6ab8:	4192      	sbcs	r2, r2
    6aba:	1864      	adds	r4, r4, r1
    6abc:	4252      	negs	r2, r2
    6abe:	18a4      	adds	r4, r4, r2
    6ac0:	0006      	movs	r6, r0
    6ac2:	e678      	b.n	67b6 <__aeabi_dadd+0x1ce>
    6ac4:	4327      	orrs	r7, r4
    6ac6:	1e7c      	subs	r4, r7, #1
    6ac8:	41a7      	sbcs	r7, r4
    6aca:	2400      	movs	r4, #0
    6acc:	e737      	b.n	693e <__aeabi_dadd+0x356>
    6ace:	4e4c      	ldr	r6, [pc, #304]	; (6c00 <__aeabi_dadd+0x618>)
    6ad0:	42b0      	cmp	r0, r6
    6ad2:	d036      	beq.n	6b42 <__aeabi_dadd+0x55a>
    6ad4:	2680      	movs	r6, #128	; 0x80
    6ad6:	425b      	negs	r3, r3
    6ad8:	0436      	lsls	r6, r6, #16
    6ada:	469a      	mov	sl, r3
    6adc:	4334      	orrs	r4, r6
    6ade:	e7cf      	b.n	6a80 <__aeabi_dadd+0x498>
    6ae0:	0018      	movs	r0, r3
    6ae2:	4310      	orrs	r0, r2
    6ae4:	d100      	bne.n	6ae8 <__aeabi_dadd+0x500>
    6ae6:	e603      	b.n	66f0 <__aeabi_dadd+0x108>
    6ae8:	1ab8      	subs	r0, r7, r2
    6aea:	4684      	mov	ip, r0
    6aec:	4567      	cmp	r7, ip
    6aee:	41ad      	sbcs	r5, r5
    6af0:	1ae0      	subs	r0, r4, r3
    6af2:	426d      	negs	r5, r5
    6af4:	1b40      	subs	r0, r0, r5
    6af6:	0205      	lsls	r5, r0, #8
    6af8:	d400      	bmi.n	6afc <__aeabi_dadd+0x514>
    6afa:	e62c      	b.n	6756 <__aeabi_dadd+0x16e>
    6afc:	1bd7      	subs	r7, r2, r7
    6afe:	42ba      	cmp	r2, r7
    6b00:	4192      	sbcs	r2, r2
    6b02:	1b1c      	subs	r4, r3, r4
    6b04:	4252      	negs	r2, r2
    6b06:	1aa4      	subs	r4, r4, r2
    6b08:	46d8      	mov	r8, fp
    6b0a:	e5f1      	b.n	66f0 <__aeabi_dadd+0x108>
    6b0c:	0018      	movs	r0, r3
    6b0e:	4310      	orrs	r0, r2
    6b10:	d100      	bne.n	6b14 <__aeabi_dadd+0x52c>
    6b12:	e763      	b.n	69dc <__aeabi_dadd+0x3f4>
    6b14:	08f8      	lsrs	r0, r7, #3
    6b16:	0767      	lsls	r7, r4, #29
    6b18:	4307      	orrs	r7, r0
    6b1a:	2080      	movs	r0, #128	; 0x80
    6b1c:	08e4      	lsrs	r4, r4, #3
    6b1e:	0300      	lsls	r0, r0, #12
    6b20:	4204      	tst	r4, r0
    6b22:	d008      	beq.n	6b36 <__aeabi_dadd+0x54e>
    6b24:	08dd      	lsrs	r5, r3, #3
    6b26:	4205      	tst	r5, r0
    6b28:	d105      	bne.n	6b36 <__aeabi_dadd+0x54e>
    6b2a:	08d2      	lsrs	r2, r2, #3
    6b2c:	0759      	lsls	r1, r3, #29
    6b2e:	4311      	orrs	r1, r2
    6b30:	000f      	movs	r7, r1
    6b32:	002c      	movs	r4, r5
    6b34:	46d8      	mov	r8, fp
    6b36:	0f7b      	lsrs	r3, r7, #29
    6b38:	00e4      	lsls	r4, r4, #3
    6b3a:	431c      	orrs	r4, r3
    6b3c:	00ff      	lsls	r7, r7, #3
    6b3e:	4e30      	ldr	r6, [pc, #192]	; (6c00 <__aeabi_dadd+0x618>)
    6b40:	e5d6      	b.n	66f0 <__aeabi_dadd+0x108>
    6b42:	000c      	movs	r4, r1
    6b44:	0017      	movs	r7, r2
    6b46:	0006      	movs	r6, r0
    6b48:	e5d2      	b.n	66f0 <__aeabi_dadd+0x108>
    6b4a:	2b00      	cmp	r3, #0
    6b4c:	d038      	beq.n	6bc0 <__aeabi_dadd+0x5d8>
    6b4e:	000b      	movs	r3, r1
    6b50:	4313      	orrs	r3, r2
    6b52:	d100      	bne.n	6b56 <__aeabi_dadd+0x56e>
    6b54:	e742      	b.n	69dc <__aeabi_dadd+0x3f4>
    6b56:	08f8      	lsrs	r0, r7, #3
    6b58:	0767      	lsls	r7, r4, #29
    6b5a:	4307      	orrs	r7, r0
    6b5c:	2080      	movs	r0, #128	; 0x80
    6b5e:	08e4      	lsrs	r4, r4, #3
    6b60:	0300      	lsls	r0, r0, #12
    6b62:	4204      	tst	r4, r0
    6b64:	d0e7      	beq.n	6b36 <__aeabi_dadd+0x54e>
    6b66:	08cb      	lsrs	r3, r1, #3
    6b68:	4203      	tst	r3, r0
    6b6a:	d1e4      	bne.n	6b36 <__aeabi_dadd+0x54e>
    6b6c:	08d2      	lsrs	r2, r2, #3
    6b6e:	0749      	lsls	r1, r1, #29
    6b70:	4311      	orrs	r1, r2
    6b72:	000f      	movs	r7, r1
    6b74:	001c      	movs	r4, r3
    6b76:	e7de      	b.n	6b36 <__aeabi_dadd+0x54e>
    6b78:	2700      	movs	r7, #0
    6b7a:	2400      	movs	r4, #0
    6b7c:	e5d5      	b.n	672a <__aeabi_dadd+0x142>
    6b7e:	2100      	movs	r1, #0
    6b80:	e76b      	b.n	6a5a <__aeabi_dadd+0x472>
    6b82:	2500      	movs	r5, #0
    6b84:	2700      	movs	r7, #0
    6b86:	e5f3      	b.n	6770 <__aeabi_dadd+0x188>
    6b88:	464e      	mov	r6, r9
    6b8a:	0025      	movs	r5, r4
    6b8c:	3e20      	subs	r6, #32
    6b8e:	40f5      	lsrs	r5, r6
    6b90:	464b      	mov	r3, r9
    6b92:	002e      	movs	r6, r5
    6b94:	2b20      	cmp	r3, #32
    6b96:	d02d      	beq.n	6bf4 <__aeabi_dadd+0x60c>
    6b98:	2540      	movs	r5, #64	; 0x40
    6b9a:	1aed      	subs	r5, r5, r3
    6b9c:	40ac      	lsls	r4, r5
    6b9e:	4327      	orrs	r7, r4
    6ba0:	1e7c      	subs	r4, r7, #1
    6ba2:	41a7      	sbcs	r7, r4
    6ba4:	2400      	movs	r4, #0
    6ba6:	4337      	orrs	r7, r6
    6ba8:	e6c9      	b.n	693e <__aeabi_dadd+0x356>
    6baa:	2480      	movs	r4, #128	; 0x80
    6bac:	2500      	movs	r5, #0
    6bae:	0324      	lsls	r4, r4, #12
    6bb0:	4e13      	ldr	r6, [pc, #76]	; (6c00 <__aeabi_dadd+0x618>)
    6bb2:	2700      	movs	r7, #0
    6bb4:	e5dc      	b.n	6770 <__aeabi_dadd+0x188>
    6bb6:	4327      	orrs	r7, r4
    6bb8:	1e7c      	subs	r4, r7, #1
    6bba:	41a7      	sbcs	r7, r4
    6bbc:	2400      	movs	r4, #0
    6bbe:	e779      	b.n	6ab4 <__aeabi_dadd+0x4cc>
    6bc0:	000c      	movs	r4, r1
    6bc2:	0017      	movs	r7, r2
    6bc4:	4e0e      	ldr	r6, [pc, #56]	; (6c00 <__aeabi_dadd+0x618>)
    6bc6:	e593      	b.n	66f0 <__aeabi_dadd+0x108>
    6bc8:	000c      	movs	r4, r1
    6bca:	0017      	movs	r7, r2
    6bcc:	e590      	b.n	66f0 <__aeabi_dadd+0x108>
    6bce:	4656      	mov	r6, sl
    6bd0:	0023      	movs	r3, r4
    6bd2:	3e20      	subs	r6, #32
    6bd4:	40f3      	lsrs	r3, r6
    6bd6:	4699      	mov	r9, r3
    6bd8:	4653      	mov	r3, sl
    6bda:	2b20      	cmp	r3, #32
    6bdc:	d00e      	beq.n	6bfc <__aeabi_dadd+0x614>
    6bde:	2340      	movs	r3, #64	; 0x40
    6be0:	4656      	mov	r6, sl
    6be2:	1b9b      	subs	r3, r3, r6
    6be4:	409c      	lsls	r4, r3
    6be6:	4327      	orrs	r7, r4
    6be8:	1e7c      	subs	r4, r7, #1
    6bea:	41a7      	sbcs	r7, r4
    6bec:	464b      	mov	r3, r9
    6bee:	2400      	movs	r4, #0
    6bf0:	431f      	orrs	r7, r3
    6bf2:	e75f      	b.n	6ab4 <__aeabi_dadd+0x4cc>
    6bf4:	2400      	movs	r4, #0
    6bf6:	e7d2      	b.n	6b9e <__aeabi_dadd+0x5b6>
    6bf8:	0017      	movs	r7, r2
    6bfa:	e5b2      	b.n	6762 <__aeabi_dadd+0x17a>
    6bfc:	2400      	movs	r4, #0
    6bfe:	e7f2      	b.n	6be6 <__aeabi_dadd+0x5fe>
    6c00:	000007ff 	.word	0x000007ff
    6c04:	ff7fffff 	.word	0xff7fffff

00006c08 <__aeabi_ddiv>:
    6c08:	b5f0      	push	{r4, r5, r6, r7, lr}
    6c0a:	4657      	mov	r7, sl
    6c0c:	4645      	mov	r5, r8
    6c0e:	46de      	mov	lr, fp
    6c10:	464e      	mov	r6, r9
    6c12:	b5e0      	push	{r5, r6, r7, lr}
    6c14:	004c      	lsls	r4, r1, #1
    6c16:	030e      	lsls	r6, r1, #12
    6c18:	b087      	sub	sp, #28
    6c1a:	4683      	mov	fp, r0
    6c1c:	4692      	mov	sl, r2
    6c1e:	001d      	movs	r5, r3
    6c20:	4680      	mov	r8, r0
    6c22:	0b36      	lsrs	r6, r6, #12
    6c24:	0d64      	lsrs	r4, r4, #21
    6c26:	0fcf      	lsrs	r7, r1, #31
    6c28:	2c00      	cmp	r4, #0
    6c2a:	d04f      	beq.n	6ccc <__aeabi_ddiv+0xc4>
    6c2c:	4b6f      	ldr	r3, [pc, #444]	; (6dec <__aeabi_ddiv+0x1e4>)
    6c2e:	429c      	cmp	r4, r3
    6c30:	d035      	beq.n	6c9e <__aeabi_ddiv+0x96>
    6c32:	2380      	movs	r3, #128	; 0x80
    6c34:	0f42      	lsrs	r2, r0, #29
    6c36:	041b      	lsls	r3, r3, #16
    6c38:	00f6      	lsls	r6, r6, #3
    6c3a:	4313      	orrs	r3, r2
    6c3c:	4333      	orrs	r3, r6
    6c3e:	4699      	mov	r9, r3
    6c40:	00c3      	lsls	r3, r0, #3
    6c42:	4698      	mov	r8, r3
    6c44:	4b6a      	ldr	r3, [pc, #424]	; (6df0 <__aeabi_ddiv+0x1e8>)
    6c46:	2600      	movs	r6, #0
    6c48:	469c      	mov	ip, r3
    6c4a:	2300      	movs	r3, #0
    6c4c:	4464      	add	r4, ip
    6c4e:	9303      	str	r3, [sp, #12]
    6c50:	032b      	lsls	r3, r5, #12
    6c52:	0b1b      	lsrs	r3, r3, #12
    6c54:	469b      	mov	fp, r3
    6c56:	006b      	lsls	r3, r5, #1
    6c58:	0fed      	lsrs	r5, r5, #31
    6c5a:	4650      	mov	r0, sl
    6c5c:	0d5b      	lsrs	r3, r3, #21
    6c5e:	9501      	str	r5, [sp, #4]
    6c60:	d05e      	beq.n	6d20 <__aeabi_ddiv+0x118>
    6c62:	4a62      	ldr	r2, [pc, #392]	; (6dec <__aeabi_ddiv+0x1e4>)
    6c64:	4293      	cmp	r3, r2
    6c66:	d053      	beq.n	6d10 <__aeabi_ddiv+0x108>
    6c68:	465a      	mov	r2, fp
    6c6a:	00d1      	lsls	r1, r2, #3
    6c6c:	2280      	movs	r2, #128	; 0x80
    6c6e:	0f40      	lsrs	r0, r0, #29
    6c70:	0412      	lsls	r2, r2, #16
    6c72:	4302      	orrs	r2, r0
    6c74:	430a      	orrs	r2, r1
    6c76:	4693      	mov	fp, r2
    6c78:	4652      	mov	r2, sl
    6c7a:	00d1      	lsls	r1, r2, #3
    6c7c:	4a5c      	ldr	r2, [pc, #368]	; (6df0 <__aeabi_ddiv+0x1e8>)
    6c7e:	4694      	mov	ip, r2
    6c80:	2200      	movs	r2, #0
    6c82:	4463      	add	r3, ip
    6c84:	0038      	movs	r0, r7
    6c86:	4068      	eors	r0, r5
    6c88:	4684      	mov	ip, r0
    6c8a:	9002      	str	r0, [sp, #8]
    6c8c:	1ae4      	subs	r4, r4, r3
    6c8e:	4316      	orrs	r6, r2
    6c90:	2e0f      	cmp	r6, #15
    6c92:	d900      	bls.n	6c96 <__aeabi_ddiv+0x8e>
    6c94:	e0b4      	b.n	6e00 <__aeabi_ddiv+0x1f8>
    6c96:	4b57      	ldr	r3, [pc, #348]	; (6df4 <__aeabi_ddiv+0x1ec>)
    6c98:	00b6      	lsls	r6, r6, #2
    6c9a:	599b      	ldr	r3, [r3, r6]
    6c9c:	469f      	mov	pc, r3
    6c9e:	0003      	movs	r3, r0
    6ca0:	4333      	orrs	r3, r6
    6ca2:	4699      	mov	r9, r3
    6ca4:	d16c      	bne.n	6d80 <__aeabi_ddiv+0x178>
    6ca6:	2300      	movs	r3, #0
    6ca8:	4698      	mov	r8, r3
    6caa:	3302      	adds	r3, #2
    6cac:	2608      	movs	r6, #8
    6cae:	9303      	str	r3, [sp, #12]
    6cb0:	e7ce      	b.n	6c50 <__aeabi_ddiv+0x48>
    6cb2:	46cb      	mov	fp, r9
    6cb4:	4641      	mov	r1, r8
    6cb6:	9a03      	ldr	r2, [sp, #12]
    6cb8:	9701      	str	r7, [sp, #4]
    6cba:	2a02      	cmp	r2, #2
    6cbc:	d165      	bne.n	6d8a <__aeabi_ddiv+0x182>
    6cbe:	9b01      	ldr	r3, [sp, #4]
    6cc0:	4c4a      	ldr	r4, [pc, #296]	; (6dec <__aeabi_ddiv+0x1e4>)
    6cc2:	469c      	mov	ip, r3
    6cc4:	2300      	movs	r3, #0
    6cc6:	2200      	movs	r2, #0
    6cc8:	4698      	mov	r8, r3
    6cca:	e06b      	b.n	6da4 <__aeabi_ddiv+0x19c>
    6ccc:	0003      	movs	r3, r0
    6cce:	4333      	orrs	r3, r6
    6cd0:	4699      	mov	r9, r3
    6cd2:	d04e      	beq.n	6d72 <__aeabi_ddiv+0x16a>
    6cd4:	2e00      	cmp	r6, #0
    6cd6:	d100      	bne.n	6cda <__aeabi_ddiv+0xd2>
    6cd8:	e1bc      	b.n	7054 <__aeabi_ddiv+0x44c>
    6cda:	0030      	movs	r0, r6
    6cdc:	f001 fae8 	bl	82b0 <__clzsi2>
    6ce0:	0003      	movs	r3, r0
    6ce2:	3b0b      	subs	r3, #11
    6ce4:	2b1c      	cmp	r3, #28
    6ce6:	dd00      	ble.n	6cea <__aeabi_ddiv+0xe2>
    6ce8:	e1ac      	b.n	7044 <__aeabi_ddiv+0x43c>
    6cea:	221d      	movs	r2, #29
    6cec:	1ad3      	subs	r3, r2, r3
    6cee:	465a      	mov	r2, fp
    6cf0:	0001      	movs	r1, r0
    6cf2:	40da      	lsrs	r2, r3
    6cf4:	3908      	subs	r1, #8
    6cf6:	408e      	lsls	r6, r1
    6cf8:	0013      	movs	r3, r2
    6cfa:	4333      	orrs	r3, r6
    6cfc:	4699      	mov	r9, r3
    6cfe:	465b      	mov	r3, fp
    6d00:	408b      	lsls	r3, r1
    6d02:	4698      	mov	r8, r3
    6d04:	2300      	movs	r3, #0
    6d06:	4c3c      	ldr	r4, [pc, #240]	; (6df8 <__aeabi_ddiv+0x1f0>)
    6d08:	2600      	movs	r6, #0
    6d0a:	1a24      	subs	r4, r4, r0
    6d0c:	9303      	str	r3, [sp, #12]
    6d0e:	e79f      	b.n	6c50 <__aeabi_ddiv+0x48>
    6d10:	4651      	mov	r1, sl
    6d12:	465a      	mov	r2, fp
    6d14:	4311      	orrs	r1, r2
    6d16:	d129      	bne.n	6d6c <__aeabi_ddiv+0x164>
    6d18:	2200      	movs	r2, #0
    6d1a:	4693      	mov	fp, r2
    6d1c:	3202      	adds	r2, #2
    6d1e:	e7b1      	b.n	6c84 <__aeabi_ddiv+0x7c>
    6d20:	4659      	mov	r1, fp
    6d22:	4301      	orrs	r1, r0
    6d24:	d01e      	beq.n	6d64 <__aeabi_ddiv+0x15c>
    6d26:	465b      	mov	r3, fp
    6d28:	2b00      	cmp	r3, #0
    6d2a:	d100      	bne.n	6d2e <__aeabi_ddiv+0x126>
    6d2c:	e19e      	b.n	706c <__aeabi_ddiv+0x464>
    6d2e:	4658      	mov	r0, fp
    6d30:	f001 fabe 	bl	82b0 <__clzsi2>
    6d34:	0003      	movs	r3, r0
    6d36:	3b0b      	subs	r3, #11
    6d38:	2b1c      	cmp	r3, #28
    6d3a:	dd00      	ble.n	6d3e <__aeabi_ddiv+0x136>
    6d3c:	e18f      	b.n	705e <__aeabi_ddiv+0x456>
    6d3e:	0002      	movs	r2, r0
    6d40:	4659      	mov	r1, fp
    6d42:	3a08      	subs	r2, #8
    6d44:	4091      	lsls	r1, r2
    6d46:	468b      	mov	fp, r1
    6d48:	211d      	movs	r1, #29
    6d4a:	1acb      	subs	r3, r1, r3
    6d4c:	4651      	mov	r1, sl
    6d4e:	40d9      	lsrs	r1, r3
    6d50:	000b      	movs	r3, r1
    6d52:	4659      	mov	r1, fp
    6d54:	430b      	orrs	r3, r1
    6d56:	4651      	mov	r1, sl
    6d58:	469b      	mov	fp, r3
    6d5a:	4091      	lsls	r1, r2
    6d5c:	4b26      	ldr	r3, [pc, #152]	; (6df8 <__aeabi_ddiv+0x1f0>)
    6d5e:	2200      	movs	r2, #0
    6d60:	1a1b      	subs	r3, r3, r0
    6d62:	e78f      	b.n	6c84 <__aeabi_ddiv+0x7c>
    6d64:	2300      	movs	r3, #0
    6d66:	2201      	movs	r2, #1
    6d68:	469b      	mov	fp, r3
    6d6a:	e78b      	b.n	6c84 <__aeabi_ddiv+0x7c>
    6d6c:	4651      	mov	r1, sl
    6d6e:	2203      	movs	r2, #3
    6d70:	e788      	b.n	6c84 <__aeabi_ddiv+0x7c>
    6d72:	2300      	movs	r3, #0
    6d74:	4698      	mov	r8, r3
    6d76:	3301      	adds	r3, #1
    6d78:	2604      	movs	r6, #4
    6d7a:	2400      	movs	r4, #0
    6d7c:	9303      	str	r3, [sp, #12]
    6d7e:	e767      	b.n	6c50 <__aeabi_ddiv+0x48>
    6d80:	2303      	movs	r3, #3
    6d82:	46b1      	mov	r9, r6
    6d84:	9303      	str	r3, [sp, #12]
    6d86:	260c      	movs	r6, #12
    6d88:	e762      	b.n	6c50 <__aeabi_ddiv+0x48>
    6d8a:	2a03      	cmp	r2, #3
    6d8c:	d100      	bne.n	6d90 <__aeabi_ddiv+0x188>
    6d8e:	e25c      	b.n	724a <__aeabi_ddiv+0x642>
    6d90:	9b01      	ldr	r3, [sp, #4]
    6d92:	2a01      	cmp	r2, #1
    6d94:	d000      	beq.n	6d98 <__aeabi_ddiv+0x190>
    6d96:	e1e4      	b.n	7162 <__aeabi_ddiv+0x55a>
    6d98:	4013      	ands	r3, r2
    6d9a:	469c      	mov	ip, r3
    6d9c:	2300      	movs	r3, #0
    6d9e:	2400      	movs	r4, #0
    6da0:	2200      	movs	r2, #0
    6da2:	4698      	mov	r8, r3
    6da4:	2100      	movs	r1, #0
    6da6:	0312      	lsls	r2, r2, #12
    6da8:	0b13      	lsrs	r3, r2, #12
    6daa:	0d0a      	lsrs	r2, r1, #20
    6dac:	0512      	lsls	r2, r2, #20
    6dae:	431a      	orrs	r2, r3
    6db0:	0523      	lsls	r3, r4, #20
    6db2:	4c12      	ldr	r4, [pc, #72]	; (6dfc <__aeabi_ddiv+0x1f4>)
    6db4:	4640      	mov	r0, r8
    6db6:	4022      	ands	r2, r4
    6db8:	4313      	orrs	r3, r2
    6dba:	4662      	mov	r2, ip
    6dbc:	005b      	lsls	r3, r3, #1
    6dbe:	07d2      	lsls	r2, r2, #31
    6dc0:	085b      	lsrs	r3, r3, #1
    6dc2:	4313      	orrs	r3, r2
    6dc4:	0019      	movs	r1, r3
    6dc6:	b007      	add	sp, #28
    6dc8:	bc3c      	pop	{r2, r3, r4, r5}
    6dca:	4690      	mov	r8, r2
    6dcc:	4699      	mov	r9, r3
    6dce:	46a2      	mov	sl, r4
    6dd0:	46ab      	mov	fp, r5
    6dd2:	bdf0      	pop	{r4, r5, r6, r7, pc}
    6dd4:	2300      	movs	r3, #0
    6dd6:	2280      	movs	r2, #128	; 0x80
    6dd8:	469c      	mov	ip, r3
    6dda:	0312      	lsls	r2, r2, #12
    6ddc:	4698      	mov	r8, r3
    6dde:	4c03      	ldr	r4, [pc, #12]	; (6dec <__aeabi_ddiv+0x1e4>)
    6de0:	e7e0      	b.n	6da4 <__aeabi_ddiv+0x19c>
    6de2:	2300      	movs	r3, #0
    6de4:	4c01      	ldr	r4, [pc, #4]	; (6dec <__aeabi_ddiv+0x1e4>)
    6de6:	2200      	movs	r2, #0
    6de8:	4698      	mov	r8, r3
    6dea:	e7db      	b.n	6da4 <__aeabi_ddiv+0x19c>
    6dec:	000007ff 	.word	0x000007ff
    6df0:	fffffc01 	.word	0xfffffc01
    6df4:	00008f44 	.word	0x00008f44
    6df8:	fffffc0d 	.word	0xfffffc0d
    6dfc:	800fffff 	.word	0x800fffff
    6e00:	45d9      	cmp	r9, fp
    6e02:	d900      	bls.n	6e06 <__aeabi_ddiv+0x1fe>
    6e04:	e139      	b.n	707a <__aeabi_ddiv+0x472>
    6e06:	d100      	bne.n	6e0a <__aeabi_ddiv+0x202>
    6e08:	e134      	b.n	7074 <__aeabi_ddiv+0x46c>
    6e0a:	2300      	movs	r3, #0
    6e0c:	4646      	mov	r6, r8
    6e0e:	464d      	mov	r5, r9
    6e10:	469a      	mov	sl, r3
    6e12:	3c01      	subs	r4, #1
    6e14:	465b      	mov	r3, fp
    6e16:	0e0a      	lsrs	r2, r1, #24
    6e18:	021b      	lsls	r3, r3, #8
    6e1a:	431a      	orrs	r2, r3
    6e1c:	020b      	lsls	r3, r1, #8
    6e1e:	0c17      	lsrs	r7, r2, #16
    6e20:	9303      	str	r3, [sp, #12]
    6e22:	0413      	lsls	r3, r2, #16
    6e24:	0c1b      	lsrs	r3, r3, #16
    6e26:	0039      	movs	r1, r7
    6e28:	0028      	movs	r0, r5
    6e2a:	4690      	mov	r8, r2
    6e2c:	9301      	str	r3, [sp, #4]
    6e2e:	f7fe fb07 	bl	5440 <__udivsi3>
    6e32:	0002      	movs	r2, r0
    6e34:	9b01      	ldr	r3, [sp, #4]
    6e36:	4683      	mov	fp, r0
    6e38:	435a      	muls	r2, r3
    6e3a:	0028      	movs	r0, r5
    6e3c:	0039      	movs	r1, r7
    6e3e:	4691      	mov	r9, r2
    6e40:	f7fe fb84 	bl	554c <__aeabi_uidivmod>
    6e44:	0c35      	lsrs	r5, r6, #16
    6e46:	0409      	lsls	r1, r1, #16
    6e48:	430d      	orrs	r5, r1
    6e4a:	45a9      	cmp	r9, r5
    6e4c:	d90d      	bls.n	6e6a <__aeabi_ddiv+0x262>
    6e4e:	465b      	mov	r3, fp
    6e50:	4445      	add	r5, r8
    6e52:	3b01      	subs	r3, #1
    6e54:	45a8      	cmp	r8, r5
    6e56:	d900      	bls.n	6e5a <__aeabi_ddiv+0x252>
    6e58:	e13a      	b.n	70d0 <__aeabi_ddiv+0x4c8>
    6e5a:	45a9      	cmp	r9, r5
    6e5c:	d800      	bhi.n	6e60 <__aeabi_ddiv+0x258>
    6e5e:	e137      	b.n	70d0 <__aeabi_ddiv+0x4c8>
    6e60:	2302      	movs	r3, #2
    6e62:	425b      	negs	r3, r3
    6e64:	469c      	mov	ip, r3
    6e66:	4445      	add	r5, r8
    6e68:	44e3      	add	fp, ip
    6e6a:	464b      	mov	r3, r9
    6e6c:	1aeb      	subs	r3, r5, r3
    6e6e:	0039      	movs	r1, r7
    6e70:	0018      	movs	r0, r3
    6e72:	9304      	str	r3, [sp, #16]
    6e74:	f7fe fae4 	bl	5440 <__udivsi3>
    6e78:	9b01      	ldr	r3, [sp, #4]
    6e7a:	0005      	movs	r5, r0
    6e7c:	4343      	muls	r3, r0
    6e7e:	0039      	movs	r1, r7
    6e80:	9804      	ldr	r0, [sp, #16]
    6e82:	4699      	mov	r9, r3
    6e84:	f7fe fb62 	bl	554c <__aeabi_uidivmod>
    6e88:	0433      	lsls	r3, r6, #16
    6e8a:	0409      	lsls	r1, r1, #16
    6e8c:	0c1b      	lsrs	r3, r3, #16
    6e8e:	430b      	orrs	r3, r1
    6e90:	4599      	cmp	r9, r3
    6e92:	d909      	bls.n	6ea8 <__aeabi_ddiv+0x2a0>
    6e94:	4443      	add	r3, r8
    6e96:	1e6a      	subs	r2, r5, #1
    6e98:	4598      	cmp	r8, r3
    6e9a:	d900      	bls.n	6e9e <__aeabi_ddiv+0x296>
    6e9c:	e11a      	b.n	70d4 <__aeabi_ddiv+0x4cc>
    6e9e:	4599      	cmp	r9, r3
    6ea0:	d800      	bhi.n	6ea4 <__aeabi_ddiv+0x29c>
    6ea2:	e117      	b.n	70d4 <__aeabi_ddiv+0x4cc>
    6ea4:	3d02      	subs	r5, #2
    6ea6:	4443      	add	r3, r8
    6ea8:	464a      	mov	r2, r9
    6eaa:	1a9b      	subs	r3, r3, r2
    6eac:	465a      	mov	r2, fp
    6eae:	0412      	lsls	r2, r2, #16
    6eb0:	432a      	orrs	r2, r5
    6eb2:	9903      	ldr	r1, [sp, #12]
    6eb4:	4693      	mov	fp, r2
    6eb6:	0c10      	lsrs	r0, r2, #16
    6eb8:	0c0a      	lsrs	r2, r1, #16
    6eba:	4691      	mov	r9, r2
    6ebc:	0409      	lsls	r1, r1, #16
    6ebe:	465a      	mov	r2, fp
    6ec0:	0c09      	lsrs	r1, r1, #16
    6ec2:	464e      	mov	r6, r9
    6ec4:	000d      	movs	r5, r1
    6ec6:	0412      	lsls	r2, r2, #16
    6ec8:	0c12      	lsrs	r2, r2, #16
    6eca:	4345      	muls	r5, r0
    6ecc:	9105      	str	r1, [sp, #20]
    6ece:	4351      	muls	r1, r2
    6ed0:	4372      	muls	r2, r6
    6ed2:	4370      	muls	r0, r6
    6ed4:	1952      	adds	r2, r2, r5
    6ed6:	0c0e      	lsrs	r6, r1, #16
    6ed8:	18b2      	adds	r2, r6, r2
    6eda:	4295      	cmp	r5, r2
    6edc:	d903      	bls.n	6ee6 <__aeabi_ddiv+0x2de>
    6ede:	2580      	movs	r5, #128	; 0x80
    6ee0:	026d      	lsls	r5, r5, #9
    6ee2:	46ac      	mov	ip, r5
    6ee4:	4460      	add	r0, ip
    6ee6:	0c15      	lsrs	r5, r2, #16
    6ee8:	0409      	lsls	r1, r1, #16
    6eea:	0412      	lsls	r2, r2, #16
    6eec:	0c09      	lsrs	r1, r1, #16
    6eee:	1828      	adds	r0, r5, r0
    6ef0:	1852      	adds	r2, r2, r1
    6ef2:	4283      	cmp	r3, r0
    6ef4:	d200      	bcs.n	6ef8 <__aeabi_ddiv+0x2f0>
    6ef6:	e0ce      	b.n	7096 <__aeabi_ddiv+0x48e>
    6ef8:	d100      	bne.n	6efc <__aeabi_ddiv+0x2f4>
    6efa:	e0c8      	b.n	708e <__aeabi_ddiv+0x486>
    6efc:	1a1d      	subs	r5, r3, r0
    6efe:	4653      	mov	r3, sl
    6f00:	1a9e      	subs	r6, r3, r2
    6f02:	45b2      	cmp	sl, r6
    6f04:	4192      	sbcs	r2, r2
    6f06:	4252      	negs	r2, r2
    6f08:	1aab      	subs	r3, r5, r2
    6f0a:	469a      	mov	sl, r3
    6f0c:	4598      	cmp	r8, r3
    6f0e:	d100      	bne.n	6f12 <__aeabi_ddiv+0x30a>
    6f10:	e117      	b.n	7142 <__aeabi_ddiv+0x53a>
    6f12:	0039      	movs	r1, r7
    6f14:	0018      	movs	r0, r3
    6f16:	f7fe fa93 	bl	5440 <__udivsi3>
    6f1a:	9b01      	ldr	r3, [sp, #4]
    6f1c:	0005      	movs	r5, r0
    6f1e:	4343      	muls	r3, r0
    6f20:	0039      	movs	r1, r7
    6f22:	4650      	mov	r0, sl
    6f24:	9304      	str	r3, [sp, #16]
    6f26:	f7fe fb11 	bl	554c <__aeabi_uidivmod>
    6f2a:	9804      	ldr	r0, [sp, #16]
    6f2c:	040b      	lsls	r3, r1, #16
    6f2e:	0c31      	lsrs	r1, r6, #16
    6f30:	4319      	orrs	r1, r3
    6f32:	4288      	cmp	r0, r1
    6f34:	d909      	bls.n	6f4a <__aeabi_ddiv+0x342>
    6f36:	4441      	add	r1, r8
    6f38:	1e6b      	subs	r3, r5, #1
    6f3a:	4588      	cmp	r8, r1
    6f3c:	d900      	bls.n	6f40 <__aeabi_ddiv+0x338>
    6f3e:	e107      	b.n	7150 <__aeabi_ddiv+0x548>
    6f40:	4288      	cmp	r0, r1
    6f42:	d800      	bhi.n	6f46 <__aeabi_ddiv+0x33e>
    6f44:	e104      	b.n	7150 <__aeabi_ddiv+0x548>
    6f46:	3d02      	subs	r5, #2
    6f48:	4441      	add	r1, r8
    6f4a:	9b04      	ldr	r3, [sp, #16]
    6f4c:	1acb      	subs	r3, r1, r3
    6f4e:	0018      	movs	r0, r3
    6f50:	0039      	movs	r1, r7
    6f52:	9304      	str	r3, [sp, #16]
    6f54:	f7fe fa74 	bl	5440 <__udivsi3>
    6f58:	9b01      	ldr	r3, [sp, #4]
    6f5a:	4682      	mov	sl, r0
    6f5c:	4343      	muls	r3, r0
    6f5e:	0039      	movs	r1, r7
    6f60:	9804      	ldr	r0, [sp, #16]
    6f62:	9301      	str	r3, [sp, #4]
    6f64:	f7fe faf2 	bl	554c <__aeabi_uidivmod>
    6f68:	9801      	ldr	r0, [sp, #4]
    6f6a:	040b      	lsls	r3, r1, #16
    6f6c:	0431      	lsls	r1, r6, #16
    6f6e:	0c09      	lsrs	r1, r1, #16
    6f70:	4319      	orrs	r1, r3
    6f72:	4288      	cmp	r0, r1
    6f74:	d90d      	bls.n	6f92 <__aeabi_ddiv+0x38a>
    6f76:	4653      	mov	r3, sl
    6f78:	4441      	add	r1, r8
    6f7a:	3b01      	subs	r3, #1
    6f7c:	4588      	cmp	r8, r1
    6f7e:	d900      	bls.n	6f82 <__aeabi_ddiv+0x37a>
    6f80:	e0e8      	b.n	7154 <__aeabi_ddiv+0x54c>
    6f82:	4288      	cmp	r0, r1
    6f84:	d800      	bhi.n	6f88 <__aeabi_ddiv+0x380>
    6f86:	e0e5      	b.n	7154 <__aeabi_ddiv+0x54c>
    6f88:	2302      	movs	r3, #2
    6f8a:	425b      	negs	r3, r3
    6f8c:	469c      	mov	ip, r3
    6f8e:	4441      	add	r1, r8
    6f90:	44e2      	add	sl, ip
    6f92:	9b01      	ldr	r3, [sp, #4]
    6f94:	042d      	lsls	r5, r5, #16
    6f96:	1ace      	subs	r6, r1, r3
    6f98:	4651      	mov	r1, sl
    6f9a:	4329      	orrs	r1, r5
    6f9c:	9d05      	ldr	r5, [sp, #20]
    6f9e:	464f      	mov	r7, r9
    6fa0:	002a      	movs	r2, r5
    6fa2:	040b      	lsls	r3, r1, #16
    6fa4:	0c08      	lsrs	r0, r1, #16
    6fa6:	0c1b      	lsrs	r3, r3, #16
    6fa8:	435a      	muls	r2, r3
    6faa:	4345      	muls	r5, r0
    6fac:	437b      	muls	r3, r7
    6fae:	4378      	muls	r0, r7
    6fb0:	195b      	adds	r3, r3, r5
    6fb2:	0c17      	lsrs	r7, r2, #16
    6fb4:	18fb      	adds	r3, r7, r3
    6fb6:	429d      	cmp	r5, r3
    6fb8:	d903      	bls.n	6fc2 <__aeabi_ddiv+0x3ba>
    6fba:	2580      	movs	r5, #128	; 0x80
    6fbc:	026d      	lsls	r5, r5, #9
    6fbe:	46ac      	mov	ip, r5
    6fc0:	4460      	add	r0, ip
    6fc2:	0c1d      	lsrs	r5, r3, #16
    6fc4:	0412      	lsls	r2, r2, #16
    6fc6:	041b      	lsls	r3, r3, #16
    6fc8:	0c12      	lsrs	r2, r2, #16
    6fca:	1828      	adds	r0, r5, r0
    6fcc:	189b      	adds	r3, r3, r2
    6fce:	4286      	cmp	r6, r0
    6fd0:	d200      	bcs.n	6fd4 <__aeabi_ddiv+0x3cc>
    6fd2:	e093      	b.n	70fc <__aeabi_ddiv+0x4f4>
    6fd4:	d100      	bne.n	6fd8 <__aeabi_ddiv+0x3d0>
    6fd6:	e08e      	b.n	70f6 <__aeabi_ddiv+0x4ee>
    6fd8:	2301      	movs	r3, #1
    6fda:	4319      	orrs	r1, r3
    6fdc:	4ba0      	ldr	r3, [pc, #640]	; (7260 <__aeabi_ddiv+0x658>)
    6fde:	18e3      	adds	r3, r4, r3
    6fe0:	2b00      	cmp	r3, #0
    6fe2:	dc00      	bgt.n	6fe6 <__aeabi_ddiv+0x3de>
    6fe4:	e099      	b.n	711a <__aeabi_ddiv+0x512>
    6fe6:	074a      	lsls	r2, r1, #29
    6fe8:	d000      	beq.n	6fec <__aeabi_ddiv+0x3e4>
    6fea:	e09e      	b.n	712a <__aeabi_ddiv+0x522>
    6fec:	465a      	mov	r2, fp
    6fee:	01d2      	lsls	r2, r2, #7
    6ff0:	d506      	bpl.n	7000 <__aeabi_ddiv+0x3f8>
    6ff2:	465a      	mov	r2, fp
    6ff4:	4b9b      	ldr	r3, [pc, #620]	; (7264 <__aeabi_ddiv+0x65c>)
    6ff6:	401a      	ands	r2, r3
    6ff8:	2380      	movs	r3, #128	; 0x80
    6ffa:	4693      	mov	fp, r2
    6ffc:	00db      	lsls	r3, r3, #3
    6ffe:	18e3      	adds	r3, r4, r3
    7000:	4a99      	ldr	r2, [pc, #612]	; (7268 <__aeabi_ddiv+0x660>)
    7002:	4293      	cmp	r3, r2
    7004:	dd68      	ble.n	70d8 <__aeabi_ddiv+0x4d0>
    7006:	2301      	movs	r3, #1
    7008:	9a02      	ldr	r2, [sp, #8]
    700a:	4c98      	ldr	r4, [pc, #608]	; (726c <__aeabi_ddiv+0x664>)
    700c:	401a      	ands	r2, r3
    700e:	2300      	movs	r3, #0
    7010:	4694      	mov	ip, r2
    7012:	4698      	mov	r8, r3
    7014:	2200      	movs	r2, #0
    7016:	e6c5      	b.n	6da4 <__aeabi_ddiv+0x19c>
    7018:	2280      	movs	r2, #128	; 0x80
    701a:	464b      	mov	r3, r9
    701c:	0312      	lsls	r2, r2, #12
    701e:	4213      	tst	r3, r2
    7020:	d00a      	beq.n	7038 <__aeabi_ddiv+0x430>
    7022:	465b      	mov	r3, fp
    7024:	4213      	tst	r3, r2
    7026:	d106      	bne.n	7036 <__aeabi_ddiv+0x42e>
    7028:	431a      	orrs	r2, r3
    702a:	0312      	lsls	r2, r2, #12
    702c:	0b12      	lsrs	r2, r2, #12
    702e:	46ac      	mov	ip, r5
    7030:	4688      	mov	r8, r1
    7032:	4c8e      	ldr	r4, [pc, #568]	; (726c <__aeabi_ddiv+0x664>)
    7034:	e6b6      	b.n	6da4 <__aeabi_ddiv+0x19c>
    7036:	464b      	mov	r3, r9
    7038:	431a      	orrs	r2, r3
    703a:	0312      	lsls	r2, r2, #12
    703c:	0b12      	lsrs	r2, r2, #12
    703e:	46bc      	mov	ip, r7
    7040:	4c8a      	ldr	r4, [pc, #552]	; (726c <__aeabi_ddiv+0x664>)
    7042:	e6af      	b.n	6da4 <__aeabi_ddiv+0x19c>
    7044:	0003      	movs	r3, r0
    7046:	465a      	mov	r2, fp
    7048:	3b28      	subs	r3, #40	; 0x28
    704a:	409a      	lsls	r2, r3
    704c:	2300      	movs	r3, #0
    704e:	4691      	mov	r9, r2
    7050:	4698      	mov	r8, r3
    7052:	e657      	b.n	6d04 <__aeabi_ddiv+0xfc>
    7054:	4658      	mov	r0, fp
    7056:	f001 f92b 	bl	82b0 <__clzsi2>
    705a:	3020      	adds	r0, #32
    705c:	e640      	b.n	6ce0 <__aeabi_ddiv+0xd8>
    705e:	0003      	movs	r3, r0
    7060:	4652      	mov	r2, sl
    7062:	3b28      	subs	r3, #40	; 0x28
    7064:	409a      	lsls	r2, r3
    7066:	2100      	movs	r1, #0
    7068:	4693      	mov	fp, r2
    706a:	e677      	b.n	6d5c <__aeabi_ddiv+0x154>
    706c:	f001 f920 	bl	82b0 <__clzsi2>
    7070:	3020      	adds	r0, #32
    7072:	e65f      	b.n	6d34 <__aeabi_ddiv+0x12c>
    7074:	4588      	cmp	r8, r1
    7076:	d200      	bcs.n	707a <__aeabi_ddiv+0x472>
    7078:	e6c7      	b.n	6e0a <__aeabi_ddiv+0x202>
    707a:	464b      	mov	r3, r9
    707c:	07de      	lsls	r6, r3, #31
    707e:	085d      	lsrs	r5, r3, #1
    7080:	4643      	mov	r3, r8
    7082:	085b      	lsrs	r3, r3, #1
    7084:	431e      	orrs	r6, r3
    7086:	4643      	mov	r3, r8
    7088:	07db      	lsls	r3, r3, #31
    708a:	469a      	mov	sl, r3
    708c:	e6c2      	b.n	6e14 <__aeabi_ddiv+0x20c>
    708e:	2500      	movs	r5, #0
    7090:	4592      	cmp	sl, r2
    7092:	d300      	bcc.n	7096 <__aeabi_ddiv+0x48e>
    7094:	e733      	b.n	6efe <__aeabi_ddiv+0x2f6>
    7096:	9e03      	ldr	r6, [sp, #12]
    7098:	4659      	mov	r1, fp
    709a:	46b4      	mov	ip, r6
    709c:	44e2      	add	sl, ip
    709e:	45b2      	cmp	sl, r6
    70a0:	41ad      	sbcs	r5, r5
    70a2:	426d      	negs	r5, r5
    70a4:	4445      	add	r5, r8
    70a6:	18eb      	adds	r3, r5, r3
    70a8:	3901      	subs	r1, #1
    70aa:	4598      	cmp	r8, r3
    70ac:	d207      	bcs.n	70be <__aeabi_ddiv+0x4b6>
    70ae:	4298      	cmp	r0, r3
    70b0:	d900      	bls.n	70b4 <__aeabi_ddiv+0x4ac>
    70b2:	e07f      	b.n	71b4 <__aeabi_ddiv+0x5ac>
    70b4:	d100      	bne.n	70b8 <__aeabi_ddiv+0x4b0>
    70b6:	e0bc      	b.n	7232 <__aeabi_ddiv+0x62a>
    70b8:	1a1d      	subs	r5, r3, r0
    70ba:	468b      	mov	fp, r1
    70bc:	e71f      	b.n	6efe <__aeabi_ddiv+0x2f6>
    70be:	4598      	cmp	r8, r3
    70c0:	d1fa      	bne.n	70b8 <__aeabi_ddiv+0x4b0>
    70c2:	9d03      	ldr	r5, [sp, #12]
    70c4:	4555      	cmp	r5, sl
    70c6:	d9f2      	bls.n	70ae <__aeabi_ddiv+0x4a6>
    70c8:	4643      	mov	r3, r8
    70ca:	468b      	mov	fp, r1
    70cc:	1a1d      	subs	r5, r3, r0
    70ce:	e716      	b.n	6efe <__aeabi_ddiv+0x2f6>
    70d0:	469b      	mov	fp, r3
    70d2:	e6ca      	b.n	6e6a <__aeabi_ddiv+0x262>
    70d4:	0015      	movs	r5, r2
    70d6:	e6e7      	b.n	6ea8 <__aeabi_ddiv+0x2a0>
    70d8:	465a      	mov	r2, fp
    70da:	08c9      	lsrs	r1, r1, #3
    70dc:	0752      	lsls	r2, r2, #29
    70de:	430a      	orrs	r2, r1
    70e0:	055b      	lsls	r3, r3, #21
    70e2:	4690      	mov	r8, r2
    70e4:	0d5c      	lsrs	r4, r3, #21
    70e6:	465a      	mov	r2, fp
    70e8:	2301      	movs	r3, #1
    70ea:	9902      	ldr	r1, [sp, #8]
    70ec:	0252      	lsls	r2, r2, #9
    70ee:	4019      	ands	r1, r3
    70f0:	0b12      	lsrs	r2, r2, #12
    70f2:	468c      	mov	ip, r1
    70f4:	e656      	b.n	6da4 <__aeabi_ddiv+0x19c>
    70f6:	2b00      	cmp	r3, #0
    70f8:	d100      	bne.n	70fc <__aeabi_ddiv+0x4f4>
    70fa:	e76f      	b.n	6fdc <__aeabi_ddiv+0x3d4>
    70fc:	4446      	add	r6, r8
    70fe:	1e4a      	subs	r2, r1, #1
    7100:	45b0      	cmp	r8, r6
    7102:	d929      	bls.n	7158 <__aeabi_ddiv+0x550>
    7104:	0011      	movs	r1, r2
    7106:	4286      	cmp	r6, r0
    7108:	d000      	beq.n	710c <__aeabi_ddiv+0x504>
    710a:	e765      	b.n	6fd8 <__aeabi_ddiv+0x3d0>
    710c:	9a03      	ldr	r2, [sp, #12]
    710e:	4293      	cmp	r3, r2
    7110:	d000      	beq.n	7114 <__aeabi_ddiv+0x50c>
    7112:	e761      	b.n	6fd8 <__aeabi_ddiv+0x3d0>
    7114:	e762      	b.n	6fdc <__aeabi_ddiv+0x3d4>
    7116:	2101      	movs	r1, #1
    7118:	4249      	negs	r1, r1
    711a:	2001      	movs	r0, #1
    711c:	1ac2      	subs	r2, r0, r3
    711e:	2a38      	cmp	r2, #56	; 0x38
    7120:	dd21      	ble.n	7166 <__aeabi_ddiv+0x55e>
    7122:	9b02      	ldr	r3, [sp, #8]
    7124:	4003      	ands	r3, r0
    7126:	469c      	mov	ip, r3
    7128:	e638      	b.n	6d9c <__aeabi_ddiv+0x194>
    712a:	220f      	movs	r2, #15
    712c:	400a      	ands	r2, r1
    712e:	2a04      	cmp	r2, #4
    7130:	d100      	bne.n	7134 <__aeabi_ddiv+0x52c>
    7132:	e75b      	b.n	6fec <__aeabi_ddiv+0x3e4>
    7134:	000a      	movs	r2, r1
    7136:	1d11      	adds	r1, r2, #4
    7138:	4291      	cmp	r1, r2
    713a:	4192      	sbcs	r2, r2
    713c:	4252      	negs	r2, r2
    713e:	4493      	add	fp, r2
    7140:	e754      	b.n	6fec <__aeabi_ddiv+0x3e4>
    7142:	4b47      	ldr	r3, [pc, #284]	; (7260 <__aeabi_ddiv+0x658>)
    7144:	18e3      	adds	r3, r4, r3
    7146:	2b00      	cmp	r3, #0
    7148:	dde5      	ble.n	7116 <__aeabi_ddiv+0x50e>
    714a:	2201      	movs	r2, #1
    714c:	4252      	negs	r2, r2
    714e:	e7f2      	b.n	7136 <__aeabi_ddiv+0x52e>
    7150:	001d      	movs	r5, r3
    7152:	e6fa      	b.n	6f4a <__aeabi_ddiv+0x342>
    7154:	469a      	mov	sl, r3
    7156:	e71c      	b.n	6f92 <__aeabi_ddiv+0x38a>
    7158:	42b0      	cmp	r0, r6
    715a:	d839      	bhi.n	71d0 <__aeabi_ddiv+0x5c8>
    715c:	d06e      	beq.n	723c <__aeabi_ddiv+0x634>
    715e:	0011      	movs	r1, r2
    7160:	e73a      	b.n	6fd8 <__aeabi_ddiv+0x3d0>
    7162:	9302      	str	r3, [sp, #8]
    7164:	e73a      	b.n	6fdc <__aeabi_ddiv+0x3d4>
    7166:	2a1f      	cmp	r2, #31
    7168:	dc3c      	bgt.n	71e4 <__aeabi_ddiv+0x5dc>
    716a:	2320      	movs	r3, #32
    716c:	1a9b      	subs	r3, r3, r2
    716e:	000c      	movs	r4, r1
    7170:	4658      	mov	r0, fp
    7172:	4099      	lsls	r1, r3
    7174:	4098      	lsls	r0, r3
    7176:	1e4b      	subs	r3, r1, #1
    7178:	4199      	sbcs	r1, r3
    717a:	465b      	mov	r3, fp
    717c:	40d4      	lsrs	r4, r2
    717e:	40d3      	lsrs	r3, r2
    7180:	4320      	orrs	r0, r4
    7182:	4308      	orrs	r0, r1
    7184:	001a      	movs	r2, r3
    7186:	0743      	lsls	r3, r0, #29
    7188:	d009      	beq.n	719e <__aeabi_ddiv+0x596>
    718a:	230f      	movs	r3, #15
    718c:	4003      	ands	r3, r0
    718e:	2b04      	cmp	r3, #4
    7190:	d005      	beq.n	719e <__aeabi_ddiv+0x596>
    7192:	0001      	movs	r1, r0
    7194:	1d08      	adds	r0, r1, #4
    7196:	4288      	cmp	r0, r1
    7198:	419b      	sbcs	r3, r3
    719a:	425b      	negs	r3, r3
    719c:	18d2      	adds	r2, r2, r3
    719e:	0213      	lsls	r3, r2, #8
    71a0:	d53a      	bpl.n	7218 <__aeabi_ddiv+0x610>
    71a2:	2301      	movs	r3, #1
    71a4:	9a02      	ldr	r2, [sp, #8]
    71a6:	2401      	movs	r4, #1
    71a8:	401a      	ands	r2, r3
    71aa:	2300      	movs	r3, #0
    71ac:	4694      	mov	ip, r2
    71ae:	4698      	mov	r8, r3
    71b0:	2200      	movs	r2, #0
    71b2:	e5f7      	b.n	6da4 <__aeabi_ddiv+0x19c>
    71b4:	2102      	movs	r1, #2
    71b6:	4249      	negs	r1, r1
    71b8:	468c      	mov	ip, r1
    71ba:	9d03      	ldr	r5, [sp, #12]
    71bc:	44e3      	add	fp, ip
    71be:	46ac      	mov	ip, r5
    71c0:	44e2      	add	sl, ip
    71c2:	45aa      	cmp	sl, r5
    71c4:	41ad      	sbcs	r5, r5
    71c6:	426d      	negs	r5, r5
    71c8:	4445      	add	r5, r8
    71ca:	18ed      	adds	r5, r5, r3
    71cc:	1a2d      	subs	r5, r5, r0
    71ce:	e696      	b.n	6efe <__aeabi_ddiv+0x2f6>
    71d0:	1e8a      	subs	r2, r1, #2
    71d2:	9903      	ldr	r1, [sp, #12]
    71d4:	004d      	lsls	r5, r1, #1
    71d6:	428d      	cmp	r5, r1
    71d8:	4189      	sbcs	r1, r1
    71da:	4249      	negs	r1, r1
    71dc:	4441      	add	r1, r8
    71de:	1876      	adds	r6, r6, r1
    71e0:	9503      	str	r5, [sp, #12]
    71e2:	e78f      	b.n	7104 <__aeabi_ddiv+0x4fc>
    71e4:	201f      	movs	r0, #31
    71e6:	4240      	negs	r0, r0
    71e8:	1ac3      	subs	r3, r0, r3
    71ea:	4658      	mov	r0, fp
    71ec:	40d8      	lsrs	r0, r3
    71ee:	0003      	movs	r3, r0
    71f0:	2a20      	cmp	r2, #32
    71f2:	d028      	beq.n	7246 <__aeabi_ddiv+0x63e>
    71f4:	2040      	movs	r0, #64	; 0x40
    71f6:	465d      	mov	r5, fp
    71f8:	1a82      	subs	r2, r0, r2
    71fa:	4095      	lsls	r5, r2
    71fc:	4329      	orrs	r1, r5
    71fe:	1e4a      	subs	r2, r1, #1
    7200:	4191      	sbcs	r1, r2
    7202:	4319      	orrs	r1, r3
    7204:	2307      	movs	r3, #7
    7206:	2200      	movs	r2, #0
    7208:	400b      	ands	r3, r1
    720a:	d009      	beq.n	7220 <__aeabi_ddiv+0x618>
    720c:	230f      	movs	r3, #15
    720e:	2200      	movs	r2, #0
    7210:	400b      	ands	r3, r1
    7212:	0008      	movs	r0, r1
    7214:	2b04      	cmp	r3, #4
    7216:	d1bd      	bne.n	7194 <__aeabi_ddiv+0x58c>
    7218:	0001      	movs	r1, r0
    721a:	0753      	lsls	r3, r2, #29
    721c:	0252      	lsls	r2, r2, #9
    721e:	0b12      	lsrs	r2, r2, #12
    7220:	08c9      	lsrs	r1, r1, #3
    7222:	4319      	orrs	r1, r3
    7224:	2301      	movs	r3, #1
    7226:	4688      	mov	r8, r1
    7228:	9902      	ldr	r1, [sp, #8]
    722a:	2400      	movs	r4, #0
    722c:	4019      	ands	r1, r3
    722e:	468c      	mov	ip, r1
    7230:	e5b8      	b.n	6da4 <__aeabi_ddiv+0x19c>
    7232:	4552      	cmp	r2, sl
    7234:	d8be      	bhi.n	71b4 <__aeabi_ddiv+0x5ac>
    7236:	468b      	mov	fp, r1
    7238:	2500      	movs	r5, #0
    723a:	e660      	b.n	6efe <__aeabi_ddiv+0x2f6>
    723c:	9d03      	ldr	r5, [sp, #12]
    723e:	429d      	cmp	r5, r3
    7240:	d3c6      	bcc.n	71d0 <__aeabi_ddiv+0x5c8>
    7242:	0011      	movs	r1, r2
    7244:	e762      	b.n	710c <__aeabi_ddiv+0x504>
    7246:	2500      	movs	r5, #0
    7248:	e7d8      	b.n	71fc <__aeabi_ddiv+0x5f4>
    724a:	2280      	movs	r2, #128	; 0x80
    724c:	465b      	mov	r3, fp
    724e:	0312      	lsls	r2, r2, #12
    7250:	431a      	orrs	r2, r3
    7252:	9b01      	ldr	r3, [sp, #4]
    7254:	0312      	lsls	r2, r2, #12
    7256:	0b12      	lsrs	r2, r2, #12
    7258:	469c      	mov	ip, r3
    725a:	4688      	mov	r8, r1
    725c:	4c03      	ldr	r4, [pc, #12]	; (726c <__aeabi_ddiv+0x664>)
    725e:	e5a1      	b.n	6da4 <__aeabi_ddiv+0x19c>
    7260:	000003ff 	.word	0x000003ff
    7264:	feffffff 	.word	0xfeffffff
    7268:	000007fe 	.word	0x000007fe
    726c:	000007ff 	.word	0x000007ff

00007270 <__eqdf2>:
    7270:	b5f0      	push	{r4, r5, r6, r7, lr}
    7272:	464f      	mov	r7, r9
    7274:	4646      	mov	r6, r8
    7276:	46d6      	mov	lr, sl
    7278:	005c      	lsls	r4, r3, #1
    727a:	b5c0      	push	{r6, r7, lr}
    727c:	031f      	lsls	r7, r3, #12
    727e:	0fdb      	lsrs	r3, r3, #31
    7280:	469a      	mov	sl, r3
    7282:	4b17      	ldr	r3, [pc, #92]	; (72e0 <__eqdf2+0x70>)
    7284:	030e      	lsls	r6, r1, #12
    7286:	004d      	lsls	r5, r1, #1
    7288:	4684      	mov	ip, r0
    728a:	4680      	mov	r8, r0
    728c:	0b36      	lsrs	r6, r6, #12
    728e:	0d6d      	lsrs	r5, r5, #21
    7290:	0fc9      	lsrs	r1, r1, #31
    7292:	4691      	mov	r9, r2
    7294:	0b3f      	lsrs	r7, r7, #12
    7296:	0d64      	lsrs	r4, r4, #21
    7298:	2001      	movs	r0, #1
    729a:	429d      	cmp	r5, r3
    729c:	d008      	beq.n	72b0 <__eqdf2+0x40>
    729e:	429c      	cmp	r4, r3
    72a0:	d001      	beq.n	72a6 <__eqdf2+0x36>
    72a2:	42a5      	cmp	r5, r4
    72a4:	d00b      	beq.n	72be <__eqdf2+0x4e>
    72a6:	bc1c      	pop	{r2, r3, r4}
    72a8:	4690      	mov	r8, r2
    72aa:	4699      	mov	r9, r3
    72ac:	46a2      	mov	sl, r4
    72ae:	bdf0      	pop	{r4, r5, r6, r7, pc}
    72b0:	4663      	mov	r3, ip
    72b2:	4333      	orrs	r3, r6
    72b4:	d1f7      	bne.n	72a6 <__eqdf2+0x36>
    72b6:	42ac      	cmp	r4, r5
    72b8:	d1f5      	bne.n	72a6 <__eqdf2+0x36>
    72ba:	433a      	orrs	r2, r7
    72bc:	d1f3      	bne.n	72a6 <__eqdf2+0x36>
    72be:	2001      	movs	r0, #1
    72c0:	42be      	cmp	r6, r7
    72c2:	d1f0      	bne.n	72a6 <__eqdf2+0x36>
    72c4:	45c8      	cmp	r8, r9
    72c6:	d1ee      	bne.n	72a6 <__eqdf2+0x36>
    72c8:	4551      	cmp	r1, sl
    72ca:	d007      	beq.n	72dc <__eqdf2+0x6c>
    72cc:	2d00      	cmp	r5, #0
    72ce:	d1ea      	bne.n	72a6 <__eqdf2+0x36>
    72d0:	4663      	mov	r3, ip
    72d2:	431e      	orrs	r6, r3
    72d4:	0030      	movs	r0, r6
    72d6:	1e46      	subs	r6, r0, #1
    72d8:	41b0      	sbcs	r0, r6
    72da:	e7e4      	b.n	72a6 <__eqdf2+0x36>
    72dc:	2000      	movs	r0, #0
    72de:	e7e2      	b.n	72a6 <__eqdf2+0x36>
    72e0:	000007ff 	.word	0x000007ff

000072e4 <__gedf2>:
    72e4:	b5f0      	push	{r4, r5, r6, r7, lr}
    72e6:	4645      	mov	r5, r8
    72e8:	46de      	mov	lr, fp
    72ea:	4657      	mov	r7, sl
    72ec:	464e      	mov	r6, r9
    72ee:	b5e0      	push	{r5, r6, r7, lr}
    72f0:	031f      	lsls	r7, r3, #12
    72f2:	0b3d      	lsrs	r5, r7, #12
    72f4:	4f2c      	ldr	r7, [pc, #176]	; (73a8 <__gedf2+0xc4>)
    72f6:	030e      	lsls	r6, r1, #12
    72f8:	004c      	lsls	r4, r1, #1
    72fa:	46ab      	mov	fp, r5
    72fc:	005d      	lsls	r5, r3, #1
    72fe:	4684      	mov	ip, r0
    7300:	0b36      	lsrs	r6, r6, #12
    7302:	0d64      	lsrs	r4, r4, #21
    7304:	0fc9      	lsrs	r1, r1, #31
    7306:	4690      	mov	r8, r2
    7308:	0d6d      	lsrs	r5, r5, #21
    730a:	0fdb      	lsrs	r3, r3, #31
    730c:	42bc      	cmp	r4, r7
    730e:	d02a      	beq.n	7366 <__gedf2+0x82>
    7310:	4f25      	ldr	r7, [pc, #148]	; (73a8 <__gedf2+0xc4>)
    7312:	42bd      	cmp	r5, r7
    7314:	d02d      	beq.n	7372 <__gedf2+0x8e>
    7316:	2c00      	cmp	r4, #0
    7318:	d10f      	bne.n	733a <__gedf2+0x56>
    731a:	4330      	orrs	r0, r6
    731c:	0007      	movs	r7, r0
    731e:	4681      	mov	r9, r0
    7320:	4278      	negs	r0, r7
    7322:	4178      	adcs	r0, r7
    7324:	b2c0      	uxtb	r0, r0
    7326:	2d00      	cmp	r5, #0
    7328:	d117      	bne.n	735a <__gedf2+0x76>
    732a:	465f      	mov	r7, fp
    732c:	433a      	orrs	r2, r7
    732e:	d114      	bne.n	735a <__gedf2+0x76>
    7330:	464b      	mov	r3, r9
    7332:	2000      	movs	r0, #0
    7334:	2b00      	cmp	r3, #0
    7336:	d00a      	beq.n	734e <__gedf2+0x6a>
    7338:	e006      	b.n	7348 <__gedf2+0x64>
    733a:	2d00      	cmp	r5, #0
    733c:	d102      	bne.n	7344 <__gedf2+0x60>
    733e:	4658      	mov	r0, fp
    7340:	4302      	orrs	r2, r0
    7342:	d001      	beq.n	7348 <__gedf2+0x64>
    7344:	4299      	cmp	r1, r3
    7346:	d018      	beq.n	737a <__gedf2+0x96>
    7348:	4248      	negs	r0, r1
    734a:	2101      	movs	r1, #1
    734c:	4308      	orrs	r0, r1
    734e:	bc3c      	pop	{r2, r3, r4, r5}
    7350:	4690      	mov	r8, r2
    7352:	4699      	mov	r9, r3
    7354:	46a2      	mov	sl, r4
    7356:	46ab      	mov	fp, r5
    7358:	bdf0      	pop	{r4, r5, r6, r7, pc}
    735a:	2800      	cmp	r0, #0
    735c:	d0f2      	beq.n	7344 <__gedf2+0x60>
    735e:	2001      	movs	r0, #1
    7360:	3b01      	subs	r3, #1
    7362:	4318      	orrs	r0, r3
    7364:	e7f3      	b.n	734e <__gedf2+0x6a>
    7366:	0037      	movs	r7, r6
    7368:	4307      	orrs	r7, r0
    736a:	d0d1      	beq.n	7310 <__gedf2+0x2c>
    736c:	2002      	movs	r0, #2
    736e:	4240      	negs	r0, r0
    7370:	e7ed      	b.n	734e <__gedf2+0x6a>
    7372:	465f      	mov	r7, fp
    7374:	4317      	orrs	r7, r2
    7376:	d0ce      	beq.n	7316 <__gedf2+0x32>
    7378:	e7f8      	b.n	736c <__gedf2+0x88>
    737a:	42ac      	cmp	r4, r5
    737c:	dce4      	bgt.n	7348 <__gedf2+0x64>
    737e:	da03      	bge.n	7388 <__gedf2+0xa4>
    7380:	1e48      	subs	r0, r1, #1
    7382:	2101      	movs	r1, #1
    7384:	4308      	orrs	r0, r1
    7386:	e7e2      	b.n	734e <__gedf2+0x6a>
    7388:	455e      	cmp	r6, fp
    738a:	d8dd      	bhi.n	7348 <__gedf2+0x64>
    738c:	d006      	beq.n	739c <__gedf2+0xb8>
    738e:	2000      	movs	r0, #0
    7390:	455e      	cmp	r6, fp
    7392:	d2dc      	bcs.n	734e <__gedf2+0x6a>
    7394:	2301      	movs	r3, #1
    7396:	1e48      	subs	r0, r1, #1
    7398:	4318      	orrs	r0, r3
    739a:	e7d8      	b.n	734e <__gedf2+0x6a>
    739c:	45c4      	cmp	ip, r8
    739e:	d8d3      	bhi.n	7348 <__gedf2+0x64>
    73a0:	2000      	movs	r0, #0
    73a2:	45c4      	cmp	ip, r8
    73a4:	d3f6      	bcc.n	7394 <__gedf2+0xb0>
    73a6:	e7d2      	b.n	734e <__gedf2+0x6a>
    73a8:	000007ff 	.word	0x000007ff

000073ac <__ledf2>:
    73ac:	b5f0      	push	{r4, r5, r6, r7, lr}
    73ae:	464e      	mov	r6, r9
    73b0:	4645      	mov	r5, r8
    73b2:	46de      	mov	lr, fp
    73b4:	4657      	mov	r7, sl
    73b6:	005c      	lsls	r4, r3, #1
    73b8:	b5e0      	push	{r5, r6, r7, lr}
    73ba:	031f      	lsls	r7, r3, #12
    73bc:	0fdb      	lsrs	r3, r3, #31
    73be:	4699      	mov	r9, r3
    73c0:	4b2a      	ldr	r3, [pc, #168]	; (746c <__ledf2+0xc0>)
    73c2:	030e      	lsls	r6, r1, #12
    73c4:	004d      	lsls	r5, r1, #1
    73c6:	0fc9      	lsrs	r1, r1, #31
    73c8:	4684      	mov	ip, r0
    73ca:	0b36      	lsrs	r6, r6, #12
    73cc:	0d6d      	lsrs	r5, r5, #21
    73ce:	468b      	mov	fp, r1
    73d0:	4690      	mov	r8, r2
    73d2:	0b3f      	lsrs	r7, r7, #12
    73d4:	0d64      	lsrs	r4, r4, #21
    73d6:	429d      	cmp	r5, r3
    73d8:	d020      	beq.n	741c <__ledf2+0x70>
    73da:	4b24      	ldr	r3, [pc, #144]	; (746c <__ledf2+0xc0>)
    73dc:	429c      	cmp	r4, r3
    73de:	d022      	beq.n	7426 <__ledf2+0x7a>
    73e0:	2d00      	cmp	r5, #0
    73e2:	d112      	bne.n	740a <__ledf2+0x5e>
    73e4:	4330      	orrs	r0, r6
    73e6:	4243      	negs	r3, r0
    73e8:	4143      	adcs	r3, r0
    73ea:	b2db      	uxtb	r3, r3
    73ec:	2c00      	cmp	r4, #0
    73ee:	d01f      	beq.n	7430 <__ledf2+0x84>
    73f0:	2b00      	cmp	r3, #0
    73f2:	d00c      	beq.n	740e <__ledf2+0x62>
    73f4:	464b      	mov	r3, r9
    73f6:	2001      	movs	r0, #1
    73f8:	3b01      	subs	r3, #1
    73fa:	4303      	orrs	r3, r0
    73fc:	0018      	movs	r0, r3
    73fe:	bc3c      	pop	{r2, r3, r4, r5}
    7400:	4690      	mov	r8, r2
    7402:	4699      	mov	r9, r3
    7404:	46a2      	mov	sl, r4
    7406:	46ab      	mov	fp, r5
    7408:	bdf0      	pop	{r4, r5, r6, r7, pc}
    740a:	2c00      	cmp	r4, #0
    740c:	d016      	beq.n	743c <__ledf2+0x90>
    740e:	45cb      	cmp	fp, r9
    7410:	d017      	beq.n	7442 <__ledf2+0x96>
    7412:	465b      	mov	r3, fp
    7414:	4259      	negs	r1, r3
    7416:	2301      	movs	r3, #1
    7418:	430b      	orrs	r3, r1
    741a:	e7ef      	b.n	73fc <__ledf2+0x50>
    741c:	0031      	movs	r1, r6
    741e:	2302      	movs	r3, #2
    7420:	4301      	orrs	r1, r0
    7422:	d1eb      	bne.n	73fc <__ledf2+0x50>
    7424:	e7d9      	b.n	73da <__ledf2+0x2e>
    7426:	0039      	movs	r1, r7
    7428:	2302      	movs	r3, #2
    742a:	4311      	orrs	r1, r2
    742c:	d1e6      	bne.n	73fc <__ledf2+0x50>
    742e:	e7d7      	b.n	73e0 <__ledf2+0x34>
    7430:	433a      	orrs	r2, r7
    7432:	d1dd      	bne.n	73f0 <__ledf2+0x44>
    7434:	2300      	movs	r3, #0
    7436:	2800      	cmp	r0, #0
    7438:	d0e0      	beq.n	73fc <__ledf2+0x50>
    743a:	e7ea      	b.n	7412 <__ledf2+0x66>
    743c:	433a      	orrs	r2, r7
    743e:	d1e6      	bne.n	740e <__ledf2+0x62>
    7440:	e7e7      	b.n	7412 <__ledf2+0x66>
    7442:	42a5      	cmp	r5, r4
    7444:	dce5      	bgt.n	7412 <__ledf2+0x66>
    7446:	db05      	blt.n	7454 <__ledf2+0xa8>
    7448:	42be      	cmp	r6, r7
    744a:	d8e2      	bhi.n	7412 <__ledf2+0x66>
    744c:	d007      	beq.n	745e <__ledf2+0xb2>
    744e:	2300      	movs	r3, #0
    7450:	42be      	cmp	r6, r7
    7452:	d2d3      	bcs.n	73fc <__ledf2+0x50>
    7454:	4659      	mov	r1, fp
    7456:	2301      	movs	r3, #1
    7458:	3901      	subs	r1, #1
    745a:	430b      	orrs	r3, r1
    745c:	e7ce      	b.n	73fc <__ledf2+0x50>
    745e:	45c4      	cmp	ip, r8
    7460:	d8d7      	bhi.n	7412 <__ledf2+0x66>
    7462:	2300      	movs	r3, #0
    7464:	45c4      	cmp	ip, r8
    7466:	d3f5      	bcc.n	7454 <__ledf2+0xa8>
    7468:	e7c8      	b.n	73fc <__ledf2+0x50>
    746a:	46c0      	nop			; (mov r8, r8)
    746c:	000007ff 	.word	0x000007ff

00007470 <__aeabi_dmul>:
    7470:	b5f0      	push	{r4, r5, r6, r7, lr}
    7472:	4657      	mov	r7, sl
    7474:	4645      	mov	r5, r8
    7476:	46de      	mov	lr, fp
    7478:	464e      	mov	r6, r9
    747a:	b5e0      	push	{r5, r6, r7, lr}
    747c:	030c      	lsls	r4, r1, #12
    747e:	4698      	mov	r8, r3
    7480:	004e      	lsls	r6, r1, #1
    7482:	0b23      	lsrs	r3, r4, #12
    7484:	b087      	sub	sp, #28
    7486:	0007      	movs	r7, r0
    7488:	4692      	mov	sl, r2
    748a:	469b      	mov	fp, r3
    748c:	0d76      	lsrs	r6, r6, #21
    748e:	0fcd      	lsrs	r5, r1, #31
    7490:	2e00      	cmp	r6, #0
    7492:	d06b      	beq.n	756c <__aeabi_dmul+0xfc>
    7494:	4b6d      	ldr	r3, [pc, #436]	; (764c <__aeabi_dmul+0x1dc>)
    7496:	429e      	cmp	r6, r3
    7498:	d035      	beq.n	7506 <__aeabi_dmul+0x96>
    749a:	2480      	movs	r4, #128	; 0x80
    749c:	465b      	mov	r3, fp
    749e:	0f42      	lsrs	r2, r0, #29
    74a0:	0424      	lsls	r4, r4, #16
    74a2:	00db      	lsls	r3, r3, #3
    74a4:	4314      	orrs	r4, r2
    74a6:	431c      	orrs	r4, r3
    74a8:	00c3      	lsls	r3, r0, #3
    74aa:	4699      	mov	r9, r3
    74ac:	4b68      	ldr	r3, [pc, #416]	; (7650 <__aeabi_dmul+0x1e0>)
    74ae:	46a3      	mov	fp, r4
    74b0:	469c      	mov	ip, r3
    74b2:	2300      	movs	r3, #0
    74b4:	2700      	movs	r7, #0
    74b6:	4466      	add	r6, ip
    74b8:	9302      	str	r3, [sp, #8]
    74ba:	4643      	mov	r3, r8
    74bc:	031c      	lsls	r4, r3, #12
    74be:	005a      	lsls	r2, r3, #1
    74c0:	0fdb      	lsrs	r3, r3, #31
    74c2:	4650      	mov	r0, sl
    74c4:	0b24      	lsrs	r4, r4, #12
    74c6:	0d52      	lsrs	r2, r2, #21
    74c8:	4698      	mov	r8, r3
    74ca:	d100      	bne.n	74ce <__aeabi_dmul+0x5e>
    74cc:	e076      	b.n	75bc <__aeabi_dmul+0x14c>
    74ce:	4b5f      	ldr	r3, [pc, #380]	; (764c <__aeabi_dmul+0x1dc>)
    74d0:	429a      	cmp	r2, r3
    74d2:	d06d      	beq.n	75b0 <__aeabi_dmul+0x140>
    74d4:	2380      	movs	r3, #128	; 0x80
    74d6:	0f41      	lsrs	r1, r0, #29
    74d8:	041b      	lsls	r3, r3, #16
    74da:	430b      	orrs	r3, r1
    74dc:	495c      	ldr	r1, [pc, #368]	; (7650 <__aeabi_dmul+0x1e0>)
    74de:	00e4      	lsls	r4, r4, #3
    74e0:	468c      	mov	ip, r1
    74e2:	431c      	orrs	r4, r3
    74e4:	00c3      	lsls	r3, r0, #3
    74e6:	2000      	movs	r0, #0
    74e8:	4462      	add	r2, ip
    74ea:	4641      	mov	r1, r8
    74ec:	18b6      	adds	r6, r6, r2
    74ee:	4069      	eors	r1, r5
    74f0:	1c72      	adds	r2, r6, #1
    74f2:	9101      	str	r1, [sp, #4]
    74f4:	4694      	mov	ip, r2
    74f6:	4307      	orrs	r7, r0
    74f8:	2f0f      	cmp	r7, #15
    74fa:	d900      	bls.n	74fe <__aeabi_dmul+0x8e>
    74fc:	e0b0      	b.n	7660 <__aeabi_dmul+0x1f0>
    74fe:	4a55      	ldr	r2, [pc, #340]	; (7654 <__aeabi_dmul+0x1e4>)
    7500:	00bf      	lsls	r7, r7, #2
    7502:	59d2      	ldr	r2, [r2, r7]
    7504:	4697      	mov	pc, r2
    7506:	465b      	mov	r3, fp
    7508:	4303      	orrs	r3, r0
    750a:	4699      	mov	r9, r3
    750c:	d000      	beq.n	7510 <__aeabi_dmul+0xa0>
    750e:	e087      	b.n	7620 <__aeabi_dmul+0x1b0>
    7510:	2300      	movs	r3, #0
    7512:	469b      	mov	fp, r3
    7514:	3302      	adds	r3, #2
    7516:	2708      	movs	r7, #8
    7518:	9302      	str	r3, [sp, #8]
    751a:	e7ce      	b.n	74ba <__aeabi_dmul+0x4a>
    751c:	4642      	mov	r2, r8
    751e:	9201      	str	r2, [sp, #4]
    7520:	2802      	cmp	r0, #2
    7522:	d067      	beq.n	75f4 <__aeabi_dmul+0x184>
    7524:	2803      	cmp	r0, #3
    7526:	d100      	bne.n	752a <__aeabi_dmul+0xba>
    7528:	e20e      	b.n	7948 <__aeabi_dmul+0x4d8>
    752a:	2801      	cmp	r0, #1
    752c:	d000      	beq.n	7530 <__aeabi_dmul+0xc0>
    752e:	e162      	b.n	77f6 <__aeabi_dmul+0x386>
    7530:	2300      	movs	r3, #0
    7532:	2400      	movs	r4, #0
    7534:	2200      	movs	r2, #0
    7536:	4699      	mov	r9, r3
    7538:	9901      	ldr	r1, [sp, #4]
    753a:	4001      	ands	r1, r0
    753c:	b2cd      	uxtb	r5, r1
    753e:	2100      	movs	r1, #0
    7540:	0312      	lsls	r2, r2, #12
    7542:	0d0b      	lsrs	r3, r1, #20
    7544:	0b12      	lsrs	r2, r2, #12
    7546:	051b      	lsls	r3, r3, #20
    7548:	4313      	orrs	r3, r2
    754a:	4a43      	ldr	r2, [pc, #268]	; (7658 <__aeabi_dmul+0x1e8>)
    754c:	0524      	lsls	r4, r4, #20
    754e:	4013      	ands	r3, r2
    7550:	431c      	orrs	r4, r3
    7552:	0064      	lsls	r4, r4, #1
    7554:	07ed      	lsls	r5, r5, #31
    7556:	0864      	lsrs	r4, r4, #1
    7558:	432c      	orrs	r4, r5
    755a:	4648      	mov	r0, r9
    755c:	0021      	movs	r1, r4
    755e:	b007      	add	sp, #28
    7560:	bc3c      	pop	{r2, r3, r4, r5}
    7562:	4690      	mov	r8, r2
    7564:	4699      	mov	r9, r3
    7566:	46a2      	mov	sl, r4
    7568:	46ab      	mov	fp, r5
    756a:	bdf0      	pop	{r4, r5, r6, r7, pc}
    756c:	4303      	orrs	r3, r0
    756e:	4699      	mov	r9, r3
    7570:	d04f      	beq.n	7612 <__aeabi_dmul+0x1a2>
    7572:	465b      	mov	r3, fp
    7574:	2b00      	cmp	r3, #0
    7576:	d100      	bne.n	757a <__aeabi_dmul+0x10a>
    7578:	e189      	b.n	788e <__aeabi_dmul+0x41e>
    757a:	4658      	mov	r0, fp
    757c:	f000 fe98 	bl	82b0 <__clzsi2>
    7580:	0003      	movs	r3, r0
    7582:	3b0b      	subs	r3, #11
    7584:	2b1c      	cmp	r3, #28
    7586:	dd00      	ble.n	758a <__aeabi_dmul+0x11a>
    7588:	e17a      	b.n	7880 <__aeabi_dmul+0x410>
    758a:	221d      	movs	r2, #29
    758c:	1ad3      	subs	r3, r2, r3
    758e:	003a      	movs	r2, r7
    7590:	0001      	movs	r1, r0
    7592:	465c      	mov	r4, fp
    7594:	40da      	lsrs	r2, r3
    7596:	3908      	subs	r1, #8
    7598:	408c      	lsls	r4, r1
    759a:	0013      	movs	r3, r2
    759c:	408f      	lsls	r7, r1
    759e:	4323      	orrs	r3, r4
    75a0:	469b      	mov	fp, r3
    75a2:	46b9      	mov	r9, r7
    75a4:	2300      	movs	r3, #0
    75a6:	4e2d      	ldr	r6, [pc, #180]	; (765c <__aeabi_dmul+0x1ec>)
    75a8:	2700      	movs	r7, #0
    75aa:	1a36      	subs	r6, r6, r0
    75ac:	9302      	str	r3, [sp, #8]
    75ae:	e784      	b.n	74ba <__aeabi_dmul+0x4a>
    75b0:	4653      	mov	r3, sl
    75b2:	4323      	orrs	r3, r4
    75b4:	d12a      	bne.n	760c <__aeabi_dmul+0x19c>
    75b6:	2400      	movs	r4, #0
    75b8:	2002      	movs	r0, #2
    75ba:	e796      	b.n	74ea <__aeabi_dmul+0x7a>
    75bc:	4653      	mov	r3, sl
    75be:	4323      	orrs	r3, r4
    75c0:	d020      	beq.n	7604 <__aeabi_dmul+0x194>
    75c2:	2c00      	cmp	r4, #0
    75c4:	d100      	bne.n	75c8 <__aeabi_dmul+0x158>
    75c6:	e157      	b.n	7878 <__aeabi_dmul+0x408>
    75c8:	0020      	movs	r0, r4
    75ca:	f000 fe71 	bl	82b0 <__clzsi2>
    75ce:	0003      	movs	r3, r0
    75d0:	3b0b      	subs	r3, #11
    75d2:	2b1c      	cmp	r3, #28
    75d4:	dd00      	ble.n	75d8 <__aeabi_dmul+0x168>
    75d6:	e149      	b.n	786c <__aeabi_dmul+0x3fc>
    75d8:	211d      	movs	r1, #29
    75da:	1acb      	subs	r3, r1, r3
    75dc:	4651      	mov	r1, sl
    75de:	0002      	movs	r2, r0
    75e0:	40d9      	lsrs	r1, r3
    75e2:	4653      	mov	r3, sl
    75e4:	3a08      	subs	r2, #8
    75e6:	4094      	lsls	r4, r2
    75e8:	4093      	lsls	r3, r2
    75ea:	430c      	orrs	r4, r1
    75ec:	4a1b      	ldr	r2, [pc, #108]	; (765c <__aeabi_dmul+0x1ec>)
    75ee:	1a12      	subs	r2, r2, r0
    75f0:	2000      	movs	r0, #0
    75f2:	e77a      	b.n	74ea <__aeabi_dmul+0x7a>
    75f4:	2501      	movs	r5, #1
    75f6:	9b01      	ldr	r3, [sp, #4]
    75f8:	4c14      	ldr	r4, [pc, #80]	; (764c <__aeabi_dmul+0x1dc>)
    75fa:	401d      	ands	r5, r3
    75fc:	2300      	movs	r3, #0
    75fe:	2200      	movs	r2, #0
    7600:	4699      	mov	r9, r3
    7602:	e79c      	b.n	753e <__aeabi_dmul+0xce>
    7604:	2400      	movs	r4, #0
    7606:	2200      	movs	r2, #0
    7608:	2001      	movs	r0, #1
    760a:	e76e      	b.n	74ea <__aeabi_dmul+0x7a>
    760c:	4653      	mov	r3, sl
    760e:	2003      	movs	r0, #3
    7610:	e76b      	b.n	74ea <__aeabi_dmul+0x7a>
    7612:	2300      	movs	r3, #0
    7614:	469b      	mov	fp, r3
    7616:	3301      	adds	r3, #1
    7618:	2704      	movs	r7, #4
    761a:	2600      	movs	r6, #0
    761c:	9302      	str	r3, [sp, #8]
    761e:	e74c      	b.n	74ba <__aeabi_dmul+0x4a>
    7620:	2303      	movs	r3, #3
    7622:	4681      	mov	r9, r0
    7624:	270c      	movs	r7, #12
    7626:	9302      	str	r3, [sp, #8]
    7628:	e747      	b.n	74ba <__aeabi_dmul+0x4a>
    762a:	2280      	movs	r2, #128	; 0x80
    762c:	2300      	movs	r3, #0
    762e:	2500      	movs	r5, #0
    7630:	0312      	lsls	r2, r2, #12
    7632:	4699      	mov	r9, r3
    7634:	4c05      	ldr	r4, [pc, #20]	; (764c <__aeabi_dmul+0x1dc>)
    7636:	e782      	b.n	753e <__aeabi_dmul+0xce>
    7638:	465c      	mov	r4, fp
    763a:	464b      	mov	r3, r9
    763c:	9802      	ldr	r0, [sp, #8]
    763e:	e76f      	b.n	7520 <__aeabi_dmul+0xb0>
    7640:	465c      	mov	r4, fp
    7642:	464b      	mov	r3, r9
    7644:	9501      	str	r5, [sp, #4]
    7646:	9802      	ldr	r0, [sp, #8]
    7648:	e76a      	b.n	7520 <__aeabi_dmul+0xb0>
    764a:	46c0      	nop			; (mov r8, r8)
    764c:	000007ff 	.word	0x000007ff
    7650:	fffffc01 	.word	0xfffffc01
    7654:	00008f84 	.word	0x00008f84
    7658:	800fffff 	.word	0x800fffff
    765c:	fffffc0d 	.word	0xfffffc0d
    7660:	464a      	mov	r2, r9
    7662:	4649      	mov	r1, r9
    7664:	0c17      	lsrs	r7, r2, #16
    7666:	0c1a      	lsrs	r2, r3, #16
    7668:	041b      	lsls	r3, r3, #16
    766a:	0c1b      	lsrs	r3, r3, #16
    766c:	0408      	lsls	r0, r1, #16
    766e:	0019      	movs	r1, r3
    7670:	0c00      	lsrs	r0, r0, #16
    7672:	4341      	muls	r1, r0
    7674:	0015      	movs	r5, r2
    7676:	4688      	mov	r8, r1
    7678:	0019      	movs	r1, r3
    767a:	437d      	muls	r5, r7
    767c:	4379      	muls	r1, r7
    767e:	9503      	str	r5, [sp, #12]
    7680:	4689      	mov	r9, r1
    7682:	0029      	movs	r1, r5
    7684:	0015      	movs	r5, r2
    7686:	4345      	muls	r5, r0
    7688:	444d      	add	r5, r9
    768a:	9502      	str	r5, [sp, #8]
    768c:	4645      	mov	r5, r8
    768e:	0c2d      	lsrs	r5, r5, #16
    7690:	46aa      	mov	sl, r5
    7692:	9d02      	ldr	r5, [sp, #8]
    7694:	4455      	add	r5, sl
    7696:	45a9      	cmp	r9, r5
    7698:	d906      	bls.n	76a8 <__aeabi_dmul+0x238>
    769a:	468a      	mov	sl, r1
    769c:	2180      	movs	r1, #128	; 0x80
    769e:	0249      	lsls	r1, r1, #9
    76a0:	4689      	mov	r9, r1
    76a2:	44ca      	add	sl, r9
    76a4:	4651      	mov	r1, sl
    76a6:	9103      	str	r1, [sp, #12]
    76a8:	0c29      	lsrs	r1, r5, #16
    76aa:	9104      	str	r1, [sp, #16]
    76ac:	4641      	mov	r1, r8
    76ae:	0409      	lsls	r1, r1, #16
    76b0:	042d      	lsls	r5, r5, #16
    76b2:	0c09      	lsrs	r1, r1, #16
    76b4:	4688      	mov	r8, r1
    76b6:	0029      	movs	r1, r5
    76b8:	0c25      	lsrs	r5, r4, #16
    76ba:	0424      	lsls	r4, r4, #16
    76bc:	4441      	add	r1, r8
    76be:	0c24      	lsrs	r4, r4, #16
    76c0:	9105      	str	r1, [sp, #20]
    76c2:	0021      	movs	r1, r4
    76c4:	4341      	muls	r1, r0
    76c6:	4688      	mov	r8, r1
    76c8:	0021      	movs	r1, r4
    76ca:	4379      	muls	r1, r7
    76cc:	468a      	mov	sl, r1
    76ce:	4368      	muls	r0, r5
    76d0:	4641      	mov	r1, r8
    76d2:	4450      	add	r0, sl
    76d4:	4681      	mov	r9, r0
    76d6:	0c08      	lsrs	r0, r1, #16
    76d8:	4448      	add	r0, r9
    76da:	436f      	muls	r7, r5
    76dc:	4582      	cmp	sl, r0
    76de:	d903      	bls.n	76e8 <__aeabi_dmul+0x278>
    76e0:	2180      	movs	r1, #128	; 0x80
    76e2:	0249      	lsls	r1, r1, #9
    76e4:	4689      	mov	r9, r1
    76e6:	444f      	add	r7, r9
    76e8:	0c01      	lsrs	r1, r0, #16
    76ea:	4689      	mov	r9, r1
    76ec:	0039      	movs	r1, r7
    76ee:	4449      	add	r1, r9
    76f0:	9102      	str	r1, [sp, #8]
    76f2:	4641      	mov	r1, r8
    76f4:	040f      	lsls	r7, r1, #16
    76f6:	9904      	ldr	r1, [sp, #16]
    76f8:	0c3f      	lsrs	r7, r7, #16
    76fa:	4688      	mov	r8, r1
    76fc:	0400      	lsls	r0, r0, #16
    76fe:	19c0      	adds	r0, r0, r7
    7700:	4480      	add	r8, r0
    7702:	4641      	mov	r1, r8
    7704:	9104      	str	r1, [sp, #16]
    7706:	4659      	mov	r1, fp
    7708:	0c0f      	lsrs	r7, r1, #16
    770a:	0409      	lsls	r1, r1, #16
    770c:	0c09      	lsrs	r1, r1, #16
    770e:	4688      	mov	r8, r1
    7710:	4359      	muls	r1, r3
    7712:	468a      	mov	sl, r1
    7714:	0039      	movs	r1, r7
    7716:	4351      	muls	r1, r2
    7718:	4689      	mov	r9, r1
    771a:	4641      	mov	r1, r8
    771c:	434a      	muls	r2, r1
    771e:	4651      	mov	r1, sl
    7720:	0c09      	lsrs	r1, r1, #16
    7722:	468b      	mov	fp, r1
    7724:	437b      	muls	r3, r7
    7726:	18d2      	adds	r2, r2, r3
    7728:	445a      	add	r2, fp
    772a:	4293      	cmp	r3, r2
    772c:	d903      	bls.n	7736 <__aeabi_dmul+0x2c6>
    772e:	2380      	movs	r3, #128	; 0x80
    7730:	025b      	lsls	r3, r3, #9
    7732:	469b      	mov	fp, r3
    7734:	44d9      	add	r9, fp
    7736:	4651      	mov	r1, sl
    7738:	0409      	lsls	r1, r1, #16
    773a:	0c09      	lsrs	r1, r1, #16
    773c:	468a      	mov	sl, r1
    773e:	4641      	mov	r1, r8
    7740:	4361      	muls	r1, r4
    7742:	437c      	muls	r4, r7
    7744:	0c13      	lsrs	r3, r2, #16
    7746:	0412      	lsls	r2, r2, #16
    7748:	444b      	add	r3, r9
    774a:	4452      	add	r2, sl
    774c:	46a1      	mov	r9, r4
    774e:	468a      	mov	sl, r1
    7750:	003c      	movs	r4, r7
    7752:	4641      	mov	r1, r8
    7754:	436c      	muls	r4, r5
    7756:	434d      	muls	r5, r1
    7758:	4651      	mov	r1, sl
    775a:	444d      	add	r5, r9
    775c:	0c0f      	lsrs	r7, r1, #16
    775e:	197d      	adds	r5, r7, r5
    7760:	45a9      	cmp	r9, r5
    7762:	d903      	bls.n	776c <__aeabi_dmul+0x2fc>
    7764:	2180      	movs	r1, #128	; 0x80
    7766:	0249      	lsls	r1, r1, #9
    7768:	4688      	mov	r8, r1
    776a:	4444      	add	r4, r8
    776c:	9f04      	ldr	r7, [sp, #16]
    776e:	9903      	ldr	r1, [sp, #12]
    7770:	46b8      	mov	r8, r7
    7772:	4441      	add	r1, r8
    7774:	468b      	mov	fp, r1
    7776:	4583      	cmp	fp, r0
    7778:	4180      	sbcs	r0, r0
    777a:	4241      	negs	r1, r0
    777c:	4688      	mov	r8, r1
    777e:	4651      	mov	r1, sl
    7780:	0408      	lsls	r0, r1, #16
    7782:	042f      	lsls	r7, r5, #16
    7784:	0c00      	lsrs	r0, r0, #16
    7786:	183f      	adds	r7, r7, r0
    7788:	4658      	mov	r0, fp
    778a:	9902      	ldr	r1, [sp, #8]
    778c:	1810      	adds	r0, r2, r0
    778e:	4689      	mov	r9, r1
    7790:	4290      	cmp	r0, r2
    7792:	4192      	sbcs	r2, r2
    7794:	444f      	add	r7, r9
    7796:	46ba      	mov	sl, r7
    7798:	4252      	negs	r2, r2
    779a:	4699      	mov	r9, r3
    779c:	4693      	mov	fp, r2
    779e:	44c2      	add	sl, r8
    77a0:	44d1      	add	r9, sl
    77a2:	44cb      	add	fp, r9
    77a4:	428f      	cmp	r7, r1
    77a6:	41bf      	sbcs	r7, r7
    77a8:	45c2      	cmp	sl, r8
    77aa:	4189      	sbcs	r1, r1
    77ac:	4599      	cmp	r9, r3
    77ae:	419b      	sbcs	r3, r3
    77b0:	4593      	cmp	fp, r2
    77b2:	4192      	sbcs	r2, r2
    77b4:	427f      	negs	r7, r7
    77b6:	4249      	negs	r1, r1
    77b8:	0c2d      	lsrs	r5, r5, #16
    77ba:	4252      	negs	r2, r2
    77bc:	430f      	orrs	r7, r1
    77be:	425b      	negs	r3, r3
    77c0:	4313      	orrs	r3, r2
    77c2:	197f      	adds	r7, r7, r5
    77c4:	18ff      	adds	r7, r7, r3
    77c6:	465b      	mov	r3, fp
    77c8:	193c      	adds	r4, r7, r4
    77ca:	0ddb      	lsrs	r3, r3, #23
    77cc:	9a05      	ldr	r2, [sp, #20]
    77ce:	0264      	lsls	r4, r4, #9
    77d0:	431c      	orrs	r4, r3
    77d2:	0243      	lsls	r3, r0, #9
    77d4:	4313      	orrs	r3, r2
    77d6:	1e5d      	subs	r5, r3, #1
    77d8:	41ab      	sbcs	r3, r5
    77da:	465a      	mov	r2, fp
    77dc:	0dc0      	lsrs	r0, r0, #23
    77de:	4303      	orrs	r3, r0
    77e0:	0252      	lsls	r2, r2, #9
    77e2:	4313      	orrs	r3, r2
    77e4:	01e2      	lsls	r2, r4, #7
    77e6:	d556      	bpl.n	7896 <__aeabi_dmul+0x426>
    77e8:	2001      	movs	r0, #1
    77ea:	085a      	lsrs	r2, r3, #1
    77ec:	4003      	ands	r3, r0
    77ee:	4313      	orrs	r3, r2
    77f0:	07e2      	lsls	r2, r4, #31
    77f2:	4313      	orrs	r3, r2
    77f4:	0864      	lsrs	r4, r4, #1
    77f6:	485a      	ldr	r0, [pc, #360]	; (7960 <__aeabi_dmul+0x4f0>)
    77f8:	4460      	add	r0, ip
    77fa:	2800      	cmp	r0, #0
    77fc:	dd4d      	ble.n	789a <__aeabi_dmul+0x42a>
    77fe:	075a      	lsls	r2, r3, #29
    7800:	d009      	beq.n	7816 <__aeabi_dmul+0x3a6>
    7802:	220f      	movs	r2, #15
    7804:	401a      	ands	r2, r3
    7806:	2a04      	cmp	r2, #4
    7808:	d005      	beq.n	7816 <__aeabi_dmul+0x3a6>
    780a:	1d1a      	adds	r2, r3, #4
    780c:	429a      	cmp	r2, r3
    780e:	419b      	sbcs	r3, r3
    7810:	425b      	negs	r3, r3
    7812:	18e4      	adds	r4, r4, r3
    7814:	0013      	movs	r3, r2
    7816:	01e2      	lsls	r2, r4, #7
    7818:	d504      	bpl.n	7824 <__aeabi_dmul+0x3b4>
    781a:	2080      	movs	r0, #128	; 0x80
    781c:	4a51      	ldr	r2, [pc, #324]	; (7964 <__aeabi_dmul+0x4f4>)
    781e:	00c0      	lsls	r0, r0, #3
    7820:	4014      	ands	r4, r2
    7822:	4460      	add	r0, ip
    7824:	4a50      	ldr	r2, [pc, #320]	; (7968 <__aeabi_dmul+0x4f8>)
    7826:	4290      	cmp	r0, r2
    7828:	dd00      	ble.n	782c <__aeabi_dmul+0x3bc>
    782a:	e6e3      	b.n	75f4 <__aeabi_dmul+0x184>
    782c:	2501      	movs	r5, #1
    782e:	08db      	lsrs	r3, r3, #3
    7830:	0762      	lsls	r2, r4, #29
    7832:	431a      	orrs	r2, r3
    7834:	0264      	lsls	r4, r4, #9
    7836:	9b01      	ldr	r3, [sp, #4]
    7838:	4691      	mov	r9, r2
    783a:	0b22      	lsrs	r2, r4, #12
    783c:	0544      	lsls	r4, r0, #21
    783e:	0d64      	lsrs	r4, r4, #21
    7840:	401d      	ands	r5, r3
    7842:	e67c      	b.n	753e <__aeabi_dmul+0xce>
    7844:	2280      	movs	r2, #128	; 0x80
    7846:	4659      	mov	r1, fp
    7848:	0312      	lsls	r2, r2, #12
    784a:	4211      	tst	r1, r2
    784c:	d008      	beq.n	7860 <__aeabi_dmul+0x3f0>
    784e:	4214      	tst	r4, r2
    7850:	d106      	bne.n	7860 <__aeabi_dmul+0x3f0>
    7852:	4322      	orrs	r2, r4
    7854:	0312      	lsls	r2, r2, #12
    7856:	0b12      	lsrs	r2, r2, #12
    7858:	4645      	mov	r5, r8
    785a:	4699      	mov	r9, r3
    785c:	4c43      	ldr	r4, [pc, #268]	; (796c <__aeabi_dmul+0x4fc>)
    785e:	e66e      	b.n	753e <__aeabi_dmul+0xce>
    7860:	465b      	mov	r3, fp
    7862:	431a      	orrs	r2, r3
    7864:	0312      	lsls	r2, r2, #12
    7866:	0b12      	lsrs	r2, r2, #12
    7868:	4c40      	ldr	r4, [pc, #256]	; (796c <__aeabi_dmul+0x4fc>)
    786a:	e668      	b.n	753e <__aeabi_dmul+0xce>
    786c:	0003      	movs	r3, r0
    786e:	4654      	mov	r4, sl
    7870:	3b28      	subs	r3, #40	; 0x28
    7872:	409c      	lsls	r4, r3
    7874:	2300      	movs	r3, #0
    7876:	e6b9      	b.n	75ec <__aeabi_dmul+0x17c>
    7878:	f000 fd1a 	bl	82b0 <__clzsi2>
    787c:	3020      	adds	r0, #32
    787e:	e6a6      	b.n	75ce <__aeabi_dmul+0x15e>
    7880:	0003      	movs	r3, r0
    7882:	3b28      	subs	r3, #40	; 0x28
    7884:	409f      	lsls	r7, r3
    7886:	2300      	movs	r3, #0
    7888:	46bb      	mov	fp, r7
    788a:	4699      	mov	r9, r3
    788c:	e68a      	b.n	75a4 <__aeabi_dmul+0x134>
    788e:	f000 fd0f 	bl	82b0 <__clzsi2>
    7892:	3020      	adds	r0, #32
    7894:	e674      	b.n	7580 <__aeabi_dmul+0x110>
    7896:	46b4      	mov	ip, r6
    7898:	e7ad      	b.n	77f6 <__aeabi_dmul+0x386>
    789a:	2501      	movs	r5, #1
    789c:	1a2a      	subs	r2, r5, r0
    789e:	2a38      	cmp	r2, #56	; 0x38
    78a0:	dd06      	ble.n	78b0 <__aeabi_dmul+0x440>
    78a2:	9b01      	ldr	r3, [sp, #4]
    78a4:	2400      	movs	r4, #0
    78a6:	401d      	ands	r5, r3
    78a8:	2300      	movs	r3, #0
    78aa:	2200      	movs	r2, #0
    78ac:	4699      	mov	r9, r3
    78ae:	e646      	b.n	753e <__aeabi_dmul+0xce>
    78b0:	2a1f      	cmp	r2, #31
    78b2:	dc21      	bgt.n	78f8 <__aeabi_dmul+0x488>
    78b4:	2520      	movs	r5, #32
    78b6:	0020      	movs	r0, r4
    78b8:	1aad      	subs	r5, r5, r2
    78ba:	001e      	movs	r6, r3
    78bc:	40ab      	lsls	r3, r5
    78be:	40a8      	lsls	r0, r5
    78c0:	40d6      	lsrs	r6, r2
    78c2:	1e5d      	subs	r5, r3, #1
    78c4:	41ab      	sbcs	r3, r5
    78c6:	4330      	orrs	r0, r6
    78c8:	4318      	orrs	r0, r3
    78ca:	40d4      	lsrs	r4, r2
    78cc:	0743      	lsls	r3, r0, #29
    78ce:	d009      	beq.n	78e4 <__aeabi_dmul+0x474>
    78d0:	230f      	movs	r3, #15
    78d2:	4003      	ands	r3, r0
    78d4:	2b04      	cmp	r3, #4
    78d6:	d005      	beq.n	78e4 <__aeabi_dmul+0x474>
    78d8:	0003      	movs	r3, r0
    78da:	1d18      	adds	r0, r3, #4
    78dc:	4298      	cmp	r0, r3
    78de:	419b      	sbcs	r3, r3
    78e0:	425b      	negs	r3, r3
    78e2:	18e4      	adds	r4, r4, r3
    78e4:	0223      	lsls	r3, r4, #8
    78e6:	d521      	bpl.n	792c <__aeabi_dmul+0x4bc>
    78e8:	2501      	movs	r5, #1
    78ea:	9b01      	ldr	r3, [sp, #4]
    78ec:	2401      	movs	r4, #1
    78ee:	401d      	ands	r5, r3
    78f0:	2300      	movs	r3, #0
    78f2:	2200      	movs	r2, #0
    78f4:	4699      	mov	r9, r3
    78f6:	e622      	b.n	753e <__aeabi_dmul+0xce>
    78f8:	251f      	movs	r5, #31
    78fa:	0021      	movs	r1, r4
    78fc:	426d      	negs	r5, r5
    78fe:	1a28      	subs	r0, r5, r0
    7900:	40c1      	lsrs	r1, r0
    7902:	0008      	movs	r0, r1
    7904:	2a20      	cmp	r2, #32
    7906:	d01d      	beq.n	7944 <__aeabi_dmul+0x4d4>
    7908:	355f      	adds	r5, #95	; 0x5f
    790a:	1aaa      	subs	r2, r5, r2
    790c:	4094      	lsls	r4, r2
    790e:	4323      	orrs	r3, r4
    7910:	1e5c      	subs	r4, r3, #1
    7912:	41a3      	sbcs	r3, r4
    7914:	2507      	movs	r5, #7
    7916:	4303      	orrs	r3, r0
    7918:	401d      	ands	r5, r3
    791a:	2200      	movs	r2, #0
    791c:	2d00      	cmp	r5, #0
    791e:	d009      	beq.n	7934 <__aeabi_dmul+0x4c4>
    7920:	220f      	movs	r2, #15
    7922:	2400      	movs	r4, #0
    7924:	401a      	ands	r2, r3
    7926:	0018      	movs	r0, r3
    7928:	2a04      	cmp	r2, #4
    792a:	d1d6      	bne.n	78da <__aeabi_dmul+0x46a>
    792c:	0003      	movs	r3, r0
    792e:	0765      	lsls	r5, r4, #29
    7930:	0264      	lsls	r4, r4, #9
    7932:	0b22      	lsrs	r2, r4, #12
    7934:	08db      	lsrs	r3, r3, #3
    7936:	432b      	orrs	r3, r5
    7938:	2501      	movs	r5, #1
    793a:	4699      	mov	r9, r3
    793c:	9b01      	ldr	r3, [sp, #4]
    793e:	2400      	movs	r4, #0
    7940:	401d      	ands	r5, r3
    7942:	e5fc      	b.n	753e <__aeabi_dmul+0xce>
    7944:	2400      	movs	r4, #0
    7946:	e7e2      	b.n	790e <__aeabi_dmul+0x49e>
    7948:	2280      	movs	r2, #128	; 0x80
    794a:	2501      	movs	r5, #1
    794c:	0312      	lsls	r2, r2, #12
    794e:	4322      	orrs	r2, r4
    7950:	9901      	ldr	r1, [sp, #4]
    7952:	0312      	lsls	r2, r2, #12
    7954:	0b12      	lsrs	r2, r2, #12
    7956:	400d      	ands	r5, r1
    7958:	4699      	mov	r9, r3
    795a:	4c04      	ldr	r4, [pc, #16]	; (796c <__aeabi_dmul+0x4fc>)
    795c:	e5ef      	b.n	753e <__aeabi_dmul+0xce>
    795e:	46c0      	nop			; (mov r8, r8)
    7960:	000003ff 	.word	0x000003ff
    7964:	feffffff 	.word	0xfeffffff
    7968:	000007fe 	.word	0x000007fe
    796c:	000007ff 	.word	0x000007ff

00007970 <__aeabi_dsub>:
    7970:	b5f0      	push	{r4, r5, r6, r7, lr}
    7972:	4646      	mov	r6, r8
    7974:	46d6      	mov	lr, sl
    7976:	464f      	mov	r7, r9
    7978:	030c      	lsls	r4, r1, #12
    797a:	b5c0      	push	{r6, r7, lr}
    797c:	0fcd      	lsrs	r5, r1, #31
    797e:	004e      	lsls	r6, r1, #1
    7980:	0a61      	lsrs	r1, r4, #9
    7982:	0f44      	lsrs	r4, r0, #29
    7984:	430c      	orrs	r4, r1
    7986:	00c1      	lsls	r1, r0, #3
    7988:	0058      	lsls	r0, r3, #1
    798a:	0d40      	lsrs	r0, r0, #21
    798c:	4684      	mov	ip, r0
    798e:	468a      	mov	sl, r1
    7990:	000f      	movs	r7, r1
    7992:	0319      	lsls	r1, r3, #12
    7994:	0f50      	lsrs	r0, r2, #29
    7996:	0a49      	lsrs	r1, r1, #9
    7998:	4301      	orrs	r1, r0
    799a:	48c6      	ldr	r0, [pc, #792]	; (7cb4 <__aeabi_dsub+0x344>)
    799c:	0d76      	lsrs	r6, r6, #21
    799e:	46a8      	mov	r8, r5
    79a0:	0fdb      	lsrs	r3, r3, #31
    79a2:	00d2      	lsls	r2, r2, #3
    79a4:	4584      	cmp	ip, r0
    79a6:	d100      	bne.n	79aa <__aeabi_dsub+0x3a>
    79a8:	e0d8      	b.n	7b5c <__aeabi_dsub+0x1ec>
    79aa:	2001      	movs	r0, #1
    79ac:	4043      	eors	r3, r0
    79ae:	42ab      	cmp	r3, r5
    79b0:	d100      	bne.n	79b4 <__aeabi_dsub+0x44>
    79b2:	e0a6      	b.n	7b02 <__aeabi_dsub+0x192>
    79b4:	4660      	mov	r0, ip
    79b6:	1a35      	subs	r5, r6, r0
    79b8:	2d00      	cmp	r5, #0
    79ba:	dc00      	bgt.n	79be <__aeabi_dsub+0x4e>
    79bc:	e105      	b.n	7bca <__aeabi_dsub+0x25a>
    79be:	2800      	cmp	r0, #0
    79c0:	d110      	bne.n	79e4 <__aeabi_dsub+0x74>
    79c2:	000b      	movs	r3, r1
    79c4:	4313      	orrs	r3, r2
    79c6:	d100      	bne.n	79ca <__aeabi_dsub+0x5a>
    79c8:	e0d7      	b.n	7b7a <__aeabi_dsub+0x20a>
    79ca:	1e6b      	subs	r3, r5, #1
    79cc:	2b00      	cmp	r3, #0
    79ce:	d000      	beq.n	79d2 <__aeabi_dsub+0x62>
    79d0:	e14b      	b.n	7c6a <__aeabi_dsub+0x2fa>
    79d2:	4653      	mov	r3, sl
    79d4:	1a9f      	subs	r7, r3, r2
    79d6:	45ba      	cmp	sl, r7
    79d8:	4180      	sbcs	r0, r0
    79da:	1a64      	subs	r4, r4, r1
    79dc:	4240      	negs	r0, r0
    79de:	1a24      	subs	r4, r4, r0
    79e0:	2601      	movs	r6, #1
    79e2:	e01e      	b.n	7a22 <__aeabi_dsub+0xb2>
    79e4:	4bb3      	ldr	r3, [pc, #716]	; (7cb4 <__aeabi_dsub+0x344>)
    79e6:	429e      	cmp	r6, r3
    79e8:	d048      	beq.n	7a7c <__aeabi_dsub+0x10c>
    79ea:	2380      	movs	r3, #128	; 0x80
    79ec:	041b      	lsls	r3, r3, #16
    79ee:	4319      	orrs	r1, r3
    79f0:	2d38      	cmp	r5, #56	; 0x38
    79f2:	dd00      	ble.n	79f6 <__aeabi_dsub+0x86>
    79f4:	e119      	b.n	7c2a <__aeabi_dsub+0x2ba>
    79f6:	2d1f      	cmp	r5, #31
    79f8:	dd00      	ble.n	79fc <__aeabi_dsub+0x8c>
    79fa:	e14c      	b.n	7c96 <__aeabi_dsub+0x326>
    79fc:	2320      	movs	r3, #32
    79fe:	000f      	movs	r7, r1
    7a00:	1b5b      	subs	r3, r3, r5
    7a02:	0010      	movs	r0, r2
    7a04:	409a      	lsls	r2, r3
    7a06:	409f      	lsls	r7, r3
    7a08:	40e8      	lsrs	r0, r5
    7a0a:	1e53      	subs	r3, r2, #1
    7a0c:	419a      	sbcs	r2, r3
    7a0e:	40e9      	lsrs	r1, r5
    7a10:	4307      	orrs	r7, r0
    7a12:	4317      	orrs	r7, r2
    7a14:	4653      	mov	r3, sl
    7a16:	1bdf      	subs	r7, r3, r7
    7a18:	1a61      	subs	r1, r4, r1
    7a1a:	45ba      	cmp	sl, r7
    7a1c:	41a4      	sbcs	r4, r4
    7a1e:	4264      	negs	r4, r4
    7a20:	1b0c      	subs	r4, r1, r4
    7a22:	0223      	lsls	r3, r4, #8
    7a24:	d400      	bmi.n	7a28 <__aeabi_dsub+0xb8>
    7a26:	e0c5      	b.n	7bb4 <__aeabi_dsub+0x244>
    7a28:	0264      	lsls	r4, r4, #9
    7a2a:	0a65      	lsrs	r5, r4, #9
    7a2c:	2d00      	cmp	r5, #0
    7a2e:	d100      	bne.n	7a32 <__aeabi_dsub+0xc2>
    7a30:	e0f6      	b.n	7c20 <__aeabi_dsub+0x2b0>
    7a32:	0028      	movs	r0, r5
    7a34:	f000 fc3c 	bl	82b0 <__clzsi2>
    7a38:	0003      	movs	r3, r0
    7a3a:	3b08      	subs	r3, #8
    7a3c:	2b1f      	cmp	r3, #31
    7a3e:	dd00      	ble.n	7a42 <__aeabi_dsub+0xd2>
    7a40:	e0e9      	b.n	7c16 <__aeabi_dsub+0x2a6>
    7a42:	2220      	movs	r2, #32
    7a44:	003c      	movs	r4, r7
    7a46:	1ad2      	subs	r2, r2, r3
    7a48:	409d      	lsls	r5, r3
    7a4a:	40d4      	lsrs	r4, r2
    7a4c:	409f      	lsls	r7, r3
    7a4e:	4325      	orrs	r5, r4
    7a50:	429e      	cmp	r6, r3
    7a52:	dd00      	ble.n	7a56 <__aeabi_dsub+0xe6>
    7a54:	e0db      	b.n	7c0e <__aeabi_dsub+0x29e>
    7a56:	1b9e      	subs	r6, r3, r6
    7a58:	1c73      	adds	r3, r6, #1
    7a5a:	2b1f      	cmp	r3, #31
    7a5c:	dd00      	ble.n	7a60 <__aeabi_dsub+0xf0>
    7a5e:	e10a      	b.n	7c76 <__aeabi_dsub+0x306>
    7a60:	2220      	movs	r2, #32
    7a62:	0038      	movs	r0, r7
    7a64:	1ad2      	subs	r2, r2, r3
    7a66:	0029      	movs	r1, r5
    7a68:	4097      	lsls	r7, r2
    7a6a:	002c      	movs	r4, r5
    7a6c:	4091      	lsls	r1, r2
    7a6e:	40d8      	lsrs	r0, r3
    7a70:	1e7a      	subs	r2, r7, #1
    7a72:	4197      	sbcs	r7, r2
    7a74:	40dc      	lsrs	r4, r3
    7a76:	2600      	movs	r6, #0
    7a78:	4301      	orrs	r1, r0
    7a7a:	430f      	orrs	r7, r1
    7a7c:	077b      	lsls	r3, r7, #29
    7a7e:	d009      	beq.n	7a94 <__aeabi_dsub+0x124>
    7a80:	230f      	movs	r3, #15
    7a82:	403b      	ands	r3, r7
    7a84:	2b04      	cmp	r3, #4
    7a86:	d005      	beq.n	7a94 <__aeabi_dsub+0x124>
    7a88:	1d3b      	adds	r3, r7, #4
    7a8a:	42bb      	cmp	r3, r7
    7a8c:	41bf      	sbcs	r7, r7
    7a8e:	427f      	negs	r7, r7
    7a90:	19e4      	adds	r4, r4, r7
    7a92:	001f      	movs	r7, r3
    7a94:	0223      	lsls	r3, r4, #8
    7a96:	d525      	bpl.n	7ae4 <__aeabi_dsub+0x174>
    7a98:	4b86      	ldr	r3, [pc, #536]	; (7cb4 <__aeabi_dsub+0x344>)
    7a9a:	3601      	adds	r6, #1
    7a9c:	429e      	cmp	r6, r3
    7a9e:	d100      	bne.n	7aa2 <__aeabi_dsub+0x132>
    7aa0:	e0af      	b.n	7c02 <__aeabi_dsub+0x292>
    7aa2:	4b85      	ldr	r3, [pc, #532]	; (7cb8 <__aeabi_dsub+0x348>)
    7aa4:	2501      	movs	r5, #1
    7aa6:	401c      	ands	r4, r3
    7aa8:	4643      	mov	r3, r8
    7aaa:	0762      	lsls	r2, r4, #29
    7aac:	08ff      	lsrs	r7, r7, #3
    7aae:	0264      	lsls	r4, r4, #9
    7ab0:	0576      	lsls	r6, r6, #21
    7ab2:	4317      	orrs	r7, r2
    7ab4:	0b24      	lsrs	r4, r4, #12
    7ab6:	0d76      	lsrs	r6, r6, #21
    7ab8:	401d      	ands	r5, r3
    7aba:	2100      	movs	r1, #0
    7abc:	0324      	lsls	r4, r4, #12
    7abe:	0b23      	lsrs	r3, r4, #12
    7ac0:	0d0c      	lsrs	r4, r1, #20
    7ac2:	4a7e      	ldr	r2, [pc, #504]	; (7cbc <__aeabi_dsub+0x34c>)
    7ac4:	0524      	lsls	r4, r4, #20
    7ac6:	431c      	orrs	r4, r3
    7ac8:	4014      	ands	r4, r2
    7aca:	0533      	lsls	r3, r6, #20
    7acc:	4323      	orrs	r3, r4
    7ace:	005b      	lsls	r3, r3, #1
    7ad0:	07ed      	lsls	r5, r5, #31
    7ad2:	085b      	lsrs	r3, r3, #1
    7ad4:	432b      	orrs	r3, r5
    7ad6:	0038      	movs	r0, r7
    7ad8:	0019      	movs	r1, r3
    7ada:	bc1c      	pop	{r2, r3, r4}
    7adc:	4690      	mov	r8, r2
    7ade:	4699      	mov	r9, r3
    7ae0:	46a2      	mov	sl, r4
    7ae2:	bdf0      	pop	{r4, r5, r6, r7, pc}
    7ae4:	2501      	movs	r5, #1
    7ae6:	4643      	mov	r3, r8
    7ae8:	0762      	lsls	r2, r4, #29
    7aea:	08ff      	lsrs	r7, r7, #3
    7aec:	4317      	orrs	r7, r2
    7aee:	08e4      	lsrs	r4, r4, #3
    7af0:	401d      	ands	r5, r3
    7af2:	4b70      	ldr	r3, [pc, #448]	; (7cb4 <__aeabi_dsub+0x344>)
    7af4:	429e      	cmp	r6, r3
    7af6:	d036      	beq.n	7b66 <__aeabi_dsub+0x1f6>
    7af8:	0324      	lsls	r4, r4, #12
    7afa:	0576      	lsls	r6, r6, #21
    7afc:	0b24      	lsrs	r4, r4, #12
    7afe:	0d76      	lsrs	r6, r6, #21
    7b00:	e7db      	b.n	7aba <__aeabi_dsub+0x14a>
    7b02:	4663      	mov	r3, ip
    7b04:	1af3      	subs	r3, r6, r3
    7b06:	2b00      	cmp	r3, #0
    7b08:	dc00      	bgt.n	7b0c <__aeabi_dsub+0x19c>
    7b0a:	e094      	b.n	7c36 <__aeabi_dsub+0x2c6>
    7b0c:	4660      	mov	r0, ip
    7b0e:	2800      	cmp	r0, #0
    7b10:	d035      	beq.n	7b7e <__aeabi_dsub+0x20e>
    7b12:	4868      	ldr	r0, [pc, #416]	; (7cb4 <__aeabi_dsub+0x344>)
    7b14:	4286      	cmp	r6, r0
    7b16:	d0b1      	beq.n	7a7c <__aeabi_dsub+0x10c>
    7b18:	2780      	movs	r7, #128	; 0x80
    7b1a:	043f      	lsls	r7, r7, #16
    7b1c:	4339      	orrs	r1, r7
    7b1e:	2b38      	cmp	r3, #56	; 0x38
    7b20:	dc00      	bgt.n	7b24 <__aeabi_dsub+0x1b4>
    7b22:	e0fd      	b.n	7d20 <__aeabi_dsub+0x3b0>
    7b24:	430a      	orrs	r2, r1
    7b26:	0017      	movs	r7, r2
    7b28:	2100      	movs	r1, #0
    7b2a:	1e7a      	subs	r2, r7, #1
    7b2c:	4197      	sbcs	r7, r2
    7b2e:	4457      	add	r7, sl
    7b30:	4557      	cmp	r7, sl
    7b32:	4180      	sbcs	r0, r0
    7b34:	1909      	adds	r1, r1, r4
    7b36:	4244      	negs	r4, r0
    7b38:	190c      	adds	r4, r1, r4
    7b3a:	0223      	lsls	r3, r4, #8
    7b3c:	d53a      	bpl.n	7bb4 <__aeabi_dsub+0x244>
    7b3e:	4b5d      	ldr	r3, [pc, #372]	; (7cb4 <__aeabi_dsub+0x344>)
    7b40:	3601      	adds	r6, #1
    7b42:	429e      	cmp	r6, r3
    7b44:	d100      	bne.n	7b48 <__aeabi_dsub+0x1d8>
    7b46:	e14b      	b.n	7de0 <__aeabi_dsub+0x470>
    7b48:	2201      	movs	r2, #1
    7b4a:	4b5b      	ldr	r3, [pc, #364]	; (7cb8 <__aeabi_dsub+0x348>)
    7b4c:	401c      	ands	r4, r3
    7b4e:	087b      	lsrs	r3, r7, #1
    7b50:	4017      	ands	r7, r2
    7b52:	431f      	orrs	r7, r3
    7b54:	07e2      	lsls	r2, r4, #31
    7b56:	4317      	orrs	r7, r2
    7b58:	0864      	lsrs	r4, r4, #1
    7b5a:	e78f      	b.n	7a7c <__aeabi_dsub+0x10c>
    7b5c:	0008      	movs	r0, r1
    7b5e:	4310      	orrs	r0, r2
    7b60:	d000      	beq.n	7b64 <__aeabi_dsub+0x1f4>
    7b62:	e724      	b.n	79ae <__aeabi_dsub+0x3e>
    7b64:	e721      	b.n	79aa <__aeabi_dsub+0x3a>
    7b66:	0023      	movs	r3, r4
    7b68:	433b      	orrs	r3, r7
    7b6a:	d100      	bne.n	7b6e <__aeabi_dsub+0x1fe>
    7b6c:	e1b9      	b.n	7ee2 <__aeabi_dsub+0x572>
    7b6e:	2280      	movs	r2, #128	; 0x80
    7b70:	0312      	lsls	r2, r2, #12
    7b72:	4314      	orrs	r4, r2
    7b74:	0324      	lsls	r4, r4, #12
    7b76:	0b24      	lsrs	r4, r4, #12
    7b78:	e79f      	b.n	7aba <__aeabi_dsub+0x14a>
    7b7a:	002e      	movs	r6, r5
    7b7c:	e77e      	b.n	7a7c <__aeabi_dsub+0x10c>
    7b7e:	0008      	movs	r0, r1
    7b80:	4310      	orrs	r0, r2
    7b82:	d100      	bne.n	7b86 <__aeabi_dsub+0x216>
    7b84:	e0ca      	b.n	7d1c <__aeabi_dsub+0x3ac>
    7b86:	1e58      	subs	r0, r3, #1
    7b88:	4684      	mov	ip, r0
    7b8a:	2800      	cmp	r0, #0
    7b8c:	d000      	beq.n	7b90 <__aeabi_dsub+0x220>
    7b8e:	e0e7      	b.n	7d60 <__aeabi_dsub+0x3f0>
    7b90:	4452      	add	r2, sl
    7b92:	4552      	cmp	r2, sl
    7b94:	4180      	sbcs	r0, r0
    7b96:	1864      	adds	r4, r4, r1
    7b98:	4240      	negs	r0, r0
    7b9a:	1824      	adds	r4, r4, r0
    7b9c:	0017      	movs	r7, r2
    7b9e:	2601      	movs	r6, #1
    7ba0:	0223      	lsls	r3, r4, #8
    7ba2:	d507      	bpl.n	7bb4 <__aeabi_dsub+0x244>
    7ba4:	2602      	movs	r6, #2
    7ba6:	e7cf      	b.n	7b48 <__aeabi_dsub+0x1d8>
    7ba8:	4664      	mov	r4, ip
    7baa:	432c      	orrs	r4, r5
    7bac:	d100      	bne.n	7bb0 <__aeabi_dsub+0x240>
    7bae:	e1b3      	b.n	7f18 <__aeabi_dsub+0x5a8>
    7bb0:	002c      	movs	r4, r5
    7bb2:	4667      	mov	r7, ip
    7bb4:	077b      	lsls	r3, r7, #29
    7bb6:	d000      	beq.n	7bba <__aeabi_dsub+0x24a>
    7bb8:	e762      	b.n	7a80 <__aeabi_dsub+0x110>
    7bba:	0763      	lsls	r3, r4, #29
    7bbc:	08ff      	lsrs	r7, r7, #3
    7bbe:	431f      	orrs	r7, r3
    7bc0:	2501      	movs	r5, #1
    7bc2:	4643      	mov	r3, r8
    7bc4:	08e4      	lsrs	r4, r4, #3
    7bc6:	401d      	ands	r5, r3
    7bc8:	e793      	b.n	7af2 <__aeabi_dsub+0x182>
    7bca:	2d00      	cmp	r5, #0
    7bcc:	d178      	bne.n	7cc0 <__aeabi_dsub+0x350>
    7bce:	1c75      	adds	r5, r6, #1
    7bd0:	056d      	lsls	r5, r5, #21
    7bd2:	0d6d      	lsrs	r5, r5, #21
    7bd4:	2d01      	cmp	r5, #1
    7bd6:	dc00      	bgt.n	7bda <__aeabi_dsub+0x26a>
    7bd8:	e0f2      	b.n	7dc0 <__aeabi_dsub+0x450>
    7bda:	4650      	mov	r0, sl
    7bdc:	1a80      	subs	r0, r0, r2
    7bde:	4582      	cmp	sl, r0
    7be0:	41bf      	sbcs	r7, r7
    7be2:	1a65      	subs	r5, r4, r1
    7be4:	427f      	negs	r7, r7
    7be6:	1bed      	subs	r5, r5, r7
    7be8:	4684      	mov	ip, r0
    7bea:	0228      	lsls	r0, r5, #8
    7bec:	d400      	bmi.n	7bf0 <__aeabi_dsub+0x280>
    7bee:	e08c      	b.n	7d0a <__aeabi_dsub+0x39a>
    7bf0:	4650      	mov	r0, sl
    7bf2:	1a17      	subs	r7, r2, r0
    7bf4:	42ba      	cmp	r2, r7
    7bf6:	4192      	sbcs	r2, r2
    7bf8:	1b0c      	subs	r4, r1, r4
    7bfa:	4255      	negs	r5, r2
    7bfc:	1b65      	subs	r5, r4, r5
    7bfe:	4698      	mov	r8, r3
    7c00:	e714      	b.n	7a2c <__aeabi_dsub+0xbc>
    7c02:	2501      	movs	r5, #1
    7c04:	4643      	mov	r3, r8
    7c06:	2400      	movs	r4, #0
    7c08:	401d      	ands	r5, r3
    7c0a:	2700      	movs	r7, #0
    7c0c:	e755      	b.n	7aba <__aeabi_dsub+0x14a>
    7c0e:	4c2a      	ldr	r4, [pc, #168]	; (7cb8 <__aeabi_dsub+0x348>)
    7c10:	1af6      	subs	r6, r6, r3
    7c12:	402c      	ands	r4, r5
    7c14:	e732      	b.n	7a7c <__aeabi_dsub+0x10c>
    7c16:	003d      	movs	r5, r7
    7c18:	3828      	subs	r0, #40	; 0x28
    7c1a:	4085      	lsls	r5, r0
    7c1c:	2700      	movs	r7, #0
    7c1e:	e717      	b.n	7a50 <__aeabi_dsub+0xe0>
    7c20:	0038      	movs	r0, r7
    7c22:	f000 fb45 	bl	82b0 <__clzsi2>
    7c26:	3020      	adds	r0, #32
    7c28:	e706      	b.n	7a38 <__aeabi_dsub+0xc8>
    7c2a:	430a      	orrs	r2, r1
    7c2c:	0017      	movs	r7, r2
    7c2e:	2100      	movs	r1, #0
    7c30:	1e7a      	subs	r2, r7, #1
    7c32:	4197      	sbcs	r7, r2
    7c34:	e6ee      	b.n	7a14 <__aeabi_dsub+0xa4>
    7c36:	2b00      	cmp	r3, #0
    7c38:	d000      	beq.n	7c3c <__aeabi_dsub+0x2cc>
    7c3a:	e0e5      	b.n	7e08 <__aeabi_dsub+0x498>
    7c3c:	1c73      	adds	r3, r6, #1
    7c3e:	469c      	mov	ip, r3
    7c40:	055b      	lsls	r3, r3, #21
    7c42:	0d5b      	lsrs	r3, r3, #21
    7c44:	2b01      	cmp	r3, #1
    7c46:	dc00      	bgt.n	7c4a <__aeabi_dsub+0x2da>
    7c48:	e09f      	b.n	7d8a <__aeabi_dsub+0x41a>
    7c4a:	4b1a      	ldr	r3, [pc, #104]	; (7cb4 <__aeabi_dsub+0x344>)
    7c4c:	459c      	cmp	ip, r3
    7c4e:	d100      	bne.n	7c52 <__aeabi_dsub+0x2e2>
    7c50:	e0c5      	b.n	7dde <__aeabi_dsub+0x46e>
    7c52:	4452      	add	r2, sl
    7c54:	4552      	cmp	r2, sl
    7c56:	4180      	sbcs	r0, r0
    7c58:	1864      	adds	r4, r4, r1
    7c5a:	4240      	negs	r0, r0
    7c5c:	1824      	adds	r4, r4, r0
    7c5e:	07e7      	lsls	r7, r4, #31
    7c60:	0852      	lsrs	r2, r2, #1
    7c62:	4317      	orrs	r7, r2
    7c64:	0864      	lsrs	r4, r4, #1
    7c66:	4666      	mov	r6, ip
    7c68:	e708      	b.n	7a7c <__aeabi_dsub+0x10c>
    7c6a:	4812      	ldr	r0, [pc, #72]	; (7cb4 <__aeabi_dsub+0x344>)
    7c6c:	4285      	cmp	r5, r0
    7c6e:	d100      	bne.n	7c72 <__aeabi_dsub+0x302>
    7c70:	e085      	b.n	7d7e <__aeabi_dsub+0x40e>
    7c72:	001d      	movs	r5, r3
    7c74:	e6bc      	b.n	79f0 <__aeabi_dsub+0x80>
    7c76:	0029      	movs	r1, r5
    7c78:	3e1f      	subs	r6, #31
    7c7a:	40f1      	lsrs	r1, r6
    7c7c:	2b20      	cmp	r3, #32
    7c7e:	d100      	bne.n	7c82 <__aeabi_dsub+0x312>
    7c80:	e07f      	b.n	7d82 <__aeabi_dsub+0x412>
    7c82:	2240      	movs	r2, #64	; 0x40
    7c84:	1ad3      	subs	r3, r2, r3
    7c86:	409d      	lsls	r5, r3
    7c88:	432f      	orrs	r7, r5
    7c8a:	1e7d      	subs	r5, r7, #1
    7c8c:	41af      	sbcs	r7, r5
    7c8e:	2400      	movs	r4, #0
    7c90:	430f      	orrs	r7, r1
    7c92:	2600      	movs	r6, #0
    7c94:	e78e      	b.n	7bb4 <__aeabi_dsub+0x244>
    7c96:	002b      	movs	r3, r5
    7c98:	000f      	movs	r7, r1
    7c9a:	3b20      	subs	r3, #32
    7c9c:	40df      	lsrs	r7, r3
    7c9e:	2d20      	cmp	r5, #32
    7ca0:	d071      	beq.n	7d86 <__aeabi_dsub+0x416>
    7ca2:	2340      	movs	r3, #64	; 0x40
    7ca4:	1b5d      	subs	r5, r3, r5
    7ca6:	40a9      	lsls	r1, r5
    7ca8:	430a      	orrs	r2, r1
    7caa:	1e51      	subs	r1, r2, #1
    7cac:	418a      	sbcs	r2, r1
    7cae:	2100      	movs	r1, #0
    7cb0:	4317      	orrs	r7, r2
    7cb2:	e6af      	b.n	7a14 <__aeabi_dsub+0xa4>
    7cb4:	000007ff 	.word	0x000007ff
    7cb8:	ff7fffff 	.word	0xff7fffff
    7cbc:	800fffff 	.word	0x800fffff
    7cc0:	2e00      	cmp	r6, #0
    7cc2:	d03e      	beq.n	7d42 <__aeabi_dsub+0x3d2>
    7cc4:	4eb3      	ldr	r6, [pc, #716]	; (7f94 <__aeabi_dsub+0x624>)
    7cc6:	45b4      	cmp	ip, r6
    7cc8:	d045      	beq.n	7d56 <__aeabi_dsub+0x3e6>
    7cca:	2680      	movs	r6, #128	; 0x80
    7ccc:	0436      	lsls	r6, r6, #16
    7cce:	426d      	negs	r5, r5
    7cd0:	4334      	orrs	r4, r6
    7cd2:	2d38      	cmp	r5, #56	; 0x38
    7cd4:	dd00      	ble.n	7cd8 <__aeabi_dsub+0x368>
    7cd6:	e0a8      	b.n	7e2a <__aeabi_dsub+0x4ba>
    7cd8:	2d1f      	cmp	r5, #31
    7cda:	dd00      	ble.n	7cde <__aeabi_dsub+0x36e>
    7cdc:	e11f      	b.n	7f1e <__aeabi_dsub+0x5ae>
    7cde:	2620      	movs	r6, #32
    7ce0:	0027      	movs	r7, r4
    7ce2:	4650      	mov	r0, sl
    7ce4:	1b76      	subs	r6, r6, r5
    7ce6:	40b7      	lsls	r7, r6
    7ce8:	40e8      	lsrs	r0, r5
    7cea:	4307      	orrs	r7, r0
    7cec:	4650      	mov	r0, sl
    7cee:	40b0      	lsls	r0, r6
    7cf0:	1e46      	subs	r6, r0, #1
    7cf2:	41b0      	sbcs	r0, r6
    7cf4:	40ec      	lsrs	r4, r5
    7cf6:	4338      	orrs	r0, r7
    7cf8:	1a17      	subs	r7, r2, r0
    7cfa:	42ba      	cmp	r2, r7
    7cfc:	4192      	sbcs	r2, r2
    7cfe:	1b0c      	subs	r4, r1, r4
    7d00:	4252      	negs	r2, r2
    7d02:	1aa4      	subs	r4, r4, r2
    7d04:	4666      	mov	r6, ip
    7d06:	4698      	mov	r8, r3
    7d08:	e68b      	b.n	7a22 <__aeabi_dsub+0xb2>
    7d0a:	4664      	mov	r4, ip
    7d0c:	4667      	mov	r7, ip
    7d0e:	432c      	orrs	r4, r5
    7d10:	d000      	beq.n	7d14 <__aeabi_dsub+0x3a4>
    7d12:	e68b      	b.n	7a2c <__aeabi_dsub+0xbc>
    7d14:	2500      	movs	r5, #0
    7d16:	2600      	movs	r6, #0
    7d18:	2700      	movs	r7, #0
    7d1a:	e6ea      	b.n	7af2 <__aeabi_dsub+0x182>
    7d1c:	001e      	movs	r6, r3
    7d1e:	e6ad      	b.n	7a7c <__aeabi_dsub+0x10c>
    7d20:	2b1f      	cmp	r3, #31
    7d22:	dc60      	bgt.n	7de6 <__aeabi_dsub+0x476>
    7d24:	2720      	movs	r7, #32
    7d26:	1af8      	subs	r0, r7, r3
    7d28:	000f      	movs	r7, r1
    7d2a:	4684      	mov	ip, r0
    7d2c:	4087      	lsls	r7, r0
    7d2e:	0010      	movs	r0, r2
    7d30:	40d8      	lsrs	r0, r3
    7d32:	4307      	orrs	r7, r0
    7d34:	4660      	mov	r0, ip
    7d36:	4082      	lsls	r2, r0
    7d38:	1e50      	subs	r0, r2, #1
    7d3a:	4182      	sbcs	r2, r0
    7d3c:	40d9      	lsrs	r1, r3
    7d3e:	4317      	orrs	r7, r2
    7d40:	e6f5      	b.n	7b2e <__aeabi_dsub+0x1be>
    7d42:	0026      	movs	r6, r4
    7d44:	4650      	mov	r0, sl
    7d46:	4306      	orrs	r6, r0
    7d48:	d005      	beq.n	7d56 <__aeabi_dsub+0x3e6>
    7d4a:	43ed      	mvns	r5, r5
    7d4c:	2d00      	cmp	r5, #0
    7d4e:	d0d3      	beq.n	7cf8 <__aeabi_dsub+0x388>
    7d50:	4e90      	ldr	r6, [pc, #576]	; (7f94 <__aeabi_dsub+0x624>)
    7d52:	45b4      	cmp	ip, r6
    7d54:	d1bd      	bne.n	7cd2 <__aeabi_dsub+0x362>
    7d56:	000c      	movs	r4, r1
    7d58:	0017      	movs	r7, r2
    7d5a:	4666      	mov	r6, ip
    7d5c:	4698      	mov	r8, r3
    7d5e:	e68d      	b.n	7a7c <__aeabi_dsub+0x10c>
    7d60:	488c      	ldr	r0, [pc, #560]	; (7f94 <__aeabi_dsub+0x624>)
    7d62:	4283      	cmp	r3, r0
    7d64:	d00b      	beq.n	7d7e <__aeabi_dsub+0x40e>
    7d66:	4663      	mov	r3, ip
    7d68:	e6d9      	b.n	7b1e <__aeabi_dsub+0x1ae>
    7d6a:	2d00      	cmp	r5, #0
    7d6c:	d000      	beq.n	7d70 <__aeabi_dsub+0x400>
    7d6e:	e096      	b.n	7e9e <__aeabi_dsub+0x52e>
    7d70:	0008      	movs	r0, r1
    7d72:	4310      	orrs	r0, r2
    7d74:	d100      	bne.n	7d78 <__aeabi_dsub+0x408>
    7d76:	e0e2      	b.n	7f3e <__aeabi_dsub+0x5ce>
    7d78:	000c      	movs	r4, r1
    7d7a:	0017      	movs	r7, r2
    7d7c:	4698      	mov	r8, r3
    7d7e:	4e85      	ldr	r6, [pc, #532]	; (7f94 <__aeabi_dsub+0x624>)
    7d80:	e67c      	b.n	7a7c <__aeabi_dsub+0x10c>
    7d82:	2500      	movs	r5, #0
    7d84:	e780      	b.n	7c88 <__aeabi_dsub+0x318>
    7d86:	2100      	movs	r1, #0
    7d88:	e78e      	b.n	7ca8 <__aeabi_dsub+0x338>
    7d8a:	0023      	movs	r3, r4
    7d8c:	4650      	mov	r0, sl
    7d8e:	4303      	orrs	r3, r0
    7d90:	2e00      	cmp	r6, #0
    7d92:	d000      	beq.n	7d96 <__aeabi_dsub+0x426>
    7d94:	e0a8      	b.n	7ee8 <__aeabi_dsub+0x578>
    7d96:	2b00      	cmp	r3, #0
    7d98:	d100      	bne.n	7d9c <__aeabi_dsub+0x42c>
    7d9a:	e0de      	b.n	7f5a <__aeabi_dsub+0x5ea>
    7d9c:	000b      	movs	r3, r1
    7d9e:	4313      	orrs	r3, r2
    7da0:	d100      	bne.n	7da4 <__aeabi_dsub+0x434>
    7da2:	e66b      	b.n	7a7c <__aeabi_dsub+0x10c>
    7da4:	4452      	add	r2, sl
    7da6:	4552      	cmp	r2, sl
    7da8:	4180      	sbcs	r0, r0
    7daa:	1864      	adds	r4, r4, r1
    7dac:	4240      	negs	r0, r0
    7dae:	1824      	adds	r4, r4, r0
    7db0:	0017      	movs	r7, r2
    7db2:	0223      	lsls	r3, r4, #8
    7db4:	d400      	bmi.n	7db8 <__aeabi_dsub+0x448>
    7db6:	e6fd      	b.n	7bb4 <__aeabi_dsub+0x244>
    7db8:	4b77      	ldr	r3, [pc, #476]	; (7f98 <__aeabi_dsub+0x628>)
    7dba:	4666      	mov	r6, ip
    7dbc:	401c      	ands	r4, r3
    7dbe:	e65d      	b.n	7a7c <__aeabi_dsub+0x10c>
    7dc0:	0025      	movs	r5, r4
    7dc2:	4650      	mov	r0, sl
    7dc4:	4305      	orrs	r5, r0
    7dc6:	2e00      	cmp	r6, #0
    7dc8:	d1cf      	bne.n	7d6a <__aeabi_dsub+0x3fa>
    7dca:	2d00      	cmp	r5, #0
    7dcc:	d14f      	bne.n	7e6e <__aeabi_dsub+0x4fe>
    7dce:	000c      	movs	r4, r1
    7dd0:	4314      	orrs	r4, r2
    7dd2:	d100      	bne.n	7dd6 <__aeabi_dsub+0x466>
    7dd4:	e0a0      	b.n	7f18 <__aeabi_dsub+0x5a8>
    7dd6:	000c      	movs	r4, r1
    7dd8:	0017      	movs	r7, r2
    7dda:	4698      	mov	r8, r3
    7ddc:	e64e      	b.n	7a7c <__aeabi_dsub+0x10c>
    7dde:	4666      	mov	r6, ip
    7de0:	2400      	movs	r4, #0
    7de2:	2700      	movs	r7, #0
    7de4:	e685      	b.n	7af2 <__aeabi_dsub+0x182>
    7de6:	001f      	movs	r7, r3
    7de8:	0008      	movs	r0, r1
    7dea:	3f20      	subs	r7, #32
    7dec:	40f8      	lsrs	r0, r7
    7dee:	0007      	movs	r7, r0
    7df0:	2b20      	cmp	r3, #32
    7df2:	d100      	bne.n	7df6 <__aeabi_dsub+0x486>
    7df4:	e08e      	b.n	7f14 <__aeabi_dsub+0x5a4>
    7df6:	2040      	movs	r0, #64	; 0x40
    7df8:	1ac3      	subs	r3, r0, r3
    7dfa:	4099      	lsls	r1, r3
    7dfc:	430a      	orrs	r2, r1
    7dfe:	1e51      	subs	r1, r2, #1
    7e00:	418a      	sbcs	r2, r1
    7e02:	2100      	movs	r1, #0
    7e04:	4317      	orrs	r7, r2
    7e06:	e692      	b.n	7b2e <__aeabi_dsub+0x1be>
    7e08:	2e00      	cmp	r6, #0
    7e0a:	d114      	bne.n	7e36 <__aeabi_dsub+0x4c6>
    7e0c:	0026      	movs	r6, r4
    7e0e:	4650      	mov	r0, sl
    7e10:	4306      	orrs	r6, r0
    7e12:	d062      	beq.n	7eda <__aeabi_dsub+0x56a>
    7e14:	43db      	mvns	r3, r3
    7e16:	2b00      	cmp	r3, #0
    7e18:	d15c      	bne.n	7ed4 <__aeabi_dsub+0x564>
    7e1a:	1887      	adds	r7, r0, r2
    7e1c:	4297      	cmp	r7, r2
    7e1e:	4192      	sbcs	r2, r2
    7e20:	1864      	adds	r4, r4, r1
    7e22:	4252      	negs	r2, r2
    7e24:	18a4      	adds	r4, r4, r2
    7e26:	4666      	mov	r6, ip
    7e28:	e687      	b.n	7b3a <__aeabi_dsub+0x1ca>
    7e2a:	4650      	mov	r0, sl
    7e2c:	4320      	orrs	r0, r4
    7e2e:	1e44      	subs	r4, r0, #1
    7e30:	41a0      	sbcs	r0, r4
    7e32:	2400      	movs	r4, #0
    7e34:	e760      	b.n	7cf8 <__aeabi_dsub+0x388>
    7e36:	4e57      	ldr	r6, [pc, #348]	; (7f94 <__aeabi_dsub+0x624>)
    7e38:	45b4      	cmp	ip, r6
    7e3a:	d04e      	beq.n	7eda <__aeabi_dsub+0x56a>
    7e3c:	2680      	movs	r6, #128	; 0x80
    7e3e:	0436      	lsls	r6, r6, #16
    7e40:	425b      	negs	r3, r3
    7e42:	4334      	orrs	r4, r6
    7e44:	2b38      	cmp	r3, #56	; 0x38
    7e46:	dd00      	ble.n	7e4a <__aeabi_dsub+0x4da>
    7e48:	e07f      	b.n	7f4a <__aeabi_dsub+0x5da>
    7e4a:	2b1f      	cmp	r3, #31
    7e4c:	dd00      	ble.n	7e50 <__aeabi_dsub+0x4e0>
    7e4e:	e08b      	b.n	7f68 <__aeabi_dsub+0x5f8>
    7e50:	2620      	movs	r6, #32
    7e52:	0027      	movs	r7, r4
    7e54:	4650      	mov	r0, sl
    7e56:	1af6      	subs	r6, r6, r3
    7e58:	40b7      	lsls	r7, r6
    7e5a:	40d8      	lsrs	r0, r3
    7e5c:	4307      	orrs	r7, r0
    7e5e:	4650      	mov	r0, sl
    7e60:	40b0      	lsls	r0, r6
    7e62:	1e46      	subs	r6, r0, #1
    7e64:	41b0      	sbcs	r0, r6
    7e66:	4307      	orrs	r7, r0
    7e68:	40dc      	lsrs	r4, r3
    7e6a:	18bf      	adds	r7, r7, r2
    7e6c:	e7d6      	b.n	7e1c <__aeabi_dsub+0x4ac>
    7e6e:	000d      	movs	r5, r1
    7e70:	4315      	orrs	r5, r2
    7e72:	d100      	bne.n	7e76 <__aeabi_dsub+0x506>
    7e74:	e602      	b.n	7a7c <__aeabi_dsub+0x10c>
    7e76:	4650      	mov	r0, sl
    7e78:	1a80      	subs	r0, r0, r2
    7e7a:	4582      	cmp	sl, r0
    7e7c:	41bf      	sbcs	r7, r7
    7e7e:	1a65      	subs	r5, r4, r1
    7e80:	427f      	negs	r7, r7
    7e82:	1bed      	subs	r5, r5, r7
    7e84:	4684      	mov	ip, r0
    7e86:	0228      	lsls	r0, r5, #8
    7e88:	d400      	bmi.n	7e8c <__aeabi_dsub+0x51c>
    7e8a:	e68d      	b.n	7ba8 <__aeabi_dsub+0x238>
    7e8c:	4650      	mov	r0, sl
    7e8e:	1a17      	subs	r7, r2, r0
    7e90:	42ba      	cmp	r2, r7
    7e92:	4192      	sbcs	r2, r2
    7e94:	1b0c      	subs	r4, r1, r4
    7e96:	4252      	negs	r2, r2
    7e98:	1aa4      	subs	r4, r4, r2
    7e9a:	4698      	mov	r8, r3
    7e9c:	e5ee      	b.n	7a7c <__aeabi_dsub+0x10c>
    7e9e:	000d      	movs	r5, r1
    7ea0:	4315      	orrs	r5, r2
    7ea2:	d100      	bne.n	7ea6 <__aeabi_dsub+0x536>
    7ea4:	e76b      	b.n	7d7e <__aeabi_dsub+0x40e>
    7ea6:	4650      	mov	r0, sl
    7ea8:	0767      	lsls	r7, r4, #29
    7eaa:	08c0      	lsrs	r0, r0, #3
    7eac:	4307      	orrs	r7, r0
    7eae:	2080      	movs	r0, #128	; 0x80
    7eb0:	08e4      	lsrs	r4, r4, #3
    7eb2:	0300      	lsls	r0, r0, #12
    7eb4:	4204      	tst	r4, r0
    7eb6:	d007      	beq.n	7ec8 <__aeabi_dsub+0x558>
    7eb8:	08cd      	lsrs	r5, r1, #3
    7eba:	4205      	tst	r5, r0
    7ebc:	d104      	bne.n	7ec8 <__aeabi_dsub+0x558>
    7ebe:	002c      	movs	r4, r5
    7ec0:	4698      	mov	r8, r3
    7ec2:	08d7      	lsrs	r7, r2, #3
    7ec4:	0749      	lsls	r1, r1, #29
    7ec6:	430f      	orrs	r7, r1
    7ec8:	0f7b      	lsrs	r3, r7, #29
    7eca:	00e4      	lsls	r4, r4, #3
    7ecc:	431c      	orrs	r4, r3
    7ece:	00ff      	lsls	r7, r7, #3
    7ed0:	4e30      	ldr	r6, [pc, #192]	; (7f94 <__aeabi_dsub+0x624>)
    7ed2:	e5d3      	b.n	7a7c <__aeabi_dsub+0x10c>
    7ed4:	4e2f      	ldr	r6, [pc, #188]	; (7f94 <__aeabi_dsub+0x624>)
    7ed6:	45b4      	cmp	ip, r6
    7ed8:	d1b4      	bne.n	7e44 <__aeabi_dsub+0x4d4>
    7eda:	000c      	movs	r4, r1
    7edc:	0017      	movs	r7, r2
    7ede:	4666      	mov	r6, ip
    7ee0:	e5cc      	b.n	7a7c <__aeabi_dsub+0x10c>
    7ee2:	2700      	movs	r7, #0
    7ee4:	2400      	movs	r4, #0
    7ee6:	e5e8      	b.n	7aba <__aeabi_dsub+0x14a>
    7ee8:	2b00      	cmp	r3, #0
    7eea:	d039      	beq.n	7f60 <__aeabi_dsub+0x5f0>
    7eec:	000b      	movs	r3, r1
    7eee:	4313      	orrs	r3, r2
    7ef0:	d100      	bne.n	7ef4 <__aeabi_dsub+0x584>
    7ef2:	e744      	b.n	7d7e <__aeabi_dsub+0x40e>
    7ef4:	08c0      	lsrs	r0, r0, #3
    7ef6:	0767      	lsls	r7, r4, #29
    7ef8:	4307      	orrs	r7, r0
    7efa:	2080      	movs	r0, #128	; 0x80
    7efc:	08e4      	lsrs	r4, r4, #3
    7efe:	0300      	lsls	r0, r0, #12
    7f00:	4204      	tst	r4, r0
    7f02:	d0e1      	beq.n	7ec8 <__aeabi_dsub+0x558>
    7f04:	08cb      	lsrs	r3, r1, #3
    7f06:	4203      	tst	r3, r0
    7f08:	d1de      	bne.n	7ec8 <__aeabi_dsub+0x558>
    7f0a:	08d7      	lsrs	r7, r2, #3
    7f0c:	0749      	lsls	r1, r1, #29
    7f0e:	430f      	orrs	r7, r1
    7f10:	001c      	movs	r4, r3
    7f12:	e7d9      	b.n	7ec8 <__aeabi_dsub+0x558>
    7f14:	2100      	movs	r1, #0
    7f16:	e771      	b.n	7dfc <__aeabi_dsub+0x48c>
    7f18:	2500      	movs	r5, #0
    7f1a:	2700      	movs	r7, #0
    7f1c:	e5e9      	b.n	7af2 <__aeabi_dsub+0x182>
    7f1e:	002e      	movs	r6, r5
    7f20:	0027      	movs	r7, r4
    7f22:	3e20      	subs	r6, #32
    7f24:	40f7      	lsrs	r7, r6
    7f26:	2d20      	cmp	r5, #32
    7f28:	d02f      	beq.n	7f8a <__aeabi_dsub+0x61a>
    7f2a:	2640      	movs	r6, #64	; 0x40
    7f2c:	1b75      	subs	r5, r6, r5
    7f2e:	40ac      	lsls	r4, r5
    7f30:	4650      	mov	r0, sl
    7f32:	4320      	orrs	r0, r4
    7f34:	1e44      	subs	r4, r0, #1
    7f36:	41a0      	sbcs	r0, r4
    7f38:	2400      	movs	r4, #0
    7f3a:	4338      	orrs	r0, r7
    7f3c:	e6dc      	b.n	7cf8 <__aeabi_dsub+0x388>
    7f3e:	2480      	movs	r4, #128	; 0x80
    7f40:	2500      	movs	r5, #0
    7f42:	0324      	lsls	r4, r4, #12
    7f44:	4e13      	ldr	r6, [pc, #76]	; (7f94 <__aeabi_dsub+0x624>)
    7f46:	2700      	movs	r7, #0
    7f48:	e5d3      	b.n	7af2 <__aeabi_dsub+0x182>
    7f4a:	4650      	mov	r0, sl
    7f4c:	4320      	orrs	r0, r4
    7f4e:	0007      	movs	r7, r0
    7f50:	1e78      	subs	r0, r7, #1
    7f52:	4187      	sbcs	r7, r0
    7f54:	2400      	movs	r4, #0
    7f56:	18bf      	adds	r7, r7, r2
    7f58:	e760      	b.n	7e1c <__aeabi_dsub+0x4ac>
    7f5a:	000c      	movs	r4, r1
    7f5c:	0017      	movs	r7, r2
    7f5e:	e58d      	b.n	7a7c <__aeabi_dsub+0x10c>
    7f60:	000c      	movs	r4, r1
    7f62:	0017      	movs	r7, r2
    7f64:	4e0b      	ldr	r6, [pc, #44]	; (7f94 <__aeabi_dsub+0x624>)
    7f66:	e589      	b.n	7a7c <__aeabi_dsub+0x10c>
    7f68:	001e      	movs	r6, r3
    7f6a:	0027      	movs	r7, r4
    7f6c:	3e20      	subs	r6, #32
    7f6e:	40f7      	lsrs	r7, r6
    7f70:	2b20      	cmp	r3, #32
    7f72:	d00c      	beq.n	7f8e <__aeabi_dsub+0x61e>
    7f74:	2640      	movs	r6, #64	; 0x40
    7f76:	1af3      	subs	r3, r6, r3
    7f78:	409c      	lsls	r4, r3
    7f7a:	4650      	mov	r0, sl
    7f7c:	4320      	orrs	r0, r4
    7f7e:	1e44      	subs	r4, r0, #1
    7f80:	41a0      	sbcs	r0, r4
    7f82:	4307      	orrs	r7, r0
    7f84:	2400      	movs	r4, #0
    7f86:	18bf      	adds	r7, r7, r2
    7f88:	e748      	b.n	7e1c <__aeabi_dsub+0x4ac>
    7f8a:	2400      	movs	r4, #0
    7f8c:	e7d0      	b.n	7f30 <__aeabi_dsub+0x5c0>
    7f8e:	2400      	movs	r4, #0
    7f90:	e7f3      	b.n	7f7a <__aeabi_dsub+0x60a>
    7f92:	46c0      	nop			; (mov r8, r8)
    7f94:	000007ff 	.word	0x000007ff
    7f98:	ff7fffff 	.word	0xff7fffff

00007f9c <__aeabi_d2iz>:
    7f9c:	b530      	push	{r4, r5, lr}
    7f9e:	4d13      	ldr	r5, [pc, #76]	; (7fec <__aeabi_d2iz+0x50>)
    7fa0:	030a      	lsls	r2, r1, #12
    7fa2:	004b      	lsls	r3, r1, #1
    7fa4:	0b12      	lsrs	r2, r2, #12
    7fa6:	0d5b      	lsrs	r3, r3, #21
    7fa8:	0fc9      	lsrs	r1, r1, #31
    7faa:	2400      	movs	r4, #0
    7fac:	42ab      	cmp	r3, r5
    7fae:	dd10      	ble.n	7fd2 <__aeabi_d2iz+0x36>
    7fb0:	4c0f      	ldr	r4, [pc, #60]	; (7ff0 <__aeabi_d2iz+0x54>)
    7fb2:	42a3      	cmp	r3, r4
    7fb4:	dc0f      	bgt.n	7fd6 <__aeabi_d2iz+0x3a>
    7fb6:	2480      	movs	r4, #128	; 0x80
    7fb8:	4d0e      	ldr	r5, [pc, #56]	; (7ff4 <__aeabi_d2iz+0x58>)
    7fba:	0364      	lsls	r4, r4, #13
    7fbc:	4322      	orrs	r2, r4
    7fbe:	1aed      	subs	r5, r5, r3
    7fc0:	2d1f      	cmp	r5, #31
    7fc2:	dd0b      	ble.n	7fdc <__aeabi_d2iz+0x40>
    7fc4:	480c      	ldr	r0, [pc, #48]	; (7ff8 <__aeabi_d2iz+0x5c>)
    7fc6:	1ac3      	subs	r3, r0, r3
    7fc8:	40da      	lsrs	r2, r3
    7fca:	4254      	negs	r4, r2
    7fcc:	2900      	cmp	r1, #0
    7fce:	d100      	bne.n	7fd2 <__aeabi_d2iz+0x36>
    7fd0:	0014      	movs	r4, r2
    7fd2:	0020      	movs	r0, r4
    7fd4:	bd30      	pop	{r4, r5, pc}
    7fd6:	4b09      	ldr	r3, [pc, #36]	; (7ffc <__aeabi_d2iz+0x60>)
    7fd8:	18cc      	adds	r4, r1, r3
    7fda:	e7fa      	b.n	7fd2 <__aeabi_d2iz+0x36>
    7fdc:	4c08      	ldr	r4, [pc, #32]	; (8000 <__aeabi_d2iz+0x64>)
    7fde:	40e8      	lsrs	r0, r5
    7fe0:	46a4      	mov	ip, r4
    7fe2:	4463      	add	r3, ip
    7fe4:	409a      	lsls	r2, r3
    7fe6:	4302      	orrs	r2, r0
    7fe8:	e7ef      	b.n	7fca <__aeabi_d2iz+0x2e>
    7fea:	46c0      	nop			; (mov r8, r8)
    7fec:	000003fe 	.word	0x000003fe
    7ff0:	0000041d 	.word	0x0000041d
    7ff4:	00000433 	.word	0x00000433
    7ff8:	00000413 	.word	0x00000413
    7ffc:	7fffffff 	.word	0x7fffffff
    8000:	fffffbed 	.word	0xfffffbed

00008004 <__aeabi_i2d>:
    8004:	b570      	push	{r4, r5, r6, lr}
    8006:	2800      	cmp	r0, #0
    8008:	d030      	beq.n	806c <__aeabi_i2d+0x68>
    800a:	17c3      	asrs	r3, r0, #31
    800c:	18c4      	adds	r4, r0, r3
    800e:	405c      	eors	r4, r3
    8010:	0fc5      	lsrs	r5, r0, #31
    8012:	0020      	movs	r0, r4
    8014:	f000 f94c 	bl	82b0 <__clzsi2>
    8018:	4b17      	ldr	r3, [pc, #92]	; (8078 <__aeabi_i2d+0x74>)
    801a:	4a18      	ldr	r2, [pc, #96]	; (807c <__aeabi_i2d+0x78>)
    801c:	1a1b      	subs	r3, r3, r0
    801e:	1ad2      	subs	r2, r2, r3
    8020:	2a1f      	cmp	r2, #31
    8022:	dd18      	ble.n	8056 <__aeabi_i2d+0x52>
    8024:	4a16      	ldr	r2, [pc, #88]	; (8080 <__aeabi_i2d+0x7c>)
    8026:	1ad2      	subs	r2, r2, r3
    8028:	4094      	lsls	r4, r2
    802a:	2200      	movs	r2, #0
    802c:	0324      	lsls	r4, r4, #12
    802e:	055b      	lsls	r3, r3, #21
    8030:	0b24      	lsrs	r4, r4, #12
    8032:	0d5b      	lsrs	r3, r3, #21
    8034:	2100      	movs	r1, #0
    8036:	0010      	movs	r0, r2
    8038:	0324      	lsls	r4, r4, #12
    803a:	0d0a      	lsrs	r2, r1, #20
    803c:	0b24      	lsrs	r4, r4, #12
    803e:	0512      	lsls	r2, r2, #20
    8040:	4322      	orrs	r2, r4
    8042:	4c10      	ldr	r4, [pc, #64]	; (8084 <__aeabi_i2d+0x80>)
    8044:	051b      	lsls	r3, r3, #20
    8046:	4022      	ands	r2, r4
    8048:	4313      	orrs	r3, r2
    804a:	005b      	lsls	r3, r3, #1
    804c:	07ed      	lsls	r5, r5, #31
    804e:	085b      	lsrs	r3, r3, #1
    8050:	432b      	orrs	r3, r5
    8052:	0019      	movs	r1, r3
    8054:	bd70      	pop	{r4, r5, r6, pc}
    8056:	0021      	movs	r1, r4
    8058:	4091      	lsls	r1, r2
    805a:	000a      	movs	r2, r1
    805c:	210b      	movs	r1, #11
    805e:	1a08      	subs	r0, r1, r0
    8060:	40c4      	lsrs	r4, r0
    8062:	055b      	lsls	r3, r3, #21
    8064:	0324      	lsls	r4, r4, #12
    8066:	0b24      	lsrs	r4, r4, #12
    8068:	0d5b      	lsrs	r3, r3, #21
    806a:	e7e3      	b.n	8034 <__aeabi_i2d+0x30>
    806c:	2500      	movs	r5, #0
    806e:	2300      	movs	r3, #0
    8070:	2400      	movs	r4, #0
    8072:	2200      	movs	r2, #0
    8074:	e7de      	b.n	8034 <__aeabi_i2d+0x30>
    8076:	46c0      	nop			; (mov r8, r8)
    8078:	0000041e 	.word	0x0000041e
    807c:	00000433 	.word	0x00000433
    8080:	00000413 	.word	0x00000413
    8084:	800fffff 	.word	0x800fffff

00008088 <__aeabi_ui2d>:
    8088:	b510      	push	{r4, lr}
    808a:	1e04      	subs	r4, r0, #0
    808c:	d028      	beq.n	80e0 <__aeabi_ui2d+0x58>
    808e:	f000 f90f 	bl	82b0 <__clzsi2>
    8092:	4b15      	ldr	r3, [pc, #84]	; (80e8 <__aeabi_ui2d+0x60>)
    8094:	4a15      	ldr	r2, [pc, #84]	; (80ec <__aeabi_ui2d+0x64>)
    8096:	1a1b      	subs	r3, r3, r0
    8098:	1ad2      	subs	r2, r2, r3
    809a:	2a1f      	cmp	r2, #31
    809c:	dd15      	ble.n	80ca <__aeabi_ui2d+0x42>
    809e:	4a14      	ldr	r2, [pc, #80]	; (80f0 <__aeabi_ui2d+0x68>)
    80a0:	1ad2      	subs	r2, r2, r3
    80a2:	4094      	lsls	r4, r2
    80a4:	2200      	movs	r2, #0
    80a6:	0324      	lsls	r4, r4, #12
    80a8:	055b      	lsls	r3, r3, #21
    80aa:	0b24      	lsrs	r4, r4, #12
    80ac:	0d5b      	lsrs	r3, r3, #21
    80ae:	2100      	movs	r1, #0
    80b0:	0010      	movs	r0, r2
    80b2:	0324      	lsls	r4, r4, #12
    80b4:	0d0a      	lsrs	r2, r1, #20
    80b6:	0b24      	lsrs	r4, r4, #12
    80b8:	0512      	lsls	r2, r2, #20
    80ba:	4322      	orrs	r2, r4
    80bc:	4c0d      	ldr	r4, [pc, #52]	; (80f4 <__aeabi_ui2d+0x6c>)
    80be:	051b      	lsls	r3, r3, #20
    80c0:	4022      	ands	r2, r4
    80c2:	4313      	orrs	r3, r2
    80c4:	005b      	lsls	r3, r3, #1
    80c6:	0859      	lsrs	r1, r3, #1
    80c8:	bd10      	pop	{r4, pc}
    80ca:	0021      	movs	r1, r4
    80cc:	4091      	lsls	r1, r2
    80ce:	000a      	movs	r2, r1
    80d0:	210b      	movs	r1, #11
    80d2:	1a08      	subs	r0, r1, r0
    80d4:	40c4      	lsrs	r4, r0
    80d6:	055b      	lsls	r3, r3, #21
    80d8:	0324      	lsls	r4, r4, #12
    80da:	0b24      	lsrs	r4, r4, #12
    80dc:	0d5b      	lsrs	r3, r3, #21
    80de:	e7e6      	b.n	80ae <__aeabi_ui2d+0x26>
    80e0:	2300      	movs	r3, #0
    80e2:	2400      	movs	r4, #0
    80e4:	2200      	movs	r2, #0
    80e6:	e7e2      	b.n	80ae <__aeabi_ui2d+0x26>
    80e8:	0000041e 	.word	0x0000041e
    80ec:	00000433 	.word	0x00000433
    80f0:	00000413 	.word	0x00000413
    80f4:	800fffff 	.word	0x800fffff

000080f8 <__aeabi_f2d>:
    80f8:	0041      	lsls	r1, r0, #1
    80fa:	0e09      	lsrs	r1, r1, #24
    80fc:	1c4b      	adds	r3, r1, #1
    80fe:	b570      	push	{r4, r5, r6, lr}
    8100:	b2db      	uxtb	r3, r3
    8102:	0246      	lsls	r6, r0, #9
    8104:	0a75      	lsrs	r5, r6, #9
    8106:	0fc4      	lsrs	r4, r0, #31
    8108:	2b01      	cmp	r3, #1
    810a:	dd14      	ble.n	8136 <__aeabi_f2d+0x3e>
    810c:	23e0      	movs	r3, #224	; 0xe0
    810e:	009b      	lsls	r3, r3, #2
    8110:	076d      	lsls	r5, r5, #29
    8112:	0b36      	lsrs	r6, r6, #12
    8114:	18cb      	adds	r3, r1, r3
    8116:	2100      	movs	r1, #0
    8118:	0d0a      	lsrs	r2, r1, #20
    811a:	0028      	movs	r0, r5
    811c:	0512      	lsls	r2, r2, #20
    811e:	4d1c      	ldr	r5, [pc, #112]	; (8190 <__aeabi_f2d+0x98>)
    8120:	4332      	orrs	r2, r6
    8122:	055b      	lsls	r3, r3, #21
    8124:	402a      	ands	r2, r5
    8126:	085b      	lsrs	r3, r3, #1
    8128:	4313      	orrs	r3, r2
    812a:	005b      	lsls	r3, r3, #1
    812c:	07e4      	lsls	r4, r4, #31
    812e:	085b      	lsrs	r3, r3, #1
    8130:	4323      	orrs	r3, r4
    8132:	0019      	movs	r1, r3
    8134:	bd70      	pop	{r4, r5, r6, pc}
    8136:	2900      	cmp	r1, #0
    8138:	d114      	bne.n	8164 <__aeabi_f2d+0x6c>
    813a:	2d00      	cmp	r5, #0
    813c:	d01e      	beq.n	817c <__aeabi_f2d+0x84>
    813e:	0028      	movs	r0, r5
    8140:	f000 f8b6 	bl	82b0 <__clzsi2>
    8144:	280a      	cmp	r0, #10
    8146:	dc1c      	bgt.n	8182 <__aeabi_f2d+0x8a>
    8148:	230b      	movs	r3, #11
    814a:	002a      	movs	r2, r5
    814c:	1a1b      	subs	r3, r3, r0
    814e:	40da      	lsrs	r2, r3
    8150:	0003      	movs	r3, r0
    8152:	3315      	adds	r3, #21
    8154:	409d      	lsls	r5, r3
    8156:	4b0f      	ldr	r3, [pc, #60]	; (8194 <__aeabi_f2d+0x9c>)
    8158:	0312      	lsls	r2, r2, #12
    815a:	1a1b      	subs	r3, r3, r0
    815c:	055b      	lsls	r3, r3, #21
    815e:	0b16      	lsrs	r6, r2, #12
    8160:	0d5b      	lsrs	r3, r3, #21
    8162:	e7d8      	b.n	8116 <__aeabi_f2d+0x1e>
    8164:	2d00      	cmp	r5, #0
    8166:	d006      	beq.n	8176 <__aeabi_f2d+0x7e>
    8168:	0b32      	lsrs	r2, r6, #12
    816a:	2680      	movs	r6, #128	; 0x80
    816c:	0336      	lsls	r6, r6, #12
    816e:	076d      	lsls	r5, r5, #29
    8170:	4316      	orrs	r6, r2
    8172:	4b09      	ldr	r3, [pc, #36]	; (8198 <__aeabi_f2d+0xa0>)
    8174:	e7cf      	b.n	8116 <__aeabi_f2d+0x1e>
    8176:	4b08      	ldr	r3, [pc, #32]	; (8198 <__aeabi_f2d+0xa0>)
    8178:	2600      	movs	r6, #0
    817a:	e7cc      	b.n	8116 <__aeabi_f2d+0x1e>
    817c:	2300      	movs	r3, #0
    817e:	2600      	movs	r6, #0
    8180:	e7c9      	b.n	8116 <__aeabi_f2d+0x1e>
    8182:	0003      	movs	r3, r0
    8184:	002a      	movs	r2, r5
    8186:	3b0b      	subs	r3, #11
    8188:	409a      	lsls	r2, r3
    818a:	2500      	movs	r5, #0
    818c:	e7e3      	b.n	8156 <__aeabi_f2d+0x5e>
    818e:	46c0      	nop			; (mov r8, r8)
    8190:	800fffff 	.word	0x800fffff
    8194:	00000389 	.word	0x00000389
    8198:	000007ff 	.word	0x000007ff

0000819c <__aeabi_d2f>:
    819c:	b5f0      	push	{r4, r5, r6, r7, lr}
    819e:	004c      	lsls	r4, r1, #1
    81a0:	0d64      	lsrs	r4, r4, #21
    81a2:	030b      	lsls	r3, r1, #12
    81a4:	1c62      	adds	r2, r4, #1
    81a6:	0f45      	lsrs	r5, r0, #29
    81a8:	0a5b      	lsrs	r3, r3, #9
    81aa:	0552      	lsls	r2, r2, #21
    81ac:	432b      	orrs	r3, r5
    81ae:	0fc9      	lsrs	r1, r1, #31
    81b0:	00c5      	lsls	r5, r0, #3
    81b2:	0d52      	lsrs	r2, r2, #21
    81b4:	2a01      	cmp	r2, #1
    81b6:	dd28      	ble.n	820a <__aeabi_d2f+0x6e>
    81b8:	4a3a      	ldr	r2, [pc, #232]	; (82a4 <__aeabi_d2f+0x108>)
    81ba:	18a6      	adds	r6, r4, r2
    81bc:	2efe      	cmp	r6, #254	; 0xfe
    81be:	dc1b      	bgt.n	81f8 <__aeabi_d2f+0x5c>
    81c0:	2e00      	cmp	r6, #0
    81c2:	dd3e      	ble.n	8242 <__aeabi_d2f+0xa6>
    81c4:	0180      	lsls	r0, r0, #6
    81c6:	0002      	movs	r2, r0
    81c8:	1e50      	subs	r0, r2, #1
    81ca:	4182      	sbcs	r2, r0
    81cc:	0f6d      	lsrs	r5, r5, #29
    81ce:	432a      	orrs	r2, r5
    81d0:	00db      	lsls	r3, r3, #3
    81d2:	4313      	orrs	r3, r2
    81d4:	075a      	lsls	r2, r3, #29
    81d6:	d004      	beq.n	81e2 <__aeabi_d2f+0x46>
    81d8:	220f      	movs	r2, #15
    81da:	401a      	ands	r2, r3
    81dc:	2a04      	cmp	r2, #4
    81de:	d000      	beq.n	81e2 <__aeabi_d2f+0x46>
    81e0:	3304      	adds	r3, #4
    81e2:	2280      	movs	r2, #128	; 0x80
    81e4:	04d2      	lsls	r2, r2, #19
    81e6:	401a      	ands	r2, r3
    81e8:	d05a      	beq.n	82a0 <__aeabi_d2f+0x104>
    81ea:	3601      	adds	r6, #1
    81ec:	2eff      	cmp	r6, #255	; 0xff
    81ee:	d003      	beq.n	81f8 <__aeabi_d2f+0x5c>
    81f0:	019b      	lsls	r3, r3, #6
    81f2:	0a5b      	lsrs	r3, r3, #9
    81f4:	b2f4      	uxtb	r4, r6
    81f6:	e001      	b.n	81fc <__aeabi_d2f+0x60>
    81f8:	24ff      	movs	r4, #255	; 0xff
    81fa:	2300      	movs	r3, #0
    81fc:	0258      	lsls	r0, r3, #9
    81fe:	05e4      	lsls	r4, r4, #23
    8200:	0a40      	lsrs	r0, r0, #9
    8202:	07c9      	lsls	r1, r1, #31
    8204:	4320      	orrs	r0, r4
    8206:	4308      	orrs	r0, r1
    8208:	bdf0      	pop	{r4, r5, r6, r7, pc}
    820a:	2c00      	cmp	r4, #0
    820c:	d007      	beq.n	821e <__aeabi_d2f+0x82>
    820e:	431d      	orrs	r5, r3
    8210:	d0f2      	beq.n	81f8 <__aeabi_d2f+0x5c>
    8212:	2080      	movs	r0, #128	; 0x80
    8214:	00db      	lsls	r3, r3, #3
    8216:	0480      	lsls	r0, r0, #18
    8218:	4303      	orrs	r3, r0
    821a:	26ff      	movs	r6, #255	; 0xff
    821c:	e7da      	b.n	81d4 <__aeabi_d2f+0x38>
    821e:	432b      	orrs	r3, r5
    8220:	d003      	beq.n	822a <__aeabi_d2f+0x8e>
    8222:	2305      	movs	r3, #5
    8224:	08db      	lsrs	r3, r3, #3
    8226:	2cff      	cmp	r4, #255	; 0xff
    8228:	d003      	beq.n	8232 <__aeabi_d2f+0x96>
    822a:	025b      	lsls	r3, r3, #9
    822c:	0a5b      	lsrs	r3, r3, #9
    822e:	b2e4      	uxtb	r4, r4
    8230:	e7e4      	b.n	81fc <__aeabi_d2f+0x60>
    8232:	2b00      	cmp	r3, #0
    8234:	d032      	beq.n	829c <__aeabi_d2f+0x100>
    8236:	2080      	movs	r0, #128	; 0x80
    8238:	03c0      	lsls	r0, r0, #15
    823a:	4303      	orrs	r3, r0
    823c:	025b      	lsls	r3, r3, #9
    823e:	0a5b      	lsrs	r3, r3, #9
    8240:	e7dc      	b.n	81fc <__aeabi_d2f+0x60>
    8242:	0032      	movs	r2, r6
    8244:	3217      	adds	r2, #23
    8246:	db14      	blt.n	8272 <__aeabi_d2f+0xd6>
    8248:	2280      	movs	r2, #128	; 0x80
    824a:	271e      	movs	r7, #30
    824c:	0412      	lsls	r2, r2, #16
    824e:	4313      	orrs	r3, r2
    8250:	1bbf      	subs	r7, r7, r6
    8252:	2f1f      	cmp	r7, #31
    8254:	dc0f      	bgt.n	8276 <__aeabi_d2f+0xda>
    8256:	4a14      	ldr	r2, [pc, #80]	; (82a8 <__aeabi_d2f+0x10c>)
    8258:	4694      	mov	ip, r2
    825a:	4464      	add	r4, ip
    825c:	002a      	movs	r2, r5
    825e:	40a5      	lsls	r5, r4
    8260:	002e      	movs	r6, r5
    8262:	40a3      	lsls	r3, r4
    8264:	1e75      	subs	r5, r6, #1
    8266:	41ae      	sbcs	r6, r5
    8268:	40fa      	lsrs	r2, r7
    826a:	4333      	orrs	r3, r6
    826c:	4313      	orrs	r3, r2
    826e:	2600      	movs	r6, #0
    8270:	e7b0      	b.n	81d4 <__aeabi_d2f+0x38>
    8272:	2400      	movs	r4, #0
    8274:	e7d5      	b.n	8222 <__aeabi_d2f+0x86>
    8276:	2202      	movs	r2, #2
    8278:	4252      	negs	r2, r2
    827a:	1b96      	subs	r6, r2, r6
    827c:	001a      	movs	r2, r3
    827e:	40f2      	lsrs	r2, r6
    8280:	2f20      	cmp	r7, #32
    8282:	d009      	beq.n	8298 <__aeabi_d2f+0xfc>
    8284:	4809      	ldr	r0, [pc, #36]	; (82ac <__aeabi_d2f+0x110>)
    8286:	4684      	mov	ip, r0
    8288:	4464      	add	r4, ip
    828a:	40a3      	lsls	r3, r4
    828c:	432b      	orrs	r3, r5
    828e:	1e5d      	subs	r5, r3, #1
    8290:	41ab      	sbcs	r3, r5
    8292:	2600      	movs	r6, #0
    8294:	4313      	orrs	r3, r2
    8296:	e79d      	b.n	81d4 <__aeabi_d2f+0x38>
    8298:	2300      	movs	r3, #0
    829a:	e7f7      	b.n	828c <__aeabi_d2f+0xf0>
    829c:	2300      	movs	r3, #0
    829e:	e7ad      	b.n	81fc <__aeabi_d2f+0x60>
    82a0:	0034      	movs	r4, r6
    82a2:	e7bf      	b.n	8224 <__aeabi_d2f+0x88>
    82a4:	fffffc80 	.word	0xfffffc80
    82a8:	fffffc82 	.word	0xfffffc82
    82ac:	fffffca2 	.word	0xfffffca2

000082b0 <__clzsi2>:
    82b0:	211c      	movs	r1, #28
    82b2:	2301      	movs	r3, #1
    82b4:	041b      	lsls	r3, r3, #16
    82b6:	4298      	cmp	r0, r3
    82b8:	d301      	bcc.n	82be <__clzsi2+0xe>
    82ba:	0c00      	lsrs	r0, r0, #16
    82bc:	3910      	subs	r1, #16
    82be:	0a1b      	lsrs	r3, r3, #8
    82c0:	4298      	cmp	r0, r3
    82c2:	d301      	bcc.n	82c8 <__clzsi2+0x18>
    82c4:	0a00      	lsrs	r0, r0, #8
    82c6:	3908      	subs	r1, #8
    82c8:	091b      	lsrs	r3, r3, #4
    82ca:	4298      	cmp	r0, r3
    82cc:	d301      	bcc.n	82d2 <__clzsi2+0x22>
    82ce:	0900      	lsrs	r0, r0, #4
    82d0:	3904      	subs	r1, #4
    82d2:	a202      	add	r2, pc, #8	; (adr r2, 82dc <__clzsi2+0x2c>)
    82d4:	5c10      	ldrb	r0, [r2, r0]
    82d6:	1840      	adds	r0, r0, r1
    82d8:	4770      	bx	lr
    82da:	46c0      	nop			; (mov r8, r8)
    82dc:	02020304 	.word	0x02020304
    82e0:	01010101 	.word	0x01010101
	...

000082ec <__clzdi2>:
    82ec:	b510      	push	{r4, lr}
    82ee:	2900      	cmp	r1, #0
    82f0:	d103      	bne.n	82fa <__clzdi2+0xe>
    82f2:	f7ff ffdd 	bl	82b0 <__clzsi2>
    82f6:	3020      	adds	r0, #32
    82f8:	e002      	b.n	8300 <__clzdi2+0x14>
    82fa:	1c08      	adds	r0, r1, #0
    82fc:	f7ff ffd8 	bl	82b0 <__clzsi2>
    8300:	bd10      	pop	{r4, pc}
    8302:	46c0      	nop			; (mov r8, r8)

00008304 <__libc_init_array>:
    8304:	b570      	push	{r4, r5, r6, lr}
    8306:	2600      	movs	r6, #0
    8308:	4d0c      	ldr	r5, [pc, #48]	; (833c <__libc_init_array+0x38>)
    830a:	4c0d      	ldr	r4, [pc, #52]	; (8340 <__libc_init_array+0x3c>)
    830c:	1b64      	subs	r4, r4, r5
    830e:	10a4      	asrs	r4, r4, #2
    8310:	42a6      	cmp	r6, r4
    8312:	d109      	bne.n	8328 <__libc_init_array+0x24>
    8314:	2600      	movs	r6, #0
    8316:	f000 fe6f 	bl	8ff8 <_init>
    831a:	4d0a      	ldr	r5, [pc, #40]	; (8344 <__libc_init_array+0x40>)
    831c:	4c0a      	ldr	r4, [pc, #40]	; (8348 <__libc_init_array+0x44>)
    831e:	1b64      	subs	r4, r4, r5
    8320:	10a4      	asrs	r4, r4, #2
    8322:	42a6      	cmp	r6, r4
    8324:	d105      	bne.n	8332 <__libc_init_array+0x2e>
    8326:	bd70      	pop	{r4, r5, r6, pc}
    8328:	00b3      	lsls	r3, r6, #2
    832a:	58eb      	ldr	r3, [r5, r3]
    832c:	4798      	blx	r3
    832e:	3601      	adds	r6, #1
    8330:	e7ee      	b.n	8310 <__libc_init_array+0xc>
    8332:	00b3      	lsls	r3, r6, #2
    8334:	58eb      	ldr	r3, [r5, r3]
    8336:	4798      	blx	r3
    8338:	3601      	adds	r6, #1
    833a:	e7f2      	b.n	8322 <__libc_init_array+0x1e>
    833c:	00009004 	.word	0x00009004
    8340:	00009004 	.word	0x00009004
    8344:	00009004 	.word	0x00009004
    8348:	00009008 	.word	0x00009008

0000834c <memcpy>:
    834c:	2300      	movs	r3, #0
    834e:	b510      	push	{r4, lr}
    8350:	429a      	cmp	r2, r3
    8352:	d100      	bne.n	8356 <memcpy+0xa>
    8354:	bd10      	pop	{r4, pc}
    8356:	5ccc      	ldrb	r4, [r1, r3]
    8358:	54c4      	strb	r4, [r0, r3]
    835a:	3301      	adds	r3, #1
    835c:	e7f8      	b.n	8350 <memcpy+0x4>

0000835e <memset>:
    835e:	0003      	movs	r3, r0
    8360:	1882      	adds	r2, r0, r2
    8362:	4293      	cmp	r3, r2
    8364:	d100      	bne.n	8368 <memset+0xa>
    8366:	4770      	bx	lr
    8368:	7019      	strb	r1, [r3, #0]
    836a:	3301      	adds	r3, #1
    836c:	e7f9      	b.n	8362 <memset+0x4>
	...

00008370 <sniprintf>:
    8370:	b40c      	push	{r2, r3}
    8372:	b530      	push	{r4, r5, lr}
    8374:	4b16      	ldr	r3, [pc, #88]	; (83d0 <sniprintf+0x60>)
    8376:	b09d      	sub	sp, #116	; 0x74
    8378:	1e0c      	subs	r4, r1, #0
    837a:	681d      	ldr	r5, [r3, #0]
    837c:	da08      	bge.n	8390 <sniprintf+0x20>
    837e:	238b      	movs	r3, #139	; 0x8b
    8380:	2001      	movs	r0, #1
    8382:	602b      	str	r3, [r5, #0]
    8384:	4240      	negs	r0, r0
    8386:	b01d      	add	sp, #116	; 0x74
    8388:	bc30      	pop	{r4, r5}
    838a:	bc08      	pop	{r3}
    838c:	b002      	add	sp, #8
    838e:	4718      	bx	r3
    8390:	2382      	movs	r3, #130	; 0x82
    8392:	a902      	add	r1, sp, #8
    8394:	009b      	lsls	r3, r3, #2
    8396:	818b      	strh	r3, [r1, #12]
    8398:	2300      	movs	r3, #0
    839a:	9002      	str	r0, [sp, #8]
    839c:	6108      	str	r0, [r1, #16]
    839e:	429c      	cmp	r4, r3
    83a0:	d000      	beq.n	83a4 <sniprintf+0x34>
    83a2:	1e63      	subs	r3, r4, #1
    83a4:	608b      	str	r3, [r1, #8]
    83a6:	614b      	str	r3, [r1, #20]
    83a8:	2301      	movs	r3, #1
    83aa:	425b      	negs	r3, r3
    83ac:	81cb      	strh	r3, [r1, #14]
    83ae:	9a20      	ldr	r2, [sp, #128]	; 0x80
    83b0:	ab21      	add	r3, sp, #132	; 0x84
    83b2:	0028      	movs	r0, r5
    83b4:	9301      	str	r3, [sp, #4]
    83b6:	f000 f899 	bl	84ec <_svfiprintf_r>
    83ba:	1c43      	adds	r3, r0, #1
    83bc:	da01      	bge.n	83c2 <sniprintf+0x52>
    83be:	238b      	movs	r3, #139	; 0x8b
    83c0:	602b      	str	r3, [r5, #0]
    83c2:	2c00      	cmp	r4, #0
    83c4:	d0df      	beq.n	8386 <sniprintf+0x16>
    83c6:	2300      	movs	r3, #0
    83c8:	9a02      	ldr	r2, [sp, #8]
    83ca:	7013      	strb	r3, [r2, #0]
    83cc:	e7db      	b.n	8386 <sniprintf+0x16>
    83ce:	46c0      	nop			; (mov r8, r8)
    83d0:	2000001c 	.word	0x2000001c

000083d4 <siprintf>:
    83d4:	b40e      	push	{r1, r2, r3}
    83d6:	b510      	push	{r4, lr}
    83d8:	b09d      	sub	sp, #116	; 0x74
    83da:	a902      	add	r1, sp, #8
    83dc:	9002      	str	r0, [sp, #8]
    83de:	6108      	str	r0, [r1, #16]
    83e0:	480b      	ldr	r0, [pc, #44]	; (8410 <siprintf+0x3c>)
    83e2:	2482      	movs	r4, #130	; 0x82
    83e4:	6088      	str	r0, [r1, #8]
    83e6:	6148      	str	r0, [r1, #20]
    83e8:	2001      	movs	r0, #1
    83ea:	4240      	negs	r0, r0
    83ec:	ab1f      	add	r3, sp, #124	; 0x7c
    83ee:	81c8      	strh	r0, [r1, #14]
    83f0:	4808      	ldr	r0, [pc, #32]	; (8414 <siprintf+0x40>)
    83f2:	cb04      	ldmia	r3!, {r2}
    83f4:	00a4      	lsls	r4, r4, #2
    83f6:	6800      	ldr	r0, [r0, #0]
    83f8:	9301      	str	r3, [sp, #4]
    83fa:	818c      	strh	r4, [r1, #12]
    83fc:	f000 f876 	bl	84ec <_svfiprintf_r>
    8400:	2300      	movs	r3, #0
    8402:	9a02      	ldr	r2, [sp, #8]
    8404:	7013      	strb	r3, [r2, #0]
    8406:	b01d      	add	sp, #116	; 0x74
    8408:	bc10      	pop	{r4}
    840a:	bc08      	pop	{r3}
    840c:	b003      	add	sp, #12
    840e:	4718      	bx	r3
    8410:	7fffffff 	.word	0x7fffffff
    8414:	2000001c 	.word	0x2000001c

00008418 <strcpy>:
    8418:	1c03      	adds	r3, r0, #0
    841a:	780a      	ldrb	r2, [r1, #0]
    841c:	3101      	adds	r1, #1
    841e:	701a      	strb	r2, [r3, #0]
    8420:	3301      	adds	r3, #1
    8422:	2a00      	cmp	r2, #0
    8424:	d1f9      	bne.n	841a <strcpy+0x2>
    8426:	4770      	bx	lr

00008428 <__ssputs_r>:
    8428:	b5f0      	push	{r4, r5, r6, r7, lr}
    842a:	688e      	ldr	r6, [r1, #8]
    842c:	b085      	sub	sp, #20
    842e:	0007      	movs	r7, r0
    8430:	000c      	movs	r4, r1
    8432:	9203      	str	r2, [sp, #12]
    8434:	9301      	str	r3, [sp, #4]
    8436:	429e      	cmp	r6, r3
    8438:	d839      	bhi.n	84ae <__ssputs_r+0x86>
    843a:	2390      	movs	r3, #144	; 0x90
    843c:	898a      	ldrh	r2, [r1, #12]
    843e:	00db      	lsls	r3, r3, #3
    8440:	421a      	tst	r2, r3
    8442:	d034      	beq.n	84ae <__ssputs_r+0x86>
    8444:	2503      	movs	r5, #3
    8446:	6909      	ldr	r1, [r1, #16]
    8448:	6823      	ldr	r3, [r4, #0]
    844a:	1a5b      	subs	r3, r3, r1
    844c:	9302      	str	r3, [sp, #8]
    844e:	6963      	ldr	r3, [r4, #20]
    8450:	9802      	ldr	r0, [sp, #8]
    8452:	435d      	muls	r5, r3
    8454:	0feb      	lsrs	r3, r5, #31
    8456:	195d      	adds	r5, r3, r5
    8458:	9b01      	ldr	r3, [sp, #4]
    845a:	106d      	asrs	r5, r5, #1
    845c:	3301      	adds	r3, #1
    845e:	181b      	adds	r3, r3, r0
    8460:	42ab      	cmp	r3, r5
    8462:	d900      	bls.n	8466 <__ssputs_r+0x3e>
    8464:	001d      	movs	r5, r3
    8466:	0553      	lsls	r3, r2, #21
    8468:	d532      	bpl.n	84d0 <__ssputs_r+0xa8>
    846a:	0029      	movs	r1, r5
    846c:	0038      	movs	r0, r7
    846e:	f000 fb31 	bl	8ad4 <_malloc_r>
    8472:	1e06      	subs	r6, r0, #0
    8474:	d109      	bne.n	848a <__ssputs_r+0x62>
    8476:	230c      	movs	r3, #12
    8478:	603b      	str	r3, [r7, #0]
    847a:	2340      	movs	r3, #64	; 0x40
    847c:	2001      	movs	r0, #1
    847e:	89a2      	ldrh	r2, [r4, #12]
    8480:	4240      	negs	r0, r0
    8482:	4313      	orrs	r3, r2
    8484:	81a3      	strh	r3, [r4, #12]
    8486:	b005      	add	sp, #20
    8488:	bdf0      	pop	{r4, r5, r6, r7, pc}
    848a:	9a02      	ldr	r2, [sp, #8]
    848c:	6921      	ldr	r1, [r4, #16]
    848e:	f7ff ff5d 	bl	834c <memcpy>
    8492:	89a3      	ldrh	r3, [r4, #12]
    8494:	4a14      	ldr	r2, [pc, #80]	; (84e8 <__ssputs_r+0xc0>)
    8496:	401a      	ands	r2, r3
    8498:	2380      	movs	r3, #128	; 0x80
    849a:	4313      	orrs	r3, r2
    849c:	81a3      	strh	r3, [r4, #12]
    849e:	9b02      	ldr	r3, [sp, #8]
    84a0:	6126      	str	r6, [r4, #16]
    84a2:	18f6      	adds	r6, r6, r3
    84a4:	6026      	str	r6, [r4, #0]
    84a6:	6165      	str	r5, [r4, #20]
    84a8:	9e01      	ldr	r6, [sp, #4]
    84aa:	1aed      	subs	r5, r5, r3
    84ac:	60a5      	str	r5, [r4, #8]
    84ae:	9b01      	ldr	r3, [sp, #4]
    84b0:	42b3      	cmp	r3, r6
    84b2:	d200      	bcs.n	84b6 <__ssputs_r+0x8e>
    84b4:	001e      	movs	r6, r3
    84b6:	0032      	movs	r2, r6
    84b8:	9903      	ldr	r1, [sp, #12]
    84ba:	6820      	ldr	r0, [r4, #0]
    84bc:	f000 faad 	bl	8a1a <memmove>
    84c0:	68a3      	ldr	r3, [r4, #8]
    84c2:	2000      	movs	r0, #0
    84c4:	1b9b      	subs	r3, r3, r6
    84c6:	60a3      	str	r3, [r4, #8]
    84c8:	6823      	ldr	r3, [r4, #0]
    84ca:	199e      	adds	r6, r3, r6
    84cc:	6026      	str	r6, [r4, #0]
    84ce:	e7da      	b.n	8486 <__ssputs_r+0x5e>
    84d0:	002a      	movs	r2, r5
    84d2:	0038      	movs	r0, r7
    84d4:	f000 fb5c 	bl	8b90 <_realloc_r>
    84d8:	1e06      	subs	r6, r0, #0
    84da:	d1e0      	bne.n	849e <__ssputs_r+0x76>
    84dc:	6921      	ldr	r1, [r4, #16]
    84de:	0038      	movs	r0, r7
    84e0:	f000 faae 	bl	8a40 <_free_r>
    84e4:	e7c7      	b.n	8476 <__ssputs_r+0x4e>
    84e6:	46c0      	nop			; (mov r8, r8)
    84e8:	fffffb7f 	.word	0xfffffb7f

000084ec <_svfiprintf_r>:
    84ec:	b5f0      	push	{r4, r5, r6, r7, lr}
    84ee:	b09f      	sub	sp, #124	; 0x7c
    84f0:	9002      	str	r0, [sp, #8]
    84f2:	9305      	str	r3, [sp, #20]
    84f4:	898b      	ldrh	r3, [r1, #12]
    84f6:	000f      	movs	r7, r1
    84f8:	0016      	movs	r6, r2
    84fa:	061b      	lsls	r3, r3, #24
    84fc:	d511      	bpl.n	8522 <_svfiprintf_r+0x36>
    84fe:	690b      	ldr	r3, [r1, #16]
    8500:	2b00      	cmp	r3, #0
    8502:	d10e      	bne.n	8522 <_svfiprintf_r+0x36>
    8504:	2140      	movs	r1, #64	; 0x40
    8506:	f000 fae5 	bl	8ad4 <_malloc_r>
    850a:	6038      	str	r0, [r7, #0]
    850c:	6138      	str	r0, [r7, #16]
    850e:	2800      	cmp	r0, #0
    8510:	d105      	bne.n	851e <_svfiprintf_r+0x32>
    8512:	230c      	movs	r3, #12
    8514:	9a02      	ldr	r2, [sp, #8]
    8516:	3801      	subs	r0, #1
    8518:	6013      	str	r3, [r2, #0]
    851a:	b01f      	add	sp, #124	; 0x7c
    851c:	bdf0      	pop	{r4, r5, r6, r7, pc}
    851e:	2340      	movs	r3, #64	; 0x40
    8520:	617b      	str	r3, [r7, #20]
    8522:	2300      	movs	r3, #0
    8524:	ad06      	add	r5, sp, #24
    8526:	616b      	str	r3, [r5, #20]
    8528:	3320      	adds	r3, #32
    852a:	766b      	strb	r3, [r5, #25]
    852c:	3310      	adds	r3, #16
    852e:	76ab      	strb	r3, [r5, #26]
    8530:	0034      	movs	r4, r6
    8532:	7823      	ldrb	r3, [r4, #0]
    8534:	2b00      	cmp	r3, #0
    8536:	d147      	bne.n	85c8 <_svfiprintf_r+0xdc>
    8538:	1ba3      	subs	r3, r4, r6
    853a:	9304      	str	r3, [sp, #16]
    853c:	d00d      	beq.n	855a <_svfiprintf_r+0x6e>
    853e:	1ba3      	subs	r3, r4, r6
    8540:	0032      	movs	r2, r6
    8542:	0039      	movs	r1, r7
    8544:	9802      	ldr	r0, [sp, #8]
    8546:	f7ff ff6f 	bl	8428 <__ssputs_r>
    854a:	1c43      	adds	r3, r0, #1
    854c:	d100      	bne.n	8550 <_svfiprintf_r+0x64>
    854e:	e0b5      	b.n	86bc <_svfiprintf_r+0x1d0>
    8550:	696a      	ldr	r2, [r5, #20]
    8552:	9b04      	ldr	r3, [sp, #16]
    8554:	4694      	mov	ip, r2
    8556:	4463      	add	r3, ip
    8558:	616b      	str	r3, [r5, #20]
    855a:	7823      	ldrb	r3, [r4, #0]
    855c:	2b00      	cmp	r3, #0
    855e:	d100      	bne.n	8562 <_svfiprintf_r+0x76>
    8560:	e0ac      	b.n	86bc <_svfiprintf_r+0x1d0>
    8562:	2201      	movs	r2, #1
    8564:	2300      	movs	r3, #0
    8566:	4252      	negs	r2, r2
    8568:	606a      	str	r2, [r5, #4]
    856a:	a902      	add	r1, sp, #8
    856c:	3254      	adds	r2, #84	; 0x54
    856e:	1852      	adds	r2, r2, r1
    8570:	3401      	adds	r4, #1
    8572:	602b      	str	r3, [r5, #0]
    8574:	60eb      	str	r3, [r5, #12]
    8576:	60ab      	str	r3, [r5, #8]
    8578:	7013      	strb	r3, [r2, #0]
    857a:	65ab      	str	r3, [r5, #88]	; 0x58
    857c:	4e58      	ldr	r6, [pc, #352]	; (86e0 <_svfiprintf_r+0x1f4>)
    857e:	2205      	movs	r2, #5
    8580:	7821      	ldrb	r1, [r4, #0]
    8582:	0030      	movs	r0, r6
    8584:	f000 fa3e 	bl	8a04 <memchr>
    8588:	1c62      	adds	r2, r4, #1
    858a:	2800      	cmp	r0, #0
    858c:	d120      	bne.n	85d0 <_svfiprintf_r+0xe4>
    858e:	6829      	ldr	r1, [r5, #0]
    8590:	06cb      	lsls	r3, r1, #27
    8592:	d504      	bpl.n	859e <_svfiprintf_r+0xb2>
    8594:	2353      	movs	r3, #83	; 0x53
    8596:	ae02      	add	r6, sp, #8
    8598:	3020      	adds	r0, #32
    859a:	199b      	adds	r3, r3, r6
    859c:	7018      	strb	r0, [r3, #0]
    859e:	070b      	lsls	r3, r1, #28
    85a0:	d504      	bpl.n	85ac <_svfiprintf_r+0xc0>
    85a2:	2353      	movs	r3, #83	; 0x53
    85a4:	202b      	movs	r0, #43	; 0x2b
    85a6:	ae02      	add	r6, sp, #8
    85a8:	199b      	adds	r3, r3, r6
    85aa:	7018      	strb	r0, [r3, #0]
    85ac:	7823      	ldrb	r3, [r4, #0]
    85ae:	2b2a      	cmp	r3, #42	; 0x2a
    85b0:	d016      	beq.n	85e0 <_svfiprintf_r+0xf4>
    85b2:	2000      	movs	r0, #0
    85b4:	210a      	movs	r1, #10
    85b6:	9b09      	ldr	r3, [sp, #36]	; 0x24
    85b8:	7822      	ldrb	r2, [r4, #0]
    85ba:	3a30      	subs	r2, #48	; 0x30
    85bc:	2a09      	cmp	r2, #9
    85be:	d955      	bls.n	866c <_svfiprintf_r+0x180>
    85c0:	2800      	cmp	r0, #0
    85c2:	d015      	beq.n	85f0 <_svfiprintf_r+0x104>
    85c4:	9309      	str	r3, [sp, #36]	; 0x24
    85c6:	e013      	b.n	85f0 <_svfiprintf_r+0x104>
    85c8:	2b25      	cmp	r3, #37	; 0x25
    85ca:	d0b5      	beq.n	8538 <_svfiprintf_r+0x4c>
    85cc:	3401      	adds	r4, #1
    85ce:	e7b0      	b.n	8532 <_svfiprintf_r+0x46>
    85d0:	2301      	movs	r3, #1
    85d2:	1b80      	subs	r0, r0, r6
    85d4:	4083      	lsls	r3, r0
    85d6:	6829      	ldr	r1, [r5, #0]
    85d8:	0014      	movs	r4, r2
    85da:	430b      	orrs	r3, r1
    85dc:	602b      	str	r3, [r5, #0]
    85de:	e7cd      	b.n	857c <_svfiprintf_r+0x90>
    85e0:	9b05      	ldr	r3, [sp, #20]
    85e2:	1d18      	adds	r0, r3, #4
    85e4:	681b      	ldr	r3, [r3, #0]
    85e6:	9005      	str	r0, [sp, #20]
    85e8:	2b00      	cmp	r3, #0
    85ea:	db39      	blt.n	8660 <_svfiprintf_r+0x174>
    85ec:	9309      	str	r3, [sp, #36]	; 0x24
    85ee:	0014      	movs	r4, r2
    85f0:	7823      	ldrb	r3, [r4, #0]
    85f2:	2b2e      	cmp	r3, #46	; 0x2e
    85f4:	d10b      	bne.n	860e <_svfiprintf_r+0x122>
    85f6:	7863      	ldrb	r3, [r4, #1]
    85f8:	1c62      	adds	r2, r4, #1
    85fa:	2b2a      	cmp	r3, #42	; 0x2a
    85fc:	d13e      	bne.n	867c <_svfiprintf_r+0x190>
    85fe:	9b05      	ldr	r3, [sp, #20]
    8600:	3402      	adds	r4, #2
    8602:	1d1a      	adds	r2, r3, #4
    8604:	681b      	ldr	r3, [r3, #0]
    8606:	9205      	str	r2, [sp, #20]
    8608:	2b00      	cmp	r3, #0
    860a:	db34      	blt.n	8676 <_svfiprintf_r+0x18a>
    860c:	9307      	str	r3, [sp, #28]
    860e:	4e35      	ldr	r6, [pc, #212]	; (86e4 <_svfiprintf_r+0x1f8>)
    8610:	7821      	ldrb	r1, [r4, #0]
    8612:	2203      	movs	r2, #3
    8614:	0030      	movs	r0, r6
    8616:	f000 f9f5 	bl	8a04 <memchr>
    861a:	2800      	cmp	r0, #0
    861c:	d006      	beq.n	862c <_svfiprintf_r+0x140>
    861e:	2340      	movs	r3, #64	; 0x40
    8620:	1b80      	subs	r0, r0, r6
    8622:	4083      	lsls	r3, r0
    8624:	682a      	ldr	r2, [r5, #0]
    8626:	3401      	adds	r4, #1
    8628:	4313      	orrs	r3, r2
    862a:	602b      	str	r3, [r5, #0]
    862c:	7821      	ldrb	r1, [r4, #0]
    862e:	2206      	movs	r2, #6
    8630:	482d      	ldr	r0, [pc, #180]	; (86e8 <_svfiprintf_r+0x1fc>)
    8632:	1c66      	adds	r6, r4, #1
    8634:	7629      	strb	r1, [r5, #24]
    8636:	f000 f9e5 	bl	8a04 <memchr>
    863a:	2800      	cmp	r0, #0
    863c:	d046      	beq.n	86cc <_svfiprintf_r+0x1e0>
    863e:	4b2b      	ldr	r3, [pc, #172]	; (86ec <_svfiprintf_r+0x200>)
    8640:	2b00      	cmp	r3, #0
    8642:	d12f      	bne.n	86a4 <_svfiprintf_r+0x1b8>
    8644:	6829      	ldr	r1, [r5, #0]
    8646:	9b05      	ldr	r3, [sp, #20]
    8648:	2207      	movs	r2, #7
    864a:	05c9      	lsls	r1, r1, #23
    864c:	d528      	bpl.n	86a0 <_svfiprintf_r+0x1b4>
    864e:	189b      	adds	r3, r3, r2
    8650:	4393      	bics	r3, r2
    8652:	3308      	adds	r3, #8
    8654:	9305      	str	r3, [sp, #20]
    8656:	696b      	ldr	r3, [r5, #20]
    8658:	9a03      	ldr	r2, [sp, #12]
    865a:	189b      	adds	r3, r3, r2
    865c:	616b      	str	r3, [r5, #20]
    865e:	e767      	b.n	8530 <_svfiprintf_r+0x44>
    8660:	425b      	negs	r3, r3
    8662:	60eb      	str	r3, [r5, #12]
    8664:	2302      	movs	r3, #2
    8666:	430b      	orrs	r3, r1
    8668:	602b      	str	r3, [r5, #0]
    866a:	e7c0      	b.n	85ee <_svfiprintf_r+0x102>
    866c:	434b      	muls	r3, r1
    866e:	3401      	adds	r4, #1
    8670:	189b      	adds	r3, r3, r2
    8672:	2001      	movs	r0, #1
    8674:	e7a0      	b.n	85b8 <_svfiprintf_r+0xcc>
    8676:	2301      	movs	r3, #1
    8678:	425b      	negs	r3, r3
    867a:	e7c7      	b.n	860c <_svfiprintf_r+0x120>
    867c:	2300      	movs	r3, #0
    867e:	0014      	movs	r4, r2
    8680:	200a      	movs	r0, #10
    8682:	001a      	movs	r2, r3
    8684:	606b      	str	r3, [r5, #4]
    8686:	7821      	ldrb	r1, [r4, #0]
    8688:	3930      	subs	r1, #48	; 0x30
    868a:	2909      	cmp	r1, #9
    868c:	d903      	bls.n	8696 <_svfiprintf_r+0x1aa>
    868e:	2b00      	cmp	r3, #0
    8690:	d0bd      	beq.n	860e <_svfiprintf_r+0x122>
    8692:	9207      	str	r2, [sp, #28]
    8694:	e7bb      	b.n	860e <_svfiprintf_r+0x122>
    8696:	4342      	muls	r2, r0
    8698:	3401      	adds	r4, #1
    869a:	1852      	adds	r2, r2, r1
    869c:	2301      	movs	r3, #1
    869e:	e7f2      	b.n	8686 <_svfiprintf_r+0x19a>
    86a0:	3307      	adds	r3, #7
    86a2:	e7d5      	b.n	8650 <_svfiprintf_r+0x164>
    86a4:	ab05      	add	r3, sp, #20
    86a6:	9300      	str	r3, [sp, #0]
    86a8:	003a      	movs	r2, r7
    86aa:	4b11      	ldr	r3, [pc, #68]	; (86f0 <_svfiprintf_r+0x204>)
    86ac:	0029      	movs	r1, r5
    86ae:	9802      	ldr	r0, [sp, #8]
    86b0:	e000      	b.n	86b4 <_svfiprintf_r+0x1c8>
    86b2:	bf00      	nop
    86b4:	9003      	str	r0, [sp, #12]
    86b6:	9b03      	ldr	r3, [sp, #12]
    86b8:	3301      	adds	r3, #1
    86ba:	d1cc      	bne.n	8656 <_svfiprintf_r+0x16a>
    86bc:	89bb      	ldrh	r3, [r7, #12]
    86be:	980b      	ldr	r0, [sp, #44]	; 0x2c
    86c0:	065b      	lsls	r3, r3, #25
    86c2:	d400      	bmi.n	86c6 <_svfiprintf_r+0x1da>
    86c4:	e729      	b.n	851a <_svfiprintf_r+0x2e>
    86c6:	2001      	movs	r0, #1
    86c8:	4240      	negs	r0, r0
    86ca:	e726      	b.n	851a <_svfiprintf_r+0x2e>
    86cc:	ab05      	add	r3, sp, #20
    86ce:	9300      	str	r3, [sp, #0]
    86d0:	003a      	movs	r2, r7
    86d2:	4b07      	ldr	r3, [pc, #28]	; (86f0 <_svfiprintf_r+0x204>)
    86d4:	0029      	movs	r1, r5
    86d6:	9802      	ldr	r0, [sp, #8]
    86d8:	f000 f87a 	bl	87d0 <_printf_i>
    86dc:	e7ea      	b.n	86b4 <_svfiprintf_r+0x1c8>
    86de:	46c0      	nop			; (mov r8, r8)
    86e0:	00008fc4 	.word	0x00008fc4
    86e4:	00008fca 	.word	0x00008fca
    86e8:	00008fce 	.word	0x00008fce
    86ec:	00000000 	.word	0x00000000
    86f0:	00008429 	.word	0x00008429

000086f4 <_printf_common>:
    86f4:	b5f7      	push	{r0, r1, r2, r4, r5, r6, r7, lr}
    86f6:	0015      	movs	r5, r2
    86f8:	9301      	str	r3, [sp, #4]
    86fa:	688a      	ldr	r2, [r1, #8]
    86fc:	690b      	ldr	r3, [r1, #16]
    86fe:	9000      	str	r0, [sp, #0]
    8700:	000c      	movs	r4, r1
    8702:	4293      	cmp	r3, r2
    8704:	da00      	bge.n	8708 <_printf_common+0x14>
    8706:	0013      	movs	r3, r2
    8708:	0022      	movs	r2, r4
    870a:	602b      	str	r3, [r5, #0]
    870c:	3243      	adds	r2, #67	; 0x43
    870e:	7812      	ldrb	r2, [r2, #0]
    8710:	2a00      	cmp	r2, #0
    8712:	d001      	beq.n	8718 <_printf_common+0x24>
    8714:	3301      	adds	r3, #1
    8716:	602b      	str	r3, [r5, #0]
    8718:	6823      	ldr	r3, [r4, #0]
    871a:	069b      	lsls	r3, r3, #26
    871c:	d502      	bpl.n	8724 <_printf_common+0x30>
    871e:	682b      	ldr	r3, [r5, #0]
    8720:	3302      	adds	r3, #2
    8722:	602b      	str	r3, [r5, #0]
    8724:	2706      	movs	r7, #6
    8726:	6823      	ldr	r3, [r4, #0]
    8728:	401f      	ands	r7, r3
    872a:	d027      	beq.n	877c <_printf_common+0x88>
    872c:	0023      	movs	r3, r4
    872e:	3343      	adds	r3, #67	; 0x43
    8730:	781b      	ldrb	r3, [r3, #0]
    8732:	1e5a      	subs	r2, r3, #1
    8734:	4193      	sbcs	r3, r2
    8736:	6822      	ldr	r2, [r4, #0]
    8738:	0692      	lsls	r2, r2, #26
    873a:	d430      	bmi.n	879e <_printf_common+0xaa>
    873c:	0022      	movs	r2, r4
    873e:	9901      	ldr	r1, [sp, #4]
    8740:	3243      	adds	r2, #67	; 0x43
    8742:	9800      	ldr	r0, [sp, #0]
    8744:	9e08      	ldr	r6, [sp, #32]
    8746:	47b0      	blx	r6
    8748:	1c43      	adds	r3, r0, #1
    874a:	d025      	beq.n	8798 <_printf_common+0xa4>
    874c:	2306      	movs	r3, #6
    874e:	6820      	ldr	r0, [r4, #0]
    8750:	682a      	ldr	r2, [r5, #0]
    8752:	68e1      	ldr	r1, [r4, #12]
    8754:	4003      	ands	r3, r0
    8756:	2500      	movs	r5, #0
    8758:	2b04      	cmp	r3, #4
    875a:	d103      	bne.n	8764 <_printf_common+0x70>
    875c:	1a8d      	subs	r5, r1, r2
    875e:	43eb      	mvns	r3, r5
    8760:	17db      	asrs	r3, r3, #31
    8762:	401d      	ands	r5, r3
    8764:	68a3      	ldr	r3, [r4, #8]
    8766:	6922      	ldr	r2, [r4, #16]
    8768:	4293      	cmp	r3, r2
    876a:	dd01      	ble.n	8770 <_printf_common+0x7c>
    876c:	1a9b      	subs	r3, r3, r2
    876e:	18ed      	adds	r5, r5, r3
    8770:	2700      	movs	r7, #0
    8772:	42bd      	cmp	r5, r7
    8774:	d120      	bne.n	87b8 <_printf_common+0xc4>
    8776:	2000      	movs	r0, #0
    8778:	e010      	b.n	879c <_printf_common+0xa8>
    877a:	3701      	adds	r7, #1
    877c:	68e3      	ldr	r3, [r4, #12]
    877e:	682a      	ldr	r2, [r5, #0]
    8780:	1a9b      	subs	r3, r3, r2
    8782:	429f      	cmp	r7, r3
    8784:	dad2      	bge.n	872c <_printf_common+0x38>
    8786:	0022      	movs	r2, r4
    8788:	2301      	movs	r3, #1
    878a:	3219      	adds	r2, #25
    878c:	9901      	ldr	r1, [sp, #4]
    878e:	9800      	ldr	r0, [sp, #0]
    8790:	9e08      	ldr	r6, [sp, #32]
    8792:	47b0      	blx	r6
    8794:	1c43      	adds	r3, r0, #1
    8796:	d1f0      	bne.n	877a <_printf_common+0x86>
    8798:	2001      	movs	r0, #1
    879a:	4240      	negs	r0, r0
    879c:	bdfe      	pop	{r1, r2, r3, r4, r5, r6, r7, pc}
    879e:	2030      	movs	r0, #48	; 0x30
    87a0:	18e1      	adds	r1, r4, r3
    87a2:	3143      	adds	r1, #67	; 0x43
    87a4:	7008      	strb	r0, [r1, #0]
    87a6:	0021      	movs	r1, r4
    87a8:	1c5a      	adds	r2, r3, #1
    87aa:	3145      	adds	r1, #69	; 0x45
    87ac:	7809      	ldrb	r1, [r1, #0]
    87ae:	18a2      	adds	r2, r4, r2
    87b0:	3243      	adds	r2, #67	; 0x43
    87b2:	3302      	adds	r3, #2
    87b4:	7011      	strb	r1, [r2, #0]
    87b6:	e7c1      	b.n	873c <_printf_common+0x48>
    87b8:	0022      	movs	r2, r4
    87ba:	2301      	movs	r3, #1
    87bc:	321a      	adds	r2, #26
    87be:	9901      	ldr	r1, [sp, #4]
    87c0:	9800      	ldr	r0, [sp, #0]
    87c2:	9e08      	ldr	r6, [sp, #32]
    87c4:	47b0      	blx	r6
    87c6:	1c43      	adds	r3, r0, #1
    87c8:	d0e6      	beq.n	8798 <_printf_common+0xa4>
    87ca:	3701      	adds	r7, #1
    87cc:	e7d1      	b.n	8772 <_printf_common+0x7e>
	...

000087d0 <_printf_i>:
    87d0:	b5f0      	push	{r4, r5, r6, r7, lr}
    87d2:	b08b      	sub	sp, #44	; 0x2c
    87d4:	9206      	str	r2, [sp, #24]
    87d6:	000a      	movs	r2, r1
    87d8:	3243      	adds	r2, #67	; 0x43
    87da:	9307      	str	r3, [sp, #28]
    87dc:	9005      	str	r0, [sp, #20]
    87de:	9204      	str	r2, [sp, #16]
    87e0:	7e0a      	ldrb	r2, [r1, #24]
    87e2:	000c      	movs	r4, r1
    87e4:	9b10      	ldr	r3, [sp, #64]	; 0x40
    87e6:	2a6e      	cmp	r2, #110	; 0x6e
    87e8:	d100      	bne.n	87ec <_printf_i+0x1c>
    87ea:	e08f      	b.n	890c <_printf_i+0x13c>
    87ec:	d817      	bhi.n	881e <_printf_i+0x4e>
    87ee:	2a63      	cmp	r2, #99	; 0x63
    87f0:	d02c      	beq.n	884c <_printf_i+0x7c>
    87f2:	d808      	bhi.n	8806 <_printf_i+0x36>
    87f4:	2a00      	cmp	r2, #0
    87f6:	d100      	bne.n	87fa <_printf_i+0x2a>
    87f8:	e099      	b.n	892e <_printf_i+0x15e>
    87fa:	2a58      	cmp	r2, #88	; 0x58
    87fc:	d054      	beq.n	88a8 <_printf_i+0xd8>
    87fe:	0026      	movs	r6, r4
    8800:	3642      	adds	r6, #66	; 0x42
    8802:	7032      	strb	r2, [r6, #0]
    8804:	e029      	b.n	885a <_printf_i+0x8a>
    8806:	2a64      	cmp	r2, #100	; 0x64
    8808:	d001      	beq.n	880e <_printf_i+0x3e>
    880a:	2a69      	cmp	r2, #105	; 0x69
    880c:	d1f7      	bne.n	87fe <_printf_i+0x2e>
    880e:	6821      	ldr	r1, [r4, #0]
    8810:	681a      	ldr	r2, [r3, #0]
    8812:	0608      	lsls	r0, r1, #24
    8814:	d523      	bpl.n	885e <_printf_i+0x8e>
    8816:	1d11      	adds	r1, r2, #4
    8818:	6019      	str	r1, [r3, #0]
    881a:	6815      	ldr	r5, [r2, #0]
    881c:	e025      	b.n	886a <_printf_i+0x9a>
    881e:	2a73      	cmp	r2, #115	; 0x73
    8820:	d100      	bne.n	8824 <_printf_i+0x54>
    8822:	e088      	b.n	8936 <_printf_i+0x166>
    8824:	d808      	bhi.n	8838 <_printf_i+0x68>
    8826:	2a6f      	cmp	r2, #111	; 0x6f
    8828:	d029      	beq.n	887e <_printf_i+0xae>
    882a:	2a70      	cmp	r2, #112	; 0x70
    882c:	d1e7      	bne.n	87fe <_printf_i+0x2e>
    882e:	2220      	movs	r2, #32
    8830:	6809      	ldr	r1, [r1, #0]
    8832:	430a      	orrs	r2, r1
    8834:	6022      	str	r2, [r4, #0]
    8836:	e003      	b.n	8840 <_printf_i+0x70>
    8838:	2a75      	cmp	r2, #117	; 0x75
    883a:	d020      	beq.n	887e <_printf_i+0xae>
    883c:	2a78      	cmp	r2, #120	; 0x78
    883e:	d1de      	bne.n	87fe <_printf_i+0x2e>
    8840:	0022      	movs	r2, r4
    8842:	2178      	movs	r1, #120	; 0x78
    8844:	3245      	adds	r2, #69	; 0x45
    8846:	7011      	strb	r1, [r2, #0]
    8848:	4a6c      	ldr	r2, [pc, #432]	; (89fc <_printf_i+0x22c>)
    884a:	e030      	b.n	88ae <_printf_i+0xde>
    884c:	000e      	movs	r6, r1
    884e:	681a      	ldr	r2, [r3, #0]
    8850:	3642      	adds	r6, #66	; 0x42
    8852:	1d11      	adds	r1, r2, #4
    8854:	6019      	str	r1, [r3, #0]
    8856:	6813      	ldr	r3, [r2, #0]
    8858:	7033      	strb	r3, [r6, #0]
    885a:	2301      	movs	r3, #1
    885c:	e079      	b.n	8952 <_printf_i+0x182>
    885e:	0649      	lsls	r1, r1, #25
    8860:	d5d9      	bpl.n	8816 <_printf_i+0x46>
    8862:	1d11      	adds	r1, r2, #4
    8864:	6019      	str	r1, [r3, #0]
    8866:	2300      	movs	r3, #0
    8868:	5ed5      	ldrsh	r5, [r2, r3]
    886a:	2d00      	cmp	r5, #0
    886c:	da03      	bge.n	8876 <_printf_i+0xa6>
    886e:	232d      	movs	r3, #45	; 0x2d
    8870:	9a04      	ldr	r2, [sp, #16]
    8872:	426d      	negs	r5, r5
    8874:	7013      	strb	r3, [r2, #0]
    8876:	4b62      	ldr	r3, [pc, #392]	; (8a00 <_printf_i+0x230>)
    8878:	270a      	movs	r7, #10
    887a:	9303      	str	r3, [sp, #12]
    887c:	e02f      	b.n	88de <_printf_i+0x10e>
    887e:	6820      	ldr	r0, [r4, #0]
    8880:	6819      	ldr	r1, [r3, #0]
    8882:	0605      	lsls	r5, r0, #24
    8884:	d503      	bpl.n	888e <_printf_i+0xbe>
    8886:	1d08      	adds	r0, r1, #4
    8888:	6018      	str	r0, [r3, #0]
    888a:	680d      	ldr	r5, [r1, #0]
    888c:	e005      	b.n	889a <_printf_i+0xca>
    888e:	0640      	lsls	r0, r0, #25
    8890:	d5f9      	bpl.n	8886 <_printf_i+0xb6>
    8892:	680d      	ldr	r5, [r1, #0]
    8894:	1d08      	adds	r0, r1, #4
    8896:	6018      	str	r0, [r3, #0]
    8898:	b2ad      	uxth	r5, r5
    889a:	4b59      	ldr	r3, [pc, #356]	; (8a00 <_printf_i+0x230>)
    889c:	2708      	movs	r7, #8
    889e:	9303      	str	r3, [sp, #12]
    88a0:	2a6f      	cmp	r2, #111	; 0x6f
    88a2:	d018      	beq.n	88d6 <_printf_i+0x106>
    88a4:	270a      	movs	r7, #10
    88a6:	e016      	b.n	88d6 <_printf_i+0x106>
    88a8:	3145      	adds	r1, #69	; 0x45
    88aa:	700a      	strb	r2, [r1, #0]
    88ac:	4a54      	ldr	r2, [pc, #336]	; (8a00 <_printf_i+0x230>)
    88ae:	9203      	str	r2, [sp, #12]
    88b0:	681a      	ldr	r2, [r3, #0]
    88b2:	6821      	ldr	r1, [r4, #0]
    88b4:	1d10      	adds	r0, r2, #4
    88b6:	6018      	str	r0, [r3, #0]
    88b8:	6815      	ldr	r5, [r2, #0]
    88ba:	0608      	lsls	r0, r1, #24
    88bc:	d522      	bpl.n	8904 <_printf_i+0x134>
    88be:	07cb      	lsls	r3, r1, #31
    88c0:	d502      	bpl.n	88c8 <_printf_i+0xf8>
    88c2:	2320      	movs	r3, #32
    88c4:	4319      	orrs	r1, r3
    88c6:	6021      	str	r1, [r4, #0]
    88c8:	2710      	movs	r7, #16
    88ca:	2d00      	cmp	r5, #0
    88cc:	d103      	bne.n	88d6 <_printf_i+0x106>
    88ce:	2320      	movs	r3, #32
    88d0:	6822      	ldr	r2, [r4, #0]
    88d2:	439a      	bics	r2, r3
    88d4:	6022      	str	r2, [r4, #0]
    88d6:	0023      	movs	r3, r4
    88d8:	2200      	movs	r2, #0
    88da:	3343      	adds	r3, #67	; 0x43
    88dc:	701a      	strb	r2, [r3, #0]
    88de:	6863      	ldr	r3, [r4, #4]
    88e0:	60a3      	str	r3, [r4, #8]
    88e2:	2b00      	cmp	r3, #0
    88e4:	db5c      	blt.n	89a0 <_printf_i+0x1d0>
    88e6:	2204      	movs	r2, #4
    88e8:	6821      	ldr	r1, [r4, #0]
    88ea:	4391      	bics	r1, r2
    88ec:	6021      	str	r1, [r4, #0]
    88ee:	2d00      	cmp	r5, #0
    88f0:	d158      	bne.n	89a4 <_printf_i+0x1d4>
    88f2:	9e04      	ldr	r6, [sp, #16]
    88f4:	2b00      	cmp	r3, #0
    88f6:	d064      	beq.n	89c2 <_printf_i+0x1f2>
    88f8:	0026      	movs	r6, r4
    88fa:	9b03      	ldr	r3, [sp, #12]
    88fc:	3642      	adds	r6, #66	; 0x42
    88fe:	781b      	ldrb	r3, [r3, #0]
    8900:	7033      	strb	r3, [r6, #0]
    8902:	e05e      	b.n	89c2 <_printf_i+0x1f2>
    8904:	0648      	lsls	r0, r1, #25
    8906:	d5da      	bpl.n	88be <_printf_i+0xee>
    8908:	b2ad      	uxth	r5, r5
    890a:	e7d8      	b.n	88be <_printf_i+0xee>
    890c:	6809      	ldr	r1, [r1, #0]
    890e:	681a      	ldr	r2, [r3, #0]
    8910:	0608      	lsls	r0, r1, #24
    8912:	d505      	bpl.n	8920 <_printf_i+0x150>
    8914:	1d11      	adds	r1, r2, #4
    8916:	6019      	str	r1, [r3, #0]
    8918:	6813      	ldr	r3, [r2, #0]
    891a:	6962      	ldr	r2, [r4, #20]
    891c:	601a      	str	r2, [r3, #0]
    891e:	e006      	b.n	892e <_printf_i+0x15e>
    8920:	0649      	lsls	r1, r1, #25
    8922:	d5f7      	bpl.n	8914 <_printf_i+0x144>
    8924:	1d11      	adds	r1, r2, #4
    8926:	6019      	str	r1, [r3, #0]
    8928:	6813      	ldr	r3, [r2, #0]
    892a:	8aa2      	ldrh	r2, [r4, #20]
    892c:	801a      	strh	r2, [r3, #0]
    892e:	2300      	movs	r3, #0
    8930:	9e04      	ldr	r6, [sp, #16]
    8932:	6123      	str	r3, [r4, #16]
    8934:	e054      	b.n	89e0 <_printf_i+0x210>
    8936:	681a      	ldr	r2, [r3, #0]
    8938:	1d11      	adds	r1, r2, #4
    893a:	6019      	str	r1, [r3, #0]
    893c:	6816      	ldr	r6, [r2, #0]
    893e:	2100      	movs	r1, #0
    8940:	6862      	ldr	r2, [r4, #4]
    8942:	0030      	movs	r0, r6
    8944:	f000 f85e 	bl	8a04 <memchr>
    8948:	2800      	cmp	r0, #0
    894a:	d001      	beq.n	8950 <_printf_i+0x180>
    894c:	1b80      	subs	r0, r0, r6
    894e:	6060      	str	r0, [r4, #4]
    8950:	6863      	ldr	r3, [r4, #4]
    8952:	6123      	str	r3, [r4, #16]
    8954:	2300      	movs	r3, #0
    8956:	9a04      	ldr	r2, [sp, #16]
    8958:	7013      	strb	r3, [r2, #0]
    895a:	e041      	b.n	89e0 <_printf_i+0x210>
    895c:	6923      	ldr	r3, [r4, #16]
    895e:	0032      	movs	r2, r6
    8960:	9906      	ldr	r1, [sp, #24]
    8962:	9805      	ldr	r0, [sp, #20]
    8964:	9d07      	ldr	r5, [sp, #28]
    8966:	47a8      	blx	r5
    8968:	1c43      	adds	r3, r0, #1
    896a:	d043      	beq.n	89f4 <_printf_i+0x224>
    896c:	6823      	ldr	r3, [r4, #0]
    896e:	2500      	movs	r5, #0
    8970:	079b      	lsls	r3, r3, #30
    8972:	d40f      	bmi.n	8994 <_printf_i+0x1c4>
    8974:	9b09      	ldr	r3, [sp, #36]	; 0x24
    8976:	68e0      	ldr	r0, [r4, #12]
    8978:	4298      	cmp	r0, r3
    897a:	da3d      	bge.n	89f8 <_printf_i+0x228>
    897c:	0018      	movs	r0, r3
    897e:	e03b      	b.n	89f8 <_printf_i+0x228>
    8980:	0022      	movs	r2, r4
    8982:	2301      	movs	r3, #1
    8984:	3219      	adds	r2, #25
    8986:	9906      	ldr	r1, [sp, #24]
    8988:	9805      	ldr	r0, [sp, #20]
    898a:	9e07      	ldr	r6, [sp, #28]
    898c:	47b0      	blx	r6
    898e:	1c43      	adds	r3, r0, #1
    8990:	d030      	beq.n	89f4 <_printf_i+0x224>
    8992:	3501      	adds	r5, #1
    8994:	68e3      	ldr	r3, [r4, #12]
    8996:	9a09      	ldr	r2, [sp, #36]	; 0x24
    8998:	1a9b      	subs	r3, r3, r2
    899a:	429d      	cmp	r5, r3
    899c:	dbf0      	blt.n	8980 <_printf_i+0x1b0>
    899e:	e7e9      	b.n	8974 <_printf_i+0x1a4>
    89a0:	2d00      	cmp	r5, #0
    89a2:	d0a9      	beq.n	88f8 <_printf_i+0x128>
    89a4:	9e04      	ldr	r6, [sp, #16]
    89a6:	0028      	movs	r0, r5
    89a8:	0039      	movs	r1, r7
    89aa:	f7fc fdcf 	bl	554c <__aeabi_uidivmod>
    89ae:	9b03      	ldr	r3, [sp, #12]
    89b0:	3e01      	subs	r6, #1
    89b2:	5c5b      	ldrb	r3, [r3, r1]
    89b4:	0028      	movs	r0, r5
    89b6:	7033      	strb	r3, [r6, #0]
    89b8:	0039      	movs	r1, r7
    89ba:	f7fc fd41 	bl	5440 <__udivsi3>
    89be:	1e05      	subs	r5, r0, #0
    89c0:	d1f1      	bne.n	89a6 <_printf_i+0x1d6>
    89c2:	2f08      	cmp	r7, #8
    89c4:	d109      	bne.n	89da <_printf_i+0x20a>
    89c6:	6823      	ldr	r3, [r4, #0]
    89c8:	07db      	lsls	r3, r3, #31
    89ca:	d506      	bpl.n	89da <_printf_i+0x20a>
    89cc:	6863      	ldr	r3, [r4, #4]
    89ce:	6922      	ldr	r2, [r4, #16]
    89d0:	4293      	cmp	r3, r2
    89d2:	dc02      	bgt.n	89da <_printf_i+0x20a>
    89d4:	2330      	movs	r3, #48	; 0x30
    89d6:	3e01      	subs	r6, #1
    89d8:	7033      	strb	r3, [r6, #0]
    89da:	9b04      	ldr	r3, [sp, #16]
    89dc:	1b9b      	subs	r3, r3, r6
    89de:	6123      	str	r3, [r4, #16]
    89e0:	9b07      	ldr	r3, [sp, #28]
    89e2:	aa09      	add	r2, sp, #36	; 0x24
    89e4:	9300      	str	r3, [sp, #0]
    89e6:	0021      	movs	r1, r4
    89e8:	9b06      	ldr	r3, [sp, #24]
    89ea:	9805      	ldr	r0, [sp, #20]
    89ec:	f7ff fe82 	bl	86f4 <_printf_common>
    89f0:	1c43      	adds	r3, r0, #1
    89f2:	d1b3      	bne.n	895c <_printf_i+0x18c>
    89f4:	2001      	movs	r0, #1
    89f6:	4240      	negs	r0, r0
    89f8:	b00b      	add	sp, #44	; 0x2c
    89fa:	bdf0      	pop	{r4, r5, r6, r7, pc}
    89fc:	00008fe6 	.word	0x00008fe6
    8a00:	00008fd5 	.word	0x00008fd5

00008a04 <memchr>:
    8a04:	b2c9      	uxtb	r1, r1
    8a06:	1882      	adds	r2, r0, r2
    8a08:	4290      	cmp	r0, r2
    8a0a:	d101      	bne.n	8a10 <memchr+0xc>
    8a0c:	2000      	movs	r0, #0
    8a0e:	4770      	bx	lr
    8a10:	7803      	ldrb	r3, [r0, #0]
    8a12:	428b      	cmp	r3, r1
    8a14:	d0fb      	beq.n	8a0e <memchr+0xa>
    8a16:	3001      	adds	r0, #1
    8a18:	e7f6      	b.n	8a08 <memchr+0x4>

00008a1a <memmove>:
    8a1a:	b510      	push	{r4, lr}
    8a1c:	4288      	cmp	r0, r1
    8a1e:	d902      	bls.n	8a26 <memmove+0xc>
    8a20:	188b      	adds	r3, r1, r2
    8a22:	4298      	cmp	r0, r3
    8a24:	d308      	bcc.n	8a38 <memmove+0x1e>
    8a26:	2300      	movs	r3, #0
    8a28:	429a      	cmp	r2, r3
    8a2a:	d007      	beq.n	8a3c <memmove+0x22>
    8a2c:	5ccc      	ldrb	r4, [r1, r3]
    8a2e:	54c4      	strb	r4, [r0, r3]
    8a30:	3301      	adds	r3, #1
    8a32:	e7f9      	b.n	8a28 <memmove+0xe>
    8a34:	5c8b      	ldrb	r3, [r1, r2]
    8a36:	5483      	strb	r3, [r0, r2]
    8a38:	3a01      	subs	r2, #1
    8a3a:	d2fb      	bcs.n	8a34 <memmove+0x1a>
    8a3c:	bd10      	pop	{r4, pc}
	...

00008a40 <_free_r>:
    8a40:	b570      	push	{r4, r5, r6, lr}
    8a42:	0005      	movs	r5, r0
    8a44:	2900      	cmp	r1, #0
    8a46:	d010      	beq.n	8a6a <_free_r+0x2a>
    8a48:	1f0c      	subs	r4, r1, #4
    8a4a:	6823      	ldr	r3, [r4, #0]
    8a4c:	2b00      	cmp	r3, #0
    8a4e:	da00      	bge.n	8a52 <_free_r+0x12>
    8a50:	18e4      	adds	r4, r4, r3
    8a52:	0028      	movs	r0, r5
    8a54:	f000 f8d4 	bl	8c00 <__malloc_lock>
    8a58:	4a1d      	ldr	r2, [pc, #116]	; (8ad0 <_free_r+0x90>)
    8a5a:	6813      	ldr	r3, [r2, #0]
    8a5c:	2b00      	cmp	r3, #0
    8a5e:	d105      	bne.n	8a6c <_free_r+0x2c>
    8a60:	6063      	str	r3, [r4, #4]
    8a62:	6014      	str	r4, [r2, #0]
    8a64:	0028      	movs	r0, r5
    8a66:	f000 f8cc 	bl	8c02 <__malloc_unlock>
    8a6a:	bd70      	pop	{r4, r5, r6, pc}
    8a6c:	42a3      	cmp	r3, r4
    8a6e:	d909      	bls.n	8a84 <_free_r+0x44>
    8a70:	6821      	ldr	r1, [r4, #0]
    8a72:	1860      	adds	r0, r4, r1
    8a74:	4283      	cmp	r3, r0
    8a76:	d1f3      	bne.n	8a60 <_free_r+0x20>
    8a78:	6818      	ldr	r0, [r3, #0]
    8a7a:	685b      	ldr	r3, [r3, #4]
    8a7c:	1841      	adds	r1, r0, r1
    8a7e:	6021      	str	r1, [r4, #0]
    8a80:	e7ee      	b.n	8a60 <_free_r+0x20>
    8a82:	0013      	movs	r3, r2
    8a84:	685a      	ldr	r2, [r3, #4]
    8a86:	2a00      	cmp	r2, #0
    8a88:	d001      	beq.n	8a8e <_free_r+0x4e>
    8a8a:	42a2      	cmp	r2, r4
    8a8c:	d9f9      	bls.n	8a82 <_free_r+0x42>
    8a8e:	6819      	ldr	r1, [r3, #0]
    8a90:	1858      	adds	r0, r3, r1
    8a92:	42a0      	cmp	r0, r4
    8a94:	d10b      	bne.n	8aae <_free_r+0x6e>
    8a96:	6820      	ldr	r0, [r4, #0]
    8a98:	1809      	adds	r1, r1, r0
    8a9a:	1858      	adds	r0, r3, r1
    8a9c:	6019      	str	r1, [r3, #0]
    8a9e:	4282      	cmp	r2, r0
    8aa0:	d1e0      	bne.n	8a64 <_free_r+0x24>
    8aa2:	6810      	ldr	r0, [r2, #0]
    8aa4:	6852      	ldr	r2, [r2, #4]
    8aa6:	1841      	adds	r1, r0, r1
    8aa8:	6019      	str	r1, [r3, #0]
    8aaa:	605a      	str	r2, [r3, #4]
    8aac:	e7da      	b.n	8a64 <_free_r+0x24>
    8aae:	42a0      	cmp	r0, r4
    8ab0:	d902      	bls.n	8ab8 <_free_r+0x78>
    8ab2:	230c      	movs	r3, #12
    8ab4:	602b      	str	r3, [r5, #0]
    8ab6:	e7d5      	b.n	8a64 <_free_r+0x24>
    8ab8:	6821      	ldr	r1, [r4, #0]
    8aba:	1860      	adds	r0, r4, r1
    8abc:	4282      	cmp	r2, r0
    8abe:	d103      	bne.n	8ac8 <_free_r+0x88>
    8ac0:	6810      	ldr	r0, [r2, #0]
    8ac2:	6852      	ldr	r2, [r2, #4]
    8ac4:	1841      	adds	r1, r0, r1
    8ac6:	6021      	str	r1, [r4, #0]
    8ac8:	6062      	str	r2, [r4, #4]
    8aca:	605c      	str	r4, [r3, #4]
    8acc:	e7ca      	b.n	8a64 <_free_r+0x24>
    8ace:	46c0      	nop			; (mov r8, r8)
    8ad0:	200053c0 	.word	0x200053c0

00008ad4 <_malloc_r>:
    8ad4:	2303      	movs	r3, #3
    8ad6:	b570      	push	{r4, r5, r6, lr}
    8ad8:	1ccd      	adds	r5, r1, #3
    8ada:	439d      	bics	r5, r3
    8adc:	3508      	adds	r5, #8
    8ade:	0006      	movs	r6, r0
    8ae0:	2d0c      	cmp	r5, #12
    8ae2:	d21e      	bcs.n	8b22 <_malloc_r+0x4e>
    8ae4:	250c      	movs	r5, #12
    8ae6:	42a9      	cmp	r1, r5
    8ae8:	d81d      	bhi.n	8b26 <_malloc_r+0x52>
    8aea:	0030      	movs	r0, r6
    8aec:	f000 f888 	bl	8c00 <__malloc_lock>
    8af0:	4a25      	ldr	r2, [pc, #148]	; (8b88 <_malloc_r+0xb4>)
    8af2:	6814      	ldr	r4, [r2, #0]
    8af4:	0021      	movs	r1, r4
    8af6:	2900      	cmp	r1, #0
    8af8:	d119      	bne.n	8b2e <_malloc_r+0x5a>
    8afa:	4c24      	ldr	r4, [pc, #144]	; (8b8c <_malloc_r+0xb8>)
    8afc:	6823      	ldr	r3, [r4, #0]
    8afe:	2b00      	cmp	r3, #0
    8b00:	d103      	bne.n	8b0a <_malloc_r+0x36>
    8b02:	0030      	movs	r0, r6
    8b04:	f000 f86a 	bl	8bdc <_sbrk_r>
    8b08:	6020      	str	r0, [r4, #0]
    8b0a:	0029      	movs	r1, r5
    8b0c:	0030      	movs	r0, r6
    8b0e:	f000 f865 	bl	8bdc <_sbrk_r>
    8b12:	1c43      	adds	r3, r0, #1
    8b14:	d12c      	bne.n	8b70 <_malloc_r+0x9c>
    8b16:	230c      	movs	r3, #12
    8b18:	0030      	movs	r0, r6
    8b1a:	6033      	str	r3, [r6, #0]
    8b1c:	f000 f871 	bl	8c02 <__malloc_unlock>
    8b20:	e003      	b.n	8b2a <_malloc_r+0x56>
    8b22:	2d00      	cmp	r5, #0
    8b24:	dadf      	bge.n	8ae6 <_malloc_r+0x12>
    8b26:	230c      	movs	r3, #12
    8b28:	6033      	str	r3, [r6, #0]
    8b2a:	2000      	movs	r0, #0
    8b2c:	bd70      	pop	{r4, r5, r6, pc}
    8b2e:	680b      	ldr	r3, [r1, #0]
    8b30:	1b5b      	subs	r3, r3, r5
    8b32:	d41a      	bmi.n	8b6a <_malloc_r+0x96>
    8b34:	2b0b      	cmp	r3, #11
    8b36:	d903      	bls.n	8b40 <_malloc_r+0x6c>
    8b38:	600b      	str	r3, [r1, #0]
    8b3a:	18cc      	adds	r4, r1, r3
    8b3c:	6025      	str	r5, [r4, #0]
    8b3e:	e003      	b.n	8b48 <_malloc_r+0x74>
    8b40:	428c      	cmp	r4, r1
    8b42:	d10e      	bne.n	8b62 <_malloc_r+0x8e>
    8b44:	6863      	ldr	r3, [r4, #4]
    8b46:	6013      	str	r3, [r2, #0]
    8b48:	0030      	movs	r0, r6
    8b4a:	f000 f85a 	bl	8c02 <__malloc_unlock>
    8b4e:	0020      	movs	r0, r4
    8b50:	2207      	movs	r2, #7
    8b52:	300b      	adds	r0, #11
    8b54:	1d23      	adds	r3, r4, #4
    8b56:	4390      	bics	r0, r2
    8b58:	1ac3      	subs	r3, r0, r3
    8b5a:	d0e7      	beq.n	8b2c <_malloc_r+0x58>
    8b5c:	425a      	negs	r2, r3
    8b5e:	50e2      	str	r2, [r4, r3]
    8b60:	e7e4      	b.n	8b2c <_malloc_r+0x58>
    8b62:	684b      	ldr	r3, [r1, #4]
    8b64:	6063      	str	r3, [r4, #4]
    8b66:	000c      	movs	r4, r1
    8b68:	e7ee      	b.n	8b48 <_malloc_r+0x74>
    8b6a:	000c      	movs	r4, r1
    8b6c:	6849      	ldr	r1, [r1, #4]
    8b6e:	e7c2      	b.n	8af6 <_malloc_r+0x22>
    8b70:	2303      	movs	r3, #3
    8b72:	1cc4      	adds	r4, r0, #3
    8b74:	439c      	bics	r4, r3
    8b76:	42a0      	cmp	r0, r4
    8b78:	d0e0      	beq.n	8b3c <_malloc_r+0x68>
    8b7a:	1a21      	subs	r1, r4, r0
    8b7c:	0030      	movs	r0, r6
    8b7e:	f000 f82d 	bl	8bdc <_sbrk_r>
    8b82:	1c43      	adds	r3, r0, #1
    8b84:	d1da      	bne.n	8b3c <_malloc_r+0x68>
    8b86:	e7c6      	b.n	8b16 <_malloc_r+0x42>
    8b88:	200053c0 	.word	0x200053c0
    8b8c:	200053c4 	.word	0x200053c4

00008b90 <_realloc_r>:
    8b90:	b5f8      	push	{r3, r4, r5, r6, r7, lr}
    8b92:	0007      	movs	r7, r0
    8b94:	000d      	movs	r5, r1
    8b96:	0016      	movs	r6, r2
    8b98:	2900      	cmp	r1, #0
    8b9a:	d105      	bne.n	8ba8 <_realloc_r+0x18>
    8b9c:	0011      	movs	r1, r2
    8b9e:	f7ff ff99 	bl	8ad4 <_malloc_r>
    8ba2:	0004      	movs	r4, r0
    8ba4:	0020      	movs	r0, r4
    8ba6:	bdf8      	pop	{r3, r4, r5, r6, r7, pc}
    8ba8:	2a00      	cmp	r2, #0
    8baa:	d103      	bne.n	8bb4 <_realloc_r+0x24>
    8bac:	f7ff ff48 	bl	8a40 <_free_r>
    8bb0:	0034      	movs	r4, r6
    8bb2:	e7f7      	b.n	8ba4 <_realloc_r+0x14>
    8bb4:	f000 f826 	bl	8c04 <_malloc_usable_size_r>
    8bb8:	002c      	movs	r4, r5
    8bba:	4286      	cmp	r6, r0
    8bbc:	d9f2      	bls.n	8ba4 <_realloc_r+0x14>
    8bbe:	0031      	movs	r1, r6
    8bc0:	0038      	movs	r0, r7
    8bc2:	f7ff ff87 	bl	8ad4 <_malloc_r>
    8bc6:	1e04      	subs	r4, r0, #0
    8bc8:	d0ec      	beq.n	8ba4 <_realloc_r+0x14>
    8bca:	0029      	movs	r1, r5
    8bcc:	0032      	movs	r2, r6
    8bce:	f7ff fbbd 	bl	834c <memcpy>
    8bd2:	0029      	movs	r1, r5
    8bd4:	0038      	movs	r0, r7
    8bd6:	f7ff ff33 	bl	8a40 <_free_r>
    8bda:	e7e3      	b.n	8ba4 <_realloc_r+0x14>

00008bdc <_sbrk_r>:
    8bdc:	2300      	movs	r3, #0
    8bde:	b570      	push	{r4, r5, r6, lr}
    8be0:	4c06      	ldr	r4, [pc, #24]	; (8bfc <_sbrk_r+0x20>)
    8be2:	0005      	movs	r5, r0
    8be4:	0008      	movs	r0, r1
    8be6:	6023      	str	r3, [r4, #0]
    8be8:	f7fc fbc6 	bl	5378 <_sbrk>
    8bec:	1c43      	adds	r3, r0, #1
    8bee:	d103      	bne.n	8bf8 <_sbrk_r+0x1c>
    8bf0:	6823      	ldr	r3, [r4, #0]
    8bf2:	2b00      	cmp	r3, #0
    8bf4:	d000      	beq.n	8bf8 <_sbrk_r+0x1c>
    8bf6:	602b      	str	r3, [r5, #0]
    8bf8:	bd70      	pop	{r4, r5, r6, pc}
    8bfa:	46c0      	nop			; (mov r8, r8)
    8bfc:	20005430 	.word	0x20005430

00008c00 <__malloc_lock>:
    8c00:	4770      	bx	lr

00008c02 <__malloc_unlock>:
    8c02:	4770      	bx	lr

00008c04 <_malloc_usable_size_r>:
    8c04:	1f0b      	subs	r3, r1, #4
    8c06:	681b      	ldr	r3, [r3, #0]
    8c08:	1f18      	subs	r0, r3, #4
    8c0a:	2b00      	cmp	r3, #0
    8c0c:	da01      	bge.n	8c12 <_malloc_usable_size_r+0xe>
    8c0e:	580b      	ldr	r3, [r1, r0]
    8c10:	18c0      	adds	r0, r0, r3
    8c12:	4770      	bx	lr
    8c14:	00000002 	.word	0x00000002
    8c18:	00000003 	.word	0x00000003
    8c1c:	00000028 	.word	0x00000028
    8c20:	00000029 	.word	0x00000029
    8c24:	00000004 	.word	0x00000004
    8c28:	00000005 	.word	0x00000005
    8c2c:	00000006 	.word	0x00000006
    8c30:	00000007 	.word	0x00000007
    8c34:	0000ffff 	.word	0x0000ffff
    8c38:	0000ffff 	.word	0x0000ffff
    8c3c:	00000022 	.word	0x00000022
    8c40:	00000023 	.word	0x00000023
    8c44:	0000ffff 	.word	0x0000ffff
    8c48:	0000ffff 	.word	0x0000ffff
    8c4c:	0000ffff 	.word	0x0000ffff
    8c50:	0000ffff 	.word	0x0000ffff
    8c54:	00000008 	.word	0x00000008
    8c58:	00000009 	.word	0x00000009
    8c5c:	0000000a 	.word	0x0000000a
    8c60:	0000000b 	.word	0x0000000b

00008c64 <sht75_crc_table>:
    8c64:	53623100 97a6f5c4 eadb88b9 2e1f4c7d     .1bS........}L..
    8c74:	10217243 d4e5b687 a998cbfa 6d5c0f3e     Cr!.........>.\m
    8c84:	d5e4b786 11207342 6c5d0e3f a899cafb     ....Bs .?.]l....
    8c94:	96a7f4c5 52633001 2f1e4d7c ebda89b8     .....0cR|M./....
    8ca4:	6e5f0c3d aa9bc8f9 d7e6b584 13227140     =._n........@q".
    8cb4:	2d1c4f7e e9d88bba 94a5f6c7 50613203     ~O.-.........2aP
    8cc4:	e8d98abb 2c1d4e7f 51603302 95a4f7c6     .....N.,.3`Q....
    8cd4:	ab9ac9f8 6f5e0d3c 12237041 d6e7b485     ....<.^oAp#.....
    8ce4:	29184b7a eddc8fbe 90a1f2c3 54653607     zK.).........6eT
    8cf4:	6a5b0839 ae9fccfd d3e2b180 17267544     9.[j........Du&.
    8d04:	af9ecdfc 6b5a0938 16277445 d2e3b081     ....8.ZkEt'.....
    8d14:	ecdd8ebf 28194a7b 55643706 91a0f3c2     ....{J.(.7dU....
    8d24:	14257647 d0e1b283 ad9ccffe 69580b3a     Gv%.........:.Xi
    8d34:	57663504 93a2f1c0 eedf8cbd 2a1b4879     .5fW........yH.*
    8d44:	92a3f0c1 56673405 2b1a4978 efde8dbc     .....4gVxI.+....
    8d54:	d1e0b382 15247746 68590a3b ac9dceff     ....Fw$.;.Yh....
    8d64:	20776f4c 74736f43 6e655620 616c6974     Low Cost Ventila
    8d74:	00726f74 4f525245 003a5352 574f4c46     tor.ERRORS:.FLOW
    8d84:	45525000 4e532053 4f4d0053 41462054     .PRES SNS.MOT FA
    8d94:	4d004c49 5420544f 00504d45 54544553     IL.MOT TEMP.SETT
    8da4:	414f4c20 20500044 45534952 4e455600      LOAD.P RISE.VEN
    8db4:	4e4f3a54 4e455600 464f3a54 3a560046     T:ON.VENT:OFF.V:
    8dc4:	6c6d6925 3a454900 252e6925 00313a69     %iml.IE:%i.%i:1.
    8dd4:	20544553 3a4d5042 53006925 50205445     SET BPM:%i.SET P
    8de4:	3a504545 6d636925 00303248 20544553     EEP:%icmH20.SET 
    8df4:	3a504950 6d636925 00303248 20544553     PIP:%icmH20.SET 
    8e04:	3a453a49 2e692520 313a6925 4e4f4300     I:E: %i.%i:1.CON
    8e14:	4c4f5254 494d4800 43324900 52435300     TROL.HMI.I2C.SCR
    8e24:	5f4e4545 004d4954 45524353 435f4e45     EEN_TIM.SCREEN_C
    8e34:	49004748 545f4332 4f454d49 4d005455     HG.I2C_TIMEOUT.M
    8e44:	54494e4f 5300524f 4f534e45 49540052     ONITOR.SENSOR.TI
    8e54:	564c4144 4c444900 6d540045 54005172     DALV.IDLE.TmrQ.T
    8e64:	5320726d 00006376 42000800 42000c00     mr Svc.....B...B
    8e74:	42001000 42001400 42001800 42001c00     ...B...B...B...B
    8e84:	00005d3c 00005d0c 00005d1e 00005c60     <]...]...]..`\..
    8e94:	00005d1e 00005d02 00005d1e 00005c60     .]...]...]..`\..
    8ea4:	00005d0c 00005d0c 00005d02 00005c60     .]...]...]..`\..
    8eb4:	00005c68 00005c68 00005c68 00005d24     h\..h\..h\..$]..
    8ec4:	00005d0c 00005d0c 00005ce0 00005dc4     .]...]...\...]..
    8ed4:	00005ce0 00005d02 00005ce0 00005dc4     .\...]...\...]..
    8ee4:	00005d0c 00005d0c 00005d02 00005dc4     .]...]...]...]..
    8ef4:	00005c68 00005c68 00005c68 00005dce     h\..h\..h\...]..
    8f04:	000060bc 0000600c 0000600c 0000600a     .`...`...`...`..
    8f14:	000060ae 000060ae 000060a4 0000600a     .`...`...`...`..
    8f24:	000060ae 000060a4 000060ae 0000600a     .`...`...`...`..
    8f34:	000060b4 000060b4 000060b4 00006144     .`...`...`..Da..
    8f44:	00006e00 00006de2 00006d9c 00006cba     .n...m...m...l..
    8f54:	00006d9c 00006dd4 00006d9c 00006cba     .m...m...m...l..
    8f64:	00006de2 00006de2 00006dd4 00006cba     .m...m...m...l..
    8f74:	00006cb2 00006cb2 00006cb2 00007018     .l...l...l...p..
    8f84:	00007660 00007520 00007520 0000751c     `v.. u.. u...u..
    8f94:	00007638 00007638 0000762a 0000751c     8v..8v..*v...u..
    8fa4:	00007638 0000762a 00007638 0000751c     8v..*v..8v...u..
    8fb4:	00007640 00007640 00007640 00007844     @v..@v..@v..Dx..
    8fc4:	2b302d23 6c680020 6665004c 47464567     #-0+ .hlL.efgEFG
    8fd4:	32313000 36353433 41393837 45444342     .0123456789ABCDE
    8fe4:	31300046 35343332 39383736 64636261     F.0123456789abcd
    8ff4:	00006665                                ef..

00008ff8 <_init>:
    8ff8:	b5f8      	push	{r3, r4, r5, r6, r7, lr}
    8ffa:	46c0      	nop			; (mov r8, r8)
    8ffc:	bcf8      	pop	{r3, r4, r5, r6, r7}
    8ffe:	bc08      	pop	{r3}
    9000:	469e      	mov	lr, r3
    9002:	4770      	bx	lr

00009004 <__init_array_start>:
    9004:	000000dd 	.word	0x000000dd

00009008 <_fini>:
    9008:	b5f8      	push	{r3, r4, r5, r6, r7, lr}
    900a:	46c0      	nop			; (mov r8, r8)
    900c:	bcf8      	pop	{r3, r4, r5, r6, r7}
    900e:	bc08      	pop	{r3}
    9010:	469e      	mov	lr, r3
    9012:	4770      	bx	lr

00009014 <__fini_array_start>:
    9014:	000000b5 	.word	0x000000b5

Disassembly of section .relocate:

20000000 <portable_delay_cycles>:
20000000:	f3bf 8f5f 	dmb	sy
20000004:	3801      	subs	r0, #1
20000006:	2800      	cmp	r0, #0
20000008:	d1fa      	bne.n	20000000 <portable_delay_cycles>
2000000a:	4770      	bx	lr

2000000c <uxCriticalNesting>:
2000000c:	aaaa aaaa                                   ....

20000010 <cursor_set.14310>:
20000010:	45fe fe00                                        .E.

20000013 <on_screen_buffer.14273>:
20000013:	41fe                                        .A

20000015 <settings_changed>:
20000015:	0101                                             .

20000016 <display_main_page>:
20000016:	0101                                             .

20000017 <rising.14201>:
20000017:	0101                                             .

20000018 <g_interrupt_enabled>:
20000018:	0001 0000                                   ....

2000001c <_impure_ptr>:
2000001c:	0020 2000                                    .. 

20000020 <impure_data>:
	...
